ccopy_reg
_reconstructor
p0
(c__main__
ProductRecord
p1
c__builtin__
object
p2
Ntp3
Rp4
(dp5
S'product_url'
p6
S'http://www.walmart.com/ip/11-6-Convertible-Touchscreen-Laptop-Windows-10-Home-Office-365-Personal-1-Year-Subscription-Included-69-99-Value-Intel-Processor-32GB-storage-Front-c/56123862'
p7
sS'price'
p8
S'N/A'
p9
sS'properties'
p10
(dp11
VRAM Memory
p12
V32 KB
p13
sVOperating System
p14
VMicrosoft Windows
p15
sVColor Category
p16
VSilver
p17
sVLaptop Computer Type
p18
VTouchscreen
p19
sVBrand
p20
VDirekt-Tek
p21
sVManufacturer Part Number
p22
VDTLAPY116-1-SL
p23
sVModel
p24
VDTLAPY116-1-SL
p25
sVScreen Size
p26
V11.6
p27
sVCondition
p28
VNew
p29
sVManufacturer
p30
VDirekt-Tek
p31
ssS'title'
p32
V11.6" Convertible Touchscreen Laptop, Windows 10 Home, Office 365 Personal 1-Year Subscription Included ($69.99 Value), Intel Processor, 32GB storage, Front camera with 8 hour battery
p33
sb.