ccopy_reg
_reconstructor
p0
(c__main__
ProductRecord
p1
c__builtin__
object
p2
Ntp3
Rp4
(dp5
S'product_url'
p6
S'http://www.walmart.com/ip/HP-Chromebook-14-G5-Celeron-N3350-1-1-GHz-Chrome-OS-4-GB-RAM-32-GB-eMMC-14-TN-touchscreen-1366-x-768-HD-HD-Graphics-500-Wi-Fi-Bluetooth-kbd-US-promo/541900683'
p7
sS'price'
p8
S'N/A'
p9
sS'properties'
p10
(dp11
VRAM Memory
p12
V4 GB
p13
sVOperating System
p14
VChrome OS
p15
sVBrand
p16
VHP
p17
sVHard Drive Capacity
p18
V32 GB
p19
sVModel
p20
V14 G5
p21
sVScreen Size
p22
V14\u005c"
p23
sVProcessor Type
p24
VIntel Celeron
p25
sVCondition
p26
VNew
p27
sVmanufacturer_part_number
p28
Vcb14g5
p29
ssS'title'
p30
VHP Chromebook 14 G5 - Celeron N3350 / 1.1 GHz - Chrome OS - 4 GB RAM - 32 GB eMMC - 14" TN touchscreen 1366 x 768 (HD) - HD Graphics 500 - Wi-Fi, Bluetooth - kbd: US - promo
p31
sb.