ccopy_reg
_reconstructor
p0
(c__main__
ProductRecord
p1
c__builtin__
object
p2
Ntp3
Rp4
(dp5
S'product_url'
p6
S'http://www.walmart.com/ip/Refurbished-Dell-Inspiron-15R-I15RMT-5100SLV-15-6-Inch-Touchscreen-Laptop-1-6-GHz-Intel-Core-i5-4200U-Processor-6-GB-DDR3L-500-GB-HDD-Wi/272403036'
p7
sS'price'
p8
S'N/A'
p9
sS'properties'
p10
(dp11
VBrand
p12
VDell
p13
sVScreen Size
p14
V15.6
p15
sVHard Drive Capacity
p16
V500
p17
sVmanufacturer_part_number
p18
Vi15rmt-5100slv
p19
ssS'title'
p20
VRefurbished Dell Inspiron 15R I15RMT-5100SLV 15.6-Inch Touchscreen Laptop (1.6 GHz Intel Core i5-4200U Processor, 6 GB DDR3L, 500 GB HDD, Wi
p21
sb.