ccopy_reg
_reconstructor
p0
(c__main__
ProductRecord
p1
c__builtin__
object
p2
Ntp3
Rp4
(dp5
S'product_url'
p6
S'http://www.walmart.com/ip/ASUS-90NB04Y2-M04170-Asus-ZENBOOK-UX303LA-DS51T-13-3-Touchscreen-In-plane-Switching-IPS-Technology-Ultrabook-Intel-Core-i5-i5-5200U-2-20-GHz-Smoky-Br/43310430'
p7
sS'price'
p8
S'N/A'
p9
sS'properties'
p10
(dp11
VRAM Memory
p12
V8 GB
p13
sVOperating System
p14
VWindows 8
p15
sVVideo Game Platform
p16
VPC
p17
sVBrand
p18
VASUS
p19
sVProcessor Speed
p20
V2.2 GHz
p21
sVManufacturer Part Number
p22
VUX303LA-DS51T
p23
sVMaximum RAM Supported
p24
V12 GB
p25
sVHard Drive Capacity
p26
V128 GB
p27
sVBattery Life
p28
V7 hours
p29
sVAssembled Product Dimensions (L x W x H)
p30
V12.70 x 8.80 x 0.80 Inches
p31
sVModel
p32
VDS51T
p33
sVScreen Size
p34
V13.3"
p35
sVProcessor Type
p36
VIntel Core i5
p37
sVCondition
p38
VNew
p39
ssS'title'
p40
VASUS 90NB04Y2-M04170 Asus ZENBOOK UX303LA-DS51T 13.3" Touchscreen (In-plane Switching (IPS) Technology) Ultrabook - Intel Core i5 i5-5200U 2.20 GHz - Smoky Brown
p41
sb.