ccopy_reg
_reconstructor
p0
(c__main__
ProductRecord
p1
c__builtin__
object
p2
Ntp3
Rp4
(dp5
S'product_url'
p6
S'http://www.walmart.com/ip/Dell-refurbished-E7440-Inter-Core-7th-8GB-Ram-256-SSD-Full-HD-Touch-Screen-Gray-Windows10/972576068'
p7
sS'price'
p8
S'N/A'
p9
sS'properties'
p10
(dp11
VOperating System
p12
VWindows 10
p13
sVBrand
p14
VDell
p15
sVRAM Memory
p16
V8 GB
p17
sVScreen Size
p18
V14.1 in
p19
sVHard Drive Capacity
p20
V256 GB
p21
ssS'title'
p22
VDell refurbished E7440 Inter Core 7th 8GB Ram 256 SSD Full HD Touch Screen Gray Windows10
p23
sb.