ccopy_reg
_reconstructor
p0
(c__main__
ProductRecord
p1
c__builtin__
object
p2
Ntp3
Rp4
(dp5
S'product_url'
p6
S'http://www.walmart.com/ip/HP-15-ba083nr-Notebook-15-6-LED-Backlight-Touchscreen-Display-X0H94UA-ABA/866247223'
p7
sS'price'
p8
S'N/A'
p9
sS'properties'
p10
(dp11
VOperating System
p12
VMicrosoft Windows
p13
sVBrand
p14
VHP
p15
sVScreen Size
p16
V15.6\u005c"
p17
ssS'title'
p18
VHP 15-ba083nr Notebook 15.6" LED Backlight Touchscreen Display (X0H94UA#ABA)
p19
sb.