ccopy_reg
_reconstructor
p0
(c__main__
ProductRecord
p1
c__builtin__
object
p2
Ntp3
Rp4
(dp5
S'product_url'
p6
S'http://www.walmart.com/ip/Refurbished-Dell-Chromebook-3189-11-6-Touchscreen-LCD-2-1-Chromebook-Intel-Celeron-N3060-Dual-core-2-Core-1-60-GHz-4-GB-LPDDR3-32-GB-SSD-Chrome-OS-13/666758464'
p7
sS'price'
p8
S'N/A'
p9
sS'properties'
p10
(dp11
sS'title'
p12
VRefurbished Dell Chromebook 3189 11.6" Touchscreen LCD 2 in 1 Chromebook - Intel Celeron N3060 Dual-core (2 Core) 1.60 GHz - 4 GB LPDDR3 - 32 GB SSD - Chrome OS - 1366 x 768 - In-plane Switching
p13
sb.