ccopy_reg
_reconstructor
p0
(c__main__
ProductRecord
p1
c__builtin__
object
p2
Ntp3
Rp4
(dp5
S'product_url'
p6
S'http://www.walmart.com/ip/Microsoft-Surface-Book-13-5-Core-i7-6600U-16-GB-RAM-512-GB-SSD-English-North-America/50007520'
p7
sS'price'
p8
S'N/A'
p9
sS'properties'
p10
(dp11
VRAM Memory
p12
V16 Gigabytes
p13
sVOperating System
p14
VWindows 10
p15
sVVideo Game Platform
p16
VPC
p17
sVBrand
p18
VMicrosoft
p19
sVProcessor Speed
p20
V2.6 Gigahertz
p21
sVManufacturer Part Number
p22
VSW6-00001
p23
sVMaximum RAM Supported
p24
V16 GB
p25
sVHard Drive Capacity
p26
V512 Gigabytes
p27
sVBattery Life
p28
V12 hours
p29
sVAssembled Product Dimensions (L x W x H)
p30
V5.00 x 5.00 x 5.00 Inches
p31
sVModel
p32
VSW6-00001
p33
sVScreen Size
p34
V13.5 in
p35
sVProcessor Type
p36
VIntel i7-6600U
p37
sVCondition
p38
VNew
p39
ssS'title'
p40
VMicrosoft Surface Book - 13.5" - Core i7 6600U - 16 GB RAM - 512 GB SSD - English - North America
p41
sb.