ccopy_reg
_reconstructor
p0
(c__main__
ProductRecord
p1
c__builtin__
object
p2
Ntp3
Rp4
(dp5
S'product_url'
p6
S'http://www.walmart.com/ip/Manufacturer-Refurbished-Asus-UX370UA-XB74T-BL-13-3-Touch-Laptop-Intel-i7-7500U-2-7GHz-16GB-512GB-W10/371137240'
p7
sS'price'
p8
S'N/A'
p9
sS'properties'
p10
(dp11
VRAM Memory
p12
V16 GB
p13
sVOperating System
p14
VMicrosoft Windows
p15
sVBrand
p16
VASUS
p17
sVManufacturer Part Number
p18
VUX370UA-XB74T-BL-RF
p19
sVModel
p20
VUX370UA-XB74T-BL-RF
p21
sVScreen Size
p22
V13.3\u005c"
p23
ssS'title'
p24
VManufacturer Refurbished - Asus UX370UA-XB74T-BL 13.3" Touch Laptop Intel i7-7500U 2.7GHz 16GB 512GB W10
p25
sb.