ccopy_reg
_reconstructor
p0
(c__main__
ProductRecord
p1
c__builtin__
object
p2
Ntp3
Rp4
(dp5
S'product_url'
p6
S'http://www.walmart.com/ip/Manufacturer-Refurbished-HP-11-EE-G1-11-6-Touchscreen-Laptop-Intel-Core-i3-5005U-2GHz-4GB-500GB-WIN10/999777879'
p7
sS'price'
p8
S'N/A'
p9
sS'properties'
p10
(dp11
VRAM Memory
p12
V4 GB
p13
sVOperating System
p14
VMicrosoft Windows
p15
sVBrand
p16
VHP
p17
sVManufacturer Part Number
p18
V11 EE G1-RF
p19
sVHard Drive Capacity
p20
V500 GB
p21
sVModel
p22
V11 EE G1-RF
p23
sVScreen Size
p24
V11.6\u005c"
p25
ssS'title'
p26
VManufacturer Refurbished - HP 11 EE G1 11.6" Touchscreen Laptop Intel Core i3-5005U 2GHz 4GB 500GB WIN10
p27
sb.