ccopy_reg
_reconstructor
p0
(c__main__
ProductRecord
p1
c__builtin__
object
p2
Ntp3
Rp4
(dp5
S'product_url'
p6
S'http://www.walmart.com/ip/Refurbished-Lenovo-ThinkPad-Yoga-11e-20DU-11-6-Chromebook-4GB-16GB-SSD-Tablet-20DU0008US/877477528'
p7
sS'price'
p8
S'N/A'
p9
sS'properties'
p10
(dp11
VRAM Memory
p12
V4 GB
p13
sVOperating System
p14
VChrome OS
p15
sVBrand
p16
VLenovo
p17
sVManufacturer Part Number
p18
V20DU0008US-C
p19
sVHard Drive Capacity
p20
V16 GB
p21
sVModel
p22
VThinkPad 11e
p23
sVScreen Size
p24
V11.6\u005c"
p25
ssS'title'
p26
VRefurbished Lenovo ThinkPad Yoga 11e 20DU 11.6" Chromebook 4GB 16GB SSD Tablet 20DU0008US
p27
sb.