ccopy_reg
_reconstructor
p0
(c__main__
ProductRecord
p1
c__builtin__
object
p2
Ntp3
Rp4
(dp5
S'product_url'
p6
S'http://www.walmart.com/ip/HP-Pavilion-15-cd075nr-Laptop-15-6-Touch-A12-9720P-8G-RAM-1T-HDD-Gold-Windows10/583772513'
p7
sS'price'
p8
S'N/A'
p9
sS'properties'
p10
(dp11
VRAM Memory
p12
V8 GB
p13
sVOperating System
p14
VWindows 10
p15
sVBrand
p16
VHP
p17
sVProcessor Speed
p18
V2.7 GHz
p19
sVHard Drive Capacity
p20
V1 TB
p21
sVModel
p22
V1KU40UA#ABA
p23
sVScreen Size
p24
V15.6 in
p25
sVProcessor Type
p26
VA12, AMD
p27
ssS'title'
p28
VHP Pavilion 15-cd075nr Laptop 15.6" Touch A12-9720P 8G RAM 1T HDD Gold Windows10
p29
sb.