ccopy_reg
_reconstructor
p0
(c__main__
ProductRecord
p1
c__builtin__
object
p2
Ntp3
Rp4
(dp5
S'product_url'
p6
S'http://www.walmart.com/ip/Acer-Spin-5-SP513-51-34UA-13-3-Core-i3-6006U-4-GB-RAM-128-GB-SSD-US-International/420540648'
p7
sS'price'
p8
S'N/A'
p9
sS'properties'
p10
(dp11
VRAM Memory
p12
V4 Gigabytes
p13
sVOperating System
p14
VWindows 10
p15
sVFeatures
p16
VWINDOWS 10 HOME INTEL CORE I3-6006U 3MB INTEL SMART CACHE, 2.0GHZ 16GB RAM 128GB
p17
sVVideo Game Platform
p18
VPC
p19
sVBrand
p20
VAcer
p21
sVProcessor Speed
p22
V2 Gigahertz
p23
sVManufacturer Part Number
p24
VNX.GK4AA.017
p25
sVMaximum RAM Supported
p26
V16 Gigabytes
p27
sVHard Drive Capacity
p28
V128 Gigabytes
p29
sVBattery Life
p30
V0 h
p31
sVAssembled Product Dimensions (L x W x H)
p32
V5.00 x 5.00 x 5.00 Inches
p33
sVModel
p34
VNX.GK4AA.017
p35
sVScreen Size
p36
V13.30 Inches
p37
sVProcessor Type
p38
VIntel i3-6006U
p39
sVCondition
p40
VNew
p41
ssS'title'
p42
VAcer Spin 5 SP513-51-34UA - 13.3" - Core i3 6006U - 4 GB RAM - 128 GB SSD - US International
p43
sb.