ccopy_reg
_reconstructor
p0
(c__main__
ProductRecord
p1
c__builtin__
object
p2
Ntp3
Rp4
(dp5
S'product_url'
p6
S'http://www.walmart.com/ip/HP-ELITEBOOK-X360-1030-G2-LAPTOP-13-3-TOUCHSCREEN-INTEL-CORE-I7-7600U-2-8GHZ-16-GB-RAM-256GB-SSD-INTEL-HD-GRAPHICS-620-WINDOWS-10-HOME-Certified-Refu/672156989'
p7
sS'price'
p8
S'N/A'
p9
sS'properties'
p10
(dp11
VRAM Memory
p12
V16 GB
p13
sVOperating System
p14
VWindows 10
p15
sVBrand
p16
VHP
p17
sVManufacturer Part Number
p18
VX3U21AV.RB
p19
sVHard Drive Capacity
p20
V256 GB
p21
sVModel
p22
VX3U21AV.RB
p23
sVScreen Size
p24
V13.3\u005c"
p25
sVProcessor Type
p26
VINTEL CORE I7-7600U
p27
ssS'title'
p28
VHP ELITEBOOK X360 1030 G2 LAPTOP, 13.3" TOUCHSCREEN, INTEL CORE I7-7600U @2.8GHZ, 16 GB RAM, 256GB SSD, INTEL HD GRAPHICS 620, WINDOWS 10 HOME (Certified Refurbished)
p29
sb.