ccopy_reg
_reconstructor
p0
(c__main__
ProductRecord
p1
c__builtin__
object
p2
Ntp3
Rp4
(dp5
S'product_url'
p6
S'http://www.walmart.com/ip/Refurbished-IdeaPad-Yoga-13-Touchscreen-Laptop-Intel-Core-i3-3337U-1-8GHz-4GB-128GB-13-3in-W8/196504758'
p7
sS'price'
p8
S'N/A'
p9
sS'properties'
p10
(dp11
VBrand
p12
VLenovo
p13
sVHard Drive Capacity
p14
V128
p15
ssS'title'
p16
VRefurbished IdeaPad Yoga 13 Touchscreen Laptop Intel Core i3-3337U 1.8GHz 4GB 128GB 13.3in W8
p17
sb.