ccopy_reg
_reconstructor
p0
(c__main__
ProductRecord
p1
c__builtin__
object
p2
Ntp3
Rp4
(dp5
S'product_url'
p6
S'http://www.walmart.com/ip/Lenovo-Flex-5-1470-14-FHD-Touchscreen-Laptop-i7-8550U-8GB-256GB-SSD-Win10/157061793'
p7
sS'price'
p8
S'N/A'
p9
sS'properties'
p10
(dp11
VRAM Memory
p12
V8 GB
p13
sVOperating System
p14
VMicrosoft Windows
p15
sVBrand
p16
VLenovo
p17
sVManufacturer Part Number
p18
V81CA000FUS
p19
sVHard Drive Capacity
p20
V256 GB
p21
sVModel
p22
V81CA
p23
sVScreen Size
p24
V14\u005c"
p25
sVProcessor Type
p26
VIntel Core i7
p27
sVCondition
p28
VNew
p29
ssS'title'
p30
VLenovo Flex 5 1470 14" FHD Touchscreen Laptop i7-8550U 8GB 256GB SSD Win10
p31
sb.