ccopy_reg
_reconstructor
p0
(c__main__
ProductRecord
p1
c__builtin__
object
p2
Ntp3
Rp4
(dp5
S'product_url'
p6
S'http://www.walmart.com/ip/ASUS-Chromebook-Flip-C302CA-DH54-90NB0DF1-M01360-12-5-inch-Touchscreen-Intel-Core-m5-6Y54-1-1GHz-4GB-LPDDR3-64GB-eMMC-TPM-Chrome-Notebook-Silver/603284111'
p7
sS'price'
p8
S'N/A'
p9
sS'properties'
p10
(dp11
VBrand
p12
VASUS
p13
sVRAM Memory
p14
V4 GB
p15
sVCondition
p16
VNew
p17
ssS'title'
p18
VASUS Chromebook Flip C302CA-DH54/90NB0DF1-M01360 12.5 inch Touchscreen Intel Core m5-6Y54 1.1GHz/ 4GB LPDDR3/ 64GB eMMC + TPM/ Chrome Notebook (Silver)
p19
sb.