ccopy_reg
_reconstructor
p0
(c__main__
ProductRecord
p1
c__builtin__
object
p2
Ntp3
Rp4
(dp5
S'product_url'
p6
S'http://www.walmart.com/ip/Lenovo-14-Touch-Screen-Laptop-Intel-Pentium-4GB-Memory-500GB-Hard-Drive-Black-Tablet-PC-Computer-Notebook-Touchscreen-81CW0000US/550482430'
p7
sS'price'
p8
S'N/A'
p9
sS'properties'
p10
(dp11
VRAM Memory
p12
V4 GB
p13
sVOperating System
p14
VMicrosoft Windows
p15
sVBrand
p16
VLenovo
p17
sVHard Drive Capacity
p18
V500 GB
p19
sVScreen Size
p20
V14\u005c"
p21
sVmanufacturer_part_number
p22
V81cw0000us
p23
ssS'title'
p24
VLenovo - 14" Touch-Screen Laptop - Intel Pentium - 4GB Memory - 500GB Hard Drive - Black Tablet PC Computer Notebook Touchscreen 81CW0000US
p25
sb.