ccopy_reg
_reconstructor
p0
(c__main__
ProductRecord
p1
c__builtin__
object
p2
Ntp3
Rp4
(dp5
S'product_url'
p6
S'http://www.walmart.com/ip/Refurbished-HP-ENVY-17-S030NR-P4W32UAR-ABA-Envy-17-s030nr-Notebook/594310224'
p7
sS'price'
p8
S'N/A'
p9
sS'properties'
p10
(dp11
VBrand
p12
VHP
p13
sVmanufacturer_part_number
p14
V17-s030nr
p15
ssS'title'
p16
VRefurbished HP ENVY 17-S030NR P4W32UAR-ABA Envy 17-s030nr Notebook
p17
sb.