ccopy_reg
_reconstructor
p0
(c__main__
ProductRecord
p1
c__builtin__
object
p2
Ntp3
Rp4
(dp5
S'product_url'
p6
S'http://www.walmart.com/ip/HP-Chromebook-x360-11-G1-EE-Celeron-N3450-4-GB-32-GB-11-6-Touch-screen-Google-Chrome-OS-Notebook/786414490'
p7
sS'price'
p8
S'N/A'
p9
sS'properties'
p10
(dp11
VRAM Memory
p12
V4 KB
p13
sVOperating System
p14
VChrome OS
p15
sVBrand
p16
VHP
p17
sVProcessor Speed
p18
V1.1 Hz
p19
sVManufacturer Part Number
p20
V2HW32UT#ABA
p21
sVHard Drive Capacity
p22
V32 KB
p23
sVBattery Life
p24
V0 h
p25
sVAssembled Product Dimensions (L x W x H)
p26
V12.00 x 6.00 x 12.00 Inches
p27
sVModel
p28
V2HW32UT
p29
sVScreen Size
p30
V11.6"
p31
sVProcessor Type
p32
VIntel Celeron
p33
sVCondition
p34
VNew
p35
ssS'title'
p36
VHP Chromebook x360 11 G1 EE Celeron N3450 4 GB 32 GB 11.6\u2033 Touch screen Google Chrome OS Notebook
p37
sb.