ccopy_reg
_reconstructor
p0
(c__main__
ProductRecord
p1
c__builtin__
object
p2
Ntp3
Rp4
(dp5
S'product_url'
p6
S'http://www.walmart.com/ip/Acer-TravelMate-Spin-B1-11-6-Touchscreen-2-in-1-Laptop-N3450-4GB-128GB-eMMC/444070142'
p7
sS'price'
p8
S'N/A'
p9
sS'properties'
p10
(dp11
VRAM Memory
p12
V4 Gigabytes
p13
sVOperating System
p14
VWindows 10
p15
sVFeatures
p16
VWINDOWS 10 PRO EDUCATION INTEL CELERON N3450 4GB SDRAM 128GB E-MMC TOUCHSCREEN I
p17
sVBrand
p18
VAcer
p19
sVProcessor Speed
p20
V1.1 Gigahertz
p21
sVManufacturer Part Number
p22
VNX.VG0AA.003
p23
sVHard Drive Capacity
p24
V128 Gigabytes
p25
sVBattery Life
p26
V13 Hours
p27
sVModel
p28
VNX.VG0AA.003
p29
sVScreen Size
p30
V11.60 Inches
p31
sVProcessor Type
p32
VIntel N3450
p33
ssS'title'
p34
VAcer TravelMate Spin B1 11.6" Touchscreen 2-in-1 Laptop N3450 4GB 128GB eMMC
p35
sb.