ccopy_reg
_reconstructor
p0
(c__main__
ProductRecord
p1
c__builtin__
object
p2
Ntp3
Rp4
(dp5
S'product_url'
p6
S'http://www.walmart.com/ip/HP-EliteBook-1040-G4-14-4K-Touchscreen-Laptop-i7-7500U-16GB-512GB-SSD-Win10-Pro/933961538'
p7
sS'price'
p8
S'N/A'
p9
sS'properties'
p10
(dp11
VRAM Memory
p12
V16 GB
p13
sVOperating System
p14
VMicrosoft Windows
p15
sVFeatures
p16
VI7-7500U 2.7G 16GB 512GB 14IN W10P
p17
sVBrand
p18
VHP
p19
sVProcessor Speed
p20
V2.70 GHz
p21
sVManufacturer Part Number
p22
V2XU39UT#ABA
p23
sVHard Drive Capacity
p24
V512 GB
p25
sVModel
p26
V2XU39UT#ABA
p27
sVScreen Size
p28
V14"
p29
sVProcessor Type
p30
VIntel Core i7
p31
sVCondition
p32
VNew
p33
ssS'title'
p34
VHP EliteBook 1040 G4 14" 4K Touchscreen Laptop i7-7500U 16GB 512GB SSD Win10 Pro
p35
sb.