ccopy_reg
_reconstructor
p0
(c__main__
ProductRecord
p1
c__builtin__
object
p2
Ntp3
Rp4
(dp5
S'product_url'
p6
S'http://www.walmart.com/ip/Refurbished-Dell-I5567-7291GRY-Laptop-PC-Intel-Core-i7-7500U-2-7-GHz-Dual-Core-Processor-16-GB-DDR4-SDRAM-1-TB-Hard-Disk-Drive-15-6-inch-Touchscreen-/358480064'
p7
sS'price'
p8
S'N/A'
p9
sS'properties'
p10
(dp11
sS'title'
p12
VRefurbished Dell I5567-7291GRY Laptop PC - Intel Core i7-7500U 2.7 GHz Dual-Core Processor - 16 GB DDR4 SDRAM - 1 TB Hard Disk Drive - 15.6-inch Touchscreen Display - Windows 10 Home 64-bit - Grey
p13
sb.