ccopy_reg
_reconstructor
p0
(c__main__
ProductRecord
p1
c__builtin__
object
p2
Ntp3
Rp4
(dp5
S'product_url'
p6
S'http://www.walmart.com/ip/Acer-Aspire-C720P-2625-11-6-Notebook-Granite-Gray/34192539'
p7
sS'price'
p8
S'N/A'
p9
sS'properties'
p10
(dp11
VRAM Memory
p12
V4 GB ( provided memory is soldered )
p13
sVOperating System
p14
VChrome OS
p15
sVFeatures
p16
VAcer FineTip keyboard, Intel Smart Cache, Yes, HD video recording, Ambient light sensor, MIMO technology, HDCP, frameless, anti-glare
p17
sVVideo Game Platform
p18
VPC
p19
sVBrand
p20
VAcer
p21
sVProcessor Speed
p22
V1.40 Gigahertz
p23
sVManufacturer Part Number
p24
VNX.MJAAA.004
p25
sVHard Drive Capacity
p26
V16 GB
p27
sVBattery Life
p28
V7
p29
sVModel
p30
VNX.MJAAA.004
p31
sVScreen Size
p32
V11.6 Inches
p33
sVProcessor Type
p34
VIntel Celeron
p35
sVCondition
p36
VNew
p37
ssS'title'
p38
VAcer Aspire C720P-2625 11.6" Notebook (Granite Gray)
p39
sb.