ccopy_reg
_reconstructor
p0
(c__main__
ProductRecord
p1
c__builtin__
object
p2
Ntp3
Rp4
(dp5
S'product_url'
p6
S'http://www.walmart.com/ip/Newest-HP-Envy-15t-High-Performance-Laptop-PC-UHD-4K-Touchscreen-i7-Processor-12-GB-1TB-HDD-128-GB-SSD-15-6-Inch-UHD-3840-x-2160-Touchscreen-Backlit-/153439781'
p7
sS'price'
p8
S'N/A'
p9
sS'properties'
p10
(dp11
VBrand
p12
VHP
p13
sVHard Drive Capacity
p14
V1000
p15
sVManufacturer Part Number
p16
VHP Envy 15t UHD 4K
p17
ssS'title'
p18
VNewest HP Envy 15t High Performance Laptop PC with UHD 4K Touchscreen ( i7 Processor, 12 GB, 1TB HDD + 128 GB SSD, 15.6 Inch UHD (3840 x 2160) Touchscreen, Backlit Keyboard, Bluetooth, Windows 10)
p19
sb.