ccopy_reg
_reconstructor
p0
(c__main__
ProductRecord
p1
c__builtin__
object
p2
Ntp3
Rp4
(dp5
S'product_url'
p6
S'http://www.walmart.com/ip/Dell-Latitude-E7440-Core-i7-14-Full-HD-Touch-512GB-SSD-8GB-Win-10-Pro-Ultrabook-Refurbished/995767267'
p7
sS'price'
p8
S'N/A'
p9
sS'properties'
p10
(dp11
VOperating System
p12
VMicrosoft Windows
p13
sVBrand
p14
VDell
p15
sVManufacturer Part Number
p16
VDEL7440CI7TS2
p17
sVHard Drive Capacity
p18
V512 GB
p19
sVAssembled Product Dimensions (L x W x H)
p20
V20.00 x 16.60 x 4.30 Inches
p21
sVModel
p22
VDEL7440CI7TS2
p23
sVScreen Size
p24
V14\u005c"
p25
ssS'title'
p26
VDell Latitude E7440 Core i7 14\u201d Full HD Touch 512GB SSD 8GB Win 10 Pro Ultrabook (Refurbished)
p27
sb.