ccopy_reg
_reconstructor
p0
(c__main__
ProductRecord
p1
c__builtin__
object
p2
Ntp3
Rp4
(dp5
S'product_url'
p6
S'http://www.walmart.com/ip/HP-Pavilion-X360-2-in-1-Touchscreen-15-6-Notebook-15-bk127cl-Core-i5-7200U/149669013'
p7
sS'price'
p8
S'N/A'
p9
sS'properties'
p10
(dp11
VOperating System
p12
VWindows 10
p13
sVLaptop Computer Type
p14
V2-in-1s
p15
sVBrand
p16
VHP
p17
sVManufacturer Part Number
p18
V15-bk117ck
p19
sVModel
p20
V15-bk117ck
p21
sVScreen Size
p22
V15.6
p23
sVManufacturer
p24
VHP
p25
ssS'title'
p26
VHP Pavilion X360 2-in-1 Touchscreen 15.6" Notebook 15-bk127cl, Core i5-7200U
p27
sb.