ccopy_reg
_reconstructor
p0
(c__main__
ProductRecord
p1
c__builtin__
object
p2
Ntp3
Rp4
(dp5
S'product_url'
p6
S'http://www.walmart.com/ip/Lenovo-ThinkPad-13-13-3-FHD-Touchscreen-Laptop-Celeron-3865U-8GB-128GB-SSD-W10P/430699546'
p7
sS'price'
p8
S'N/A'
p9
sS'properties'
p10
(dp11
VRAM Memory
p12
V8 GB
p13
sVOperating System
p14
VMicrosoft Windows, Windows 10 Pro (English)
p15
sVBrand
p16
VLenovo
p17
sVProcessor Speed
p18
V1.80 GHz
p19
sVManufacturer Part Number
p20
V20J1004BUS
p21
sVHard Drive Capacity
p22
V128 GB
p23
sVModel
p24
V20J1
p25
sVScreen Size
p26
V13.3"
p27
sVProcessor Type
p28
VIntel Celeron
p29
sVCondition
p30
VNew
p31
ssS'title'
p32
VLenovo ThinkPad 13 13.3" FHD Touchscreen Laptop Celeron 3865U 8GB 128GB SSD W10P
p33
sb.