ccopy_reg
_reconstructor
p0
(c__main__
ProductRecord
p1
c__builtin__
object
p2
Ntp3
Rp4
(dp5
S'product_url'
p6
S'http://www.walmart.com/ip/REFURBISHED-Refurbished-RUGGED-Panasonic-Toughbook-Laptop-CF-31-Intel-Core-i5-2-6GHz-CPU-512GB-Solid-State-Drive-12GB-DDR3-13-1-TOUCHSCREEN-DVD-CD-RW/106091476'
p7
sS'price'
p8
S'N/A'
p9
sS'properties'
p10
(dp11
VOperating System
p12
VMicrosoft Windows
p13
sVBrand
p14
VHP
p15
sVRAM Memory
p16
V12 GB
p17
sVScreen Size
p18
V13.1\u005c"
p19
sVCondition
p20
VRefurbished
p21
ssS'title'
p22
VREFURBISHED Refurbished RUGGED Panasonic Toughbook Laptop - CF-31 - Intel Core i5 2.6GHz CPU - 512GB Solid State Drive - 12GB DDR3 - 13.1" TOUCHSCREEN - DVD/CD-RW - WiFi - Win 7 Pro
p23
sb.