ccopy_reg
_reconstructor
p0
(c__main__
ProductRecord
p1
c__builtin__
object
p2
Ntp3
Rp4
(dp5
S'product_url'
p6
S'http://www.walmart.com/ip/Lenovo-Yoga-2-13-MultiTouch-59429101-Black-Web-Special-4th-Generation-Intel-Core-i5-4210U-1-70GHz-1600MHz-3MB/188054194'
p7
sS'price'
p8
S'N/A'
p9
sS'properties'
p10
(dp11
VBrand
p12
VLenovo
p13
sVManufacturer Part Number
p14
V59429101
p15
sVCondition
p16
VNew
p17
ssS'title'
p18
VLenovo Yoga 2 13(MultiTouch) - 59429101 - Black: Web Special - 4th Generation Intel Core i5-4210U (1.70GHz 1600MHz 3MB)
p19
sb.