ccopy_reg
_reconstructor
p0
(c__main__
ProductRecord
p1
c__builtin__
object
p2
Ntp3
Rp4
(dp5
S'product_url'
p6
S'http://www.walmart.com/ip/EliteBook-x360-1020-G2-i7-7600U-16GB-512GB-12-5-Windows-10-Pro-Touch-Screen-Notebook/498554428'
p7
sS'price'
p8
S'N/A'
p9
sS'properties'
p10
(dp11
VRAM Memory
p12
V16.00 GB
p13
sVOperating System
p14
VWindows 10
p15
sVBrand
p16
VHP
p17
sVProcessor Speed
p18
V2.80 GHz
p19
sVManufacturer Part Number
p20
V2UE51UT#ABA
p21
sVMaximum RAM Supported
p22
V16.00 GB
p23
sVHard Drive Capacity
p24
V512.00 GB
p25
sVBattery Life
p26
V16 Hours
p27
sVAssembled Product Dimensions (L x W x H)
p28
V18.11 x 11.57 x 2.99 Inches
p29
sVModel
p30
V2UE51UT
p31
sVScreen Size
p32
V12.50 in
p33
sVProcessor Type
p34
VIntel Core i7
p35
ssS'title'
p36
VEliteBook x360 1020 G2 i7-7600U 16GB 512GB 12.5" Windows 10 Pro Touch Screen Notebook
p37
sb.