ccopy_reg
_reconstructor
p0
(c__main__
ProductRecord
p1
c__builtin__
object
p2
Ntp3
Rp4
(dp5
S'product_url'
p6
S'http://www.walmart.com/ip/Belkin-patch-cable-4-ft-pink/111776160'
p7
sS'price'
p8
S'N/A'
p9
sS'properties'
p10
(dp11
VModel
p12
VA3L791-04-PNK
p13
sVBrand
p14
VBelkin
p15
sVAssembled Product Dimensions (L x W x H)
p16
V4.00 x 4.00 x 1.00 Inches
p17
sVManufacturer Part Number
p18
VA3L791-04-PNK
p19
sVCondition
p20
VNew
p21
ssS'title'
p22
VBelkin patch cable - 4 ft - pink
p23
sb.