ccopy_reg
_reconstructor
p0
(c__main__
ProductRecord
p1
c__builtin__
object
p2
Ntp3
Rp4
(dp5
S'product_url'
p6
S'http://www.walmart.com/ip/Dell-Inspiron-15-5000-2-in-1-15-6-Touch-Screen-Laptop-Intel-Core-i3-4GB-Memory-500GB-5400RPM-HD-Gray/55588254'
p7
sS'price'
p8
S'N/A'
p9
sS'properties'
p10
(dp11
VRAM Memory
p12
V4 KB
p13
sVOperating System
p14
VWindows 10 Home 64bit English
p15
sVVideo Game Platform
p16
VSee Description
p17
sVBrand
p18
VDell
p19
sVProcessor Speed
p20
V2.4 Hz
p21
sVManufacturer Part Number
p22
Vi5578-3093GRY
p23
sVHard Drive Capacity
p24
V500 KB
p25
sVAssembled Product Dimensions (L x W x H)
p26
V19.50 x 3.10 x 13.10 Inches
p27
sVModel
p28
Vi5578-3093GRY-PUS
p29
sVScreen Size
p30
V15.6 in
p31
sVProcessor Type
p32
VIntel Core i3-7100U Processor
p33
sVCondition
p34
VNew
p35
ssS'title'
p36
VDell - Inspiron 15 5000 2-in-1 15.6" Touch-Screen Laptop - Intel Core i3 - 4GB Memory - 500GB 5400RPM HD - Gray
p37
sb.