ccopy_reg
_reconstructor
p0
(c__main__
ProductRecord
p1
c__builtin__
object
p2
Ntp3
Rp4
(dp5
S'product_url'
p6
S'http://www.walmart.com/ip/Original-HP-45W-AC-Charger-Power-Adapter-Cord-For-HP-Spectre-x360-Convertible-15-ap011dx-15-ap012dx-15-ap018ca-15-ap052nr-15-ap062nr-15-ap063nr/820632479'
p7
sS'price'
p8
S'N/A'
p9
sS'properties'
p10
(dp11
VBrand
p12
VHP
p13
ssS'title'
p14
VOriginal HP 45W AC Charger Power Adapter Cord For HP Spectre x360 Convertible 15-ap011dx 15-ap012dx 15-ap018ca 15-ap052nr 15-ap062nr 15-ap063nr
p15
sb.