ccopy_reg
_reconstructor
p0
(c__main__
ProductRecord
p1
c__builtin__
object
p2
Ntp3
Rp4
(dp5
S'product_url'
p6
S'http://www.walmart.com/ip/CTL-NBCJ5-11-6-Touchscreen-Chromebook-w-Intel-Celeron-N3060-32GB-Flash/106166092'
p7
sS'price'
p8
S'N/A'
p9
sS'properties'
p10
(dp11
VRAM Memory
p12
V4 Gigabytes
p13
sVOperating System
p14
VChrome OS
p15
sVFeatures
p16
VCTL J5Power adapter, Powerful processorBursts to 2.48 GHzRugged design is ideal for the rigors of student use10-point capacitive touch screen360-degree hinge for an easy transition fromSwitch from Chromebook to tabletMany hours of battery lifeSplash- and drop-resistant design
p17
sVBrand
p18
VCTL CORP
p19
sVProcessor Speed
p20
V1.6 Gigahertz
p21
sVHard Drive Capacity
p22
V32 Gigabytes
p23
sVBattery Life
p24
V12 Hours
p25
sVModel
p26
VNBCJ5
p27
sVScreen Size
p28
V11.60 in
p29
sVProcessor Type
p30
VIntel N3060
p31
sVmanufacturer_part_number
p32
Vnbcj5
p33
ssS'title'
p34
VCTL NBCJ5 11.6" Touchscreen Chromebook w/ Intel Celeron N3060 & 32GB Flash
p35
sb.