ccopy_reg
_reconstructor
p0
(c__main__
ProductRecord
p1
c__builtin__
object
p2
Ntp3
Rp4
(dp5
S'product_url'
p6
S'http://www.walmart.com/ip/Manufacturer-Refurbished-HP-Pavilion-x360-11-u018ca-11-6-TS-Laptop-Intel-N3710-1-6GHz-4GB-500GB-W10/370955123'
p7
sS'price'
p8
S'N/A'
p9
sS'properties'
p10
(dp11
VBrand
p12
VHP
p13
sVModel
p14
V11-u018ca-RF
p15
sVManufacturer Part Number
p16
V11-u018ca-RF
p17
ssS'title'
p18
VManufacturer Refurbished - HP Pavilion x360 11-u018ca 11.6" TS Laptop Intel N3710 1.6GHz 4GB 500GB W10
p19
sb.