ccopy_reg
_reconstructor
p0
(c__main__
ProductRecord
p1
c__builtin__
object
p2
Ntp3
Rp4
(dp5
S'product_url'
p6
S'http://www.walmart.com/ip/Manufacturer-Refurbished-HP-15-F223NR-15-6-Touch-Laptop-Intel-Pentium-N3710-1-6GHz-4GB-500GB-Win10/546927372'
p7
sS'price'
p8
S'N/A'
p9
sS'properties'
p10
(dp11
VRAM Memory
p12
V4 GB
p13
sVOperating System
p14
VMicrosoft Windows
p15
sVBrand
p16
VHP
p17
sVManufacturer Part Number
p18
V15-F223NR-RF
p19
sVHard Drive Capacity
p20
V500 GB
p21
sVModel
p22
V15-F223NR-RF
p23
sVScreen Size
p24
V15.6\u005c"
p25
ssS'title'
p26
VManufacturer Refurbished - HP 15-F223NR 15.6" Touch Laptop Intel Pentium N3710 1.6GHz 4GB 500GB Win10
p27
sb.