ccopy_reg
_reconstructor
p0
(c__main__
ProductRecord
p1
c__builtin__
object
p2
Ntp3
Rp4
(dp5
S'product_url'
p6
S'http://www.walmart.com/ip/Asus-90NB07H1-M02520-10-1-Ips-Wuxga-Tz3775-2gb/51083406'
p7
sS'price'
p8
S'N/A'
p9
sS'properties'
p10
(dp11
VBrand
p12
VASUS
p13
sVScreen Size
p14
V10.1
p15
sVModel
p16
V90NB07H1M02520
p17
sVCondition
p18
VNew
p19
sVManufacturer Part Number
p20
V90NB07H1M02520
p21
ssS'title'
p22
VAsus 90NB07H1-M02520 10.1" Ips Wuxga Tz3775 2gb
p23
sb.