ccopy_reg
_reconstructor
p0
(c__main__
ProductRecord
p1
c__builtin__
object
p2
Ntp3
Rp4
(dp5
S'product_url'
p6
S'http://www.walmart.com/ip/Refurbished-EliteBook-Revolve-D3K52UT-11-6-Tablet-PC-Wi-Fi-Intel-Core-i3-i3-3227U-1-90-GHz-LED-Backlight/782620184'
p7
sS'price'
p8
S'N/A'
p9
sS'properties'
p10
(dp11
VOperating System
p12
VMicrosoft Windows
p13
sVBrand
p14
VHP
p15
sVScreen Size
p16
V11.6\u005c"
p17
ssS'title'
p18
VRefurbished EliteBook Revolve D3K52UT 11.6" Tablet PC - Wi-Fi - Intel Core i3 i3-3227U 1.90 GHz - LED Backlight
p19
sb.