ccopy_reg
_reconstructor
p0
(c__main__
ProductRecord
p1
c__builtin__
object
p2
Ntp3
Rp4
(dp5
S'product_url'
p6
S'http://www.walmart.com/ip/HP-15-BA082NR-15-6-Touchscreen-Notebook-AMD-A-Series-A8-7410-Quad-core-4-Core-2-20-GHz-Red-Refurbished/747153816'
p7
sS'price'
p8
S'N/A'
p9
sS'properties'
p10
(dp11
VOperating System
p12
VMicrosoft Windows
p13
sVBrand
p14
VCPR
p15
sVScreen Size
p16
V15.6\u005c"
p17
sVmanufacturer_part_number
p18
V15-ba082nr
p19
ssS'title'
p20
VHP 15-BA082NR 15.6" Touchscreen Notebook - AMD A-Series A8-7410 Quad-core (4 Core) 2.20 GHz - Red - Refurbished
p21
sb.