ccopy_reg
_reconstructor
p0
(c__main__
ProductRecord
p1
c__builtin__
object
p2
Ntp3
Rp4
(dp5
S'product_url'
p6
S'http://www.walmart.com/ip/Refurbished-Acer-Spin-Laptop-Intel-Pentium-1-10-GHz-4-GB-Ram-64GB-Windows-10-Home/923319107'
p7
sS'price'
p8
S'N/A'
p9
sS'properties'
p10
(dp11
VRAM Memory
p12
V4 GB
p13
sVOperating System
p14
VWindows 10
p15
sVBrand
p16
VAcer
p17
sVManufacturer Part Number
p18
VNX.GMBAA.001
p19
sVModel
p20
VSP111-31-P5C9
p21
sVScreen Size
p22
V11.6 in
p23
sVProcessor Speed
p24
V1.10 GHz
p25
sVCondition
p26
VRefurbished
p27
ssS'title'
p28
VRefurbished Acer Spin Laptop Intel Pentium 1.10 GHz 4 GB Ram 64GB Windows 10 Home
p29
sb.