ccopy_reg
_reconstructor
p0
(c__main__
ProductRecord
p1
c__builtin__
object
p2
Ntp3
Rp4
(dp5
S'product_url'
p6
S'http://www.walmart.com/ip/HP-ENVY-x360-Convertible-2-in-1-Full-HD-IPS-15-6-Touchscreen-Notebook-Intel-Core-i7-8550U-Processor-12GB-Memory-1TB-Hard-Drive/619081311'
p7
sS'price'
p8
S'N/A'
p9
sS'properties'
p10
(dp11
VRAM Memory
p12
V12 GB
p13
sVOperating System
p14
VMicrosoft Windows
p15
sVFeatures
p16
V15.6-inch diagonal Full HD IPS WLED-backlit multitouch-enabled edge-to-edge glass (1920 x 1080), 8th Generation Intel CoreTM i7-8550U Processor, A truly powerful audio experience, 360 hinge for ultimate flexibility
p17
sVBrand
p18
VHP
p19
sVManufacturer Part Number
p20
V15-aq267cl
p21
sVHard Drive Capacity
p22
V1000 GB
p23
sVAssembled Product Dimensions (L x W x H)
p24
V9.84 x 14.96 x 0.74 Inches
p25
sVScreen Size
p26
V15.6\u005c"
p27
ssS'title'
p28
VHP ENVY x360 Convertible 2-in-1 Full HD IPS 15.6" Touchscreen Notebook, Intel Core i7-8550U Processor, 12GB Memory, 1TB Hard Drive
p29
sb.