ccopy_reg
_reconstructor
p0
(c__main__
ProductRecord
p1
c__builtin__
object
p2
Ntp3
Rp4
(dp5
S'product_url'
p6
S'http://www.walmart.com/ip/Asus-VivoBook-Flip-14-14-Touchscreen-Laptop-Celeron-N3450-4GB-64GB-eMMC-Win10-S/572513516'
p7
sS'price'
p8
S'N/A'
p9
sS'properties'
p10
(dp11
VRAM Memory
p12
V0 Gigabytes
p13
sVOperating System
p14
VWindows 10
p15
sVBrand
p16
VASUS
p17
sVProcessor Speed
p18
V0 Gigahertz
p19
sVManufacturer Part Number
p20
VTP401NA-YS02
p21
sVHard Drive Capacity
p22
V0 Gigabytes
p23
sVBattery Life
p24
V0 h
p25
sVAssembled Product Dimensions (L x W x H)
p26
V13.00 x 9.00 x 1.00 Inches
p27
sVModel
p28
VTP401NA-YS02
p29
sVScreen Size
p30
V14\u005c"
p31
sVProcessor Type
p32
VIntel N3450
p33
sVCondition
p34
VNew
p35
ssS'title'
p36
VAsus VivoBook Flip 14 14" Touchscreen Laptop Celeron N3450 4GB 64GB eMMC Win10 S
p37
sb.