ccopy_reg
_reconstructor
p0
(c__main__
ProductRecord
p1
c__builtin__
object
p2
Ntp3
Rp4
(dp5
S'product_url'
p6
S'http://www.walmart.com/ip/REFURBISHED-Lenovo-IdeaPad-Touchscreen-P400-Laptop-Notebook-14-i5-3230M-2-6Gh/738295509'
p7
sS'price'
p8
S'N/A'
p9
sS'properties'
p10
(dp11
VBrand
p12
VHP
p13
sVScreen Size
p14
V14
p15
sVCondition
p16
VRefurbished
p17
ssS'title'
p18
VREFURBISHED - Lenovo IdeaPad Touchscreen P400 Laptop Notebook 14" i5-3230M 2.6Gh
p19
sb.