ccopy_reg
_reconstructor
p0
(c__main__
ProductRecord
p1
c__builtin__
object
p2
Ntp3
Rp4
(dp5
S'product_url'
p6
S'http://www.walmart.com/ip/NEW-New-HP-10-N010CA-x2-10-1-Touch-Laptop-Intel-Atom-Z3736F-1-33GHz-2GB-32GB-W10/355377966'
p7
sS'price'
p8
S'N/A'
p9
sS'properties'
p10
(dp11
VRAM Memory
p12
V2 GB
p13
sVOperating System
p14
VMicrosoft Windows
p15
sVBrand
p16
VHP
p17
sVManufacturer Part Number
p18
V10-N010CA-RF
p19
sVModel
p20
V10-N010CA-RF
p21
sVScreen Size
p22
V10.1\u005c"
p23
ssS'title'
p24
VNEW - New HP 10-N010CA x2 10.1" Touch Laptop Intel Atom Z3736F 1.33GHz 2GB 32GB W10
p25
sb.