ccopy_reg
_reconstructor
p0
(c__main__
ProductRecord
p1
c__builtin__
object
p2
Ntp3
Rp4
(dp5
S'product_url'
p6
S'http://www.walmart.com/ip/Refurbished-Aspire-V5-552P-X617-Laptop-PC-A10-5757M-2-5GHz-6GB-750GB-WiFi-BT-15-6-Windows-8-Touchscreen/103915993'
p7
sS'price'
p8
S'N/A'
p9
sS'properties'
p10
(dp11
VBrand
p12
VAcer
p13
sVHard Drive Capacity
p14
V750
p15
ssS'title'
p16
VRefurbished Aspire V5-552P-X617 Laptop PC A10-5757M 2.5GHz 6GB 750GB WiFi BT 15.6 Windows 8 - Touchscreen
p17
sb.