ccopy_reg
_reconstructor
p0
(c__main__
ProductRecord
p1
c__builtin__
object
p2
Ntp3
Rp4
(dp5
S'product_url'
p6
S'http://www.walmart.com/ip/Refurbished-Dell-Latitude-LAT3160-1333BLK-11-6-HD-Touchscreen-Netbook-Intel-Pentium-4GB-RAM-500GB-HDD-Windows-8-1-Pro/287042538'
p7
sS'price'
p8
S'N/A'
p9
sS'properties'
p10
(dp11
VBrand
p12
VDell
p13
sVRAM Memory
p14
V4 GB
p15
sVOperating System
p16
VMicrosoft Windows
p17
sVHard Drive Capacity
p18
V500 GB
p19
sVmanufacturer_part_number
p20
Vlat3160-1333blk
p21
ssS'title'
p22
VRefurbished Dell Latitude LAT3160-1333BLK 11.6 HD Touchscreen Netbook (Intel Pentium, 4GB RAM, 500GB HDD, Windows 8.1 Pro)
p23
sb.