ccopy_reg
_reconstructor
p0
(c__main__
ProductRecord
p1
c__builtin__
object
p2
Ntp3
Rp4
(dp5
S'product_url'
p6
S'http://www.walmart.com/ip/Refurbished-Dell-Latitude-5175-L5175-5BJKJC2-Tablet-PC-Intel-Core-m5-6Y57-1-1-GHz-Dual-Core-Processor-4-GB-DDR3L-SDRAM-128-GB-M-2-Solid-State-Drive-1/988878481'
p7
sS'price'
p8
S'N/A'
p9
sS'properties'
p10
(dp11
sS'title'
p12
VRefurbished Dell Latitude 5175 L5175-5BJKJC2 Tablet PC - Intel Core m5-6Y57 1.1 GHz Dual-Core Processor - 4 GB DDR3L SDRAM - 128 GB M.2 Solid State Drive - 10.8-inch Touchscreen Display - Windows
p13
sb.