ccopy_reg
_reconstructor
p0
(c__main__
ProductRecord
p1
c__builtin__
object
p2
Ntp3
Rp4
(dp5
S'product_url'
p6
S'http://www.walmart.com/ip/Acer-Aspire-R3-131T-P54U-Notebook-NX-G83AA-005-Aspire-R3-131T-P54U-11-6-Inch-LCD-Notebook/168260589'
p7
sS'price'
p8
S'N/A'
p9
sS'properties'
p10
(dp11
VRAM Memory
p12
V4 Gigabytes
p13
sVOperating System
p14
VWindows 10
p15
sVVideo Game Platform
p16
VSee Description
p17
sVBrand
p18
VAcer
p19
sVProcessor Speed
p20
V1.60 Gigahertz
p21
sVManufacturer Part Number
p22
VNX.G83AA.005
p23
sVMaximum RAM Supported
p24
V8 GB
p25
sVHard Drive Capacity
p26
V1 Terabytes
p27
sVModel
p28
VNX.G83AA.005
p29
sVScreen Size
p30
V11.60 in
p31
sVProcessor Type
p32
VIntel Pentium
p33
sVCondition
p34
VNew
p35
ssS'title'
p36
VAcer Aspire R3-131T-P54U Notebook NX.G83AA.005 Aspire R3-131T-P54U 11.6 Inch LCD Notebook
p37
sb.