ccopy_reg
_reconstructor
p0
(c__main__
ProductRecord
p1
c__builtin__
object
p2
Ntp3
Rp4
(dp5
S'product_url'
p6
S'http://www.walmart.com/ip/Refurbished-Sony-SVE14AE13L-14-Touchscreen-Intel-Core-i5-3320M-2-6GHz-8GB-RAM-500GB-HDD-Windows-7-Professional/108349130'
p7
sS'price'
p8
S'N/A'
p9
sS'properties'
p10
(dp11
VOperating System
p12
VMicrosoft Windows
p13
sVBrand
p14
VHP
p15
sVRAM Memory
p16
V8 GB
p17
sVScreen Size
p18
V14\u005c"
p19
sVHard Drive Capacity
p20
V500 GB
p21
ssS'title'
p22
VRefurbished Sony SVE14AE13L 14" Touchscreen Intel Core i5-3320M 2.6GHz 8GB RAM 500GB HDD Windows 7 Professional
p23
sb.