ccopy_reg
_reconstructor
p0
(c__main__
ProductRecord
p1
c__builtin__
object
p2
Ntp3
Rp4
(dp5
S'product_url'
p6
S'http://www.walmart.com/ip/HP-2UL92UT-ABA-HP-Stream-Pro-11-G4/167275239'
p7
sS'price'
p8
S'N/A'
p9
sS'properties'
p10
(dp11
VRAM Memory
p12
V4 GB
p13
sVOperating System
p14
VMicrosoft Windows
p15
sVBrand
p16
VHP
p17
sVProcessor Speed
p18
V1.10 GHz
p19
sVBattery Life
p20
V11 Hour
p21
sVModel
p22
V2UL92UT#ABA
p23
sVScreen Size
p24
V11.6"
p25
sVProcessor Type
p26
VIntel Celeron
p27
sVmanufacturer_part_number
p28
V2ul92ut # aba
p29
ssS'title'
p30
VHP 2UL92UT#ABA HP Stream Pro 11 G4
p31
sb.