ccopy_reg
_reconstructor
p0
(c__main__
ProductRecord
p1
c__builtin__
object
p2
Ntp3
Rp4
(dp5
S'product_url'
p6
S'http://www.walmart.com/ip/Refurbished-HP-Pavilion-17-g227cy-ENERGY-STAR-Pavilion-17-G200-17-G227CY/824790336'
p7
sS'price'
p8
S'N/A'
p9
sS'properties'
p10
(dp11
VBrand
p12
VHP
p13
sVOperating System
p14
VMicrosoft Windows
p15
sVCondition
p16
VRefurbished
p17
ssS'title'
p18
V"HP Pavilion 17-g227cy - ENERGY STAR Pavilion 17-G200 17-G227CY"
p19
sb.