ccopy_reg
_reconstructor
p0
(c__main__
ProductRecord
p1
c__builtin__
object
p2
Ntp3
Rp4
(dp5
S'product_url'
p6
S'http://www.walmart.com/ip/Refurbished-Asus-Flip-2-in-1-13-3-Touch-Screen-Laptop-Intel-Core-i3-6GB-Memory-500GB-Hard-Drive-Aluminum-Black-Q302LA-BHI3T09/984779061'
p7
sS'price'
p8
S'N/A'
p9
sS'properties'
p10
(dp11
VBrand
p12
VASUS
p13
sVHard Drive Capacity
p14
V500
p15
ssS'title'
p16
VRefurbished Asus - Flip 2-in-1 13.3 Touch-Screen Laptop - Intel Core i3 - 6GB Memory - 500GB Hard Drive - Aluminum Black - Q302LA-BHI3T09
p17
sb.