ccopy_reg
_reconstructor
p0
(c__main__
ProductRecord
p1
c__builtin__
object
p2
Ntp3
Rp4
(dp5
S'product_url'
p6
S'http://www.walmart.com/ip/Refurbished-Acer-11-6-Touchscreen-Laptop-Intel-Core-i5-2-2GHz-8GB-RAM-256GB-Windows-8-1/735148702'
p7
sS'price'
p8
S'N/A'
p9
sS'properties'
p10
(dp11
VRAM Memory
p12
V4 GB
p13
sVOperating System
p14
VMicrosoft Windows
p15
sVBrand
p16
VHP
p17
sVManufacturer Part Number
p18
VG1 / E3V75LT-RF
p19
sVHard Drive Capacity
p20
V500 GB
p21
sVModel
p22
VG1 / E3V75LT-RF
p23
sVScreen Size
p24
V12.5\u005c"
p25
ssS'title'
p26
VManufacturer Refurbished - HP EliteBook 840 G1 12.5" Touch Laptop Intel Core i7-4600U 2.1GHz 4GB 500GB W10
p27
sb.