ccopy_reg
_reconstructor
p0
(c__main__
ProductRecord
p1
c__builtin__
object
p2
Ntp3
Rp4
(dp5
S'product_url'
p6
S'http://www.walmart.com/ip/Refurbished-HP-Pavilion-X3T20UA-Laptop-PC-AMD-A12-9700P-2-5-GHz-Quad-Core-Processor-8-GB-DDR4-SDRAM-1-TB-HDD-15-6-inch-Touchscreen-Display-Windows-10/167262948'
p7
sS'price'
p8
S'N/A'
p9
sS'properties'
p10
(dp11
VRAM Memory
p12
V6 GB
p13
sVOperating System
p14
VMicrosoft Windows
p15
sVBrand
p16
VLenovo
p17
sVManufacturer Part Number
p18
VLen320i37t-61TH
p19
sVHard Drive Capacity
p20
V1000 GB
p21
sVModel
p22
VLen320i37t-61TH
p23
sVScreen Size
p24
V15.6\u005c"
p25
sVCondition
p26
VNew
p27
ssS'title'
p28
VLenovo Ideapad 320 15.6" HD Touchscreen Notebook, Intel Dual-Core i3-7100U 2.4GHz, 6GB DDR4, 1TB HDD, HDMI, Card Reader, DVD-RW, USB, Wifi, Bluetooth, Intel UHD Graphics 620, Windows 10 Home
p29
sb.