ccopy_reg
_reconstructor
p0
(c__main__
ProductRecord
p1
c__builtin__
object
p2
Ntp3
Rp4
(dp5
S'product_url'
p6
S'http://www.walmart.com/ip/HP-Pavilion-Touchscreen-HD-15-6-Notebook-Intel-Core-i5-7200U-Processor-8GB-Memory-1TB-Hard-Drive-Backlit-Keyboard-B-O-Play-Sound-Optical-Drive-HD-Web/584252048'
p7
sS'price'
p8
S'N/A'
p9
sS'properties'
p10
(dp11
VRAM Memory
p12
V8 GB
p13
sVOperating System
p14
VWindows 10
p15
sVFeatures
p16
VHP Pavilion 15-cc057cl3-cell batteryPower adapter, Feel-good styleA blend of dual-tones, textures and finishes give this laptop a sharp, polished look-from the elevated keyboard to the bold design, every detail was crafted for comfort and style.Power through your dayWith up to 9 hours of battery life and a 90% charge in 90 minutes, stay powered all day with charge to spare. Take on whatever life brings you with enough power left over to enjoy some well-earned free time.A truly powerful audio experienceWith Dual HP Speakers, HP Audio Boost, and custom tuning by the experts at B&O PLAY, you can experience rich, authentic audio. Let the sound move you., Dual HP Speakers, HP Audio Boost, and tuning by B&O PLAY deliver a rich, authentic audio experience.Every detail was crafted for comfort and stylefrom the elevated keyboard to the bold design.Up to 9 hours of battery life and a 90% charge in 90 minutes.
p17
sVBrand
p18
VB & H Publishing Group
p19
sVManufacturer Part Number
p20
V15-cc057cl
p21
sVHard Drive Capacity
p22
V1000 GB
p23
sVModel
p24
V15-cc057cl
p25
sVScreen Size
p26
V15.6\u005c"
p27
sVProcessor Type
p28
V7th Generation Intel Core i5-7200u
p29
ssS'title'
p30
VHP Pavilion Touchscreen HD 15.6" Notebook, Intel Core i5-7200U Processor, 8GB Memory, 1TB Hard Drive, Backlit Keyboard, B&O Play Sound, Optical Drive, HD Webcam, Windows 10 Home, Mineral Silver
p31
sb.