ccopy_reg
_reconstructor
p0
(c__main__
ProductRecord
p1
c__builtin__
object
p2
Ntp3
Rp4
(dp5
S'product_url'
p6
S'http://www.walmart.com/ip/HP-Notebook-15-6-Inch-Touchscreen-Premium-Laptop-PC-2017-Version-7th-Gen-Intel-Core-i3-7100U-2-4GHz-Processor-8GB-DDR4-RAM-1TB-HDD-SuperMulti-DVD-Bur/884019788'
p7
sS'price'
p8
S'N/A'
p9
sS'properties'
p10
(dp11
VRAM Memory
p12
V8.00 GB
p13
sVOperating System
p14
VWindows 10
p15
sVBrand
p16
VHP
p17
sVHard Drive Capacity
p18
V1.00 TB
p19
sVProcessor Type
p20
VIntel Core i3-7100u
p21
sVProcessor Speed
p22
V2.40 GHz
p23
sVCondition
p24
VNew
p25
ssS'title'
p26
VHP Notebook 15.6 Inch Touchscreen Premium Laptop PC (2017 Version), 7th Gen Intel Core i3-7100U 2.4GHz Processor, 8GB DDR4 RAM, 1TB HDD, SuperMulti DVD Burner, Bluetooth, Windows 10
p27
sb.