ccopy_reg
_reconstructor
p0
(c__main__
ProductRecord
p1
c__builtin__
object
p2
Ntp3
Rp4
(dp5
S'product_url'
p6
S'http://www.walmart.com/ip/HP-EliteBook-Folio-1020-G1-12-5-Touchscreen-LCD-Notebook-Intel-Core-M-5Y71-Dual-core-2-Core-1-20-GHz-8-GB-LPDDR3-256-GB-SSD-Windows-10-Pro-64-bit-Eng/46618229'
p7
sS'price'
p8
S'N/A'
p9
sS'properties'
p10
(dp11
sS'title'
p12
VHP EliteBook Folio 1020 G1 12.5" Touchscreen LCD Notebook - Intel Core M 5Y71 Dual-core (2 Core) 1.20 GHz - 8 GB LPDDR3 - 256 GB SSD - Windows 10 Pro 64-bit (English) - 2560 x 1440 -
p13
sb.