ccopy_reg
_reconstructor
p0
(c__main__
ProductRecord
p1
c__builtin__
object
p2
Ntp3
Rp4
(dp5
S'product_url'
p6
S'http://www.walmart.com/ip/Refurbished-Acer-13-3-Intel-Core-i5-2-20-GHz-8-GB-Ram-256-GB-SSD-Windows-8-R7-371T-59Q1/484008677'
p7
sS'price'
p8
S'N/A'
p9
sS'properties'
p10
(dp11
VRAM Memory
p12
V8 GB
p13
sVOperating System
p14
VWindows 8
p15
sVBrand
p16
VAcer
p17
sVManufacturer Part Number
p18
VNX.MQPAA.012
p19
sVModel
p20
VR7-371T-59Q1
p21
sVScreen Size
p22
V13.3 in
p23
sVProcessor Speed
p24
V2.20 GHz
p25
sVCondition
p26
VNew
p27
ssS'title'
p28
VRefurbished Acer 13.3" Intel Core i5 2.20 GHz 8 GB Ram 256 GB SSD Windows 8|R7-371T-59Q1
p29
sb.