ccopy_reg
_reconstructor
p0
(c__main__
ProductRecord
p1
c__builtin__
object
p2
Ntp3
Rp4
(dp5
S'product_url'
p6
S'http://www.walmart.com/ip/HP-15-aw017ca-Pavilion-Touch-15-6-Notebook-w-AMD-A12-8GB-RAM-1TB-HDD-Refurb/710971232'
p7
sS'price'
p8
S'N/A'
p9
sS'properties'
p10
(dp11
VRAM Memory
p12
V8 Gigabytes
p13
sVOperating System
p14
VWindows 10
p15
sVVideo Game Platform
p16
VPC
p17
sVBrand
p18
VHP
p19
sVProcessor Speed
p20
V2.50 Gigahertz
p21
sVManufacturer Part Number
p22
VW7B78UAR#ABL
p23
sVHard Drive Capacity
p24
V1 Terabytes
p25
sVBattery Life
p26
V9 Hour
p27
sVModel
p28
VW7B78UAR#ABL
p29
sVScreen Size
p30
V15.6 Inches
p31
sVProcessor Type
p32
VAMD A12-9700P A-Series Quad-core (4 Core)
p33
ssS'title'
p34
VHP 15-aw017ca Pavilion Touch 15.6" Notebook w/ AMD A12, 8GB RAM, 1TB HDD, Refurb
p35
sb.