ccopy_reg
_reconstructor
p0
(c__main__
ProductRecord
p1
c__builtin__
object
p2
Ntp3
Rp4
(dp5
S'product_url'
p6
S'http://www.walmart.com/ip/Dell-5285-Core-i5-128GB-SSD-12-3-UXGA-Touch-Win-10-Pro-Certified-Refurbished/620080361'
p7
sS'price'
p8
S'N/A'
p9
sS'properties'
p10
(dp11
VOperating System
p12
VMicrosoft Windows
p13
sVBrand
p14
VDell
p15
sVManufacturer Part Number
p16
VLAT190492SA
p17
sVHard Drive Capacity
p18
V128 GB
p19
sVAssembled Product Dimensions (L x W x H)
p20
V17.60 x 3.70 x 15.00 Inches
p21
sVModel
p22
VLAT190492SA
p23
sVScreen Size
p24
V12.3\u005c"
p25
sVCondition
p26
VRefurbished
p27
ssS'title'
p28
VDell 5285 Core i5 128GB SSD 12.3\u201d UXGA Touch Win 10 Pro (Certified Refurbished)
p29
sb.