ccopy_reg
_reconstructor
p0
(c__main__
ProductRecord
p1
c__builtin__
object
p2
Ntp3
Rp4
(dp5
S'product_url'
p6
S'http://www.walmart.com/ip/Lenovo-Thinkpad-13-Chromebook-13-3-Celeron-3855U-4-GB-RAM-16-GB-SSD/386293386'
p7
sS'price'
p8
S'N/A'
p9
sS'properties'
p10
(dp11
VRAM Memory
p12
V4 Gigabytes
p13
sVOperating System
p14
VChrome OS
p15
sVBrand
p16
VLenovo
p17
sVProcessor Speed
p18
V1.6 Gigahertz
p19
sVManufacturer Part Number
p20
V20GL0006US
p21
sVHard Drive Capacity
p22
V16 Gigabytes
p23
sVAssembled Product Dimensions (L x W x H)
p24
V19.00 x 12.00 x 4.00 Inches
p25
sVModel
p26
V20GL
p27
sVScreen Size
p28
V13.30 Inches
p29
sVProcessor Type
p30
VIntel 3855U
p31
sVCondition
p32
VNew
p33
ssS'title'
p34
VLenovo Thinkpad 13 Chromebook - 13.3" - Celeron 3855U - 4 GB RAM - 16 GB SSD
p35
sb.