ccopy_reg
_reconstructor
p0
(c__main__
ProductRecord
p1
c__builtin__
object
p2
Ntp3
Rp4
(dp5
S'product_url'
p6
S'http://www.walmart.com/ip/Manufacturer-Refurbished-HP-EliteBook-840-G4-14-Touch-Laptop-Intel-i5-7300u-2-6GHz-8GB-256GB-W10-C-GRADE/874980559'
p7
sS'price'
p8
S'N/A'
p9
sS'properties'
p10
(dp11
VRAM Memory
p12
V8 GB
p13
sVOperating System
p14
VMicrosoft Windows
p15
sVBrand
p16
VHP
p17
sVManufacturer Part Number
p18
V840 G4 C-GRADE-RF
p19
sVHard Drive Capacity
p20
V256 GB
p21
sVModel
p22
V840 G4 C-GRADE-RF
p23
sVScreen Size
p24
V14\u005c"
p25
ssS'title'
p26
VManufacturer Refurbished - HP EliteBook 840 G4 14" Touch Laptop Intel i5-7300u 2.6GHz 8GB 256GB W10 C GRADE
p27
sb.