ccopy_reg
_reconstructor
p0
(c__main__
ProductRecord
p1
c__builtin__
object
p2
Ntp3
Rp4
(dp5
S'product_url'
p6
S'http://www.walmart.com/ip/Manufacturer-Refurbished-Asus-N550JX-DS71T-15-6-Touch-Laptop-Intel-i7-4720HQ-2-6GHz-8GB-1TB-Windows-8-1/821462473'
p7
sS'price'
p8
S'N/A'
p9
sS'properties'
p10
(dp11
VRAM Memory
p12
V8 GB
p13
sVOperating System
p14
VMicrosoft Windows
p15
sVBrand
p16
VASUS
p17
sVManufacturer Part Number
p18
VN550JX-DS71T-RF
p19
sVHard Drive Capacity
p20
V1000 GB
p21
sVModel
p22
VN550JX-DS71T-RF
p23
ssS'title'
p24
VManufacturer Refurbished - Asus N550JX-DS71T 15.6 Touch Laptop Intel i7-4720HQ 2.6GHz 8GB 1TB Windows 8.1
p25
sb.