ccopy_reg
_reconstructor
p0
(c__main__
ProductRecord
p1
c__builtin__
object
p2
Ntp3
Rp4
(dp5
S'product_url'
p6
S'http://www.walmart.com/ip/Refurbished-Dell-Inspiron-Blue-15-5000-Touch-i5567-15-6-HD-Display-i3-7100U-3-90GHz-8GB-DDR4-1TB-5400rpm-DVD-RW-Bluetooth-4-2-Windows-10-Pro/715473484'
p7
sS'price'
p8
S'N/A'
p9
sS'properties'
p10
(dp11
VBrand
p12
VDell
p13
sVRAM Memory
p14
V8 GB
p15
sVOperating System
p16
VMicrosoft Windows
p17
ssS'title'
p18
VRefurbished Dell Inspiron Blue 15 5000 Touch - i5567 (15.6? HD Display, i3-7100U 3.90GHz, 8GB DDR4, 1TB 5400rpm, DVD-RW, Bluetooth 4.2, Windows 10 Pro
p19
sb.