ccopy_reg
_reconstructor
p0
(c__main__
ProductRecord
p1
c__builtin__
object
p2
Ntp3
Rp4
(dp5
S'product_url'
p6
S'http://www.walmart.com/ip/REFURBISHED-HP-PROBOOK-440-G2-TouchScreen-Core-i3-4030U-1-9GHz-8GB-500GB-HDD-1/652064060'
p7
sS'price'
p8
S'N/A'
p9
sS'properties'
p10
(dp11
VBrand
p12
VLenovo
p13
sVHard Drive Capacity
p14
V500
p15
ssS'title'
p16
VREFURBISHED - HP PROBOOK 440 G2 TouchScreen Core i3-4030U 1.9GHz 8GB 500GB HDD 1
p17
sb.