ccopy_reg
_reconstructor
p0
(c__main__
ProductRecord
p1
c__builtin__
object
p2
Ntp3
Rp4
(dp5
S'product_url'
p6
S'http://www.walmart.com/ip/Acer-CB5-312T-K6TF-13-3-34-16-9-Chromebook-1920-x-1080-Touchscreen-In-plane-Switching-IPS-Technology-MediaTek-M8173C-Quad-core-4-Core-2-10-GHz-4-GB-L/632776265'
p7
sS'price'
p8
S'N/A'
p9
sS'properties'
p10
(dp11
VBrand
p12
VACER- CHROME PRODUCTS
p13
sVScreen Size
p14
V13.3
p15
ssS'title'
p16
VAcer CB5-312T-K6TF 13.3" 16:9 Chromebook - 1920 x 1080 Touchscreen - In-plane Switching (IPS) Technology - MediaTek M8173C Quad-core (4 Core) 2.10 GHz - 4 GB LPDDR3 - 32 GB Flash Memory Capac
p17
sb.