ccopy_reg
_reconstructor
p0
(c__main__
ProductRecord
p1
c__builtin__
object
p2
Ntp3
Rp4
(dp5
S'product_url'
p6
S'http://www.walmart.com/ip/Acer-Aspire-Switch-Alpha-12-Sa5-271p-38uz-12-Touchscreen-Led-in-plane-Switching-ips-Technology-2-1-Notebook-Intel-Core-I3-6th-Gen-I3-6100u-Dual-core-/52694922'
p7
sS'price'
p8
S'N/A'
p9
sS'properties'
p10
(dp11
VRAM Memory
p12
V4 GB
p13
sVOperating System
p14
VMicrosoft Windows
p15
sVBrand
p16
VAcer
p17
sVProcessor Speed
p18
V2.30 GHz
p19
sVManufacturer Part Number
p20
VNT.LCEAA.001
p21
sVHard Drive Capacity
p22
V128 GB
p23
sVModel
p24
VNT.LCEAA.001
p25
sVScreen Size
p26
V12"
p27
sVProcessor Type
p28
VIntel Core i3
p29
sVCondition
p30
VNew
p31
ssS'title'
p32
VAcer Aspire Switch Alpha 12 Sa5-271p-38uz 12" Touchscreen Led [in-plane Switching [ips] Technology] 2 In 1 Notebook - Intel Core I3 [6th Gen] I3-6100u Dual-core [2 Core] 2.30 Ghz - (nt-lceaa-001)
p33
sb.