ccopy_reg
_reconstructor
p0
(c__main__
ProductRecord
p1
c__builtin__
object
p2
Ntp3
Rp4
(dp5
S'product_url'
p6
S'http://www.walmart.com/ip/Manufacturer-Refurbished-Acer-Aspire-R13-R7-371T-78XG-13-3-Laptop-Touchscreen-2-in-1-Windows-10-Intel-Core-i7-5500U-Dual-Core-Processor-8GB-RAM-512GB/51871963'
p7
sS'price'
p8
S'N/A'
p9
sS'properties'
p10
(dp11
VRAM Memory
p12
V8 GB
p13
sVOperating System
p14
VWindows 8
p15
sVVideo Game Platform
p16
VPC
p17
sVBrand
p18
VAcer
p19
sVProcessor Speed
p20
V2 GHz
p21
sVManufacturer Part Number
p22
VNX.MQPAA.019
p23
sVHard Drive Capacity
p24
V512 GB
p25
sVBattery Life
p26
V7 hours 30 minutes
p27
sVAssembled Product Dimensions (L x W x H)
p28
V16.00 x 12.00 x 4.00 Inches
p29
sVModel
p30
VR7-371T-78XG
p31
sVScreen Size
p32
V13.3"
p33
sVProcessor Type
p34
VIntel Core i7
p35
sVCondition
p36
VRefurbished
p37
ssS'title'
p38
VManufacturer Refurbished Acer Aspire R13 R7-371T-78XG 13.3" Laptop, Touchscreen, 2-in-1, Windows 10, Intel Core i7-5500U Dual-Core Processor, 8GB RAM, 512GB Solid State Drive
p39
sb.