ccopy_reg
_reconstructor
p0
(c__main__
ProductRecord
p1
c__builtin__
object
p2
Ntp3
Rp4
(dp5
S'product_url'
p6
S'http://www.walmart.com/ip/Refurbished-Dell-Inspiron-15-I5559-8013SLV-Laptop-PC-Intel-Core-i7-6500U-2-5-GHz-Dual-Core-Processor-16-GB-DDR3L-SDRAM-1-TB-Hard-Drive-15-6-inch-Touc/661935172'
p7
sS'price'
p8
S'N/A'
p9
sS'properties'
p10
(dp11
sS'title'
p12
VRefurbished Dell Inspiron 15 I5559-8013SLV Laptop PC - Intel Core i7-6500U 2.5 GHz Dual-Core Processor - 16 GB DDR3L SDRAM - 1 TB Hard Drive - 15.6-inch Touchscreen Display - Windows 10 Home 64-bit
p13
sb.