ccopy_reg
_reconstructor
p0
(c__main__
ProductRecord
p1
c__builtin__
object
p2
Ntp3
Rp4
(dp5
S'product_url'
p6
S'http://www.walmart.com/ip/Original-HP-45W-AC-Charger-Power-Adapter-Cord-HP-Pavilion-x360-Convertible-15-bk163dx-15-bk167cl-15-bk177cl-15-bk193ms-15-br010ca-15-br010nr-15-br020/127060589'
p7
sS'price'
p8
S'N/A'
p9
sS'properties'
p10
(dp11
VBrand
p12
VHP
p13
ssS'title'
p14
VOriginal HP 45W AC Charger Power Adapter Cord For HP Pavilion x360 Convertible 15-bk163dx 15-bk167cl 15-bk177cl 15-bk193ms 15-br010ca 15-br010nr 15-br020ca
p15
sb.