ccopy_reg
_reconstructor
p0
(c__main__
ProductRecord
p1
c__builtin__
object
p2
Ntp3
Rp4
(dp5
S'product_url'
p6
S'http://www.walmart.com/ip/Panasonic-Toughbook-CF-U1GQGXZ1M-5-6-Touchscreen-Rugged-Ultra-Refurbished/168751597'
p7
sS'price'
p8
S'N/A'
p9
sS'properties'
p10
(dp11
VRAM Memory
p12
V0 GB
p13
sVOperating System
p14
VMicrosoft Windows
p15
sVBrand
p16
VPanasonic
p17
sVHard Drive Capacity
p18
V64 GB
p19
sVModel
p20
VCF-U1GQGXZ1M
p21
sVScreen Size
p22
V5.6 in
p23
sVProcessor Speed
p24
V0 GHz
p25
ssS'title'
p26
VPanasonic Toughbook CF-U1GQGXZ1M 5.6" Touchscreen Rugged Ultra (Refurbished)
p27
sb.