ccopy_reg
_reconstructor
p0
(c__main__
ProductRecord
p1
c__builtin__
object
p2
Ntp3
Rp4
(dp5
S'product_url'
p6
S'http://www.walmart.com/ip/REFURBISHED-Panasonic-Laptop-Rugged-CF-31-Toughbook-13-1-TOUCHSCREEN-i5-2-4GHz-CPU-1TB-HDD-8GB-RAM-Windows-7-Pro-WiFi-DVD-CD-RW-Custom-Refurb/466016870'
p7
sS'price'
p8
S'N/A'
p9
sS'properties'
p10
(dp11
VOperating System
p12
VMicrosoft Windows
p13
sVBrand
p14
VHP
p15
sVScreen Size
p16
V13.1 in
p17
sVHard Drive Capacity
p18
V1000 KB
p19
ssS'title'
p20
VREFURBISHED Panasonic Laptop Rugged CF-31 Toughbook - 13.1" TOUCHSCREEN - i5 2.4GHz CPU - 1TB HDD - 8GB RAM - Windows 7 Pro  - WiFi - DVD/CD-RW Custom Refurb
p21
sb.