ccopy_reg
_reconstructor
p0
(c__main__
ProductRecord
p1
c__builtin__
object
p2
Ntp3
Rp4
(dp5
S'product_url'
p6
S'http://www.walmart.com/ip/Manufacturer-Refurbished-HP-Elite-x2-1012-G1-12-Tablet-Intel-Core-m7-6Y75-1-20GHz-8GB-256GB-SSD-W10/237316322'
p7
sS'price'
p8
S'N/A'
p9
sS'properties'
p10
(dp11
VHard Drive Capacity
p12
V256 GB
p13
sVBrand
p14
VHP
p15
sVScreen Size
p16
V12\u005c"
p17
sVModel
p18
VW0S24UT-RF
p19
sVManufacturer Part Number
p20
VW0S24UT-RF
p21
ssS'title'
p22
VManufacturer Refurbished - HP Elite x2 1012 G1 12" Tablet Intel Core m7-6Y75 1.20GHz 8GB 256GB SSD W10
p23
sb.