ccopy_reg
_reconstructor
p0
(c__main__
ProductRecord
p1
c__builtin__
object
p2
Ntp3
Rp4
(dp5
S'product_url'
p6
S'http://www.walmart.com/ip/SMART-BUY-810-I5-5200U-11-6IN-4GB-128/195891357'
p7
sS'price'
p8
S'N/A'
p9
sS'properties'
p10
(dp11
VRAM Memory
p12
V4
p13
sVOperating System
p14
VWindows 7
p15
sVBrand
p16
VHP
p17
sVProcessor Speed
p18
V2.2
p19
sVManufacturer Part Number
p20
VT6D92UT#ABA
p21
sVMaximum RAM Supported
p22
V12 GB
p23
sVHard Drive Capacity
p24
V128
p25
sVBattery Life
p26
V12 hours
p27
sVAssembled Product Dimensions (L x W x H)
p28
V0.87 x 11.22 x 8.35 Inches
p29
sVModel
p30
VT6D92UT#ABA
p31
sVScreen Size
p32
V11.60 in
p33
sVProcessor Type
p34
VIntel i5-5200U
p35
sVCondition
p36
VNew
p37
ssS'title'
p38
VSMART BUY 810 I5-5200U 11.6IN 4GB 128
p39
sb.