ccopy_reg
_reconstructor
p0
(c__main__
ProductRecord
p1
c__builtin__
object
p2
Ntp3
Rp4
(dp5
S'product_url'
p6
S'http://www.walmart.com/ip/Lenovo-U530-Laptop-Computer-Touch-59428052-i7-4510U-8-0GB-PC3-12800-DDR3L-500GB-5400RPM-8GB-SSHD-Windows-8-1-64/117477232'
p7
sS'price'
p8
S'N/A'
p9
sS'properties'
p10
(dp11
VBrand
p12
VLenovo
p13
sVManufacturer Part Number
p14
V59428052
p15
sVCondition
p16
VNew
p17
ssS'title'
p18
VLenovo U530 Laptop Computer Touch - 59428052 i7-4510U/ 8.0GB PC3-12800 DDR3L/500GB 5400RPM+8GB SSHD/Windows 8.1 64
p19
sb.