ccopy_reg
_reconstructor
p0
(c__main__
ProductRecord
p1
c__builtin__
object
p2
Ntp3
Rp4
(dp5
S'product_url'
p6
S'http://www.walmart.com/ip/Acer-TravelMate-P449-M-516P-14-Core-i5-6200U-8-GB-RAM-256-GB-SSD-US-International/55395367'
p7
sS'price'
p8
S'N/A'
p9
sS'properties'
p10
(dp11
VRAM Memory
p12
V8 Gigabytes
p13
sVOperating System
p14
VWindows 10
p15
sVFeatures
p16
V256GB SSD 14IN 11AC W10P
p17
sVVideo Game Platform
p18
VPlayStation 4
p19
sVBrand
p20
VAcer
p21
sVProcessor Speed
p22
V2.3 Gigahertz
p23
sVManufacturer Part Number
p24
VNX.VDUAA.005
p25
sVMaximum RAM Supported
p26
V20 Gigabytes
p27
sVHard Drive Capacity
p28
V256 Gigabytes
p29
sVBattery Life
p30
V8 Hours
p31
sVAssembled Product Dimensions (L x W x H)
p32
V13.50 x 9.30 x 0.87 Inches
p33
sVModel
p34
VNX.VDUAA.005
p35
sVScreen Size
p36
V14.00 Inches
p37
sVProcessor Type
p38
VIntel i5-6200U
p39
sVCondition
p40
VNew
p41
ssS'title'
p42
VAcer TravelMate P449-M-516P - 14" - Core i5 6200U - 8 GB RAM - 256 GB SSD - US International
p43
sb.