ccopy_reg
_reconstructor
p0
(c__main__
ProductRecord
p1
c__builtin__
object
p2
Ntp3
Rp4
(dp5
S'product_url'
p6
S'http://www.walmart.com/ip/Fujitsu-LIFEBOOK-P727-Flip-design-Celeron-3965U-Windows-10-S-4-GB-RAM-64-GB-SSD-12-5-touchscreen-1366-x-768-HD-HD-Graphics-610-Wi-Fi-Bluetooth-matte-/219259648'
p7
sS'price'
p8
S'N/A'
p9
sS'properties'
p10
(dp11
VRAM Memory
p12
V4 GB
p13
sVOperating System
p14
VMicrosoft Windows
p15
sVBrand
p16
VFujitsu
p17
sVHard Drive Capacity
p18
V64 GB
p19
sVScreen Size
p20
V12.5\u005c"
p21
sVCondition
p22
VNew
p23
ssS'title'
p24
VFujitsu LIFEBOOK P727 - Flip design - Celeron 3965U - Windows 10 S - 4 GB RAM - 64 GB SSD - 12.5" touchscreen 1366 x 768 (HD) - HD Graphics 610 - Wi-Fi, Bluetooth - matte black - kbd: US
p25
sb.