ccopy_reg
_reconstructor
p0
(c__main__
ProductRecord
p1
c__builtin__
object
p2
Ntp3
Rp4
(dp5
S'product_url'
p6
S'http://www.walmart.com/ip/REFURBISHED-HP-EliteBook-840-G2-14-Inch-FHD-touchscreen-Intel-i5-5300U-8-GB/798597215'
p7
sS'price'
p8
S'N/A'
p9
sS'properties'
p10
(dp11
VBrand
p12
VSony
p13
sVScreen Size
p14
V14
p15
sVHard Drive Capacity
p16
V8
p17
sVCondition
p18
VRefurbished
p19
ssS'title'
p20
VREFURBISHED - HP EliteBook 840 G2 14-Inch FHD touchscreen (Intel i5-5300U, 8 GB
p21
sb.