ccopy_reg
_reconstructor
p0
(c__main__
ProductRecord
p1
c__builtin__
object
p2
Ntp3
Rp4
(dp5
S'product_url'
p6
S'http://www.walmart.com/ip/REFURBISHED-Sturdy-Panasonic-CF-31-Toughbook-Intel-Core-i5-2540M-2-6GHz-256GB-SSD-12GB-DDR3-RAM-13-1-TOUCHSCREEN-Display-Win-7-PRO-WiFi-LAPTOP-PC/613855378'
p7
sS'price'
p8
S'N/A'
p9
sS'properties'
p10
(dp11
VOperating System
p12
VMicrosoft Windows
p13
sVBrand
p14
VHP
p15
sVRAM Memory
p16
V12 GB
p17
sVScreen Size
p18
V13.1\u005c"
p19
ssS'title'
p20
VREFURBISHED Sturdy Panasonic CF-31 Toughbook - Intel Core i5-2540M 2.6GHz -256GB SSD - 12GB DDR3 RAM - 13.1" TOUCHSCREEN Display- Win 7 PRO WiFi LAPTOP PC
p21
sb.