ccopy_reg
_reconstructor
p0
(c__main__
ProductRecord
p1
c__builtin__
object
p2
Ntp3
Rp4
(dp5
S'product_url'
p6
S'http://www.walmart.com/ip/REFURBISHED-Dell-XPS-9343-13-3-UltraSharp-QHD-Touchscreen-3200x1800-LED-Anti-glare-display-Laptop-Intel-Core-i5-2-2GHz-8GB-RAM-256GB-SSD-802-11ac-Blu/144119083'
p7
sS'price'
p8
S'N/A'
p9
sS'properties'
p10
(dp11
VOperating System
p12
VMicrosoft Windows
p13
sVBrand
p14
VDell
p15
sVRAM Memory
p16
V8 GB
p17
sVScreen Size
p18
V13.3\u005c"
p19
sVHard Drive Capacity
p20
V256 GB
p21
ssS'title'
p22
VREFURBISHED Dell XPS 9343 13.3" UltraSharp QHD+ Touchscreen 3200x1800 LED Anti-glare display Laptop, Intel Core i5 2.2GHz, 8GB RAM, 256GB SSD, 802.11ac, Bluetooth 4, Mini DisplayPort, Windows 10 Home
p23
sb.