ccopy_reg
_reconstructor
p0
(c__main__
ProductRecord
p1
c__builtin__
object
p2
Ntp3
Rp4
(dp5
S'product_url'
p6
S'http://www.walmart.com/ip/HP-ProBook-440-G4-14-34-16-9-Notebook-1366-x-768-Intel-Core-i3-7th-Gen-i3-7100U-Dual-core-2-Core-2-40-GHz-4-GB-DDR4-SDRAM-500-GB-HDD-Windows-10-Home-/372164564'
p7
sS'price'
p8
S'N/A'
p9
sS'properties'
p10
(dp11
VAssembled Product Dimensions (L x W x H)
p12
V20.00 x 12.00 x 3.00 Inches
p13
sVBrand
p14
VHP
p15
sVScreen Size
p16
V14
p17
sVHard Drive Capacity
p18
V500
p19
ssS'title'
p20
VHP ProBook 440 G4 14" 16:9 Notebook - 1366 x 768 - Intel Core i3 (7th Gen) i3-7100U Dual-core (2 Core) 2.40 GHz - 4 GB DDR4 SDRAM - 500 GB HDD - Windows 10 Home 64-bit (English) - Intel HD Gr
p21
sb.