ccopy_reg
_reconstructor
p0
(c__main__
ProductRecord
p1
c__builtin__
object
p2
Ntp3
Rp4
(dp5
S'product_url'
p6
S'http://www.walmart.com/ip/REFURBISHED-ProBook-440-G2-14-Touchscreen-LED-Notebook-Intel-Core-i5-i5-421/755141324'
p7
sS'price'
p8
S'N/A'
p9
sS'properties'
p10
(dp11
VBrand
p12
VHP
p13
sVScreen Size
p14
V14
p15
sVCondition
p16
VRefurbished
p17
ssS'title'
p18
VREFURBISHED - ProBook 440 G2 14" Touchscreen LED Notebook - Intel Core i5 i5-421
p19
sb.