ccopy_reg
_reconstructor
p0
(c__main__
ProductRecord
p1
c__builtin__
object
p2
Ntp3
Rp4
(dp5
S'product_url'
p6
S'http://www.walmart.com/ip/REFURBISHED-Dell-XPS-13-13-3-Inch-Touchscreen-Laptop-XPS9343-6364SLV-Discontinued-By-Manufacturer/657568863'
p7
sS'price'
p8
S'N/A'
p9
sS'properties'
p10
(dp11
VOperating System
p12
VMicrosoft Windows
p13
sVBrand
p14
VDell
p15
sVScreen Size
p16
V13.3
p17
ssS'title'
p18
VREFURBISHED Dell XPS 13 13.3-Inch Touchscreen Laptop (XPS9343-6364SLV) [Discontinued By Manufacturer]
p19
sb.