ccopy_reg
_reconstructor
p0
(c__main__
ProductRecord
p1
c__builtin__
object
p2
Ntp3
Rp4
(dp5
S'product_url'
p6
S'http://www.walmart.com/ip/REFURBISHED-HP-ProBook-440-G2-14-Touchscreen-LED-Notebook-Intel-Core-i5-i5-5200U-2-20-GHz/401925718'
p7
sS'price'
p8
S'N/A'
p9
sS'properties'
p10
(dp11
VOperating System
p12
VMicrosoft Windows
p13
sVBrand
p14
VHP
p15
sVScreen Size
p16
V14\u005c"
p17
ssS'title'
p18
VREFURBISHED HP ProBook 440 G2 14" Touchscreen LED Notebook - Intel Core i5 i5-5200U 2.20 GHz
p19
sb.