ccopy_reg
_reconstructor
p0
(c__main__
ProductRecord
p1
c__builtin__
object
p2
Ntp3
Rp4
(dp5
S'product_url'
p6
S'http://www.walmart.com/ip/Refurbished-Dell-XPS-9343-13-3-Intel-Core-i5-5200U-CPU-Touchscreen-256GB-SSD-8GB-Ram-Win-10/240858215'
p7
sS'price'
p8
S'N/A'
p9
sS'properties'
p10
(dp11
VOperating System
p12
VMicrosoft Windows
p13
sVBrand
p14
VDell
p15
sVScreen Size
p16
V13.3 in
p17
sVHard Drive Capacity
p18
V256 KB
p19
ssS'title'
p20
VRefurbished Dell XPS 9343 13.3" Intel Core i5-5200U CPU Touchscreen 256GB SSD 8GB Ram Win 10
p21
sb.