ccopy_reg
_reconstructor
p0
(c__main__
ProductRecord
p1
c__builtin__
object
p2
Ntp3
Rp4
(dp5
S'product_url'
p6
S'http://www.walmart.com/ip/Acer-Switch-5-2-in-1-Notebook-with-Intel-i7-7200U-8GB-256GB-SSD/824093356'
p7
sS'price'
p8
S'N/A'
p9
sS'properties'
p10
(dp11
VRAM Memory
p12
V8 Gigabytes
p13
sVOperating System
p14
VWindows 10
p15
sVBrand
p16
VAcer
p17
sVProcessor Speed
p18
V2.5 Gigahertz
p19
sVManufacturer Part Number
p20
VNT.LDSAA.003
p21
sVHard Drive Capacity
p22
V256 Gigabytes
p23
sVBattery Life
p24
V0 h
p25
sVAssembled Product Dimensions (L x W x H)
p26
V15.00 x 10.00 x 3.00 Inches
p27
sVModel
p28
VNT.LDSAA.003
p29
sVScreen Size
p30
V12.00 Inches
p31
sVProcessor Type
p32
VIntel i5-7200U
p33
sVCondition
p34
VNew
p35
ssS'title'
p36
VAcer Switch 5 2-in-1 Notebook with Intel i7-7200U, 8GB 256GB SSD
p37
sb.