ccopy_reg
_reconstructor
p0
(c__main__
ProductRecord
p1
c__builtin__
object
p2
Ntp3
Rp4
(dp5
S'product_url'
p6
S'http://www.walmart.com/ip/Refurbished-HP-Spectre-x360-15-ap000-15-ap012dx-15-6-Touchscreen-LCD-2-1-Notebook-Intel-Core-i7-6th-Gen-i7-6500U-Dual-core-2-Core-2-50-GHz-16-GB-LPDD/938353844'
p7
sS'price'
p8
S'N/A'
p9
sS'properties'
p10
(dp11
sS'title'
p12
VRefurbished HP Spectre x360 15-ap000 15-ap012dx 15.6" Touchscreen LCD 2 in 1 Notebook - Intel Core i7 (6th Gen) i7-6500U Dual-core (2 Core) 2.50 GHz - 16 GB LPDDR3 - 256 GB SSD - Windows 10 Home
p13
sb.