ccopy_reg
_reconstructor
p0
(c__main__
ProductRecord
p1
c__builtin__
object
p2
Ntp3
Rp4
(dp5
S'product_url'
p6
S'http://www.walmart.com/ip/Dell-XPS-13-9350-Intel-Core-i5-6200U-X2-2-3GHz-8GB-128GB-SSD-13-3-Silver-Certified-Refurbished/192764954'
p7
sS'price'
p8
S'N/A'
p9
sS'properties'
p10
(dp11
VRAM Memory
p12
V8 Gigabytes
p13
sVOperating System
p14
VWindows 10
p15
sVFeatures
p16
VEnergy Star Compliant, Gold EPEAT
p17
sVBrand
p18
VDell
p19
sVManufacturer Part Number
p20
V1471983297-RFB
p21
sVMaximum RAM Supported
p22
V8 Gigabytes
p23
sVHard Drive Capacity
p24
V128 Gigabytes
p25
sVBattery Life
p26
V15 Hours
p27
sVAssembled Product Dimensions (L x W x H)
p28
V12.00 x 7.90 x 0.60 Inches
p29
sVProcessor Type
p30
VIntel Core i5
p31
sVScreen Size
p32
V13.3 Inches
p33
sVProcessor Speed
p34
V2.3 Gigahertz
p35
ssS'title'
p36
VDell XPS 13-9350 Intel Core i5-6200U X2 2.3GHz 8GB 128GB SSD 13.3",Silver (Certified Refurbished)
p37
sb.