ccopy_reg
_reconstructor
p0
(c__main__
ProductRecord
p1
c__builtin__
object
p2
Ntp3
Rp4
(dp5
S'product_url'
p6
S'http://www.walmart.com/ip/Microsoft-Surface-Book-13-5-Core-i7-6600U-8-GB-RAM-256-GB-SSD-English-North-America/130512812'
p7
sS'price'
p8
S'N/A'
p9
sS'properties'
p10
(dp11
VRAM Memory
p12
V8 GB
p13
sVOperating System
p14
VMicrosoft Windows
p15
sVVideo Game Platform
p16
VPC
p17
sVBrand
p18
VMicrosoft
p19
sVProcessor Speed
p20
V2.6 GHz
p21
sVManufacturer Part Number
p22
VVP7-00001
p23
sVMaximum RAM Supported
p24
V8 GB
p25
sVBattery Life
p26
V12 hours
p27
sVAssembled Product Dimensions (L x W x H)
p28
V16.30 x 10.90 x 1.90 Inches
p29
sVModel
p30
VBook
p31
sVScreen Size
p32
V13.5"
p33
sVProcessor Type
p34
VIntel Core i7
p35
sVCondition
p36
VNew
p37
ssS'title'
p38
VMicrosoft Surface Book - 13.5" - Core i7 6600U - 8 GB RAM - 256 GB SSD - English - North America
p39
sb.