ccopy_reg
_reconstructor
p0
(c__main__
ProductRecord
p1
c__builtin__
object
p2
Ntp3
Rp4
(dp5
S'product_url'
p6
S'http://www.walmart.com/ip/HP-Laptop-15z-touchscreen-15-6-inch-AMD-Dual-Core-A6-9220-APU-AMD-Radeon-R4-Graphics-16GB-RAM-512GB-SSD-15-6-HD-SVA-WLED-backlit-touch-1366-x-768-Dis/809479743'
p7
sS'price'
p8
S'N/A'
p9
sS'properties'
p10
(dp11
VRAM Memory
p12
V16 GB
p13
sVOperating System
p14
VMicrosoft Windows
p15
sVBrand
p16
VMichaelElectronics2
p17
sVManufacturer Part Number
p18
VHP-15-02342-HD-ME9
p19
sVHard Drive Capacity
p20
V512 GB
p21
sVProcessor Type
p22
VAMD Dual-Core A6-9220 APU
p23
sVScreen Size
p24
V15.6 in
p25
sVProcessor Speed
p26
V2.5 GHz
p27
ssS'title'
p28
VHP Laptop - 15z touchscreen 15.6-inch (AMD Dual-Core A6-9220 APU, AMD Radeon R4 Graphics, 16GB RAM, 512GB SSD, 15.6" HD SVA WLED-backlit touch (1366 x 768) Display, Windows 10 Home) Natural Silver
p29
sb.