ccopy_reg
_reconstructor
p0
(c__main__
ProductRecord
p1
c__builtin__
object
p2
Ntp3
Rp4
(dp5
S'product_url'
p6
S'http://www.walmart.com/ip/HP-Pavilion-15t-High-Performance-Laptop-PC-Intel-7th-Gen-i5-Kaby-Lake-Processor-16GB-RAM-240GB-SSD-15-6-Inch-FHD-1920-x-1080-Touchscreen-DVD-burner-W/788404518'
p7
sS'price'
p8
S'N/A'
p9
sS'properties'
p10
(dp11
VRAM Memory
p12
V16 GB
p13
sVOperating System
p14
VMicrosoft Windows
p15
sVBrand
p16
VMichaelElectronics2
p17
sVManufacturer Part Number
p18
VHP-15-02240-FHD-ME1
p19
sVHard Drive Capacity
p20
V240 GB
p21
sVProcessor Type
p22
V7th-Generation Kaby Lake Intel Core i5-7200U
p23
sVScreen Size
p24
V15.6 in
p25
sVProcessor Speed
p26
V2.5 GHz
p27
ssS'title'
p28
VHP Pavilion 15t High Performance Laptop PC ( Intel 7th Gen i5 Kaby Lake Processor, 16GB RAM, 240GB SSD, 15.6 Inch FHD (1920 x 1080) Touchscreen, DVD burner, Wifi, Bluetooth, Windows 10 Home)
p29
sb.