ccopy_reg
_reconstructor
p0
(c__main__
ProductRecord
p1
c__builtin__
object
p2
Ntp3
Rp4
(dp5
S'product_url'
p6
S'http://www.walmart.com/ip/REFURBISHED-Panasonic-CF-31-Toughbook-i5-520M-2-4GHz-Touchscreen-16GB-SSD-500GB-HDD-Win-7-Pro/217563675'
p7
sS'price'
p8
S'N/A'
p9
sS'properties'
p10
(dp11
VBrand
p12
VHP
p13
ssS'title'
p14
VREFURBISHED Panasonic CF-31 Toughbook (i5-520M 2.4GHz Touchscreen, 16GB SSD, 500GB HDD, Win 7 Pro)
p15
sb.