ccopy_reg
_reconstructor
p0
(c__main__
ProductRecord
p1
c__builtin__
object
p2
Ntp3
Rp4
(dp5
S'product_url'
p6
S'http://www.walmart.com/ip/REFURBISHED-Sturdy-Panasonic-CF-31-Toughbook-Laptop-Intel-Core-i5-2540M-2-6GHz-256GB-SSD-16GB-DDR3-RAM-13-1-TOUCHSCREEN-Win-7-PRO-WiFi/314431080'
p7
sS'price'
p8
S'N/A'
p9
sS'properties'
p10
(dp11
VOperating System
p12
VMicrosoft Windows
p13
sVBrand
p14
VHP
p15
sVRAM Memory
p16
V16 GB
p17
sVScreen Size
p18
V13.1\u005c"
p19
sVHard Drive Capacity
p20
V256 GB
p21
ssS'title'
p22
VREFURBISHED Sturdy Panasonic CF-31 Toughbook Laptop - Intel Core i5-2540M 2.6GHz - 256GB SSD - 16GB DDR3 RAM - 13.1" TOUCHSCREEN - Win 7 PRO WiFi
p23
sb.