ccopy_reg
_reconstructor
p0
(c__main__
ProductRecord
p1
c__builtin__
object
p2
Ntp3
Rp4
(dp5
S'product_url'
p6
S'http://www.walmart.com/ip/HP-15-6-Premium-Touchscreen-Notebook-Intel-Dual-Core-i7-7500U-2-7GHz-Upto-3-5GHz-8GB-DDR4-128GB-SSD-Plus-1TB-HDD-Card-Reader-HDMI-RJ-45-USB-Wifi-Blue/263254464'
p7
sS'price'
p8
S'N/A'
p9
sS'properties'
p10
(dp11
VRAM Memory
p12
V8 GB
p13
sVOperating System
p14
VMicrosoft Windows
p15
sVBrand
p16
VHP
p17
sVManufacturer Part Number
p18
VHP15ti77t-81281P
p19
sVModel
p20
VHP15ti77t-81281P
p21
sVScreen Size
p22
V15.6\u005c"
p23
sVCondition
p24
VNew
p25
ssS'title'
p26
VHP 15.6" Premium Touchscreen Notebook, Intel Dual-Core i7-7500U 2.7GHz Upto 3.5GHz, 8GB DDR4, 128GB SSD Plus 1TB HDD, Card Reader, HDMI, RJ-45, USB, Wifi, Bluetooth, Windows 10 Professional 64Bit
p27
sb.