ccopy_reg
_reconstructor
p0
(c__main__
ProductRecord
p1
c__builtin__
object
p2
Ntp3
Rp4
(dp5
S'product_url'
p6
S'http://www.walmart.com/ip/Refurbished-Acer-23-8-Intel-Core-i7-2-9-GHz-16-GB-Ram-2-TB-HDD-Windows-10-Home-AZ3-715-UR12/173665828'
p7
sS'price'
p8
S'N/A'
p9
sS'properties'
p10
(dp11
VRAM Memory
p12
V16 GB
p13
sVOperating System
p14
VWindows 10
p15
sVBrand
p16
VAcer
p17
sVManufacturer Part Number
p18
VDQ.B86AA.002
p19
sVModel
p20
VAZ3-715-UR12
p21
sVScreen Size
p22
V23.8 in
p23
sVProcessor Speed
p24
V2.90 GHz
p25
sVCondition
p26
VNew
p27
ssS'title'
p28
VRefurbished Acer 23.8" Intel Core i7 2.9 GHz 16 GB Ram 2 TB HDD Windows 10 Home|AZ3-715-UR12
p29
sb.