ccopy_reg
_reconstructor
p0
(c__main__
ProductRecord
p1
c__builtin__
object
p2
Ntp3
Rp4
(dp5
S'product_url'
p6
S'http://www.walmart.com/ip/Dell-Re-certified-Latitude-14w-7480-Series-Business-Class-Ultrabook-Laptop-INTEL-i5-7300U-3-5GHZ-4GB-128GB-Wi-Fi-BT-WIN-10-PRO-WEBCAM/725659585'
p7
sS'price'
p8
S'N/A'
p9
sS'properties'
p10
(dp11
VRAM Memory
p12
V4 GB
p13
sVOperating System
p14
VWindows 10 Professional, Windows 10
p15
sVBrand
p16
VDell
p17
sVHard Drive Capacity
p18
V128 GB
p19
sVProcessor Type
p20
VIntel Core i5
p21
sVProcessor Speed
p22
V3.50 GHz
p23
sVCondition
p24
VNew
p25
ssS'title'
p26
VDell Re-certified Latitude 14w 7480 Series Business Class Ultrabook Laptop, INTEL i5-7300U 3.5GHZ, 4GB 128GB  Wi-Fi + BT, WIN 10 PRO, WEBCAM
p27
sb.