ccopy_reg
_reconstructor
p0
(c__main__
ProductRecord
p1
c__builtin__
object
p2
Ntp3
Rp4
(dp5
S'product_url'
p6
S'http://www.walmart.com/ip/POSIFLEX-XT3815217DFA-POSIFLEX-TOUCH-SCREEN-TERMINAL-15-INCH-INTEL-CELERON-2GHZ-64GB-SSD-4GB-RAM-PROJECTED-CAPACITIVE-TOUCH-OS-XT3815217DFA/654890932'
p7
sS'price'
p8
S'N/A'
p9
sS'properties'
p10
(dp11
VBrand
p12
VPosiflex
p13
sVRAM Memory
p14
V4 GB
p15
sVCondition
p16
VNew
p17
ssS'title'
p18
VPOSIFLEX XT3815217DFA POSIFLEX, TOUCH SCREEN TERMINAL, 15 INCH, INTEL CELERON 2GHZ, 64GB SSD, 4GB RAM, PROJECTED CAPACITIVE TOUCH, NO OS, XT3815217DFA
p19
sb.