ccopy_reg
_reconstructor
p0
(c__main__
ProductRecord
p1
c__builtin__
object
p2
Ntp3
Rp4
(dp5
S'product_url'
p6
S'http://www.walmart.com/ip/Dell-Inspiron-i53787171GRY-13-3-Laptop-Touchscreen-Windows-10-Home-Intel-Core-i7-7500U-Processor-8GB-RAM-256GB-Solid-State-Drive/54748283'
p7
sS'price'
p8
S'N/A'
p9
sS'properties'
p10
(dp11
VRAM Memory
p12
V8 GB
p13
sVOperating System
p14
VWindows 10
p15
sVColor Category
p16
VGray
p17
sVVideo Game Platform
p18
VPC
p19
sVBrand
p20
VDell
p21
sVManufacturer Part Number
p22
Vi5378-7171GRY
p23
sVHard Drive Capacity
p24
V256 GB
p25
sVLaptop Computer Type
p26
VTouchscreen
p27
sVProcessor Core Type
p28
VDual-core (2 Core)
p29
sVProcessor Type
p30
VIntel Core i7
p31
sVScreen Size
p32
V13.3"
p33
sVModel
p34
VI53787171GRY
p35
sVManufacturer
p36
VDell
p37
ssS'title'
p38
VDell Inspiron i53787171GRY 13.3" Laptop, Touchscreen, Windows 10 Home, Intel Core i7-7500U Processor, 8GB RAM, 256GB Solid State Drive
p39
sb.