ccopy_reg
_reconstructor
p0
(c__main__
ProductRecord
p1
c__builtin__
object
p2
Ntp3
Rp4
(dp5
S'product_url'
p6
S'http://www.walmart.com/ip/Acer-Veriton-Z4820G-All-in-One-Computer-24-T-Ci57500-8GB-1TB-Win10P/631387668'
p7
sS'price'
p8
S'N/A'
p9
sS'properties'
p10
(dp11
VRAM Memory
p12
V8 Gigabytes
p13
sVOperating System
p14
VWindows 10
p15
sVBrand
p16
VAcer
p17
sVProcessor Speed
p18
V3.4 Gigahertz
p19
sVMaximum RAM Supported
p20
V16 Gigabytes
p21
sVHard Drive Capacity
p22
V1 Terabytes
p23
sVBattery Life
p24
V0 h
p25
sVAssembled Product Dimensions (L x W x H)
p26
V27.00 x 7.00 x 25.00 Inches
p27
sVModel
p28
VDQ.VPKAA.003
p29
sVScreen Size
p30
V23.80 Inches
p31
sVProcessor Type
p32
VIntel i5-7500
p33
sVCondition
p34
VNew
p35
sVmanufacturer_part_number
p36
Vz4820g
p37
ssS'title'
p38
VAcer Veriton Z4820G All-in-One Computer 24"T Ci57500 8GB 1TB Win10P
p39
sb.