ccopy_reg
_reconstructor
p0
(c__main__
ProductRecord
p1
c__builtin__
object
p2
Ntp3
Rp4
(dp5
S'product_url'
p6
S'http://www.walmart.com/ip/Lenovo-Gaming-Laptop-15-6-FHD-Screen-Intel-core-i7-7700hq-2-8-3-8-GHZ-Nvidia-GeForce-GTX-1050-Ti-Graphic-Card-8GB-DDR4-Memory-1TB-HDD-80WK00T2US/366996887'
p7
sS'price'
p8
S'N/A'
p9
sS'properties'
p10
(dp11
VRAM Memory
p12
V8 KB
p13
sVOperating System
p14
VWindows 10
p15
sVBrand
p16
VLenovo
p17
sVProcessor Speed
p18
V2.8 Hz
p19
sVMaximum RAM Supported
p20
V32 KB
p21
sVHard Drive Capacity
p22
V1 KB
p23
sVBattery Life
p24
V4.00 h
p25
sVAssembled Product Dimensions (L x W x H)
p26
V18.78 x 14.57 x 4.29 Inches
p27
sVModel
p28
V80WK00T2US
p29
sVScreen Size
p30
V15.60 in
p31
sVProcessor Type
p32
VIntel Core i7-7700HQ
p33
sVCondition
p34
VNew
p35
sVmanufacturer_part_number
p36
V80wk00t2us
p37
ssS'title'
p38
VLenovo Gaming Laptop 15.6", FHD Screen, Intel core i7-7700hq, 2.8-3.8 GHZ, Nvidia GeForce GTX 1050 Ti Graphic Card, 8GB DDR4 Memory, 1TB HDD, 80WK00T2US
p39
sb.