ccopy_reg
_reconstructor
p0
(c__main__
ProductRecord
p1
c__builtin__
object
p2
Ntp3
Rp4
(dp5
S'product_url'
p6
S'http://www.walmart.com/ip/Acer-Nitro-5-7th-Gen-Intel-Core-i5-7300HQ-GeForce-GTX-1050-Graphics-8GB-DDR4-1TB-HDD-Windows-10-Home-AN515-51-522L/943870910'
p7
sS'price'
p8
S'N/A'
p9
sS'properties'
p10
(dp11
VRAM Memory
p12
V8 KB
p13
sVOperating System
p14
VWindows 10
p15
sVColor Category
p16
VBlack
p17
sVLaptop Computer Type
p18
VPC Laptops
p19
sVBrand
p20
VAcer
p21
sVManufacturer Part Number
p22
VNH.Q2RAA.003
p23
sVHard Drive Capacity
p24
V1 KB
p25
sVProcessor Core Type
p26
VQuad-core (4 Core)
p27
sVProcessor Type
p28
VIntel Core i5
p29
sVScreen Size
p30
V15.6 in
p31
sVModel
p32
VAN515-51-522L
p33
sVCondition
p34
VNew
p35
sVManufacturer
p36
VAcer
p37
ssS'title'
p38
VAcer Nitro 5, 7th Gen Intel Core i5-7300HQ, GeForce GTX 1050 Graphics, 8GB DDR4, 1TB HDD, Windows 10 Home, AN515-51-522L
p39
sb.