ccopy_reg
_reconstructor
p0
(c__main__
ProductRecord
p1
c__builtin__
object
p2
Ntp3
Rp4
(dp5
S'product_url'
p6
S'http://www.walmart.com/ip/Dell-Inspiron-15-6-Gaming-Laptop-FHD-Screen-Intel-Core-i7-7700hq-3-8-GHZ-Nvidia-GeForce-GTX-1050-4GB-DDR5-Graphic-Card-12GB-DDR4-Memory-1TB-HD-128GB-/481986634'
p7
sS'price'
p8
S'N/A'
p9
sS'properties'
p10
(dp11
VRAM Memory
p12
V12 KB
p13
sVOperating System
p14
VWindows 10 Home 64-bit English
p15
sVColor
p16
VBlack
p17
sVBrand
p18
VDell
p19
sVProcessor Type
p20
VIntel Core i7-7700HQ
p21
sVHard Drive Capacity
p22
V1000 KB
p23
sVAssembled Product Dimensions (L x W x H)
p24
V33.50 x 11.30 x 24.60 Inches
p25
sVModel
p26
Vi5577-7700BLK
p27
sVScreen Size
p28
V15.6 in
p29
sVProcessor Speed
p30
V7700 Hz
p31
sVCondition
p32
VNew
p33
ssS'title'
p34
VDell Inspiron 15.6" Gaming Laptop, FHD Screen, Intel Core i7-7700hq, 3.8 GHZ, Nvidia GeForce GTX 1050 4GB DDR5 Graphic Card, 12GB DDR4 Memory, 1TB HD + 128GB SSD, i5577-7700BLK
p35
sb.