ccopy_reg
_reconstructor
p0
(c__main__
ProductRecord
p1
c__builtin__
object
p2
Ntp3
Rp4
(dp5
S'product_url'
p6
S'http://www.walmart.com/ip/Dell-Latitude-5175-2-in-1-10-8-Core-m5-6Y57-8-GB-RAM-256-GB-SSD/55253088'
p7
sS'price'
p8
S'N/A'
p9
sS'properties'
p10
(dp11
VRAM Memory
p12
V2 GB
p13
sVOperating System
p14
VWindows 10
p15
sVFeatures
p16
VEPEAT
p17
sVVideo Game Platform
p18
VPC
p19
sVBrand
p20
VDell
p21
sVProcessor Speed
p22
V1.10 GHz
p23
sVManufacturer Part Number
p24
VK61K8
p25
sVHard Drive Capacity
p26
V256 GB
p27
sVAssembled Product Dimensions (L x W x H)
p28
V15.39 x 11.00 x 0.84 Inches
p29
sVModel
p30
VK61K8
p31
sVScreen Size
p32
V10.8"
p33
sVProcessor Type
p34
VIntel Core M m5-6Y57 Dual-Core Processor
p35
sVCondition
p36
VNew
p37
ssS'title'
p38
VDell Latitude 5175 2-in-1 - 10.8" - Core m5 6Y57 - 8 GB RAM - 256 GB SSD
p39
sb.