ccopy_reg
_reconstructor
p0
(c__main__
ProductRecord
p1
c__builtin__
object
p2
Ntp3
Rp4
(dp5
S'product_url'
p6
S'http://www.walmart.com/ip/Dell-Inspiron-15-5577-Notebook-with-Intel-i5-7300HQ-8GB-1TB-HDD/477869956'
p7
sS'price'
p8
S'N/A'
p9
sS'properties'
p10
(dp11
sS'title'
p12
VDell Inspiron 15-5577 Notebook with Intel i5-7300HQ, 8GB 1TB HDD
p13
sb.