ccopy_reg
_reconstructor
p0
(c__main__
ProductRecord
p1
c__builtin__
object
p2
Ntp3
Rp4
(dp5
S'product_url'
p6
S'http://www.walmart.com/ip/Dell-Inspiron-15-6-FHD-Screen-Intel-i7-7700hq-3-8GHZ-Nvidia-GTX-1050-4GB-GDDR5-16GB-DDR4-Memory-1TB-HD-512GB-SSD-i5577-7342BLK/567991938'
p7
sS'price'
p8
S'N/A'
p9
sS'properties'
p10
(dp11
VRAM Memory
p12
V16 KB
p13
sVOperating System
p14
VWindows 10
p15
sVColor Category
p16
VBlack
p17
sVLaptop Computer Type
p18
VPC Laptops
p19
sVBrand
p20
VDell
p21
sVManufacturer Part Number
p22
Vi5577-7342BLK
p23
sVWireless Technology
p24
V802.11ac; Bluetooth; 2.4Ghz; 5Ghz
p25
sVHard Drive Capacity
p26
V512 KB
p27
sVProcessor Core Type
p28
VQuad-core (4 Core)
p29
sVProcessor Type
p30
VIntel Core i7
p31
sVScreen Size
p32
V15.60 in
p33
sVModel
p34
Vi5577-7342BLK
p35
sVCondition
p36
VNew
p37
sVManufacturer
p38
VDell
p39
ssS'title'
p40
VDell Inspiron 15.6", FHD Screen, Intel i7-7700hq, 3.8GHZ, Nvidia GTX 1050 4GB GDDR5, 16GB DDR4 Memory, 1TB HD + 512GB SSD, i5577-7342BLK
p41
sb.