ccopy_reg
_reconstructor
p0
(c__main__
ProductRecord
p1
c__builtin__
object
p2
Ntp3
Rp4
(dp5
S'product_url'
p6
S'http://www.walmart.com/ip/ASUS-ROG-Strix-GL553VE-15-6-Gaming-Laptop-GTX-1050Ti-4GB-Intel-Core-i7-7700HQ-16GB-DDR4-256GB-SSD-1TB-7200RPM-HDD-RGB-Keyboard/109002064'
p7
sS'price'
p8
S'N/A'
p9
sS'properties'
p10
(dp11
VRAM Memory
p12
V16 KB
p13
sVOperating System
p14
VWindows 10 (64bit)
p15
sVColor Category
p16
VBlack
p17
sVVideo Game Platform
p18
VPC
p19
sVBrand
p20
VASUS
p21
sVWireless Technology
p22
V802.11ac
p23
sVHard Drive Capacity
p24
V1 KB
p25
sVLaptop Computer Type
p26
VGaming Laptops
p27
sVProcessor Core Type
p28
VQuad-core (4 Core)
p29
sVProcessor Type
p30
VIntel Core i7-7700HQ
p31
sVmanufacturer_part_number
p32
Vgl553ve-ds74
p33
sVScreen Size
p34
V15.60 in
p35
sVModel
p36
VGL553VE-DS74
p37
sVCondition
p38
VNew
p39
sVManufacturer
p40
VAsus
p41
ssS'title'
p42
VASUS ROG Strix GL553VE 15.6" Gaming Laptop GTX 1050Ti 4GB Intel Core i7-7700HQ 16GB DDR4 256GB SSD + 1TB 7200RPM HDD RGB Keyboard
p43
sb.