ccopy_reg
_reconstructor
p0
(c__main__
ProductRecord
p1
c__builtin__
object
p2
Ntp3
Rp4
(dp5
S'product_url'
p6
S'http://www.walmart.com/ip/GL753VD-DS71-I7-7700HQ-16GB-1TB-17-3IN-NO-TOUCH-SCREEN-W10/868687922'
p7
sS'price'
p8
S'N/A'
p9
sS'properties'
p10
(dp11
VRAM Memory
p12
V16 Gigabytes
p13
sVOperating System
p14
VWindows 10
p15
sVColor Category
p16
VBlack
p17
sVVideo Game Platform
p18
VPC
p19
sVBrand
p20
VASUS
p21
sVManufacturer Part Number
p22
VGL753VD-DS71
p23
sVHard Drive Capacity
p24
V1 Terabytes
p25
sVLaptop Computer Type
p26
VGaming Laptops
p27
sVProcessor Core Type
p28
VQuad-core (4 Core)
p29
sVProcessor Type
p30
VIntel i7-7700HQ
p31
sVScreen Size
p32
V17.30 Inches
p33
sVModel
p34
VGL753VD-DS71
p35
sVCondition
p36
VNew
p37
sVManufacturer
p38
VASUS - NOTEBOOKS
p39
ssS'title'
p40
VGL753VD-DS71 I7-7700HQ 16GB 1TB 17.3IN NO TOUCH SCREEN W10
p41
sb.