ccopy_reg
_reconstructor
p0
(c__main__
ProductRecord
p1
c__builtin__
object
p2
Ntp3
Rp4
(dp5
S'product_url'
p6
S'http://www.walmart.com/ip/ASUS-ROG-Strix-GL553VD-15-6-Gaming-Laptop-GTX-1050-4GB-Intel-Core-i7-7700HQ-16GB-DDR4-1TB-7200RPM-HDD-RGB-Keyboard/864583913'
p7
sS'price'
p8
S'N/A'
p9
sS'properties'
p10
(dp11
VRAM Memory
p12
V16 KB
p13
sVOperating System
p14
VWindows 10 (64bit)
p15
sVColor Category
p16
VBlack
p17
sVLaptop Computer Type
p18
VGaming Laptops
p19
sVBrand
p20
VASUS
p21
sVWireless Technology
p22
V802.11ac
p23
sVHard Drive Capacity
p24
V1 KB
p25
sVProcessor Core Type
p26
VQuad-core (4 Core)
p27
sVProcessor Type
p28
VIntel Core i7-7700HQ
p29
sVmanufacturer_part_number
p30
Vgl553vd
p31
sVScreen Size
p32
V15.60 in
p33
sVModel
p34
VGL553VD-DS71
p35
sVCondition
p36
VNew
p37
sVManufacturer
p38
VAsus
p39
ssS'title'
p40
VASUS ROG Strix GL553VD 15.6" Gaming Laptop GTX 1050 4GB Intel Core i7-7700HQ 16GB DDR4 1TB 7200RPM HDD RGB Keyboard
p41
sb.