ccopy_reg
_reconstructor
p0
(c__main__
ProductRecord
p1
c__builtin__
object
p2
Ntp3
Rp4
(dp5
S'product_url'
p6
S'http://www.walmart.com/ip/HP-Spectre-X360-15-AP012DX-2-in-1-15-6-4K-Touch-Screen-Laptop-Core-i7-6500U-256GB-SSD-16GB-RAM-Certified-Refurbished/618888801'
p7
sS'price'
p8
S'N/A'
p9
sS'properties'
p10
(dp11
VRAM Memory
p12
V16 Gigabytes
p13
sVOperating System
p14
VWindows 10
p15
sVLaptop Computer Type
p16
V2-in-1s
p17
sVBrand
p18
VHP
p19
sVManufacturer Part Number
p20
VT6T09UAR#ABA
p21
sVProcessor Type
p22
VIntel Core i7-6500U 2.5GHz
p23
sVScreen Size
p24
V15.6
p25
sVManufacturer
p26
VHP
p27
ssS'title'
p28
VHP Spectre X360 15-AP012DX 2-in-1 15.6" 4K Touch Screen Laptop- Core i7-6500U, 256GB SSD 16GB RAM, Certified Refurbished
p29
sb.