ccopy_reg
_reconstructor
p0
(c__main__
ProductRecord
p1
c__builtin__
object
p2
Ntp3
Rp4
(dp5
S'product_url'
p6
S'http://www.walmart.com/ip/Dell-Inspiron-15-Gaming-Edition-Black-15-6-7559-Laptop-PC-with-Intel-Core-i7-6700HQ-Processor-8GB-Memory-1TB-Hybrid-Hard-Drive-and-Windows-10-Home/47431726'
p7
sS'price'
p8
S'N/A'
p9
sS'properties'
p10
(dp11
VRAM Memory
p12
V8 GB
p13
sVOperating System
p14
VWindows 10
p15
sVVideo Game Platform
p16
VPC
p17
sVBrand
p18
VDell
p19
sVProcessor Speed
p20
V3.50 GHz
p21
sVManufacturer Part Number
p22
Vi7559-2512BLK
p23
sVMaximum RAM Supported
p24
V16 GB
p25
sVHard Drive Capacity
p26
V1 Terabytes
p27
sVAssembled Product Dimensions (L x W x H)
p28
V10.43 x 15.08 x 1.00 Inches
p29
sVModel
p30
Vi7559-2512BLK
p31
sVScreen Size
p32
V15.6 in
p33
sVProcessor Type
p34
VIntel Core i7
p35
sVCondition
p36
VNew
p37
ssS'title'
p38
VDell Inspiron 15 Gaming Edition Black 15.6" 7559 Laptop PC with Intel Core i7-6700HQ Processor, 8GB Memory, 1TB Hybrid Hard Drive and Windows 10 Home
p39
sb.