ccopy_reg
_reconstructor
p0
(c__main__
ProductRecord
p1
c__builtin__
object
p2
Ntp3
Rp4
(dp5
S'product_url'
p6
S'http://www.walmart.com/ip/Dell-Inspiron-Gaming-Laptop-15-6-FHD-Screen-Intel-Core-i7-6700hq-3-5-GHZ-Nvidia-GEforce-GTX-960m-4GB-GDDR5-Graphic-Card-16GB-DDR3-HD-1TB-HD-i7559-376/54527151'
p7
sS'price'
p8
S'N/A'
p9
sS'properties'
p10
(dp11
VRAM Memory
p12
V16 GB
p13
sVOperating System
p14
VWindows 10
p15
sVVideo Game Platform
p16
VPC
p17
sVBrand
p18
VDell
p19
sVProcessor Speed
p20
V2.60 GHz
p21
sVManufacturer Part Number
p22
Vi7559-3763BLK
p23
sVHard Drive Capacity
p24
V8 GB, 1 TB
p25
sVBattery Life
p26
V7.51 Hour
p27
sVAssembled Product Dimensions (L x W x H)
p28
V20.50 x 3.10 x 13.20 Inches
p29
sVModel
p30
Vi7559-3763BLK
p31
sVScreen Size
p32
V15.6"
p33
sVProcessor Type
p34
VIntel Core i7
p35
ssS'title'
p36
VDell Inspiron Gaming Laptop 15.6" FHD Screen, Intel Core i7-6700hq, 3.5 GHZ, Nvidia GEforce GTX 960m 4GB GDDR5 Graphic Card, 16GB DDR3 HD 1TB HD, i7559-3763BLK
p37
sb.