ccopy_reg
_reconstructor
p0
(c__main__
ProductRecord
p1
c__builtin__
object
p2
Ntp3
Rp4
(dp5
S'product_url'
p6
S'http://www.walmart.com/ip/GS73VR-7RG-Stealth-Pro/273963983'
p7
sS'price'
p8
S'N/A'
p9
sS'properties'
p10
(dp11
VRAM Memory
p12
V16 Gigabytes
p13
sVOperating System
p14
VWindows 10 (Multi Language)
p15
sVVideo Game Platform
p16
VPC
p17
sVBrand
p18
VMSI
p19
sVProcessor Speed
p20
V2.8 Gigahertz
p21
sVManufacturer Part Number
p22
VGS73VR4K223
p23
sVHard Drive Capacity
p24
V2 Terabytes
p25
sVAssembled Product Dimensions (L x W x H)
p26
V12.00 x 12.00 x 12.00 Inches
p27
sVModel
p28
VGS73VR4K223
p29
sVScreen Size
p30
V17.30 Inches
p31
sVProcessor Type
p32
VIntel
p33
sVCondition
p34
VNew
p35
ssS'title'
p36
VGS73VR 7RG Stealth Pro
p37
sb.