ccopy_reg
_reconstructor
p0
(c__main__
ProductRecord
p1
c__builtin__
object
p2
Ntp3
Rp4
(dp5
S'product_url'
p6
S'http://www.walmart.com/ip/MSI-GP62X-Leopard-1046-15-6-Gaming-Laptop-Core-i7-7700HQ-Nvidia-GeForce-GTX1050-16GB-DDR4-1TB-HDD/998108258'
p7
sS'price'
p8
S'N/A'
p9
sS'properties'
p10
(dp11
VRAM Memory
p12
V16 Gigabytes
p13
sVOperating System
p14
VWindows 10 (Multi Language)
p15
sVColor Category
p16
VMulticolor
p17
sVVideo Game Platform
p18
VPC
p19
sVBrand
p20
VMSI
p21
sVManufacturer Part Number
p22
VGP62X1046
p23
sVHard Drive Capacity
p24
V1 Terabytes
p25
sVLaptop Computer Type
p26
VGaming Laptops
p27
sVProcessor Core Type
p28
VQuad-core (4 Core)
p29
sVProcessor Type
p30
VIntel i7-7700HQ
p31
sVScreen Size
p32
V15.60 Inches
p33
sVModel
p34
VGP62X1046
p35
sVCondition
p36
VNew
p37
sVManufacturer
p38
VMSI - SYSTEMS
p39
ssS'title'
p40
VMSI GP62X Leopard-1046 15.6" Gaming Laptop Core i7-7700HQ, Nvidia GeForce GTX1050, 16GB DDR4, 1TB HDD
p41
sb.