ccopy_reg
_reconstructor
p0
(c__main__
ProductRecord
p1
c__builtin__
object
p2
Ntp3
Rp4
(dp5
S'product_url'
p6
S'http://www.walmart.com/ip/REFURBISHED-Alienware-18-18-4-Inch-Gaming-Laptop-Intel-Core-i7-3-4Ghz-Processor-32GB-DDR3-Ram-1TB-HDD-Nvidia-Geforce-GTX-765M-SLI-Windows-10-Pr1/545018097'
p7
sS'price'
p8
S'N/A'
p9
sS'properties'
p10
(dp11
VBrand
p12
VDell
p13
sVRAM Memory
p14
V32 GB
p15
sVScreen Size
p16
V18.4 in
p17
sVHard Drive Capacity
p18
V1 TB
p19
sVProcessor Speed
p20
V3 Hz
p21
ssS'title'
p22
VREFURBISHED Alienware 18 18.4-Inch Gaming Laptop, Intel Core i7 3.4Ghz Processor, 32GB DDR3 Ram, 1TB HDD, Nvidia Geforce GTX 765M SLI, Windows 10 Pr1
p23
sb.