ccopy_reg
_reconstructor
p0
(c__main__
ProductRecord
p1
c__builtin__
object
p2
Ntp3
Rp4
(dp5
S'product_url'
p6
S'http://www.walmart.com/ip/GS73VR-7RG-Stealth-Pro/360522494'
p7
sS'price'
p8
S'N/A'
p9
sS'properties'
p10
(dp11
VRAM Memory
p12
V32 Gigabytes
p13
sVOperating System
p14
VWindows 10
p15
sVFeatures
p16
Vi7-7700HQ GTX1070 32G 512G 1T WIN10PRO
p17
sVBrand
p18
VMSI
p19
sVProcessor Speed
p20
V2.8 Gigahertz
p21
sVManufacturer Part Number
p22
VGS73VR033
p23
sVMaximum RAM Supported
p24
V32.00 GB
p25
sVHard Drive Capacity
p26
V1 Terabytes
p27
sVBattery Life
p28
V0 h
p29
sVAssembled Product Dimensions (L x W x H)
p30
V14.00 x 24.00 x 4.00 Inches
p31
sVModel
p32
VGS73VR033
p33
sVScreen Size
p34
V17.30 Inches
p35
sVProcessor Type
p36
VIntel i7-7700HQ
p37
sVCondition
p38
VNew
p39
ssS'title'
p40
VGS73VR 7RG Stealth Pro
p41
sb.