ccopy_reg
_reconstructor
p0
(c__main__
ProductRecord
p1
c__builtin__
object
p2
Ntp3
Rp4
(dp5
S'product_url'
p6
S'http://www.walmart.com/ip/Lenovo-Legion-Y520-15IKBN-15-6-Core-i7-7700HQ-16-GB-RAM-128-GB-SSD-1-TB-HDD/457293517'
p7
sS'price'
p8
S'N/A'
p9
sS'properties'
p10
(dp11
VRAM Memory
p12
V16.00 GB
p13
sVOperating System
p14
VWindows 10
p15
sVVideo Game Platform
p16
VPC
p17
sVBrand
p18
VLenovo
p19
sVProcessor Speed
p20
V2.80 GHz
p21
sVManufacturer Part Number
p22
V80WK001MUS
p23
sVMaximum RAM Supported
p24
V16.00 GB
p25
sVHard Drive Capacity
p26
V1.00 TB
p27
sVBattery Life
p28
V4.00 h
p29
sVAssembled Product Dimensions (L x W x H)
p30
V12.00 x 12.00 x 12.00 Inches
p31
sVModel
p32
V80WK001MUS
p33
sVScreen Size
p34
V15.60 in
p35
sVProcessor Type
p36
VIntel Core i7
p37
sVCondition
p38
VNew
p39
ssS'title'
p40
VLenovo Legion Y520-15IKBN - 15.6" - Core i7 7700HQ - 16 GB RAM - 128 GB SSD + 1 TB HDD
p41
sb.