ccopy_reg
_reconstructor
p0
(c__main__
ProductRecord
p1
c__builtin__
object
p2
Ntp3
Rp4
(dp5
S'product_url'
p6
S'http://www.walmart.com/ip/Megatron-14-1-Black-touch-screen-2-in-1-Convertible-Laptop-PC-Intel-Atom-Cherry-Trail-Z8300-Processor-2GB-Memory-32GB-Flash-Drive-Windows-10/50998040'
p7
sS'price'
p8
S'N/A'
p9
sS'properties'
p10
(dp11
VRAM Memory
p12
V2 GB
p13
sVOperating System
p14
VWindows 10
p15
sVColor Category
p16
VBlack
p17
sVVideo Game Platform
p18
VPC
p19
sVBrand
p20
VIVIEW
p21
sVManufacturer Part Number
p22
VMEGATRON
p23
sVLaptop Computer Type
p24
VTouchscreen
p25
sVProcessor Type
p26
VIntel Atom Cherry Trail Z8300 Quad-Core ProcessorIntel Atom Cherry Trail Z8300 Quad-Core Processor
p27
sVScreen Size
p28
V14.1 in
p29
sVModel
p30
VMEGATRON
p31
sVCondition
p32
VNew
p33
sVManufacturer
p34
VIview
p35
ssS'title'
p36
VMegatron 14.1 Black touch screen 2-in-1 Convertible Laptop PC with Intel Atom Cherry Trail Z8300 Processor, 2GB Memory, 32GB Flash Drive and Windows 10
p37
sb.