ccopy_reg
_reconstructor
p0
(c__main__
ProductRecord
p1
c__builtin__
object
p2
Ntp3
Rp4
(dp5
S'product_url'
p6
S'http://www.walmart.com/ip/Refurbished-Dell-Precision-M6700-Gaming-Laptop-16GB-Ram-Intel-Core-i7-3720QM-Quad-Core-2x1TB-Hard-Drives-Webcam-17-3-Display/115674452'
p7
sS'price'
p8
S'N/A'
p9
sS'properties'
p10
(dp11
VRAM Memory
p12
V16 GB
p13
sVOperating System
p14
VWindows 10
p15
sVColor Category
p16
VBlack
p17
sVLaptop Computer Type
p18
VPC Laptops
p19
sVBrand
p20
VDell
p21
sVManufacturer Part Number
p22
VM6700
p23
sVHard Drive Capacity
p24
V2 TB
p25
sVProcessor Type
p26
VIntel Core i7
p27
sVScreen Size
p28
V17.3 in
p29
sVModel
p30
VM6700
p31
sVManufacturer
p32
VDell
p33
ssS'title'
p34
VRefurbished Dell Precision M6700 Gaming Laptop 16GB Ram Intel Core i7 3720QM Quad Core 2x1TB Hard Drives Webcam 17.3" Display
p35
sb.