ccopy_reg
_reconstructor
p0
(c__main__
ProductRecord
p1
c__builtin__
object
p2
Ntp3
Rp4
(dp5
S'product_url'
p6
S'http://www.walmart.com/ip/Dell-Inspiron-15-6-Gaming-Laptop-Notebook-i5577-7359BLK-PUS-i7-8GB-1TB-128GB-SSD-NVIDIA-GTX-1050-Computer-PC/786936319'
p7
sS'price'
p8
S'N/A'
p9
sS'properties'
p10
(dp11
VRAM Memory
p12
V8 GB
p13
sVOperating System
p14
VMicrosoft Windows
p15
sVBrand
p16
VDell
p17
sVHard Drive Capacity
p18
V128
p19
sVScreen Size
p20
V15.6
p21
sVCondition
p22
VNew
p23
ssS'title'
p24
VDell Inspiron 15.6" Gaming Laptop Notebook i5577-7359BLK-PUS i7 8GB 1TB + 128GB SSD NVIDIA GTX 1050 Computer PC
p25
sb.