ccopy_reg
_reconstructor
p0
(c__main__
ProductRecord
p1
c__builtin__
object
p2
Ntp3
Rp4
(dp5
S'product_url'
p6
S'http://www.walmart.com/ip/Open-Box-Alienware-15-4K-UHD-Touchscreen-Gaming-Laptop-Intel-Skylake-Core-i7-6700HQ-16GB-DDR4-Memory-256GB-SSD-1TB-HDD-NVIDIA-GeForce-GTX-970M-Klipsc/148638929'
p7
sS'price'
p8
S'N/A'
p9
sS'properties'
p10
(dp11
VRAM Memory
p12
V16 GB
p13
sVOperating System
p14
VMicrosoft Windows
p15
sVLaptop Computer Type
p16
VTouchscreen
p17
sVBrand
p18
VAlienware
p19
sVManufacturer Part Number
p20
VOEM
p21
sVHard Drive Capacity
p22
V256
p23
sVManufacturer
p24
VALIENWARE
p25
ssS'title'
p26
VOpen Box Alienware 15 4K UHD Touchscreen Gaming Laptop Intel Skylake Core i7-6700HQ 16GB DDR4 Memory 256GB SSD + 1TB HDD NVIDIA GeForce GTX 970M Klipsch Audio USB 3.0 Type-C 802.11ac Bluetooth 4.1 Win
p27
sb.