ccopy_reg
_reconstructor
p0
(c__main__
ProductRecord
p1
c__builtin__
object
p2
Ntp3
Rp4
(dp5
S'product_url'
p6
S'http://www.walmart.com/ip/Refurbished-Acer-17-3-Intel-Core-i7-2-8-GHz-16-GB-Ram-1-TB-HDD-256-GB-SSD-Windows-10-Home/859534813'
p7
sS'price'
p8
S'N/A'
p9
sS'properties'
p10
(dp11
VRAM Memory
p12
V16 GB
p13
sVOperating System
p14
VWindows 10
p15
sVFeatures
p16
VKeep coolElegant front and back, Keep coolInject some Cooler Master cold to keep heat down and performance up.Elegant front and backHard angles and aggressive accents were inspired by intergalactic battlecruisers. Architecturally designed air exhaust vents ensure a bold look from any angle.
p17
sVBrand
p18
VAcer
p19
sVManufacturer Part Number
p20
VNH.Q1TAA.001
p21
sVModel
p22
VG9-793-79V5
p23
sVScreen Size
p24
V17.3 in
p25
sVProcessor Speed
p26
V2.80 GHz
p27
sVCondition
p28
VNew
p29
ssS'title'
p30
VRefurbished Acer 17.3" Intel Core i7 2.8 GHz 16 GB Ram 1 TB HDD + 256 GB SSD Windows 10 Home
p31
sb.