ccopy_reg
_reconstructor
p0
(c__main__
ProductRecord
p1
c__builtin__
object
p2
Ntp3
Rp4
(dp5
S'product_url'
p6
S'http://www.walmart.com/ip/Lenovo-Y700-17ISK-80Q0-80Q000C1US-Y700-17ISK-80Q0-Notebook/131940004'
p7
sS'price'
p8
S'N/A'
p9
sS'properties'
p10
(dp11
VRAM Memory
p12
V8 Gigabytes
p13
sVOperating System
p14
VWindows 10
p15
sVFeatures
p16
V17.3IN (FHD) / CORE I5-6300HQ / 8GB / 1TB + 128GB / NVIDIA GEFORCE GTX 960M / WI
p17
sVBrand
p18
VLenovo
p19
sVProcessor Speed
p20
V2.3 Gigahertz
p21
sVManufacturer Part Number
p22
V80Q000C1US
p23
sVHard Drive Capacity
p24
V1 Terabytes
p25
sVModel
p26
V80Q000C1US
p27
sVScreen Size
p28
V17.30 in
p29
sVProcessor Type
p30
VIntel i5-6300HQ
p31
sVCondition
p32
VNew
p33
ssS'title'
p34
V"Lenovo Y700-17ISK 80Q0 80Q000C1US Y700-17ISK 80Q0 Notebook"
p35
sb.