ccopy_reg
_reconstructor
p0
(c__main__
ProductRecord
p1
c__builtin__
object
p2
Ntp3
Rp4
(dp5
S'product_url'
p6
S'http://www.walmart.com/ip/HP-EliteBook-x360-1030-G2-13-3-Core-i5-7200U-8-GB-RAM-256-GB-SSD-US-with-HP-Active-Pen-USB-C-to-LAN-adapter/967110109'
p7
sS'price'
p8
S'N/A'
p9
sS'properties'
p10
(dp11
VRAM Memory
p12
V8 GB
p13
sVOperating System
p14
VWindows 10
p15
sVBrand
p16
VHP
p17
sVProcessor Speed
p18
V2.5 GHz
p19
sVManufacturer Part Number
p20
V2HH33UT#ABA
p21
sVHard Drive Capacity
p22
V256 GB
p23
sVBattery Life
p24
V16.5 h
p25
sVModel
p26
V2HH33UT
p27
sVScreen Size
p28
V13.3 in
p29
sVProcessor Type
p30
VCore i5 7200U
p31
sVCondition
p32
VNew
p33
ssS'title'
p34
VHP EliteBook x360 1030 G2 - 13.3" - Core i5 7200U - 8 GB RAM - 256 GB SSD - US - with HP Active Pen USB-C to LAN adapter
p35
sb.