ccopy_reg
_reconstructor
p0
(c__main__
ProductRecord
p1
c__builtin__
object
p2
Ntp3
Rp4
(dp5
S'product_url'
p6
S'http://www.walmart.com/ip/MSI-GT73VR-TITAN-427-17-3-Notebook-w-Intel-i7-16GB-RAM-1TB-HDD/802367115'
p7
sS'price'
p8
S'N/A'
p9
sS'properties'
p10
(dp11
VRAM Memory
p12
V16 Gigabytes
p13
sVOperating System
p14
VWindows 10 (Multi Language)
p15
sVColor Category
p16
VMulticolor
p17
sVVideo Game Platform
p18
VPC
p19
sVBrand
p20
VMSI
p21
sVHard Drive Capacity
p22
V1 Terabytes
p23
sVLaptop Computer Type
p24
VPC Laptops
p25
sVProcessor Type
p26
VIntel
p27
sVmanufacturer_part_number
p28
Vgt73vr
p29
sVScreen Size
p30
V17.30 Inches
p31
sVModel
p32
VGT73VR427
p33
sVCondition
p34
VNew
p35
sVManufacturer
p36
VMSI USA
p37
ssS'title'
p38
VMSI GT73VR TITAN-427 17.3" Notebook w/ Intel i7, 16GB RAM & 1TB HDD
p39
sb.