ccopy_reg
_reconstructor
p0
(c__main__
ProductRecord
p1
c__builtin__
object
p2
Ntp3
Rp4
(dp5
S'product_url'
p6
S'http://www.walmart.com/ip/Dell-Inspiron-i7559-763BLK-15-6-IPS-Full-HD-1920x1080-Gaming-Laptop-Intle-Quad-Core-8GB-RAM-256GB-SSD-NVIDIA-GeForce-GTX960M-4GB-GDDR5/180876553'
p7
sS'price'
p8
S'N/A'
p9
sS'properties'
p10
(dp11
VRAM Memory
p12
V8 Gigabytes
p13
sVOperating System
p14
VMicrosoft Windows 10.1
p15
sVLaptop Computer Type
p16
VGaming Laptops
p17
sVBrand
p18
VDell
p19
sVManufacturer Part Number
p20
Vi7559-763BLK
p21
sVWireless Technology
p22
VIntel 3165AC [802.11ac, Dual Band 2.4 and 5 GHz, 1x1]Intel 3165AC [802.11ac, Dual Band 2.4 and 5 GHz, 1x1]
p23
sVHard Drive Capacity
p24
V256 Gigabytes
p25
sVProcessor Type
p26
VIntel Core i5-6300HQ Quad Core
p27
sVScreen Size
p28
V15.6 Inches
p29
sVModel
p30
VGeForce GTX 960M
p31
sVCondition
p32
VNew
p33
sVManufacturer
p34
VDell Marketing USA, LP
p35
ssS'title'
p36
VDell Inspiron i7559-763BLK 15.6" IPS Full-HD 1920x1080 Gaming Laptop Intle Quad Core, 8GB RAM, 256GB SSD, NVIDIA GeForce GTX960M 4GB GDDR5
p37
sb.