ccopy_reg
_reconstructor
p0
(c__main__
ProductRecord
p1
c__builtin__
object
p2
Ntp3
Rp4
(dp5
S'product_url'
p6
S'http://www.walmart.com/ip/HP-OMEN-15-15-6-UHD-4K-Gaming-Business-Laptop-Intel-i7-Quad-Core-2TB-HDD-128GB-SSD-15-6-inch-UHD-3840-x-2160-16GB-RAM-GeForce-GTX-1050-Ti-Win-10/298981780'
p7
sS'price'
p8
S'N/A'
p9
sS'properties'
p10
(dp11
VRAM Memory
p12
V16 GB
p13
sVOperating System
p14
VMicrosoft Windows
p15
sVLaptop Computer Type
p16
VPC Laptops
p17
sVBrand
p18
VMichaelElectronics2
p19
sVHard Drive Capacity
p20
V128
p21
sVScreen Size
p22
V15.6
p23
sVManufacturer
p24
VMichaelElectronics2
p25
ssS'title'
p26
VHP OMEN 15 15.6'' UHD 4K Gaming and Business Laptop (Intel i7 Quad Core, 2TB HDD + 128GB SSD, 15.6 inch UHD 3840 x 2160, 16GB RAM, GeForce GTX 1050 Ti , Win 10)
p27
sb.