ccopy_reg
_reconstructor
p0
(c__main__
ProductRecord
p1
c__builtin__
object
p2
Ntp3
Rp4
(dp5
S'product_url'
p6
S'http://www.walmart.com/ip/GL62M-7RD-265-I5-7300HQ-8G-1TB-15-6IN-GTX1050/55522715'
p7
sS'price'
p8
S'N/A'
p9
sS'properties'
p10
(dp11
VRAM Memory
p12
V8 GB
p13
sVOperating System
p14
VWindows 10
p15
sVFeatures
p16
Vi5-7300HQ GTX1050 8G 1TB HDD
p17
sVVideo Game Platform
p18
VPC
p19
sVBrand
p20
VMSI
p21
sVProcessor Speed
p22
V2.50 GHz, with a Max Turbo Speed of 3.10 GHz
p23
sVManufacturer Part Number
p24
VGL62M265
p25
sVHard Drive Capacity
p26
V1 TB
p27
sVAssembled Product Dimensions (L x W x H)
p28
V15.07 x 10.23 x 1.06 Inches
p29
sVModel
p30
VGL62M 7RD-265
p31
sVScreen Size
p32
V15.6"
p33
sVProcessor Type
p34
VIntel Core i5-7300HQ Processor
p35
sVCondition
p36
VNew
p37
ssS'title'
p38
VGL62M 7RD-265 I5-7300HQ 8G 1TB 15.6IN GTX1050
p39
sb.