ccopy_reg
_reconstructor
p0
(c__main__
ProductRecord
p1
c__builtin__
object
p2
Ntp3
Rp4
(dp5
S'product_url'
p6
S'http://www.walmart.com/ip/HIDevolution-Asus-ROG-Strix-GL702VS-RS71-HID1-w-IC-Diamond-Thermal-CPU-GPU-Optimal-System-Temps-Titanium-Gold-17-3-G-SYNC-i7-7700HQ-2-8-3-8GHz-FHD-12/537264452'
p7
sS'price'
p8
S'N/A'
p9
sS'properties'
p10
(dp11
VOperating System
p12
VWindows 10 Home 64 bit
p13
sVColor
p14
VGold
p15
sVBrand
p16
VHIDevolution
p17
sVAssembled Product Dimensions (L x W x H)
p18
V16.50 x 10.80 x 0.90 Inches
p19
sVProcessor Type
p20
Vi7-7700HQ
p21
sVScreen Size
p22
V17.3 Inches
p23
sVProcessor Speed
p24
V2.8 Gigahertz
p25
sVCondition
p26
VNew
p27
sVAssembled Product Weight
p28
V6 Pounds
p29
ssS'title'
p30
VHIDevolution Asus ROG Strix GL702VS-RS71-HID1 w/ IC Diamond Thermal on CPU+GPU \u2013 Optimal System Temps Titanium Gold 17.3" G-SYNC i7-7700HQ 2.8-3.8GHz (FHD 120Hz/1070 8G/1T HDD/16G RAM)
p31
sb.