ccopy_reg
_reconstructor
p0
(c__main__
ProductRecord
p1
c__builtin__
object
p2
Ntp3
Rp4
(dp5
S'product_url'
p6
S'http://www.walmart.com/ip/HIDevolution-MSI-GP72X-Leopard-Pro-622-HID1-17-3-i7-7700HQ-w-IC-Diamond-Thermal-Compound-CPU-GPU-Optimal-System-Temperatures-FHD-1050Ti-4GB-PCIe-256G/224578328'
p7
sS'price'
p8
S'N/A'
p9
sS'properties'
p10
(dp11
VOperating System
p12
VWindows 10 Home 64 bit
p13
sVBrand
p14
VHIDevolution
p15
sVMaximum RAM Supported
p16
V32 Gigabytes
p17
sVAssembled Product Dimensions (L x W x H)
p18
V16.45 x 10.60 x 1.16 Inches
p19
sVProcessor Type
p20
Vi7-7700HQ
p21
sVScreen Size
p22
V17.3 Inches
p23
sVProcessor Speed
p24
V2.8 Gigahertz
p25
sVCondition
p26
VNew
p27
ssS'title'
p28
VHIDevolution MSI GP72X Leopard Pro-622 HID1 17.3" i7-7700HQ w/ IC Diamond Thermal Compound on CPU+GPU \u2013 Optimal System Temperatures (FHD/1050Ti 4GB/PCIe 256G SSD+1T HDD/16G RAM)
p29
sb.