ccopy_reg
_reconstructor
p0
(c__main__
ProductRecord
p1
c__builtin__
object
p2
Ntp3
Rp4
(dp5
S'product_url'
p6
S'http://www.walmart.com/ip/HIDevolution-MSI-GP62X-Leopard-Pro-1045-HID1-15-6-i7-7700HQ-w-IC-Diamond-Thermal-Compound-CPU-GPU-Optimal-System-Temperatures-FHD-1050Ti-4GB-PCIe-128/340110593'
p7
sS'price'
p8
S'N/A'
p9
sS'properties'
p10
(dp11
VRAM Memory
p12
V16 Gigabytes
p13
sVOperating System
p14
VWindows 10 Home 64 bit
p15
sVLaptop Computer Type
p16
VPC Laptops
p17
sVBrand
p18
VHIDevolution
p19
sVWireless Technology
p20
V802.11ac
p21
sVHard Drive Capacity
p22
V1.1279999999999999 Terabytes
p23
sVProcessor Type
p24
Vi7-7700HQ
p25
sVScreen Size
p26
V15.6 Inches
p27
sVCondition
p28
VNew
p29
ssS'title'
p30
VHIDevolution MSI GP62X Leopard Pro-1045 HID1 15.6" i7-7700HQ w/ IC Diamond Thermal Compound on CPU+GPU \u2013 Optimal System Temperatures (FHD/1050Ti 4GB/PCIe 128G SSD+1T HDD/16G RAM)
p31
sb.