ccopy_reg
_reconstructor
p0
(c__main__
ProductRecord
p1
c__builtin__
object
p2
Ntp3
Rp4
(dp5
S'product_url'
p6
S'http://www.walmart.com/ip/MSI-GS63VR-Stealth-Pro-4K-228-15-6-Gaming-Laptop-16GB-2TB-HD-512GB-SSD-GTX-1060/223743159'
p7
sS'price'
p8
S'N/A'
p9
sS'properties'
p10
(dp11
VRAM Memory
p12
V16 Gigabytes
p13
sVOperating System
p14
VWindows 10 (Multi Language)
p15
sVVideo Game Platform
p16
VPC
p17
sVBrand
p18
VMSI
p19
sVProcessor Speed
p20
V2.8 Gigahertz
p21
sVMaximum RAM Supported
p22
V32.00 GB
p23
sVHard Drive Capacity
p24
V2 Terabytes
p25
sVBattery Life
p26
V0 h
p27
sVModel
p28
VGS63VR4K228
p29
sVScreen Size
p30
V15.60 Inches
p31
sVProcessor Type
p32
VIntel
p33
sVCondition
p34
VNew
p35
sVmanufacturer_part_number
p36
V4k-228
p37
ssS'title'
p38
VMSI GS63VR Stealth Pro 4K-228 15.6" Gaming Laptop 16GB 2TB HD 512GB SSD GTX 1060
p39
sb.