ccopy_reg
_reconstructor
p0
(c__main__
ProductRecord
p1
c__builtin__
object
p2
Ntp3
Rp4
(dp5
S'product_url'
p6
S'http://www.walmart.com/ip/Acer-Aspire-E5-575G-562T-15-6-Intel-Core-i5-7th-Gen-7200U-2-50-GHz-NVIDIA-GeForce-GTX-950M-8-GB-DDR4-Memory-128-GB-SSD-1-TB-HDD-Windows-10-Home-64-Bi/364179324'
p7
sS'price'
p8
S'N/A'
p9
sS'properties'
p10
(dp11
VRAM Memory
p12
V8 GB
p13
sVOperating System
p14
VMicrosoft Windows
p15
sVColor Category
p16
VBlack
p17
sVLaptop Computer Type
p18
VPC Laptops
p19
sVBrand
p20
VAcer
p21
sVManufacturer Part Number
p22
VNX.GDZAA.004
p23
sVHard Drive Capacity
p24
V1 TB
p25
sVProcessor Type
p26
VIntel Core i5
p27
sVScreen Size
p28
V15.6"
p29
sVModel
p30
VNFA435A
p31
sVCondition
p32
VNew
p33
sVManufacturer
p34
VAcer
p35
ssS'title'
p36
VAcer Aspire E5-575G-562T 15.6" Intel Core i5 7th Gen 7200U (2.50 GHz) NVIDIA GeForce GTX 950M 8 GB DDR4 Memory 128 GB SSD 1 TB HDD Windows 10 Home 64-Bit Gaming Laptop Notebook PC Computer
p37
sb.