ccopy_reg
_reconstructor
p0
(c__main__
ProductRecord
p1
c__builtin__
object
p2
Ntp3
Rp4
(dp5
S'product_url'
p6
S'http://www.walmart.com/ip/Lenovo-Yoga-720-Tablet-Notebook-Laptop-PC-Computer-Touchscreen-i7-7th-Gen-Kaby-Lake-256GB-SSD-80X7001TUS-Touch-Screen-2-in-1/911264901'
p7
sS'price'
p8
S'N/A'
p9
sS'properties'
p10
(dp11
VOperating System
p12
VMicrosoft Windows, Windows 10
p13
sVColor
p14
VSilver
p15
sVBrand
p16
VLenovo
p17
sVManufacturer Part Number
p18
V80X7001TUS
p19
sVModel
p20
V80 x 7
p21
sVAssembled Product Weight
p22
V0 Grams
p23
ssS'title'
p24
VLenovo Yoga 720 Tablet Notebook Laptop PC Computer Touchscreen i7 7th Gen Kaby Lake 256GB SSD 80X7001TUS Touch-Screen 2-in-1
p25
sb.