ccopy_reg
_reconstructor
p0
(c__main__
ProductRecord
p1
c__builtin__
object
p2
Ntp3
Rp4
(dp5
S'product_url'
p6
S'http://www.walmart.com/ip/MSI-GS63VR-Stealth-Pro-230-15-6-Notebook-w-16GB-RAM-2TB-HDD-256GB-SSD/609392959'
p7
sS'price'
p8
S'N/A'
p9
sS'properties'
p10
(dp11
VRAM Memory
p12
V16 Gigabytes
p13
sVOperating System
p14
VWindows 10 (Multi Language)
p15
sVFeatures
p16
VProcessor: Intel Core i7-7700HQ (2.8-3.8GHz), Special features: VR READY | Slim and Light Design | Steel Series Full-Color Backlight Keyboard, Graphics Card: NVIDIA's GTX 1060 6G GDDR5, RAM: 16GB (8GB x2) DDR4 2400MHz | Hard Drive: 256GB SSD (PCIE Gen3x4) + 2TB (SATA) 5400rpm, Display: 15.6" Full HD | Full HD eDP IPS-Level 1920x1080 | Operating System: Windows 10
p17
sVVideo Game Platform
p18
VPC
p19
sVBrand
p20
VMSI
p21
sVProcessor Speed
p22
V2.8 Gigahertz
p23
sVMaximum RAM Supported
p24
V32.00 GB
p25
sVHard Drive Capacity
p26
V2 Terabytes
p27
sVBattery Life
p28
V0 h
p29
sVModel
p30
VGS63VR230
p31
sVScreen Size
p32
V15.60 Inches
p33
sVProcessor Type
p34
VIntel
p35
sVCondition
p36
VNew
p37
sVmanufacturer_part_number
p38
Vgs63vr
p39
ssS'title'
p40
VMSI GS63VR Stealth Pro-230 15.6" Notebook w/ 16GB RAM, 2TB HDD & 256GB SSD
p41
sb.