ccopy_reg
_reconstructor
p0
(c__main__
ProductRecord
p1
c__builtin__
object
p2
Ntp3
Rp4
(dp5
S'product_url'
p6
S'http://www.walmart.com/ip/HP-OMEN-15-UHD-4K-Gaming-Laptop-Intel-i7-Quad-Core-2TB-HDD-512GB-SSD-15-6-inch-UHD-3840-x-2160-16GB-RAM-GeForce-GTX-965M-Win-10-Smartfriend-1-month/192743752'
p7
sS'price'
p8
S'N/A'
p9
sS'properties'
p10
(dp11
VRAM Memory
p12
V16 GB
p13
sVOperating System
p14
VMicrosoft Windows
p15
sVColor Category
p16
VBlack
p17
sVLaptop Computer Type
p18
VPC Laptops
p19
sVBrand
p20
VHP
p21
sVHard Drive Capacity
p22
V2000
p23
sVManufacturer
p24
VHP
p25
ssS'title'
p26
VHP OMEN 15 UHD 4K Gaming Laptop (Intel i7 Quad Core, 2TB HDD + 512GB SSD, 15.6 inch UHD 3840 x 2160, 16GB RAM, GeForce GTX 965M, Win 10) With Smartfriend (1-month)
p27
sb.