ccopy_reg
_reconstructor
p0
(c__main__
ProductRecord
p1
c__builtin__
object
p2
Ntp3
Rp4
(dp5
S'product_url'
p6
S'http://www.walmart.com/ip/PROSTAR-Clevo-Gaming-Laptop-N850HK1-15-6-FHD-IPS-1920x1080-Matte-Type-Display-Intel-Core-i7-7700HQ-8GB-DDR4-GTX-1050Ti-120GB-SSD-Windows-10-Home-Wi-F/283021444'
p7
sS'price'
p8
S'N/A'
p9
sS'properties'
p10
(dp11
VRAM Memory
p12
V8 Gigabytes
p13
sVOperating System
p14
VMicrosoft?? Windows 10 ??
p15
sVColor Category
p16
VBlack
p17
sVLaptop Computer Type
p18
VPC Laptops
p19
sVBrand
p20
VPROSTAR
p21
sVWireless Technology
p22
VIntel Dual Band Wireless-AC 3168 Sandy Peak M.2 AC + Bluetooth Combo??Intel Dual Band Wireless-AC 3168 Sandy Peak M.2 AC + Bluetooth Combo??
p23
sVHard Drive Capacity
p24
V120 Gibibytes
p25
sVProcessor Type
p26
VIntel Core i7-7700HQ
p27
sVManufacturer
p28
VPROSTAR
p29
sVCondition
p30
VNew
p31
sVmanufacturer_part_number
p32
Vn850hk1
p33
ssS'title'
p34
VPROSTAR Clevo Gaming Laptop N850HK1 15.6\u201d FHD IPS (1920x1080) Matte Type Display, Intel Core i7-7700HQ, 8GB DDR4, GTX 1050Ti, 120GB SSD, Windows 10 Home, Wi-Fi+Bluetooth, 1-Year Warranty
p35
sb.