ccopy_reg
_reconstructor
p0
(c__main__
ProductRecord
p1
c__builtin__
object
p2
Ntp3
Rp4
(dp5
S'product_url'
p6
S'http://www.walmart.com/ip/REFURBISHED-2016-ALIENWARE-17-3-FHD-Display-Tobii-IR-Eye-tracking-Gaming-Laptop-Intel-Core-i7-6700HQ-3-5GHz-NVIDIA-GeForce-GTX-1060-16GB-DDR4-128GB-S/958393827'
p7
sS'price'
p8
S'N/A'
p9
sS'properties'
p10
(dp11
VOperating System
p12
VMicrosoft Windows
p13
sVBrand
p14
VDell
p15
sVRAM Memory
p16
V16 GB
p17
sVScreen Size
p18
V17.3
p19
sVHard Drive Capacity
p20
V128
p21
ssS'title'
p22
VREFURBISHED 2016 ALIENWARE 17.3" FHD Display with Tobii IR Eye-tracking Gaming Laptop, Intel Core i7-6700HQ up to 3.5GHz, NVIDIA GeForce GTX 1060, 16GB DDR4, 128GB SSD + 1TB HDD, Bluetooth, Windows 10
p23
sb.