ccopy_reg
_reconstructor
p0
(c__main__
ProductRecord
p1
c__builtin__
object
p2
Ntp3
Rp4
(dp5
S'product_url'
p6
S'http://www.walmart.com/ip/ASUS-Metallic-17-3-GL752VW-DH74-Laptop-PC-with-Intel-Core-i7-6700HQ-Processor-16GB-Memory-1TB-Hard-Drive-and-Windows-10/47368267'
p7
sS'price'
p8
S'N/A'
p9
sS'properties'
p10
(dp11
VRAM Memory
p12
V16 GB
p13
sVOperating System
p14
VWindows 10
p15
sVColor Category
p16
VGray
p17
sVVideo Game Platform
p18
VPC
p19
sVBrand
p20
VASUS
p21
sVManufacturer Part Number
p22
VGL752VW-DH74
p23
sVWireless Technology
p24
VGigabit Ethernet
p25
sVLaptop Computer Type
p26
VPC Laptops
p27
sVProcessor Core Type
p28
VQuad-core (4 Core)
p29
sVProcessor Type
p30
VIntel 7265 AC (2x2 AC, 867 Mbps)
p31
sVScreen Size
p32
V17.3 in
p33
sVModel
p34
VAsus GL752VW-DH74
p35
sVCondition
p36
VNew
p37
sVManufacturer
p38
VAsus
p39
ssS'title'
p40
VASUS Metallic 17.3" GL752VW-DH74 Laptop PC with Intel Core i7-6700HQ Processor, 16GB Memory, 1TB Hard Drive and Windows 10
p41
sb.