ccopy_reg
_reconstructor
p0
(c__main__
ProductRecord
p1
c__builtin__
object
p2
Ntp3
Rp4
(dp5
S'product_url'
p6
S'http://www.walmart.com/ip/Lenovo-ThinkPad-T460s-14-Core-i5-6200U-4-GB-RAM-128-GB-SSD/105453492'
p7
sS'price'
p8
S'N/A'
p9
sS'properties'
p10
(dp11
VRAM Memory
p12
V4 GB
p13
sVOperating System
p14
VWindows 7
p15
sVVideo Game Platform
p16
VPC
p17
sVBrand
p18
VLenovo
p19
sVProcessor Speed
p20
V2.30 GHz
p21
sVManufacturer Part Number
p22
V20F90039US
p23
sVMaximum RAM Supported
p24
V20 GB
p25
sVHard Drive Capacity
p26
V128 GB
p27
sVAssembled Product Dimensions (L x W x H)
p28
V18.60 x 11.90 x 3.10 Inches
p29
sVModel
p30
V20F90039US
p31
sVScreen Size
p32
V14.0"
p33
sVProcessor Type
p34
VIntel Core i5
p35
sVCondition
p36
VNew
p37
ssS'title'
p38
VLenovo ThinkPad T460s - 14" - Core i5 6200U - 4 GB RAM - 128 GB SSD
p39
sb.