ccopy_reg
_reconstructor
p0
(c__main__
ProductRecord
p1
c__builtin__
object
p2
Ntp3
Rp4
(dp5
S'product_url'
p6
S'http://www.walmart.com/ip/REFURBISHED-Alienware-17-3-Inch-FHD-Gaming-Laptop-Intel-Core-i7-4710HQ-3-5-Ghz-Processor-16GB-DDR3-RAM-128GB-M-2-SSD-1TB-HDD-NVIDIA-GeForce-GTX-970M-/512554782'
p7
sS'price'
p8
S'N/A'
p9
sS'properties'
p10
(dp11
VBrand
p12
VAlienware
p13
sVRAM Memory
p14
V16 GB
p15
sVProcessor Speed
p16
V3
p17
sVHard Drive Capacity
p18
V128
p19
ssS'title'
p20
VREFURBISHED Alienware 17.3 Inch FHD Gaming Laptop Intel Core i7-4710HQ up to 3.5 Ghz Processor, 16GB DDR3 RAM, 128GB M.2 SSD + 1TB HDD, NVIDIA GeForce GTX 970M 3GB GDDR5, Windows 8.1
p21
sb.