ccopy_reg
_reconstructor
p0
(c__main__
ProductRecord
p1
c__builtin__
object
p2
Ntp3
Rp4
(dp5
S'product_url'
p6
S'http://www.walmart.com/ip/HIDevolution-Alienware-15-R3-15-6-i7-7700HQ-2-8-3-8GHz-FHD-1070-8GB-256G-SSD-1T-HDD-16G-RAM/586017412'
p7
sS'price'
p8
S'N/A'
p9
sS'properties'
p10
(dp11
VOperating System
p12
VWindows 10 Home 64 bit
p13
sVBrand
p14
VAlienware
p15
sVMaximum RAM Supported
p16
V32 Gigabytes
p17
sVAssembled Product Dimensions (L x W x H)
p18
V15.30 x 12.00 x 1.00 Inches
p19
sVProcessor Type
p20
Vi7-7700HQ
p21
sVScreen Size
p22
V15.6 Inches
p23
sVProcessor Speed
p24
V2.8 Gigahertz
p25
sVCondition
p26
VNew
p27
ssS'title'
p28
VHIDevolution Alienware 15 R3 15.6" i7-7700HQ 2.8-3.8GHz (FHD/1070 8GB/256G SSD + 1T HDD/16G RAM)
p29
sb.