ccopy_reg
_reconstructor
p0
(c__main__
ProductRecord
p1
c__builtin__
object
p2
Ntp3
Rp4
(dp5
S'product_url'
p6
S'http://www.walmart.com/ip/HP-P4C44UA-11-p122nr-x360-11-6-inch-Convertible-Notebook-PC-Intel-Celeron-N2840-2-16-GHz-Dual-Core-Processor-2-GB-DDR3L-SDRAM-32-GB-Solid-State-Drive/104564002'
p7
sS'price'
p8
S'N/A'
p9
sS'properties'
p10
(dp11
VRAM Memory
p12
V2048
p13
sVOperating System
p14
VWindows 10
p15
sVVideo Game Platform
p16
VUnknown
p17
sVBrand
p18
VHP
p19
sVProcessor Speed
p20
V2.16
p21
sVHard Drive Capacity
p22
V32
p23
sVBattery Life
p24
V9 Hours
p25
sVAssembled Product Dimensions (L x W x H)
p26
V18.00 x 14.00 x 4.00 Inches
p27
sVModel
p28
VP4C44UA#ABA
p29
sVScreen Size
p30
V11.6
p31
sVProcessor Type
p32
VIntel Celeron MB
p33
sVmanufacturer_part_number
p34
Vp4c44ua
p35
ssS'title'
p36
VHP P4C44UA 11-p122nr x360 11.6-inch Convertible Notebook PC - Intel Celeron N2840 2.16 GHz Dual-Core Processor - 2 GB DDR3L SDRAM - 32 GB Solid State Drive - Windows 10 Home
p37
sb.