ccopy_reg
_reconstructor
p0
(c__main__
ProductRecord
p1
c__builtin__
object
p2
Ntp3
Rp4
(dp5
S'product_url'
p6
S'http://www.walmart.com/ip/Gigabyte-Notebook-Aero-14Wv7-BK4-14-inch-Core-i7-7700HQ-1x16GB-512GB-GeForce-GTX-1060-Windows-10-Home-Black-Retail/727475483'
p7
sS'price'
p8
S'N/A'
p9
sS'properties'
p10
(dp11
VRAM Memory
p12
V16 Gigabytes
p13
sVOperating System
p14
VWindows 10
p15
sVBrand
p16
VGIGABYTE
p17
sVProcessor Speed
p18
V2.8 Gigahertz
p19
sVManufacturer Part Number
p20
VAERO 14WV7-BK4
p21
sVMaximum RAM Supported
p22
V32 Gigabytes
p23
sVHard Drive Capacity
p24
V512 Gigabytes
p25
sVAssembled Product Dimensions (L x W x H)
p26
V19.00 x 13.00 x 3.00 Inches
p27
sVModel
p28
VAERO 14WV7-BK4
p29
sVScreen Size
p30
V14.00 Inches
p31
sVProcessor Type
p32
VIntel i7-7700HQ
p33
sVCondition
p34
VNew
p35
ssS'title'
p36
VGigabyte Notebook Aero 14Wv7-BK4 14 inch Core i7-7700HQ 1x16GB 512GB GeForce\ufffd GTX 1060 Windows 10 Home Black Retail
p37
sb.