ccopy_reg
_reconstructor
p0
(c__main__
ProductRecord
p1
c__builtin__
object
p2
Ntp3
Rp4
(dp5
S'product_url'
p6
S'http://www.walmart.com/ip/New-Gaming-Lenovo-Y50-Laptop-15-6-quot-Ultra-4K-HD-IPS-Backlit-3840x2160-Display-Intel-Core-i7-4720HQ-Processor-2-60GHz-NVIDIA-GeForce-GTX-960M-4GB-1/101259267'
p7
sS'price'
p8
S'N/A'
p9
sS'properties'
p10
(dp11
VBrand
p12
VLenovo
p13
sVScreen Size
p14
V15.6
p15
sVHard Drive Capacity
p16
V512
p17
sVManufacturer Part Number
p18
V59445753
p19
ssS'title'
p20
VNew Gaming Lenovo Y50 Laptop 15.6" Ultra 4K HD IPS Backlit (3840x2160) Display Intel Core i7-4720HQ Processor 2.60GHz NVIDIA GeForce GTX 960M 4GB 16.0GB PC3L Ram 512GB SSD Windows 10
p21
sb.