ccopy_reg
_reconstructor
p0
(c__main__
ProductRecord
p1
c__builtin__
object
p2
Ntp3
Rp4
(dp5
S'product_url'
p6
S'http://www.walmart.com/ip/Eluktronics-P650HP6-15-6-Gaming-Laptop-i7-7700HQ-1060-NVIDIA-256GB-SSD-5TB-HDD-16GB-RAM/378608398'
p7
sS'price'
p8
S'N/A'
p9
sS'properties'
p10
(dp11
VRAM Memory
p12
V16 Gigabytes
p13
sVOperating System
p14
VWindows 10
p15
sVBrand
p16
VEluktronics
p17
sVProcessor Speed
p18
V2.8 Gigahertz
p19
sVMaximum RAM Supported
p20
V64 Gigabytes
p21
sVHard Drive Capacity
p22
V5 Terabytes
p23
sVModel
p24
VP650HP6
p25
sVScreen Size
p26
V15.6 Inches
p27
sVProcessor Type
p28
VIntel Core i7-7700HQ
p29
sVCondition
p30
VNew
p31
sVmanufacturer_part_number
p32
Vp650hp6
p33
ssS'title'
p34
VEluktronics P650HP6 15.6" Gaming Laptop (i7-7700HQ 1060 NVIDIA 256GB SSD 5TB HDD 16GB RAM)
p35
sb.