ccopy_reg
_reconstructor
p0
(c__main__
ProductRecord
p1
c__builtin__
object
p2
Ntp3
Rp4
(dp5
S'product_url'
p6
S'http://www.walmart.com/ip/MSI-GE63-Raider-008-15-6-Gaming-Laptop-Intel-i7-7700HQ-16GB-1TB-SSD-GTX-1050/900672161'
p7
sS'price'
p8
S'N/A'
p9
sS'properties'
p10
(dp11
VRAM Memory
p12
V16 Gigabytes
p13
sVOperating System
p14
VWindows 10
p15
sVFeatures
p16
VMSI Notebook GE63008 15.6 inch Core i7-7700HQ 16GB 512GBx2 GeForce GTX1050 Windows 10 Black Retail
p17
sVBrand
p18
VMSI
p19
sVProcessor Speed
p20
V2.8 Gigahertz
p21
sVMaximum RAM Supported
p22
V32.00 GB
p23
sVHard Drive Capacity
p24
V1 Terabytes
p25
sVModel
p26
VGE63008
p27
sVScreen Size
p28
V15.60 Inches
p29
sVProcessor Type
p30
VIntel i7-7700HQ
p31
sVCondition
p32
VNew
p33
sVmanufacturer_part_number
p34
Vge63
p35
ssS'title'
p36
VMSI GE63 Raider-008 15.6" Gaming Laptop Intel i7-7700HQ 16GB 1TB SSD GTX 1050
p37
sb.