ccopy_reg
_reconstructor
p0
(c__main__
ProductRecord
p1
c__builtin__
object
p2
Ntp3
Rp4
(dp5
S'product_url'
p6
S'http://www.walmart.com/ip/ASUS-ROG-G751JT-CH71-17-Inch-Gaming-Laptop-Black/187274777'
p7
sS'price'
p8
S'N/A'
p9
sS'properties'
p10
(dp11
VAssembled Product Dimensions (L x W x H)
p12
V12.50 x 16.40 x 0.90 Inches
p13
sVFeatures
p14
VWindows 8.1
p15
sVBrand
p16
VASUS
p17
sVManufacturer Part Number
p18
VG751SERIES
p19
sVScreen Size
p20
V17
p21
sVCondition
p22
VNew
p23
sVAssembled Product Weight
p24
V8.40 Pounds
p25
ssS'title'
p26
VASUS ROG G751JT-CH71 17-Inch Gaming Laptop Black
p27
sb.