ccopy_reg
_reconstructor
p0
(c__main__
ProductRecord
p1
c__builtin__
object
p2
Ntp3
Rp4
(dp5
S'product_url'
p6
S'http://www.walmart.com/ip/REFURBISHED-Alienware-18-18-Laptop-I7-4910MQ-2-9GHZ-6GB-NVIDIA-GTX-970M-750GB-HDD-8GB-Ram-128GB-SSD-Windows-10/921551255'
p7
sS'price'
p8
S'N/A'
p9
sS'properties'
p10
(dp11
VOperating System
p12
VWindows 10
p13
sVBrand
p14
VAlienware
p15
sVScreen Size
p16
V18 in
p17
sVHard Drive Capacity
p18
V128 GB
p19
sVMaximum RAM Supported
p20
V32 GB
p21
ssS'title'
p22
VREFURBISHED Alienware 18 18" Laptop I7-4910MQ 2.9GHZ 6GB NVIDIA GTX 970M 750GB HDD 8GB Ram 128GB SSD Windows 10
p23
sb.