ccopy_reg
_reconstructor
p0
(c__main__
ProductRecord
p1
c__builtin__
object
p2
Ntp3
Rp4
(dp5
S'product_url'
p6
S'http://www.walmart.com/ip/Acer-Predator-15-G9-591-74KN-15-6-LED-In-plane-Switching-IPS-Technology-Notebook-Intel-Core-i7-i7-6700HQ-Quad-core-4-Core-2-60-GHz-32-GB-DDR4-SDRAM-R/51555003'
p7
sS'price'
p8
S'N/A'
p9
sS'properties'
p10
(dp11
VRAM Memory
p12
V32 Gigabytes
p13
sVOperating System
p14
VWindows 10
p15
sVVideo Game Platform
p16
VPC
p17
sVBrand
p18
VAcer
p19
sVProcessor Speed
p20
V2.6 Gigahertz
p21
sVMaximum RAM Supported
p22
V64 Gigabytes
p23
sVHard Drive Capacity
p24
V1 Terabytes
p25
sVBattery Life
p26
V8
p27
sVModel
p28
VNX.Q05AA.001
p29
sVScreen Size
p30
V15.60 Inches
p31
sVProcessor Type
p32
VIntel i7-6700HQ
p33
sVCondition
p34
VNew
p35
sVmanufacturer_part_number
p36
VG9-591-74KN
p37
ssS'title'
p38
VAcer Predator 15 G9-591-74KN 15.6" LED (In-plane Switching (IPS) Technology) Notebook - Intel Core i7 i7-6700HQ Quad-core (4 Core) 2.60 GHz - 32 GB DDR4 SDRAM RAM - 1 TB HDD - 512 GB SSD - Blu-ra
p39
sb.