ccopy_reg
_reconstructor
p0
(c__main__
ProductRecord
p1
c__builtin__
object
p2
Ntp3
Rp4
(dp5
S'product_url'
p6
S'http://www.walmart.com/ip/2016-Newest-HP-Pavilion-15t-Gaming-Laptop-15-6-FHD-Touchscreen-Intel-i5-Processor-16GB-RAM-240GB-SSD-15-6-Inch-FHD-1920-x-1080-Touchscreen-Windows-10/134070365'
p7
sS'price'
p8
S'N/A'
p9
sS'properties'
p10
(dp11
VRAM Memory
p12
V16 GB
p13
sVOperating System
p14
VMicrosoft Windows
p15
sVColor Category
p16
VWhite
p17
sVLaptop Computer Type
p18
VTouchscreen
p19
sVBrand
p20
VHP
p21
sVManufacturer Part Number
p22
VHP Pavilion 15t
p23
sVScreen Size
p24
V15.6
p25
sVManufacturer
p26
VHP
p27
ssS'title'
p28
V2016 Newest HP Pavilion 15t Gaming Laptop with 15.6' FHD Touchscreen ( Intel i5 Processor, 16GB RAM, 240GB SSD, 15.6 Inch FHD (1920 x 1080) Touchscreen, Windows 10)
p29
sb.