ccopy_reg
_reconstructor
p0
(c__main__
ProductRecord
p1
c__builtin__
object
p2
Ntp3
Rp4
(dp5
S'product_url'
p6
S'http://www.walmart.com/ip/Refurbished-Acer-15-6-Intel-Core-i7-2-60-GHz-16-GB-Ram-1-TB-HDD-Windows-10-Home-G9-592-71EF/535865053'
p7
sS'price'
p8
S'N/A'
p9
sS'properties'
p10
(dp11
VRAM Memory
p12
V16 GB
p13
sVOperating System
p14
VWindows 10
p15
sVBrand
p16
VAcer
p17
sVProcessor Speed
p18
V2.60 GHz
p19
sVManufacturer Part Number
p20
VNX.Q0RAA.005
p21
sVMaximum RAM Supported
p22
V64 GB
p23
sVAssembled Product Dimensions (L x W x H)
p24
V11.80 x 15.40 x 1.50 Inches
p25
sVModel
p26
VG9-592-71EF
p27
sVScreen Size
p28
V15.6 in
p29
sVProcessor Type
p30
VIntel Core i7
p31
ssS'title'
p32
VRefurbished Acer 15.6" Intel Core i7 2.60 GHz 16 GB Ram 1 TB HDD Windows 10 Home|G9-592-71EF
p33
sb.