ccopy_reg
_reconstructor
p0
(c__main__
ProductRecord
p1
c__builtin__
object
p2
Ntp3
Rp4
(dp5
S'product_url'
p6
S'http://www.walmart.com/ip/HP-EliteBook-8770W-i7-3630QM-16GB-500GB-Win-10-Pro-B/649822114'
p7
sS'price'
p8
S'N/A'
p9
sS'properties'
p10
(dp11
VModel
p12
VDoes Not Apply
p13
sVBrand
p14
VHP
p15
sVManufacturer Part Number
p16
VDoes Not Apply
p17
ssS'title'
p18
VHP EliteBook 8770W i7-3630QM 16GB 500GB Win 10 Pro B
p19
sb.