ccopy_reg
_reconstructor
p0
(c__main__
ProductRecord
p1
c__builtin__
object
p2
Ntp3
Rp4
(dp5
S'product_url'
p6
S'http://www.walmart.com/ip/newest-lenovo-2-in-1-flex-4-14-hd-touchscreen-flagship-premium-laptop-pc-intel-pentium-4405u-8gb-ram-500gb-hdd-bluetooth-wifi-stereo-speakers-etherne/847861060'
p7
sS'price'
p8
S'N/A'
p9
sS'properties'
p10
(dp11
VBrand
p12
VLenovo
p13
sVRAM Memory
p14
V8 GB
p15
sVOperating System
p16
VMicrosoft Windows
p17
sVHard Drive Capacity
p18
V500 GB
p19
ssS'title'
p20
Vnewest lenovo 2-in-1 flex 4 14 hd touchscreen flagship premium laptop pc | intel pentium 4405u | 8gb ram | 500gb hdd | bluetooth | wifi | stereo speakers | ethernet | windows 10 | black
p21
sb.