ccopy_reg
_reconstructor
p0
(c__main__
ProductRecord
p1
c__builtin__
object
p2
Ntp3
Rp4
(dp5
S'product_url'
p6
S'http://www.walmart.com/ip/MSI-PE62VR-7RF-837-15-6-Gaming-Laptop-Intel-i7-7700HQ-16GB-RAM-1TB-HDD-GTX-1060/657717504'
p7
sS'price'
p8
S'N/A'
p9
sS'properties'
p10
(dp11
VRAM Memory
p12
V16 Gigabytes
p13
sVOperating System
p14
VWindows 10
p15
sVFeatures
p16
VI7-7700HQ GTX1060 16GB 1TB WIN10
p17
sVBrand
p18
VMSI
p19
sVProcessor Speed
p20
V2.8 Gigahertz
p21
sVHard Drive Capacity
p22
V1 Terabytes
p23
sVBattery Life
p24
V0 h
p25
sVModel
p26
VPE62VR837
p27
sVScreen Size
p28
V15.60 Inches
p29
sVProcessor Type
p30
VIntel i7-7700HQ
p31
sVCondition
p32
VNew
p33
sVmanufacturer_part_number
p34
Vpe62vr 7rf-837
p35
ssS'title'
p36
VMSI PE62VR 7RF-837 15.6" Gaming Laptop Intel i7-7700HQ 16GB RAM 1TB HDD GTX 1060
p37
sb.