ccopy_reg
_reconstructor
p0
(c__main__
ProductRecord
p1
c__builtin__
object
p2
Ntp3
Rp4
(dp5
S'product_url'
p6
S'http://www.walmart.com/ip/REFURBISHED-2016-Dell-Alienware-17-3-Inch-FHD-Gaming-Laptop-Intel-Core-i7-4710HQ-3-5-Ghz-Processor-16GB-DDR3-RAM-128GB-M-2-SSD-1TB-HDD-NVIDIA-GeForce/941948498'
p7
sS'price'
p8
S'N/A'
p9
sS'properties'
p10
(dp11
VRAM Memory
p12
V16 GB
p13
sVOperating System
p14
VMicrosoft Windows
p15
sVBrand
p16
VDell
p17
sVHard Drive Capacity
p18
V128
p19
sVProcessor Speed
p20
V3
p21
sVScreen Size
p22
V17.3
p23
ssS'title'
p24
VREFURBISHED 2016 Dell Alienware 17.3 Inch FHD Gaming Laptop (Intel Core i7-4710HQ up to 3.5 Ghz Processor, 16GB DDR3 RAM, 128GB M.2 SSD + 1TB HDD, NVIDIA GeForce GTX 970M 3GB GDDR5, Windows 8.1)
p25
sb.