ccopy_reg
_reconstructor
p0
(c__main__
ProductRecord
p1
c__builtin__
object
p2
Ntp3
Rp4
(dp5
S'product_url'
p6
S'http://www.walmart.com/ip/Refurbished-Dell-Inspiron-i3000-10099SLV-11-6-Inch-Touchscreen-2-in-1-Laptop-Intel-Pentium-4-GB-RAM-500-GB-HDD-Moonlight-Silver/122520375'
p7
sS'price'
p8
S'N/A'
p9
sS'properties'
p10
(dp11
VBrand
p12
VDell
p13
sVHard Drive Capacity
p14
V500
p15
ssS'title'
p16
VRefurbished Dell Inspiron i3000-10099SLV 11.6 Inch Touchscreen 2-in-1 Laptop (Intel Pentium, 4 GB RAM, 500 GB HDD, Moonlight Silver)
p17
sb.