ccopy_reg
_reconstructor
p0
(c__main__
ProductRecord
p1
c__builtin__
object
p2
Ntp3
Rp4
(dp5
S'product_url'
p6
S'http://www.walmart.com/ip/REFURBISHED-Alienware-17-R4-Signature-Edition-Gaming-Laptop-17-3-Full-HD-i7-6700-16GB-RAM-256SSD-1TB-HDD-Hybrid-Drive-GeForce-1070-Windows-10/936068650'
p7
sS'price'
p8
S'N/A'
p9
sS'properties'
p10
(dp11
VOperating System
p12
VMicrosoft Windows
p13
sVBrand
p14
VDell
p15
sVRAM Memory
p16
V16 GB
p17
sVScreen Size
p18
V17.3
p19
ssS'title'
p20
VREFURBISHED Alienware 17 R4 AW17R4 17.3" QHD i7-7700HQ GTX 1050 32GB 1TB HDD+128GB SSD Windows 10
p21
sb.