ccopy_reg
_reconstructor
p0
(c__main__
ProductRecord
p1
c__builtin__
object
p2
Ntp3
Rp4
(dp5
S'product_url'
p6
S'http://www.walmart.com/ip/Lenovo-Ideapad-700-15ISK-Core-i5-6300HQ-15-6-FHD-1920x1080-IPS-Laptop/191838566'
p7
sS'price'
p8
S'N/A'
p9
sS'properties'
p10
(dp11
VRAM Memory
p12
V12.00 GB
p13
sVOperating System
p14
VWindows 10
p15
sVBrand
p16
VLenovo
p17
sVProcessor Speed
p18
V2.30 GHz
p19
sVManufacturer Part Number
p20
V80RU00FEUS
p21
sVMaximum RAM Supported
p22
V12.00 GB
p23
sVHard Drive Capacity
p24
V256.00 GB
p25
sVBattery Life
p26
V4.00 h
p27
sVAssembled Product Dimensions (L x W x H)
p28
V15.12 x 0.89 x 10.43 Inches
p29
sVModel
p30
V80RU00FEUS
p31
sVScreen Size
p32
V15.60 in
p33
sVProcessor Type
p34
VIntel Core i5
p35
sVCondition
p36
VNew
p37
ssS'title'
p38
VLenovo Ideapad 700-15ISK Core i5-6300HQ 15.6" FHD (1920x1080) IPS Laptop
p39
sb.