ccopy_reg
_reconstructor
p0
(c__main__
ProductRecord
p1
c__builtin__
object
p2
Ntp3
Rp4
(dp5
S'product_url'
p6
S'http://www.walmart.com/ip/REFURBISHED-Dell-Alienware-18-18-4-Laptop-ALW18-Intel-Core-i7-4940MX-3-2GHz-32GB-RAM-2X512GB-SSD-s-Dual-NVIDIA-GTX-980M-Windows-10-Pro/466617482'
p7
sS'price'
p8
V$3,199.95
p9
sS'properties'
p10
(dp11
VRAM Memory
p12
V32 GB
p13
sVOperating System
p14
VWindows 10
p15
sVBrand
p16
VDell
p17
sVHard Drive Capacity
p18
V512 GB
p19
sVScreen Size
p20
V18.4 in
p21
sVCondition
p22
VRefurbished
p23
ssS'title'
p24
VREFURBISHED Dell Alienware 18 18.4" Laptop ALW18 Intel Core i7-4940MX 3.2GHz, 32GB RAM, 2X512GB SSD's, Dual NVIDIA GTX 980M, Windows 10 Pro
p25
sb.