ccopy_reg
_reconstructor
p0
(c__main__
ProductRecord
p1
c__builtin__
object
p2
Ntp3
Rp4
(dp5
S'product_url'
p6
S'http://www.walmart.com/ip/REFURBISHED-Alienware-17-R2-Laptop-17-3-FHD-i7-4710HQ-2-50GHz-256GB-16GB-RAM-GTX880M-WIN-10/860199920'
p7
sS'price'
p8
V$1,299.95
p9
sS'properties'
p10
(dp11
VOperating System
p12
VMicrosoft Windows
p13
sVBrand
p14
VAlienware
p15
sVRAM Memory
p16
V16 GB
p17
sVScreen Size
p18
V17.3
p19
ssS'title'
p20
VREFURBISHED Alienware 17 R2 Laptop 17.3" FHD i7-4710HQ 2.50GHz 256GB 16GB RAM GTX880M WIN 10
p21
sb.