ccopy_reg
_reconstructor
p0
(c__main__
ProductRecord
p1
c__builtin__
object
p2
Ntp3
Rp4
(dp5
S'product_url'
p6
S'http://www.walmart.com/ip/Msi-GE63VR002-Ge63Vr-Raider-002-15-6-In-120Hz-3ms-Premium-Gaming-Laptop/558362772'
p7
sS'price'
p8
S'N/A'
p9
sS'properties'
p10
(dp11
VRAM Memory
p12
V32 Gigabytes
p13
sVOperating System
p14
VWindows 10
p15
sVFeatures
p16
Vi7-7700HQ GTX1060 32G 512G 1T WIN10PRO
p17
sVBrand
p18
VMSI
p19
sVProcessor Speed
p20
V2.8 Gigahertz
p21
sVManufacturer Part Number
p22
VGE63VR002
p23
sVMaximum RAM Supported
p24
V32.00 GB
p25
sVHard Drive Capacity
p26
V1 Terabytes
p27
sVModel
p28
VGE63VR002
p29
sVScreen Size
p30
V15.60 Inches
p31
sVProcessor Type
p32
VIntel i7-7700HQ
p33
sVCondition
p34
VNew
p35
ssS'title'
p36
VMsi GE63VR002 Ge63Vr Raider/002 15.6/In 120Hz 3ms Premium Gaming Laptop
p37
sb.