ccopy_reg
_reconstructor
p0
(c__main__
ProductRecord
p1
c__builtin__
object
p2
Ntp3
Rp4
(dp5
S'product_url'
p6
S'http://www.walmart.com/ip/Asus-GX501VS-XS71-I7-7700Hq-2-8Ghz-Turbo-Up-To-3-8Ghz/944788079'
p7
sS'price'
p8
V$1,999.00
p9
sS'properties'
p10
(dp11
VRAM Memory
p12
V16 Gigabytes
p13
sVOperating System
p14
VWindows 10
p15
sVFeatures
p16
VGX501VS-XS71 - INTEL - CORE I7 - 7700HQ - 2.8 GHZ - DDR4 SDRAM - RAM: 16 GB - NV
p17
sVVideo Game Platform
p18
VSee Description
p19
sVBrand
p20
VASUS
p21
sVProcessor Speed
p22
V2.8 Gigahertz
p23
sVManufacturer Part Number
p24
VGX501VS-XS71
p25
sVMaximum RAM Supported
p26
V24.00 GB
p27
sVHard Drive Capacity
p28
V256 Gigabytes
p29
sVModel
p30
VGX501VS-XS71
p31
sVScreen Size
p32
V15.60 Inches
p33
sVProcessor Type
p34
VIntel i7-7700HQ
p35
sVCondition
p36
VNew
p37
ssS'title'
p38
VAsus GX501VS-XS71 I7-7700Hq 2.8Ghz (Turbo Up To 3.8Ghz)
p39
sb.