ccopy_reg
_reconstructor
p0
(c__main__
ProductRecord
p1
c__builtin__
object
p2
Ntp3
Rp4
(dp5
S'product_url'
p6
S'http://www.walmart.com/ip/MSI-GS43VR-Phantom-Pro-210-14-Gaming-Laptop-32GB-1TB-HDD-512GB-SSD-GTX-1060/933874172'
p7
sS'price'
p8
V$1,899.00
p9
sS'properties'
p10
(dp11
VRAM Memory
p12
V32 Gigabytes
p13
sVOperating System
p14
VWindows 10
p15
sVFeatures
p16
VGTX1060 32G 512G 1T 14IN W10
p17
sVBrand
p18
VMSI
p19
sVProcessor Speed
p20
V2.8 Gigahertz
p21
sVHard Drive Capacity
p22
V1 Terabytes
p23
sVModel
p24
VGS43VR210
p25
sVScreen Size
p26
V14.00 Inches
p27
sVProcessor Type
p28
VIntel i7-7700HQ
p29
sVmanufacturer_part_number
p30
Vgs43vr
p31
ssS'title'
p32
VMSI GS43VR Phantom Pro-210 14" Gaming Laptop 32GB 1TB HDD 512GB SSD GTX 1060
p33
sb.