ccopy_reg
_reconstructor
p0
(c__main__
ProductRecord
p1
c__builtin__
object
p2
Ntp3
Rp4
(dp5
S'product_url'
p6
S'http://www.walmart.com/ip/PROSTAR-Clevo-Gaming-Laptop-N850HK1-15-6-FHD-IPS-1920x1080-Matte-Type-Display-Intel-Core-i7-7700HQ-16GB-DDR4-GTX-1050Ti-250GB-SSD-Windows-10-Home-Wi-/822306522'
p7
sS'price'
p8
V$1,099.00
p9
sS'properties'
p10
(dp11
VRAM Memory
p12
V16 Gigabytes
p13
sVOperating System
p14
VMicrosoft Windows 10 
p15
sVBrand
p16
VPROSTAR
p17
sVMaximum RAM Supported
p18
V32 Gigabytes
p19
sVAssembled Product Dimensions (L x W x H)
p20
V10.51 x 14.88 x 1.06 Inches
p21
sVProcessor Type
p22
VIntel Core i7-7700HQ
p23
sVProcessor Speed
p24
V2.8 Gigahertz
p25
sVCondition
p26
VNew
p27
sVmanufacturer_part_number
p28
Vn850hk1
p29
ssS'title'
p30
VPROSTAR Clevo Gaming Laptop N850HK1 15.6\u201d FHD IPS (1920x1080) Matte Type Display, Intel Core i7-7700HQ, 16GB DDR4, GTX 1050Ti, 250GB SSD, Windows 10 Home, Wi-Fi+Bluetooth, 1-Year Warranty
p31
sb.