ccopy_reg
_reconstructor
p0
(c__main__
ProductRecord
p1
c__builtin__
object
p2
Ntp3
Rp4
(dp5
S'product_url'
p6
S'http://www.walmart.com/ip/HP-OMEN-15-15-6-UHD-4K-Gaming-Business-Laptop-Intel-i7-Quad-Core-2TB-HDD-1TB-SSD-15-6-inch-UHD-3840-x-2160-32GB-RAM-GeForce-GTX-1050-Ti-Win-10/747354804'
p7
sS'price'
p8
V$2,020.45
p9
sS'properties'
p10
(dp11
VBrand
p12
VMichaelElectronics2
p13
sVScreen Size
p14
V15.6
p15
sVHard Drive Capacity
p16
V1000
p17
ssS'title'
p18
VHP OMEN 15 15.6'' UHD 4K Gaming and Business Laptop (Intel i7 Quad Core, 2TB HDD + 1TB SSD, 15.6 inch UHD 3840 x 2160, 32GB RAM, GeForce GTX 1050 Ti , Win 10)
p19
sb.