ccopy_reg
_reconstructor
p0
(c__main__
ProductRecord
p1
c__builtin__
object
p2
Ntp3
Rp4
(dp5
S'product_url'
p6
S'http://www.walmart.com/ip/Samsung-NP800G5M-X02US-15-6-Gaming-Notebook-Odyssey-Intel-i7-256GB-Laptop-Elite-Suite-17-Standard-Software-Bundle-Corel-WordPerfect-PC-Mover-PDF-Fusi/114838330'
p7
sS'price'
p8
V$1,262.00
p9
sS'properties'
p10
(dp11
VBrand
p12
VSamsung
p13
sVAssembled Product Dimensions (L x W x H)
p14
V0.88 x 10.24 x 0.94 Inches
p15
sVManufacturer Part Number
p16
VE1SAMNP800G5MX02US
p17
sVAssembled Product Weight
p18
V5.58 Pounds
p19
ssS'title'
p20
VSamsung NP800G5M-X02US 15.6" Gaming Notebook Odyssey Intel i7, 256GB Laptop + Elite Suite 17 Standard Software Bundle (Corel WordPerfect, PC Mover, PDF Fusion, X9) + 1 Year Extended Warranty
p21
sb.