ccopy_reg
_reconstructor
p0
(c__main__
ProductRecord
p1
c__builtin__
object
p2
Ntp3
Rp4
(dp5
S'product_url'
p6
S'http://www.walmart.com/ip/MSI-Notebook-GE62VR644-15-6-inch-Core-i7-7700HQ-8GBx2-256GB-1TB-GeForce-GTX-1060-Windows-10-Retail/159331762'
p7
sS'price'
p8
V$1,576.27
p9
sS'properties'
p10
(dp11
VRAM Memory
p12
V16 Gigabytes
p13
sVOperating System
p14
VWindows 10
p15
sVFeatures
p16
VMSI Notebook GE62VR644 15.6 inch Core i7-7700HQ 8GBx2 256GB+1TB GeForce GTX 1060 Windows 10 Retail
p17
sVVideo Game Platform
p18
VPC
p19
sVBrand
p20
VMSI
p21
sVProcessor Speed
p22
V2.8 Gigahertz
p23
sVManufacturer Part Number
p24
VGE62VR644
p25
sVMaximum RAM Supported
p26
V32.00 GB
p27
sVHard Drive Capacity
p28
V1 Terabytes
p29
sVAssembled Product Dimensions (L x W x H)
p30
V25.00 x 9.00 x 17.00 Inches
p31
sVModel
p32
VGE62VR644
p33
sVScreen Size
p34
V15.60 Inches
p35
sVProcessor Type
p36
VIntel i7-7700HQ
p37
ssS'title'
p38
VMSI Notebook GE62VR644 15.6 inch Core i7-7700HQ 8GBx2 256GB+1TB GeForce GTX 1060 Windows 10 Retail
p39
sb.