ccopy_reg
_reconstructor
p0
(c__main__
ProductRecord
p1
c__builtin__
object
p2
Ntp3
Rp4
(dp5
S'product_url'
p6
S'http://www.walmart.com/ip/REFURBISHED-640-G1-I7-4610m-8g-500gb-Win7/548185649'
p7
sS'price'
p8
V$799.00
p9
sS'properties'
p10
(dp11
VBrand
p12
VHP
p13
ssS'title'
p14
VREFURBISHED 640 G1 I7 4610m 8g 500gb Win7
p15
sb.