ccopy_reg
_reconstructor
p0
(c__main__
ProductRecord
p1
c__builtin__
object
p2
Ntp3
Rp4
(dp5
S'product_url'
p6
S'http://www.walmart.com/ip/Refurbished-Alienware-ALW17-8751sLV-17-3-Inch-Gaming-Laptop-Discontinued-By-Manufacturer/629463457'
p7
sS'price'
p8
V$1,899.95
p9
sS'properties'
p10
(dp11
VBrand
p12
VAlienware
p13
sVScreen Size
p14
V17.3
p15
sVCondition
p16
VRefurbished
p17
ssS'title'
p18
VRefurbished Alienware ALW17-8751sLV 17.3-Inch Gaming Laptop [Discontinued By Manufacturer]
p19
sb.