ccopy_reg
_reconstructor
p0
(c__main__
ProductRecord
p1
c__builtin__
object
p2
Ntp3
Rp4
(dp5
S'product_url'
p6
S'http://www.walmart.com/ip/Y720-I7-2-8-15-6-16GB-1TB-256GB-SSD-W10/584331285'
p7
sS'price'
p8
V$1,397.98
p9
sS'properties'
p10
(dp11
VBrand
p12
VLenovo
p13
sVmanufacturer_part_number
p14
Vi7/2.8
p15
ssS'title'
p16
VY720 I7/2.8 15.6 16GB 1TB 256GB SSD W10
p17
sb.