ccopy_reg
_reconstructor
p0
(c__main__
ProductRecord
p1
c__builtin__
object
p2
Ntp3
Rp4
(dp5
S'product_url'
p6
S'http://www.walmart.com/ip/REFURBISHED-HP-EliteBook-8760w-SP146UP-17-3-LED-Notebook-Core-i7-i7-2820QM-2-3GHz-SP146UP-ABA/114224330'
p7
sS'price'
p8
V$899.00
p9
sS'properties'
p10
(dp11
VBrand
p12
VHP
p13
ssS'title'
p14
VREFURBISHED HP EliteBook 8760w SP146UP 17.3" LED Notebook - Core i7 i7-2820QM 2.3GHz (SP146UP#ABA)
p15
sb.