ccopy_reg
_reconstructor
p0
(c__main__
ProductRecord
p1
c__builtin__
object
p2
Ntp3
Rp4
(dp5
S'product_url'
p6
S'http://www.walmart.com/ip/REFURBISHED-Hewlett-Packard-8770W-Mobile-Workstation-Intel-I7-3520M-Ci7-2-9/495787289'
p7
sS'price'
p8
V$899.95
p9
sS'properties'
p10
(dp11
VBrand
p12
VHP
p13
ssS'title'
p14
VREFURBISHED Hewlett Packard 8770W Mobile Workstation Intel:I7-3520M/Ci7-2.9
p15
sb.