ccopy_reg
_reconstructor
p0
(c__main__
ProductRecord
p1
c__builtin__
object
p2
Ntp3
Rp4
(dp5
S'product_url'
p6
S'http://www.walmart.com/ip/MSI-PL62-7RD-017-15-6-Gaming-Laptop-i7-7500U-8GB-256GB-SSD-GTX-1050/738950375'
p7
sS'price'
p8
V$999.00
p9
sS'properties'
p10
(dp11
VRAM Memory
p12
V8 Gigabytes
p13
sVOperating System
p14
VWindows 10
p15
sVBrand
p16
VMSI
p17
sVProcessor Speed
p18
V2.7 Gigahertz
p19
sVHard Drive Capacity
p20
V256 Gigabytes
p21
sVBattery Life
p22
V0 h
p23
sVModel
p24
VPL62017
p25
sVScreen Size
p26
V15.60 Inches
p27
sVProcessor Type
p28
VIntel i7-7500U
p29
sVCondition
p30
VNew
p31
sVmanufacturer_part_number
p32
Vpl62 7rd-017
p33
ssS'title'
p34
VMSI PL62 7RD-017 15.6" Gaming Laptop i7-7500U 8GB 256GB SSD GTX 1050
p35
sb.