ccopy_reg
_reconstructor
p0
(c__main__
ProductRecord
p1
c__builtin__
object
p2
Ntp3
Rp4
(dp5
S'product_url'
p6
S'http://www.walmart.com/ip/Lenovo-Legion-Y520-80WK00F9US-Gaming-Laptop-Notebook-15-6-2TB-HDD-256GB-SSD-16GB-RAM-1050Ti-4GB-FHD/392060299'
p7
sS'price'
p8
V$1,024.99
p9
sS'properties'
p10
(dp11
VLaptop Computer Type
p12
VPC Laptops
p13
sVBrand
p14
VLenovo
p15
sVScreen Size
p16
V15.6
p17
sVOperating System
p18
VMicrosoft Windows
p19
sVCondition
p20
VNew
p21
ssS'title'
p22
VLenovo Legion Y520 80WK00F9US Gaming Laptop Notebook 15.6" 2TB HDD + 256GB SSD 16GB RAM 1050Ti 4GB FHD
p23
sb.