ccopy_reg
_reconstructor
p0
(c__main__
ProductRecord
p1
c__builtin__
object
p2
Ntp3
Rp4
(dp5
S'product_url'
p6
S'http://www.walmart.com/ip/REFURBISHED-DELL-PRECISION-M6800-I7-4810MQ-3-8GHZ-QUADRO-K3100M-4GB-16GB-1600MHZ-FHD-1080P-500GB-1TB-DVDR-NQ0434/458521177'
p7
sS'price'
p8
V$1,094.95
p9
sS'properties'
p10
(dp11
VBrand
p12
VDell
p13
ssS'title'
p14
VREFURBISHED DELL PRECISION M6800 I7 4810MQ 3.8GHZ QUADRO K3100M 4GB 16GB 1600MHZ FHD 1080P 500GB 1TB DVDR NQ0434
p15
sb.