ccopy_reg
_reconstructor
p0
(c__main__
ProductRecord
p1
c__builtin__
object
p2
Ntp3
Rp4
(dp5
S'product_url'
p6
S'http://www.walmart.com/ip/PROSTAR-Clevo-N850HK1-15-6-Full-HD-IPS-1920x1080-Matte-Display-Gaming-Laptop-Intel-Core-i7-7700HQ-16GB-DDR4-GTX-1050Ti-256GB-SSD-1TB-HDD-Windows-10-H/957464956'
p7
sS'price'
p8
V$1,149.00
p9
sS'properties'
p10
(dp11
VRAM Memory
p12
V16 Gigabytes
p13
sVOperating System
p14
VMicrosoft?? Windows 10 (64-bit)??
p15
sVColor Category
p16
VBlack
p17
sVLaptop Computer Type
p18
VGaming Laptops
p19
sVBrand
p20
VPROSTAR
p21
sVWireless Technology
p22
VIntel Dual Band Wireless-AC 3168 Sandy Peak M.2 AC + Bluetooth Combo??Intel Dual Band Wireless-AC 3168 Sandy Peak M.2 AC + Bluetooth Combo??
p23
sVHard Drive Capacity
p24
V1 Terabytes
p25
sVProcessor Type
p26
VIntel Core i7-7700HQ
p27
sVManufacturer
p28
VPROSTAR
p29
sVScreen Size
p30
V15.6
p31
sVCondition
p32
VNew
p33
sVmanufacturer_part_number
p34
Vn850hk1
p35
ssS'title'
p36
VPROSTAR Clevo N850HK1 15.6\u201d Full HD IPS (1920x1080) Matte Display Gaming Laptop, Intel Core i7-7700HQ, 16GB DDR4, GTX 1050Ti, 256GB SSD, 1TB HDD, Windows 10 Home, Wi-Fi+Bluetooth, 1-Year Warranty
p37
sb.