ccopy_reg
_reconstructor
p0
(c__main__
ProductRecord
p1
c__builtin__
object
p2
Ntp3
Rp4
(dp5
S'product_url'
p6
S'http://www.walmart.com/ip/REFURBISHED-Dell-Precision-M6800-17-3-Mobile-Workstation-Intel-Core-i7-i7-4810MQ-Quad-core-4-Core-2-80-GHz-463-5897/126091596'
p7
sS'price'
p8
V$1,149.95
p9
sS'properties'
p10
(dp11
VBrand
p12
VDell
p13
ssS'title'
p14
VREFURBISHED Dell Precision M6800 17.3" Mobile Workstation - Intel Core i7 i7-4810MQ Quad-core (4 Core) 2.80 GHz 463-5897
p15
sb.