ccopy_reg
_reconstructor
p0
(c__main__
ProductRecord
p1
c__builtin__
object
p2
Ntp3
Rp4
(dp5
S'product_url'
p6
S'http://www.walmart.com/ip/REFURBISHED-DELL-XPS-13-9350-QHD-1800P-TOUCH-I7-6560U-3-2GHZ-16GB-RAM-1TB-PCIE-SSD-Backlit-Keyboard-Intel-Iris-Graphics-540-WIN-10-Professional/450092958'
p7
sS'price'
p8
V$1,270.00
p9
sS'properties'
p10
(dp11
VBrand
p12
VDell
p13
ssS'title'
p14
VREFURBISHED DELL XPS 13 9350 QHD+ 1800P TOUCH I7-6560U 3.2GHZ 16GB RAM 1TB PCIE SSD Backlit Keyboard Intel Iris Graphics 540 WIN 10 Professional
p15
sb.