ccopy_reg
_reconstructor
p0
(c__main__
ProductRecord
p1
c__builtin__
object
p2
Ntp3
Rp4
(dp5
S'product_url'
p6
S'http://www.walmart.com/ip/LG-14z970-A-AAS7U1-gram-Intel-i7-8GB-RAM-14-Touchscreen-Laptop-Dark-Silver-Elite-Suite-17-Standard-Software-Bundle-Corel-WordPerfect-PC-Mover-PDF-Fus/403260532'
p7
sS'price'
p8
V$1,273.99
p9
sS'properties'
p10
(dp11
VBrand
p12
VLG
p13
sVAssembled Product Dimensions (L x W x H)
p14
V0.70 x 8.30 x 0.60 Inches
p15
sVManufacturer Part Number
p16
VE1LG14Z970AAAS7U1
p17
sVAssembled Product Weight
p18
V2.14 Pounds
p19
ssS'title'
p20
VLG 14z970-A.AAS7U1 gram Intel i7 8GB RAM 14" Touchscreen Laptop, Dark Silver + Elite Suite 17 Standard Software Bundle (Corel WordPerfect, PC Mover, PDF Fusion, X9) + 1 Year Extended Warranty
p21
sb.