ccopy_reg
_reconstructor
p0
(c__main__
ProductRecord
p1
c__builtin__
object
p2
Ntp3
Rp4
(dp5
S'product_url'
p6
S'http://www.walmart.com/ip/GP72X-LEOPARD-667-I7-7700HQ-2-8G-GTX1050-16G128G-1TB-17-3IN-W10/785950564'
p7
sS'price'
p8
V$1,349.99
p9
sS'properties'
p10
(dp11
VRAM Memory
p12
V16 Gigabytes
p13
sVOperating System
p14
VWindows 10
p15
sVColor Category
p16
VMulticolor
p17
sVLaptop Computer Type
p18
VGaming Laptops
p19
sVBrand
p20
VMSI
p21
sVManufacturer Part Number
p22
VGP72X667
p23
sVHard Drive Capacity
p24
V1 Terabytes
p25
sVProcessor Core Type
p26
VQuad-core (4 Core)
p27
sVProcessor Type
p28
VIntel i7-7700HQ
p29
sVScreen Size
p30
V17.30 Inches
p31
sVModel
p32
VGP72X Leopard 667
p33
sVCondition
p34
VNew
p35
sVManufacturer
p36
VMSI - SYSTEMS
p37
ssS'title'
p38
VGP72X LEOPARD-667 I7-7700HQ 2.8G GTX1050 16G128G 1TB 17.3IN W10
p39
sb.