ccopy_reg
_reconstructor
p0
(c__main__
ProductRecord
p1
c__builtin__
object
p2
Ntp3
Rp4
(dp5
S'product_url'
p6
S'http://www.walmart.com/ip/HP-ENVY-x360-2-in-1-15-6-Touch-Screen-Laptop-i5-8250U-12GB-1TB-HD-Backlit-keyboard-15M-BP111DX/630252507'
p7
sS'price'
p8
S'N/A'
p9
sS'properties'
p10
(dp11
VRAM Memory
p12
V12 GB
p13
sVOperating System
p14
VWindows 98
p15
sVFeatures
p16
VBuilt-in HP Wide Vision FHD IR camera with dual-array digital microphone, Backlit keyboard for easy typing in dim or dark locations, Bluetooth interface synchronizes with compatible devices, Built for Windows Ink
p17
sVBrand
p18
VHP
p19
sVProcessor Speed
p20
V166 Hz
p21
sVManufacturer Part Number
p22
V15M-BP111DX
p23
sVHard Drive Capacity
p24
V1 TB
p25
sVBattery Life
p26
V7 h
p27
sVModel
p28
V1KS72UA#ABA
p29
sVScreen Size
p30
V15.6 in
p31
sVProcessor Type
p32
Vi5-8250U
p33
ssS'title'
p34
VHP ENVY x360 2-in-1 15.6" Touch-Screen Laptop i5-8250U 12GB 1TB HD Backlit keyboard 15M-BP111DX
p35
sb.