ccopy_reg
_reconstructor
p0
(c__main__
ProductRecord
p1
c__builtin__
object
p2
Ntp3
Rp4
(dp5
S'product_url'
p6
S'http://www.walmart.com/ip/REFURBISHED-Alienware-15-ANW15-7493SLV-15-6-Inch-Gaming-Laptop-2-50GHz-4th-Generation-Intel-Core-i7-4710HQ-Processor-16GB-RAM-256GB-SSD-Windows-8-1-D/733615526'
p7
sS'price'
p8
V$1,399.00
p9
sS'properties'
p10
(dp11
VOperating System
p12
VMicrosoft Windows
p13
sVBrand
p14
VDell
p15
sVRAM Memory
p16
V16 GB
p17
sVScreen Size
p18
V15.6
p19
sVHard Drive Capacity
p20
V256
p21
ssS'title'
p22
VREFURBISHED Alienware 15 ANW15-7493SLV 15.6-Inch Gaming Laptop (2.50GHz 4th Generation Intel Core i7 4710HQ Processor, 16GB RAM, 256GB SSD, Windows 8.1) [Discontinued By Manufacturer]
p23
sb.