ccopy_reg
_reconstructor
p0
(c__main__
ProductRecord
p1
c__builtin__
object
p2
Ntp3
Rp4
(dp5
S'product_url'
p6
S'http://www.walmart.com/ip/HP-Pavilion-15t-Gaming-Laptop-Full-HD-Touchscreen-Intel-i7-Quad-Core-16GB-NVIDIA-GeForce-960M-2TB-HDD-512GB-SSD-15-6-Inch-FHD-1920-x-1080-Touchscreen/737618906'
p7
sS'price'
p8
V$1,437.45
p9
sS'properties'
p10
(dp11
VBrand
p12
VHP
p13
sVHard Drive Capacity
p14
V2000
p15
sVManufacturer Part Number
p16
VHP Pavilion Gaming 15t T9Y85AV
p17
ssS'title'
p18
VHP Pavilion 15t Gaming Laptop with Full HD Touchscreen ( Intel i7 Quad Core, 16GB, NVIDIA GeForce 960M, 2TB HDD + 512GB SSD, 15.6 Inch FHD (1920 x 1080) Touchscreen, Windows 10) T9Y85AV
p19
sb.