ccopy_reg
_reconstructor
p0
(c__main__
ProductRecord
p1
c__builtin__
object
p2
Ntp3
Rp4
(dp5
S'product_url'
p6
S'http://www.walmart.com/ip/PROSTAR-Clevo-Gaming-Laptop-N850HP6-15-6-FHD-IPS-1920x1080-LED-Matte-Type-Display-Intel-Core-i7-7700HQ-16GB-DDR4-GTX-1060-512GB-NVMe-SSD-1TB-HDD-Wind/115649077'
p7
sS'price'
p8
V$1,449.00
p9
sS'properties'
p10
(dp11
VRAM Memory
p12
V16 Gigabytes
p13
sVOperating System
p14
VMicrosoft Windows 10
p15
sVBrand
p16
VPROSTAR
p17
sVMaximum RAM Supported
p18
V32 Gigabytes
p19
sVHard Drive Capacity
p20
V1 Terabytes
p21
sVAssembled Product Dimensions (L x W x H)
p22
V10.51 x 14.88 x 1.18 Inches
p23
sVProcessor Type
p24
VIntel Core i7-7700HQ
p25
sVProcessor Speed
p26
V2.8 Gigahertz
p27
sVCondition
p28
VNew
p29
sVmanufacturer_part_number
p30
Vn850hp6
p31
ssS'title'
p32
VPROSTAR Clevo Gaming Laptop N850HP6 15.6\u201d FHD IPS (1920x1080) LED Matte Type Display, Intel Core i7-7700HQ, 16GB DDR4, GTX 1060, 512GB NVMe SSD, 1TB HDD, Windows 10, Wi-Fi+Bluetooth, 1-Year Warranty
p33
sb.