ccopy_reg
_reconstructor
p0
(c__main__
ProductRecord
p1
c__builtin__
object
p2
Ntp3
Rp4
(dp5
S'product_url'
p6
S'http://www.walmart.com/ip/GP72VR-LEOPARD-PRO-281-I7-7700HQ-16G-1TB-17-3IN-GTX1060/55522705'
p7
sS'price'
p8
V$1,465.29
p9
sS'properties'
p10
(dp11
VRAM Memory
p12
V16 GB
p13
sVOperating System
p14
VWindows 10
p15
sVFeatures
p16
Vi7-7700HQ GTX1060 16G 1TB HDD
p17
sVVideo Game Platform
p18
VPC
p19
sVBrand
p20
VMSI
p21
sVProcessor Speed
p22
V2.80 GHz, with a Max Turbo Speed of 3.80 GHz
p23
sVManufacturer Part Number
p24
VGP72VR281
p25
sVHard Drive Capacity
p26
V1 TB
p27
sVAssembled Product Dimensions (L x W x H)
p28
V16.45 x 10.60 x 1.53 Inches
p29
sVModel
p30
VGP72VR Leopard Pro-281
p31
sVScreen Size
p32
V17.3"
p33
sVProcessor Type
p34
VIntel Core i7
p35
sVCondition
p36
VNew
p37
ssS'title'
p38
VGP72VR LEOPARD PRO-281 I7-7700HQ 16G 1TB 17.3IN GTX1060
p39
sb.