ccopy_reg
_reconstructor
p0
(c__main__
ProductRecord
p1
c__builtin__
object
p2
Ntp3
Rp4
(dp5
S'product_url'
p6
S'http://www.walmart.com/ip/REFURBISHED-Alienware-18-ALW18-3007sLV-18-Inch-Laptop-Silver-Anodized-Aluminum-Discontinued-By-Manufacturer/829622520'
p7
sS'price'
p8
V$1,494.95
p9
sS'properties'
p10
(dp11
VBrand
p12
VDell
p13
ssS'title'
p14
VREFURBISHED Alienware 18 ALW18-3007sLV 18-Inch Laptop (Silver Anodized Aluminum) [Discontinued By Manufacturer]
p15
sb.