ccopy_reg
_reconstructor
p0
(c__main__
ProductRecord
p1
c__builtin__
object
p2
Ntp3
Rp4
(dp5
S'product_url'
p6
S'http://www.walmart.com/ip/HP-ProBook-x360-11-G1-Education-Edition-11-6-Celeron-N3350-4-GB-RAM-128-GB-SSD/365670192'
p7
sS'price'
p8
S'N/A'
p9
sS'properties'
p10
(dp11
VRAM Memory
p12
V0 Gigabytes
p13
sVOperating System
p14
VUnknown
p15
sVFeatures
p16
VEEN3350 11 11.6IN 4GB 128GB SSD BT
p17
sVBrand
p18
VHP
p19
sVProcessor Speed
p20
V0 Gigahertz
p21
sVManufacturer Part Number
p22
V1BS68UT#ABA
p23
sVHard Drive Capacity
p24
V0 Gigabytes
p25
sVBattery Life
p26
V0 h
p27
sVAssembled Product Dimensions (L x W x H)
p28
V5.00 x 5.00 x 5.00 Inches
p29
sVModel
p30
V1BS68UT#ABA
p31
sVScreen Size
p32
V11.6 in
p33
sVProcessor Type
p34
VIntel Celeron
p35
sVCondition
p36
VNew
p37
ssS'title'
p38
VHP ProBook x360 11 G1 - Education Edition - 11.6" - Celeron N3350 - 4 GB RAM - 128 GB SSD
p39
sb.