ccopy_reg
_reconstructor
p0
(c__main__
ProductRecord
p1
c__builtin__
object
p2
Ntp3
Rp4
(dp5
S'product_url'
p6
S'http://www.walmart.com/ip/REFURBISHED-Alienware-ALW18-2001sLV-18-Inch-Laptop-3-4-GHz-Intel-Core-i7-4700MQ-Processor-8GB-DDR3L-750GB-HDD-Dual-NVIDIA-GeForce-GTX-765M-2GB-GDDR5/327296627'
p7
sS'price'
p8
V$1,599.95
p9
sS'properties'
p10
(dp11
VBrand
p12
VDell
p13
sVRAM Memory
p14
V8 GB
p15
sVOperating System
p16
VMicrosoft Windows
p17
sVHard Drive Capacity
p18
V750
p19
ssS'title'
p20
VREFURBISHED Alienware ALW18-2001sLV 18-Inch Laptop (3.4 GHz Intel Core i7-4700MQ Processor, 8GB DDR3L, 750GB HDD, Dual NVIDIA GeForce GTX 765M 2GB GDDR5
p21
sb.