ccopy_reg
_reconstructor
p0
(c__main__
ProductRecord
p1
c__builtin__
object
p2
Ntp3
Rp4
(dp5
S'product_url'
p6
S'http://www.walmart.com/ip/Gigabyte-Notebook-Aero-14Wv7-GN4-14-inch-Core-i7-7700HQ-1x16GB-512GB-Windows-10-Home-Green-Retail/530066002'
p7
sS'price'
p8
V$1,679.00
p9
sS'properties'
p10
(dp11
VRAM Memory
p12
V16.00 GB
p13
sVOperating System
p14
VWindows 10
p15
sVFeatures
p16
VGigabyte Notebook Aero 14Wv7-GN4 14 inch Core i7-7700HQ 1x16GB 512GB Windows 10 Home Green Retail
p17
sVVideo Game Platform
p18
VPC
p19
sVBrand
p20
VGIGABYTE
p21
sVProcessor Speed
p22
V3.8 GHz
p23
sVManufacturer Part Number
p24
VAERO 14WV7-GN4
p25
sVMaximum RAM Supported
p26
V64.00 GB
p27
sVHard Drive Capacity
p28
V512 GB
p29
sVModel
p30
VAERO 14WV7-GN4
p31
sVScreen Size
p32
V14 in
p33
sVProcessor Type
p34
VIntel i7 7700HQ
p35
sVCondition
p36
VNew
p37
ssS'title'
p38
VGigabyte Notebook Aero 14Wv7-GN4 14 inch Core i7-7700HQ 1x16GB 512GB Windows 10 Home Green Retail
p39
sb.