ccopy_reg
_reconstructor
p0
(c__main__
ProductRecord
p1
c__builtin__
object
p2
Ntp3
Rp4
(dp5
S'product_url'
p6
S'http://www.walmart.com/ip/Gigabyte-Notebook-Aero-14Wv7-OG4-14inch-Core-i7-7700HQ-1x16GB-512GB-Windows-10-Home-Orange-Retail/944960430'
p7
sS'price'
p8
V$1,699.00
p9
sS'properties'
p10
(dp11
VRAM Memory
p12
V0 Gigabytes
p13
sVOperating System
p14
VWindows 10
p15
sVFeatures
p16
VGigabyte Notebook Aero 14Wv7-OG4 14inch Core i7-7700HQ 1x16GB 512GB Windows 10 Home Orange Retail
p17
sVVideo Game Platform
p18
VPC
p19
sVBrand
p20
VGIGABYTE
p21
sVProcessor Speed
p22
V0 Gigahertz
p23
sVManufacturer Part Number
p24
VAERO 14WV7-OG4
p25
sVMaximum RAM Supported
p26
V64.00 GB
p27
sVHard Drive Capacity
p28
V0 Gigabytes
p29
sVAssembled Product Dimensions (L x W x H)
p30
V13.00 x 10.00 x 1.00 Inches
p31
sVModel
p32
VAERO 14WV7-OG4
p33
sVScreen Size
p34
V14 in
p35
sVProcessor Type
p36
VIntel i7-7700HQ
p37
sVCondition
p38
VNew
p39
ssS'title'
p40
VGigabyte Notebook Aero 14Wv7-OG4 14inch Core i7-7700HQ 1x16GB 512GB Windows 10 Home Orange Retail
p41
sb.