ccopy_reg
_reconstructor
p0
(c__main__
ProductRecord
p1
c__builtin__
object
p2
Ntp3
Rp4
(dp5
S'product_url'
p6
S'http://www.walmart.com/ip/MSI-PE62-7RD-1095-15-6-Notebook-w-Intel-i7-32GB-RAM-1TB-HDD-512GB-SSD/392233401'
p7
sS'price'
p8
V$1,709.63
p9
sS'properties'
p10
(dp11
VRAM Memory
p12
V32 Gigabytes
p13
sVOperating System
p14
VWindows 10 Pro (Multi Language)
p15
sVFeatures
p16
VMSI PE62 7RD 10956-cell batteryPower adapter, SOPHISTICATED BUT NOT COMPLICATED The P Series is more than just a laptop, its a work of art. Combining the efforts of both design and engineering, weve set the new standard for elegance and power. Enjoy a luxury experience with the sleek silver aluminum chassis7TH GENERATION INTEL CORE I7 PROCESSORS The perfect combination of MSI gaming laptops with 7th Generation Intel Core i7 Processors demonstrate enhanced performance, battery life, and security. Notebooks powered by U series CPU can deliver better mobility and longer battery life. Enjoy a more efficient computing experience for everythingNVIDIA'S LATEST GEFORCE GTX 1050 GPU Be one of the world's 1st with MSI's gaming laptop powered by GeForce GTX 1050 GPU delivering 30% better performance over the previous 960M GPU. With the innovative Cooler Boost 4 and MSI's special gaming features, you'll be able to harness the full performance of NVIDIA's latest GeForce GTX 1050 GPUTRUE-TO-LIFE COLOR See the world for what it is using MSIs exclusive True Color Technology. Precisely calibrated to deliver vibrant colors, stunning details, and sharp images, True Color Technology brings the colors of the world right to your displayWORK, WATCH AND PLAY AT THE SAME TIME From on-the-go to work-at-home, the PE Series supports up to 2 external outputs via HDMI and mini Display Port so you can turn your laptop into a multi-tasking workstation at home with MSIs Matrix Display Technology
p17
sVBrand
p18
VMSI
p19
sVProcessor Speed
p20
V2.8 Gigahertz
p21
sVHard Drive Capacity
p22
V1 Terabytes
p23
sVAssembled Product Dimensions (L x W x H)
p24
V23.00 x 5.00 x 14.00 Inches
p25
sVModel
p26
VPE621095
p27
sVScreen Size
p28
V15.60 Inches
p29
sVProcessor Type
p30
VIntel i7-7700HQ
p31
sVCondition
p32
VNew
p33
sVmanufacturer_part_number
p34
Vpe62 7rd-1095
p35
ssS'title'
p36
VMSI PE62 7RD-1095 15.6" Notebook w/ Intel i7, 32GB RAM, 1TB HDD & 512GB SSD
p37
sb.