ccopy_reg
_reconstructor
p0
(c__main__
ProductRecord
p1
c__builtin__
object
p2
Ntp3
Rp4
(dp5
S'product_url'
p6
S'http://www.walmart.com/ip/MSI-PE62VR-7RF-837-15-6-inch-Intel-Core-i7-7700HQ-2-8GHz-16GB-DDR4-1TB-HDD-GTX-1060-USB3-0-Windows-10-Pro-Notebook-Aluminum-Silver/124103727'
p7
sS'price'
p8
V$1,712.58
p9
sS'properties'
p10
(dp11
VBrand
p12
VMSI
p13
sVOperating System
p14
VMicrosoft Windows
p15
sVHard Drive Capacity
p16
V1000
p17
sVCondition
p18
VNew
p19
ssS'title'
p20
VMSI PE62VR 7RF-837 15.6 inch Intel Core i7-7700HQ 2.8GHz/ 16GB DDR4/ 1TB HDD/ GTX 1060/ USB3.0/ Windows 10 Pro Notebook (Aluminum Silver)
p21
sb.