ccopy_reg
_reconstructor
p0
(c__main__
ProductRecord
p1
c__builtin__
object
p2
Ntp3
Rp4
(dp5
S'product_url'
p6
S'http://www.walmart.com/ip/Refurbished-Acer-15-6-Intel-Core-i7-2-60-GHz-32-GB-Ram-1-TB-HDD-Windows-10-Home-G9-592-73BR/934534118'
p7
sS'price'
p8
V$1,730.39
p9
sS'properties'
p10
(dp11
VRAM Memory
p12
V32 GB
p13
sVOperating System
p14
VWindows 10
p15
sVBrand
p16
VAcer
p17
sVManufacturer Part Number
p18
VNX.Q0RAA.003
p19
sVModel
p20
VG9-592-73BR
p21
sVScreen Size
p22
V15.6 in
p23
sVProcessor Speed
p24
V2.60 GHz
p25
ssS'title'
p26
VRefurbished Acer 15.6" Intel Core i7 2.60 GHz 32 GB Ram 1 TB HDD Windows 10 Home|G9-592-73BR
p27
sb.