ccopy_reg
_reconstructor
p0
(c__main__
ProductRecord
p1
c__builtin__
object
p2
Ntp3
Rp4
(dp5
S'product_url'
p6
S'http://www.walmart.com/ip/Sager-NP8156-Clevo-P650HP6-G-Gaming-Laptop-15-6-FHD-IPS-Matte-w-G-SYNC-Intel-Core-i7-7700HQ-NVIDIA-GeForce-GTX1060-16GB-DDR4-500GB-Samsung-960-EVO-NV/554753630'
p7
sS'price'
p8
V$1,759.00
p9
sS'properties'
p10
(dp11
VRAM Memory
p12
V16.00 GB
p13
sVOperating System
p14
VWindows 10
p15
sVBrand
p16
VSager
p17
sVProcessor Speed
p18
V3.80 GHz
p19
sVMaximum RAM Supported
p20
V64.00 GB
p21
sVHard Drive Capacity
p22
V1.50 TB
p23
sVModel
p24
VNP8156
p25
sVScreen Size
p26
V15.60 in
p27
sVProcessor Type
p28
VIntel Core i7 7700HQ
p29
sVCondition
p30
VNew
p31
ssS'title'
p32
VSager NP8156 (Clevo P650HP6-G) Gaming Laptop 15.6\u201d FHD IPS Matte w/ G-SYNC Intel Core i7-7700HQ NVIDIA GeForce GTX1060 16GB DDR4 500GB Samsung 960 EVO NVMe SSD 1TB HDD Win10
p33
sb.