ccopy_reg
_reconstructor
p0
(c__main__
ProductRecord
p1
c__builtin__
object
p2
Ntp3
Rp4
(dp5
S'product_url'
p6
S'http://www.walmart.com/ip/Manufacturer-Refurbished-Acer-Predator-G9-592-79Y8-15-6-Intel-Core-i7-6700HQ-2-60-GHz-64-GB-Ram-2-TB-HDD-512GB-SSD-Windows-10-Home/743515395'
p7
sS'price'
p8
V$1,838.54
p9
sS'properties'
p10
(dp11
VRAM Memory
p12
V64 KB
p13
sVOperating System
p14
VWindows 10
p15
sVBrand
p16
VAcer
p17
sVProcessor Speed
p18
V2.6 Hz
p19
sVHard Drive Capacity
p20
V2000 KB
p21
sVAssembled Product Dimensions (L x W x H)
p22
V19.00 x 4.00 x 3.00 Inches
p23
sVModel
p24
VG9-592-79Y8
p25
sVScreen Size
p26
V15.6 in
p27
sVProcessor Type
p28
VIntel Core i7
p29
sVmanufacturer_part_number
p30
Vg9-592-79y8
p31
ssS'title'
p32
VManufacturer Refurbished Acer Predator G9-592-79Y8 15.6" Intel Core i7-6700HQ 2.60 GHz 64 GB Ram 2 TB HDD + 512GB SSD Windows 10 Home
p33
sb.