ccopy_reg
_reconstructor
p0
(c__main__
ProductRecord
p1
c__builtin__
object
p2
Ntp3
Rp4
(dp5
S'product_url'
p6
S'http://www.walmart.com/ip/Refurbished-Dell-Inspiron-15-5568-15-6-Full-HD-2-In-1-Touchscreen-Notebook-Computer-Intel-Core-i7-6500U-2-5GHz-8GB-RAM-1TB-HDD-Windows-1/739253065'
p7
sS'price'
p8
S'N/A'
p9
sS'properties'
p10
(dp11
VBrand
p12
VDell
p13
sVScreen Size
p14
V15.6
p15
sVHard Drive Capacity
p16
V1000
p17
ssS'title'
p18
VRefurbished Dell Inspiron 15 5568 15.6 Full HD 2-In-1 Touchscreen Notebook Computer, Intel Core i7-6500U 2.5GHz, 8GB RAM, 1TB HDD, Windows 1
p19
sb.