ccopy_reg
_reconstructor
p0
(c__main__
ProductRecord
p1
c__builtin__
object
p2
Ntp3
Rp4
(dp5
S'product_url'
p6
S'http://www.walmart.com/ip/Sager-NP8156-Clevo-P650HP6-G-Gaming-Laptop-15-6-FHD-IPS-Matte-w-G-SYNC-Intel-Core-i7-7700HQ-NVIDIA-GeForce-GTX1060-32GB-DDR4-500GB-WD-Blue-M-2-SSD-1T/153832769'
p7
sS'price'
p8
V$1,879.00
p9
sS'properties'
p10
(dp11
VRAM Memory
p12
V32.00 GB
p13
sVOperating System
p14
VWindows 10
p15
sVBrand
p16
VSager
p17
sVProcessor Speed
p18
V3.80 GHz
p19
sVManufacturer Part Number
p20
VGE72-242-256GB-FBA
p21
sVMaximum RAM Supported
p22
V64.00 GB
p23
sVHard Drive Capacity
p24
V1.50 TB
p25
sVAssembled Product Dimensions (L x W x H)
p26
V11.02 x 16.49 x 1.14 Inches
p27
sVModel
p28
VNP8156
p29
sVScreen Size
p30
V15.60 in
p31
sVProcessor Type
p32
VIntel Core i7 7700HQ
p33
sVCondition
p34
VNew
p35
ssS'title'
p36
VSager NP8156 (Clevo P650HP6-G) Gaming Laptop 15.6\u201d FHD IPS Matte w/ G-SYNC Intel Core i7-7700HQ NVIDIA GeForce GTX1060 32GB DDR4 500GB WD Blue M.2 SSD 1TB HDD Win10
p37
sb.