ccopy_reg
_reconstructor
p0
(c__main__
ProductRecord
p1
c__builtin__
object
p2
Ntp3
Rp4
(dp5
S'product_url'
p6
S'http://www.walmart.com/ip/Msi-GE73VR002-GE73VR-Raider-002-Intel-Core-i7-7700HQ-2-8-3-8-Ghz-w-Turbo-Boost-1920x1080-16-9-17-3-FHD-32GB-512GB-SSD-Black/557091173'
p7
sS'price'
p8
V$1,994.17
p9
sS'properties'
p10
(dp11
VRAM Memory
p12
V32 Gigabytes
p13
sVOperating System
p14
VWindows 10
p15
sVFeatures
p16
Vi7-7700HQ GTX1060 32G 512G 1T WIN10PRO
p17
sVBrand
p18
VMSI
p19
sVProcessor Speed
p20
V2.8 Gigahertz
p21
sVManufacturer Part Number
p22
VGE73VR002
p23
sVMaximum RAM Supported
p24
V32.00 GB
p25
sVHard Drive Capacity
p26
V1 Terabytes
p27
sVModel
p28
VGE73VR002
p29
sVScreen Size
p30
V17.30 Inches
p31
sVProcessor Type
p32
VIntel i7-7700HQ
p33
sVCondition
p34
VNew
p35
ssS'title'
p36
VMsi GE73VR002 GE73VR Raider/002 Intel Core i7/7700HQ 2.8 / 3.8 Ghz w/ Turbo Boost 1920x1080 16:9 17.3" FHD 32GB 512GB SSD Black
p37
sb.