ccopy_reg
_reconstructor
p0
(c__main__
ProductRecord
p1
c__builtin__
object
p2
Ntp3
Rp4
(dp5
S'product_url'
p6
S'http://www.walmart.com/ip/2016-New-Dell-Inspiron-14-5000-gaming-laptop-14-inch-touchscreen-display-Intel-Core-i7-5500U-2-40-GHz-Turbo-Boost-8GB-DDR3L-1TB-HDD-Nvidia-Geforce-92/138214247'
p7
sS'price'
p8
V$1,999.99
p9
sS'properties'
p10
(dp11
VBrand
p12
VDell
p13
sVAssembled Product Dimensions (L x W x H)
p14
V13.40 x 1.40 x 9.50 Inches
p15
sVFeatures
p16
V14 in HD LED touchscreen (1366 x 768), 10-finger multi-touch support, 1 USB 3.0  2 USB 2.0  1 HDMI, Waves MaxxAudio, Windows 10 Home 64 bit, 8GB DDR3L 1600 MHz, 1TB 5400 RPM HDD, DVD +/- RW, SD Card Reader, Intel Core i7-5500U 2.40 GHz with Turbo Boost Technology up to 3.00 GHz, NVIDIA GeForce 920M with 2GB graphics memory, Intel HD Graphics 5500
p17
sVManufacturer Part Number
p18
VOEM
p19
ssS'title'
p20
V2016 New Dell Inspiron 14 5000 gaming laptop, 14 inch touchscreen display, Intel Core i7-5500U 2.40 GHz with Turbo Boost, 8GB DDR3L,1TB HDD, Nvidia Geforce 920M, Backlit Keyboard with Waves MaxxAudio
p21
sb.