ccopy_reg
_reconstructor
p0
(c__main__
ProductRecord
p1
c__builtin__
object
p2
Ntp3
Rp4
(dp5
S'product_url'
p6
S'http://www.walmart.com/ip/MSI-GS73-STEALTH-PRO-009-17-3-inch-Intel-Core-i7-7700HQ-2-8GHz-16GB-DDR4-1TB-HDD-256GB-SSD-GTX-1050TI-USB3-0-Windows-10-Ultrabook-Alumium-Black/598407785'
p7
sS'price'
p8
V$2,028.59
p9
sS'properties'
p10
(dp11
VBrand
p12
VMSI
p13
sVHard Drive Capacity
p14
V1000
p15
sVCondition
p16
VNew
p17
ssS'title'
p18
VMSI GS73 STEALTH PRO-009 17.3 inch Intel Core i7-7700HQ 2.8GHz/ 16GB DDR4/ 1TB HDD + 256GB SSD/ GTX 1050TI/ USB3.0/ Windows 10 Ultrabook (Alumium Black)
p19
sb.