ccopy_reg
_reconstructor
p0
(c__main__
ProductRecord
p1
c__builtin__
object
p2
Ntp3
Rp4
(dp5
S'product_url'
p6
S'http://www.walmart.com/ip/Sager-NP8157-Clevo-P650HS-G-15-6-FHD-IPS-Matte-Screen-w-G-Sync-Gaming-Laptop-Intel-Core-i7-7820HK-GTX1070-16GB-DDR4-512GB-Samsung-NVMe-SSD-1TB-HDD-Wi/484062066'
p7
sS'price'
p8
V$2,079.00
p9
sS'properties'
p10
(dp11
VRAM Memory
p12
V16.00 GB
p13
sVOperating System
p14
VWindows 10
p15
sVBrand
p16
VSager
p17
sVProcessor Speed
p18
V3.80 GHz
p19
sVMaximum RAM Supported
p20
V64.00 GB
p21
sVHard Drive Capacity
p22
V1.50 TB
p23
sVModel
p24
VNP8157
p25
sVScreen Size
p26
V15.60 in
p27
sVProcessor Type
p28
VIntel Core i7 7700HQ
p29
sVCondition
p30
VNew
p31
ssS'title'
p32
VSager NP8157 (Clevo P650HS-G) - 15.6" FHD IPS Matte Screen w/ G-Sync Gaming Laptop Intel Core i7-7820HK GTX1070 16GB DDR4 512GB Samsung NVMe SSD 1TB HDD Win10 Kabylake Backlit Keyboard
p33
sb.