ccopy_reg
_reconstructor
p0
(c__main__
ProductRecord
p1
c__builtin__
object
p2
Ntp3
Rp4
(dp5
S'product_url'
p6
S'http://www.walmart.com/ip/Sager-NP8370-Clevo-PA71HP6-G-Gaming-Laptop-17-3-FHD-IPS-Matte-Screen-w-G-SYNC-Intel-Core-i7-7700HQ-NVIDIA-GeForce-GTX1060-32GB-DDR4-1TB-WD-Blue-M-2-S/356084668'
p7
sS'price'
p8
V$2,189.00
p9
sS'properties'
p10
(dp11
VCount
p12
V1
p13
sVRAM Memory
p14
V32.00 GB
p15
sVOperating System
p16
VWindows 10
p17
sVScreen Size
p18
V17.30 in
p19
sVDisplay Technology
p20
VLCD
p21
sVModel
p22
VNP8370
p23
sVGraphics Information
p24
VNVIDIA GTX 1060
p25
sVManufacturer Part Number
p26
VNP8370 VAR M2 RAM 2
p27
sVMaximum RAM Supported
p28
V32.00 GB
p29
sVHard Drive Capacity
p30
V2.00 TB
p31
sVBrand
p32
VSager
p33
sVMultipack Quantity
p34
V1
p35
sVProcessor Type
p36
VIntel i7 7700HQ
p37
sVResolution
p38
VFHD (1080P)
p39
sVProcessor Speed
p40
V3.80 GHz
p41
ssS'title'
p42
VSager NP8370 (Clevo PA71HP6-G) Gaming Laptop 17.3" FHD IPS Matte Screen w/ G-SYNC Intel Core i7-7700HQ NVIDIA GeForce GTX1060 32GB DDR4 1TB WD Blue M.2 SSD 1TB HDD Win10 Kaby Lake Backlit Keyboard
p43
sb.