ccopy_reg
_reconstructor
p0
(c__main__
ProductRecord
p1
c__builtin__
object
p2
Ntp3
Rp4
(dp5
S'product_url'
p6
S'http://www.walmart.com/ip/MSI-GS63VR-STEALTH-PRO-230-15-6-inch-Intel-Core-i7-7700HQ-2-8GHz-16GB-DDR4-2TB-HDD-256GB-PCI-E-SSD-GTX-1060-USB3-0-Windows-10-Ultrabook-Aluminum-Black/815428691'
p7
sS'price'
p8
V$2,288.35
p9
sS'properties'
p10
(dp11
VBrand
p12
VMSI
p13
sVHard Drive Capacity
p14
V2000
p15
ssS'title'
p16
VMSI GS63VR STEALTH PRO-230 15.6 inch Intel Core i7-7700HQ 2.8GHz/ 16GB DDR4/ 2TB HDD + 256GB PCI-E SSD/ GTX 1060/ USB3.0/ Windows 10 Ultrabook (Aluminum Black)
p17
sb.