ccopy_reg
_reconstructor
p0
(c__main__
ProductRecord
p1
c__builtin__
object
p2
Ntp3
Rp4
(dp5
S'product_url'
p6
S'http://www.walmart.com/ip/Newest-HP-OMEN-17-17-3-UHD-4K-VR-Ready-Gaming-Business-Laptop-Intel-i7-2TB-HDD-512GB-SSD-17-3-inch-UHD-3840-x-2160-32GB-RAM-GeForce-GTX-1060-Win-10-P/123128816'
p7
sS'price'
p8
V$2,461.45
p9
sS'properties'
p10
(dp11
VOperating System
p12
VMicrosoft Windows
p13
sVBrand
p14
VHP
p15
sVRAM Memory
p16
V32 GB
p17
sVScreen Size
p18
V17.3
p19
sVHard Drive Capacity
p20
V2000
p21
ssS'title'
p22
VNewest HP OMEN 17 17.3'' UHD 4K VR Ready Gaming and Business Laptop (Intel i7, 2TB HDD + 512GB SSD, 17.3 inch UHD 3840 x 2160, 32GB RAM, GeForce GTX 1060, Win 10 Pro)
p23
sb.