ccopy_reg
_reconstructor
p0
(c__main__
ProductRecord
p1
c__builtin__
object
p2
Ntp3
Rp4
(dp5
S'product_url'
p6
S'http://www.walmart.com/ip/Teqnio-ELL1103T-11-6-Laptop-Touchscreen-2-in-1-Windows-10-Home-Intel-Cherrytrail-Z8350-Processor-2GB-RAM-32GB-Flash-Drive/55474684'
p7
sS'price'
p8
S'N/A'
p9
sS'properties'
p10
(dp11
VRAM Memory
p12
V2 GB
p13
sVOperating System
p14
VWindows 10
p15
sVColor Category
p16
VBlue
p17
sVVideo Game Platform
p18
VPC
p19
sVBrand
p20
VEPIK
p21
sVManufacturer Part Number
p22
VELL1103T-BL
p23
sVHard Drive Capacity
p24
V32 GB
p25
sVLaptop Computer Type
p26
VTouchscreen
p27
sVProcessor Type
p28
VIntel Cherrytrail Z8350 Quad-Core ProcessorIntel Cherrytrail Z8350 Quad-Core Processor
p29
sVScreen Size
p30
V11.6"
p31
sVModel
p32
VELL1103T-BL
p33
sVManufacturer
p34
VEPIK
p35
ssS'title'
p36
VTeqnio ELL1103T 11.6" Laptop, Touchscreen, 2-in-1, Windows 10 Home, Intel Cherrytrail Z8350 Processor, 2GB RAM, 32GB Flash Drive
p37
sb.