ccopy_reg
_reconstructor
p0
(c__main__
ProductRecord
p1
c__builtin__
object
p2
Ntp3
Rp4
(dp5
S'product_url'
p6
S'http://www.walmart.com/ip/Lenovo-Thinkpad-Helix-G2-Detachable/149087061'
p7
sS'price'
p8
S'N/A'
p9
sS'properties'
p10
(dp11
VOperating System
p12
VMicrosoft Windows
p13
sVFeatures
p14
VLENOVO THINKPAD HELIX-G2 DETACHABLE
p15
sVBrand
p16
VLenovo
p17
sVManufacturer Part Number
p18
V20CG006RUS
p19
sVModel
p20
V20CG006RUS
p21
sVCondition
p22
VNew
p23
ssS'title'
p24
VLenovo Thinkpad Helix-G2 Detachable
p25
sb.