ccopy_reg
_reconstructor
p0
(c__main__
ProductRecord
p1
c__builtin__
object
p2
Ntp3
Rp4
(dp5
S'product_url'
p6
S'http://www.walmart.com/ip/MSI-WS63-7RK-280US-15-6-inch-Intel-Core-i7-7700HQ-2-8GHz-16GB-DDR4-2TB-HDD-256GB-PCI-E-SSD-Quadro-P3000-USB3-0-Windows-10-Pro-Ultrabook-Aluminum-Black/770436836'
p7
sS'price'
p8
V$3,105.14
p9
sS'properties'
p10
(dp11
VBrand
p12
VMSI
p13
sVOperating System
p14
VMicrosoft Windows
p15
sVHard Drive Capacity
p16
V2000
p17
sVCondition
p18
VNew
p19
ssS'title'
p20
VMSI WS63 7RK-280US 15.6 inch Intel Core i7-7700HQ 2.8GHz/ 16GB DDR4/ 2TB HDD + 256GB PCI-E SSD/ Quadro P3000/ USB3.0/ Windows 10 Pro Ultrabook (Aluminum Black)
p21
sb.