ccopy_reg
_reconstructor
p0
(c__main__
ProductRecord
p1
c__builtin__
object
p2
Ntp3
Rp4
(dp5
S'product_url'
p6
S'http://www.walmart.com/ip/MSI-WT72-6QN-218US-17-3-inch-Intel-Core-i7-6920HQ-2-9GHz-32GB-DDR4-1TB-HDD-256GB-PCI-E-SSD-Quadro-M5500-Blu-ray-Burner-USB3-0-Windows-10-Pro-Notebook/575382514'
p7
sS'price'
p8
V$6,024.16
p9
sS'properties'
p10
(dp11
VBrand
p12
VMSI
p13
sVCondition
p14
VNew
p15
sVmanufacturer_part_number
p16
Vwt72 6qn-218us
p17
ssS'title'
p18
VMSI WT72 6QN-218US 17.3 inch Intel Core i7-6920HQ 2.9GHz/ 32GB DDR4/ 1TB HDD + 256GB PCI-E SSD/ Quadro M5500/ Blu-ray Burner/ USB3.0/ Windows 10 Pro Notebook (Aluminum Black)
p19
sb.