ccopy_reg
_reconstructor
p0
(c__main__
ProductRecord
p1
c__builtin__
object
p2
Ntp3
Rp4
(dp5
S'product_url'
p6
S'http://www.walmart.com/ip/Lenovo-ThinkPad-W541-15-5-LED-Intel-Core-i7-4810MQ-3-8GHz-8GB-RAM-256GB-SSD-Windows-7-Professional-64-bit/44668137'
p7
sS'price'
p8
S'N/A'
p9
sS'properties'
p10
(dp11
VRAM Memory
p12
V8 GB
p13
sVOperating System
p14
VMicrosoft Windows
p15
sVColor Category
p16
VBlack
p17
sVLaptop Computer Type
p18
VPC Laptops
p19
sVBrand
p20
VLenovo
p21
sVManufacturer Part Number
p22
V20EF000LUS
p23
sVWireless Technology
p24
VEthernet
p25
sVHard Drive Capacity
p26
V256
p27
sVProcessor Core Type
p28
VQuad-core (4 Core)
p29
sVProcessor Type
p30
VIntel Core i7
p31
sVScreen Size
p32
V15.5"
p33
sVModel
p34
V20EF000LUS
p35
sVCondition
p36
VNew
p37
sVManufacturer
p38
VGeneric
p39
ssS'title'
p40
VLenovo ThinkPad W541 15.5" LED Intel Core i7-4810MQ 3.8GHz 8GB RAM 256GB SSD Windows 7 Professional 64-bit
p41
sb.