ccopy_reg
_reconstructor
p0
(c__main__
ProductRecord
p1
c__builtin__
object
p2
Ntp3
Rp4
(dp5
S'product_url'
p6
S'http://www.walmart.com/ip/Refurbished-Hewlett-Packard-X7U84UAR-ABA-HP-ENVY-x360-13-y013cl-X7U84UA-Windows-10-Home-64-bit-Edition/531618976'
p7
sS'price'
p8
S'N/A'
p9
sS'properties'
p10
(dp11
VRAM Memory
p12
V16 GB
p13
sVOperating System
p14
VMicrosoft Windows, Windows 10
p15
sVBrand
p16
VHP
p17
sVProcessor Speed
p18
V2.70 GHz
p19
sVManufacturer Part Number
p20
VX7U84UAR#ABA
p21
sVBattery Life
p22
V9.50 Hour
p23
sVModel
p24
VX7U84UAR#ABA
p25
sVScreen Size
p26
V13.3"
p27
sVProcessor Type
p28
VIntel Core i7
p29
ssS'title'
p30
VRefurbished Hewlett Packard X7U84UAR#ABA HP ENVY x360 - 13-y013cl (X7U84UA) Windows 10 Home 64-bit Edition
p31
sb.