ccopy_reg
_reconstructor
p0
(c__main__
ProductRecord
p1
c__builtin__
object
p2
Ntp3
Rp4
(dp5
S'product_url'
p6
S'http://www.walmart.com/ip/Refurbished-Samsung-Chromebook-11-6-Laptop-1-7GHz-2GB-Ram-16GB-SSD-Silver-Webcam-XE303C12-Scratches-Dents/958001796'
p7
sS'price'
p8
V$89.98
p9
sS'properties'
p10
(dp11
VRAM Memory
p12
V2 GB
p13
sVOperating System
p14
VChrome OS
p15
sVLaptop Computer Type
p16
VChromebooks
p17
sVBrand
p18
VGoogle
p19
sVHard Drive Capacity
p20
V16 GB
p21
sVManufacturer
p22
VGoogle
p23
sVmanufacturer_part_number
p24
Vxe303c12
p25
ssS'title'
p26
VRefurbished Samsung Chromebook 11.6 Laptop 1.7GHz, 2GB Ram, 16GB SSD, Silver Webcam - XE303C12 (Scratches & Dents)
p27
sb.