ccopy_reg
_reconstructor
p0
(c__main__
ProductRecord
p1
c__builtin__
object
p2
Ntp3
Rp4
(dp5
S'product_url'
p6
S'http://www.walmart.com/ip/Refurbished-HP-11-v010wm-11-6-Chromebook-Chrome-Intel-Celeron-N3060-Processor-4GB-RAM-16GB-eMMC-Drive/56095041'
p7
sS'price'
p8
V$129.00
p9
sS'properties'
p10
(dp11
VRAM Memory
p12
V4 GB
p13
sVOperating System
p14
VChrome
p15
sVColor Category
p16
VSilver
p17
sVLaptop Computer Type
p18
VChromebooks
p19
sVBrand
p20
VHP
p21
sVManufacturer Part Number
p22
VRB11-v010wm
p23
sVHard Drive Capacity
p24
V16 GB
p25
sVProcessor Type
p26
VIntel Celeron
p27
sVScreen Size
p28
V11.6"
p29
sVModel
p30
VRB11-v010wm
p31
sVManufacturer
p32
VChrome
p33
ssS'title'
p34
VRefurbished HP 11-v010wm 11.6" Chromebook, Chrome, Intel Celeron N3060 Processor, 4GB RAM, 16GB eMMC Drive
p35
sb.