ccopy_reg
_reconstructor
p0
(c__main__
ProductRecord
p1
c__builtin__
object
p2
Ntp3
Rp4
(dp5
S'product_url'
p6
S'http://www.walmart.com/ip/HP-X7T64UA-ABA-Chromebook-11-V010NR/151943695'
p7
sS'price'
p8
V$169.99
p9
sS'properties'
p10
(dp11
VRAM Memory
p12
V4 Gigabytes
p13
sVOperating System
p14
VChrome OS
p15
sVColor Category
p16
VMulticolor
p17
sVLaptop Computer Type
p18
VChromebooks
p19
sVBrand
p20
VHP
p21
sVHard Drive Capacity
p22
V16 Gigabytes
p23
sVProcessor Core Type
p24
VDual-core (2 Core)
p25
sVProcessor Type
p26
VIntel N3060
p27
sVManufacturer
p28
VHewlett Packard
p29
sVScreen Size
p30
V11.60 in
p31
sVModel
p32
VX7T64UA#ABA
p33
sVmanufacturer_part_number
p34
Vx7t64ua-aba
p35
ssS'title'
p36
V"HP X7T64UA-ABA Chromebook 11 V010NR"
p37
sb.