ccopy_reg
_reconstructor
p0
(c__main__
ProductRecord
p1
c__builtin__
object
p2
Ntp3
Rp4
(dp5
S'product_url'
p6
S'http://www.walmart.com/ip/Chromebook-14-ak040nr-14-Inch-Chromebook-14-ak040nr-ENERGY-STAR/54903941'
p7
sS'price'
p8
V$239.99
p9
sS'properties'
p10
(dp11
VRAM Memory
p12
V4 GB
p13
sVOperating System
p14
VChrome
p15
sVFeatures
p16
VEPEAT
p17
sVVideo Game Platform
p18
VPC
p19
sVBrand
p20
VHP
p21
sVProcessor Speed
p22
V2.16 GHz, with a Max Turbo Speed of 2.58 GHz
p23
sVHard Drive Capacity
p24
V16 GB
p25
sVBattery Life
p26
V9 hours 15 minutes
p27
sVAssembled Product Dimensions (L x W x H)
p28
V9.45 x 13.54 x 0.70 Inches
p29
sVModel
p30
VHP 14-ak040nr
p31
sVScreen Size
p32
V14.0"
p33
sVProcessor Type
p34
VIntel Celeron
p35
sVCondition
p36
VNew
p37
sVmanufacturer_part_number
p38
V14-ak040nr
p39
ssS'title'
p40
VChromebook - 14-ak040nr 14 Inch Chromebook 14-ak040nr (ENERGY STAR)
p41
sb.