ccopy_reg
_reconstructor
p0
(c__main__
ProductRecord
p1
c__builtin__
object
p2
Ntp3
Rp4
(dp5
S'product_url'
p6
S'http://www.walmart.com/ip/2016-HP-Chromebook-11-6-inch-Laptop-Samsung-Dual-Core-Processor-1-7GHz-2GB-RAM-16GB-SSD-802-11b-g-n-WiFi-Bluetooth-HDMI-White-Blue-Certified-Refurbis/717260370'
p7
sS'price'
p8
V$149.99
p9
sS'properties'
p10
(dp11
VRAM Memory
p12
V2 GB
p13
sVOperating System
p14
VChrome OS
p15
sVLaptop Computer Type
p16
VChromebooks
p17
sVBrand
p18
VHP
p19
sVManufacturer Part Number
p20
VF3X85AA#ABA
p21
sVHard Drive Capacity
p22
V16 GB
p23
sVModel
p24
VF3X85AA#ABA
p25
sVScreen Size
p26
V11.6\u005c"
p27
sVManufacturer
p28
VHP Chromebook
p29
ssS'title'
p30
V2016 HP Chromebook 11.6-inch Laptop, Samsung Dual-Core Processor 1.7GHz, 2GB RAM, 16GB SSD, 802.11b/g/n WiFi, Bluetooth, HDMI, White/Blue (Certified Refurbished)
p31
sb.