ccopy_reg
_reconstructor
p0
(c__main__
ProductRecord
p1
c__builtin__
object
p2
Ntp3
Rp4
(dp5
S'product_url'
p6
S'http://www.walmart.com/ip/HP-14-Snow-White-Turbo-Silver-14-Ak050Nr-Chromebook-PC-with-Intel-Celeron-N2940-Quad-Core-Processor-4GB-Memory-16GB-eMMC-Hard-Drive-and-Chrome-OS/47308423'
p7
sS'price'
p8
V$249.99
p9
sS'properties'
p10
(dp11
VRAM Memory
p12
V4 GB
p13
sVOperating System
p14
VChrome
p15
sVFeatures
p16
VEPEAT
p17
sVVideo Game Platform
p18
VPC
p19
sVBrand
p20
VHP
p21
sVProcessor Speed
p22
V1.83 GHz, with a Max Turbo Speed of 2.25 GHz
p23
sVManufacturer Part Number
p24
VN8J80UA#ABA
p25
sVHard Drive Capacity
p26
V16 GB
p27
sVAssembled Product Dimensions (L x W x H)
p28
V9.45 x 13.54 x 0.70 Inches
p29
sVModel
p30
VHP 14-AK050NR
p31
sVScreen Size
p32
V14.0 in
p33
sVProcessor Type
p34
VIntel Celeron
p35
sVCondition
p36
VNew
p37
ssS'title'
p38
VHP 14" Snow White/Turbo Silver 14-Ak050Nr Chromebook PC with Intel Celeron N2940 Quad-Core Processor, 4GB Memory, 16GB eMMC Hard Drive and Chrome OS
p39
sb.