ccopy_reg
_reconstructor
p0
(c__main__
ProductRecord
p1
c__builtin__
object
p2
Ntp3
Rp4
(dp5
S'product_url'
p6
S'http://www.walmart.com/ip/Acer-Chromebook-15-CB3-532-C4ZZ-Celeron-N3060-1-6-GHz-4GB-32GB-Storage-15-6-Chrome-OS-Notebook/56147311'
p7
sS'price'
p8
V$229.00
p9
sS'properties'
p10
(dp11
VRAM Memory
p12
V4 GB
p13
sVOperating System
p14
VChrome OS
p15
sVBrand
p16
VAcer
p17
sVProcessor Speed
p18
V1.6 Hz
p19
sVManufacturer Part Number
p20
VNX.GHJAA.008
p21
sVMaximum RAM Supported
p22
V4 KB
p23
sVHard Drive Capacity
p24
V32 GB
p25
sVAssembled Product Dimensions (L x W x H)
p26
V15.08 x 0.95 x 1.08 Inches
p27
sVModel
p28
VCB3532C4ZZ
p29
sVScreen Size
p30
V15.60 in
p31
sVProcessor Type
p32
VIntel Celeron
p33
sVCondition
p34
VNew
p35
ssS'title'
p36
VAcer Chromebook 15 CB3-532-C4ZZ Celeron N3060 1.6 GHz 4GB, 32GB Storage 15.6" Chrome OS Notebook
p37
sb.