ccopy_reg
_reconstructor
p0
(c__main__
ProductRecord
p1
c__builtin__
object
p2
Ntp3
Rp4
(dp5
S'product_url'
p6
S'http://www.walmart.com/ip/HP-14-ak030nr-14-Chromebook-Chrome-Intel-Celeron-N2840-Processor-4GB-RAM-16GB-eMMC/54903942'
p7
sS'price'
p8
V$229.00
p9
sS'properties'
p10
(dp11
VRAM Memory
p12
V4 GB
p13
sVOperating System
p14
VChrome
p15
sVColor Category
p16
VBlue
p17
sVVideo Game Platform
p18
VPC
p19
sVBrand
p20
VHP
p21
sVManufacturer Part Number
p22
VN9E37UA#ABA
p23
sVHard Drive Capacity
p24
V16 GB
p25
sVLaptop Computer Type
p26
VChromebooks
p27
sVProcessor Core Type
p28
VDual-core (2 Core)
p29
sVProcessor Type
p30
VIntel Celeron
p31
sVScreen Size
p32
V14.0"
p33
sVModel
p34
VHP 14-ak030nr
p35
sVManufacturer
p36
VHP
p37
ssS'title'
p38
VHP 14-ak030nr 14" Chromebook, Chrome, Intel Celeron N2840 Processor, 4GB RAM, 16GB eMMC
p39
sb.