ccopy_reg
_reconstructor
p0
(c__main__
ProductRecord
p1
c__builtin__
object
p2
Ntp3
Rp4
(dp5
S'product_url'
p6
S'http://www.walmart.com/ip/Refurbished-Acer-C720-2103-Chromebook-11-6-Inch-Netbook-Gray/48428190'
p7
sS'price'
p8
V$109.99
p9
sS'properties'
p10
(dp11
VOperating System
p12
VChrome OS
p13
sVLaptop Computer Type
p14
VChromebooks
p15
sVBrand
p16
VAcer
p17
sVModel
p18
VVIPRB-C720-2103
p19
sVManufacturer
p20
VAcer
p21
sVmanufacturer_part_number
p22
Vc720-2103
p23
ssS'title'
p24
VRefurbished Acer C720-2103 Chromebook 11.6-Inch Netbook (Gray)
p25
sb.