ccopy_reg
_reconstructor
p0
(c__main__
ProductRecord
p1
c__builtin__
object
p2
Ntp3
Rp4
(dp5
S'product_url'
p6
S'http://www.walmart.com/ip/HP-Elite-x2-1012-G1-12-Core-m5-6Y54-8-GB-RAM-256-GB-SSD-with-HP-Elite-x2-1012-G1-Travel-Keyboard-HP-Active-Pen/49243069'
p7
sS'price'
p8
S'N/A'
p9
sS'properties'
p10
(dp11
VRAM Memory
p12
V8 GB
p13
sVOperating System
p14
VWindows 10
p15
sVFeatures
p16
V1.1G 8GB 12IN WL W10P 64BIT
p17
sVVideo Game Platform
p18
VPC
p19
sVBrand
p20
VHP
p21
sVProcessor Speed
p22
V1.10 GHz
p23
sVManufacturer Part Number
p24
VT8Z05UT#ABA
p25
sVMaximum RAM Supported
p26
V8 GB
p27
sVHard Drive Capacity
p28
V256 GB
p29
sVBattery Life
p30
V10.25 hours
p31
sVAssembled Product Dimensions (L x W x H)
p32
V15.00 x 10.00 x 3.00 Inches
p33
sVModel
p34
VT8Z05UT
p35
sVScreen Size
p36
V12.0"
p37
sVProcessor Type
p38
VIntel Core M M5-6Y54 Dual-Core Processor
p39
ssS'title'
p40
VHP Elite x2 1012 G1 - 12" - Core m5 6Y54 - 8 GB RAM - 256 GB SSD - with HP Elite x2 1012 G1 Travel Keyboard HP Active Pen
p41
sb.