ccopy_reg
_reconstructor
p0
(c__main__
ProductRecord
p1
c__builtin__
object
p2
Ntp3
Rp4
(dp5
S'product_url'
p6
S'http://www.walmart.com/ip/Acer-Sparkly-Silver-14-CB3-431-C5FM-Chromebook-PC-with-Intel-Celeron-N3160-Processor-4GB-Memory-32GB-Flash-Drive-and-Chrome-OS/50941500'
p7
sS'price'
p8
V$297.03
p9
sS'properties'
p10
(dp11
VRAM Memory
p12
V4 GB
p13
sVOperating System
p14
VChrome
p15
sVColor Category
p16
VSilver
p17
sVVideo Game Platform
p18
VPC
p19
sVBrand
p20
VAcer
p21
sVManufacturer Part Number
p22
VNX.GC2AA.007
p23
sVLaptop Computer Type
p24
VChromebooks
p25
sVProcessor Core Type
p26
VDual-core (2 Core)
p27
sVProcessor Type
p28
VIntel Celeron
p29
sVScreen Size
p30
V14 in
p31
sVModel
p32
VCB3-431-C5FM
p33
sVCondition
p34
VNew
p35
sVManufacturer
p36
VAcer
p37
ssS'title'
p38
VAcer Sparkly Silver 14" CB3-431-C5FM Chromebook PC with Intel Celeron N3160 Processor, 4GB Memory, 32GB Flash Drive and Chrome OS
p39
sb.