ccopy_reg
_reconstructor
p0
(c__main__
ProductRecord
p1
c__builtin__
object
p2
Ntp3
Rp4
(dp5
S'product_url'
p6
S'http://www.walmart.com/ip/Acer-Chromebook-15-PC-Laptop-CB5-571-C09S-15-6-Inch-32GB-White/46720137'
p7
sS'price'
p8
V$265.73
p9
sS'properties'
p10
(dp11
VRAM Memory
p12
V4.00 GB
p13
sVOperating System
p14
VChrome OS
p15
sVFeatures
p16
VIntel Celeron Dual-Core 3205U 1.5 GHz Processor (Broadwell micro-architecture), 15.6-Inch Full HD IPS Screen, Intel HD Graphics, 4 GB DDR3L SDRAM, Chrome, 9-hour battery life, 32 GB Solid-State Drive, Cloud based device with free Google Drive storage. Microsoft Office is not compatible but Microsoft Web Apps are compatible (free cloud version of Office)
p17
sVBrand
p18
VAcer
p19
sVProcessor Speed
p20
V1.50GHz
p21
sVManufacturer Part Number
p22
VCB5-571-C09S
p23
sVHard Drive Capacity
p24
V32.00 GB
p25
sVAssembled Product Dimensions (L x W x H)
p26
V10.10 x 15.10 x 1.00 Inches
p27
sVModel
p28
VCB5-571-C09S
p29
sVScreen Size
p30
V15.6"
p31
sVProcessor Type
p32
VIntel Celeron
p33
sVCondition
p34
VNew
p35
ssS'title'
p36
VAcer Chromebook 15 PC Laptop (CB5-571-C09S) 15.6-Inch 32GB - White
p37
sb.