ccopy_reg
_reconstructor
p0
(c__main__
ProductRecord
p1
c__builtin__
object
p2
Ntp3
Rp4
(dp5
S'product_url'
p6
S'http://www.walmart.com/ip/HP-Black-11-6-P0B79UT-ABA-11-G4-Chromebook-PC-with-Intel-Celeron-N2840-Processor-2GB-Memory-16GB-Flash-Storage-and-Chrome/50943066'
p7
sS'price'
p8
V$196.95
p9
sS'properties'
p10
(dp11
VRAM Memory
p12
V2 GB
p13
sVOperating System
p14
VChrome
p15
sVColor Category
p16
VBlack
p17
sVVideo Game Platform
p18
VPC
p19
sVBrand
p20
VHP
p21
sVManufacturer Part Number
p22
VRBP0B79UT#ABA
p23
sVHard Drive Capacity
p24
V16 GB
p25
sVLaptop Computer Type
p26
VChromebooks
p27
sVProcessor Core Type
p28
VDual Core
p29
sVProcessor Type
p30
VIntel Celeron
p31
sVScreen Size
p32
V11.6 in
p33
sVModel
p34
VRBP0B79UT#ABA
p35
sVCondition
p36
VNew
p37
sVManufacturer
p38
VHP
p39
ssS'title'
p40
VHP Black 11.6" P0B79UT#ABA 11 G4 Chromebook PC with Intel Celeron N2840 Processor, 2GB Memory, 16GB Flash Storage and Chrome
p41
sb.