ccopy_reg
_reconstructor
p0
(c__main__
ProductRecord
p1
c__builtin__
object
p2
Ntp3
Rp4
(dp5
S'product_url'
p6
S'http://www.walmart.com/ip/HP-Chromebook-11-G5-11-6-Celeron-N3060-4-GB-RAM-16-GB-SSD/138548272'
p7
sS'price'
p8
V$216.86
p9
sS'properties'
p10
(dp11
VRAM Memory
p12
V4 Gigabytes
p13
sVOperating System
p14
VChrome OS
p15
sVColor Category
p16
VMulticolor
p17
sVLaptop Computer Type
p18
VChromebooks
p19
sVBrand
p20
VHP
p21
sVManufacturer Part Number
p22
VX9U02UT#ABA
p23
sVHard Drive Capacity
p24
V16 Gigabytes
p25
sVProcessor Core Type
p26
VDual-core (2 Core)
p27
sVProcessor Type
p28
VIntel N3050
p29
sVScreen Size
p30
V11.60 in
p31
sVModel
p32
VX9U02UT#ABA
p33
sVCondition
p34
VNew
p35
sVManufacturer
p36
VHP
p37
ssS'title'
p38
VHP Chromebook 11 G5 - 11.6" - Celeron N3060 - 4 GB RAM - 16 GB SSD
p39
sb.