ccopy_reg
_reconstructor
p0
(c__main__
ProductRecord
p1
c__builtin__
object
p2
Ntp3
Rp4
(dp5
S'product_url'
p6
S'http://www.walmart.com/ip/Google-Pixelbook-12-3-2-in1-Touchscreen-Display-Intel-Core-i5-Processor-8GB-256GB-MC-Storage-GA00123-US/135830017'
p7
sS'price'
p8
V$1,199.00
p9
sS'properties'
p10
(dp11
VRAM Memory
p12
V8 GB
p13
sVOperating System
p14
VChrome OS
p15
sVBrand
p16
VGoogle
p17
sVHard Drive Capacity
p18
V256 GB
p19
sVAssembled Product Dimensions (L x W x H)
p20
V12.00 x 1.00 x 9.00 Inches
p21
sVModel
p22
VGA00123-US
p23
sVScreen Size
p24
V12.3\u005c"
p25
sVProcessor Type
p26
VIntel Core i5
p27
sVCondition
p28
VNew
p29
sVmanufacturer_part_number
p30
Vga00123-us
p31
ssS'title'
p32
VGoogle Pixelbook 12.3", 2-in1 Touchscreen Display, Intel Core i5 Processor, 8GB, 256GB MC Storage, GA00123-US
p33
sb.