ccopy_reg
_reconstructor
p0
(c__main__
ProductRecord
p1
c__builtin__
object
p2
Ntp3
Rp4
(dp5
S'product_url'
p6
S'http://www.walmart.com/ip/Manufacturer-Refurbished-Acer-Chromebook-CB5-571-C09S-15-6-Intel-Celeron-3205U-Dual-Core-1-50-GHz-4-GB-Ram-32-GB-SSD-Chrome-OS/55821425'
p7
sS'price'
p8
V$184.79
p9
sS'properties'
p10
(dp11
VRAM Memory
p12
V4 GB
p13
sVOperating System
p14
VChrome OS
p15
sVBrand
p16
VAcer
p17
sVProcessor Speed
p18
V1.5 GHz
p19
sVManufacturer Part Number
p20
VNX.MUNAA.003
p21
sVHard Drive Capacity
p22
V32 GB
p23
sVAssembled Product Dimensions (L x W x H)
p24
V19.00 x 4.00 x 3.00 Inches
p25
sVModel
p26
VCB5-571-C09S
p27
sVScreen Size
p28
V15.6 in
p29
sVProcessor Type
p30
VIntel Celeron
p31
ssS'title'
p32
VManufacturer Refurbished Acer Chromebook CB5-571-C09S 15.6" Intel Celeron 3205U Dual-Core 1.50 GHz 4 GB Ram 32 GB SSD Chrome OS
p33
sb.