ccopy_reg
_reconstructor
p0
(c__main__
ProductRecord
p1
c__builtin__
object
p2
Ntp3
Rp4
(dp5
S'product_url'
p6
S'http://www.walmart.com/ip/Acer-C720-Chromebook-11-6-2GB-16GB-SSD-Discontinued-by-Manufacturer-Refurbished-Scratched-and-Dented/731496441'
p7
sS'price'
p8
V$129.99
p9
sS'properties'
p10
(dp11
VRAM Memory
p12
V2 GB
p13
sVOperating System
p14
VChrome OS
p15
sVLaptop Computer Type
p16
VChromebooks
p17
sVBrand
p18
VAcer
p19
sVHard Drive Capacity
p20
V16 GB
p21
sVManufacturer
p22
VAcer
p23
ssS'title'
p24
VAcer C720 Chromebook (11.6', 2GB, 16GB SSD) Discontinued by Manufacturer Refurbished (Scratched and Dented)
p25
sb.