ccopy_reg
_reconstructor
p0
(c__main__
ProductRecord
p1
c__builtin__
object
p2
Ntp3
Rp4
(dp5
S'product_url'
p6
S'http://www.walmart.com/ip/Acer-Chromebook-14-for-Work-CP5-471-312N-14-Core-i3-6100U-8-GB-RAM-32-GB-SSD-US/55009827'
p7
sS'price'
p8
V$475.75
p9
sS'properties'
p10
(dp11
VRAM Memory
p12
V8 GB
p13
sVOperating System
p14
VChrome
p15
sVColor Category
p16
VMulticolor
p17
sVVideo Game Platform
p18
VPC
p19
sVBrand
p20
VAcer
p21
sVHard Drive Capacity
p22
V32 GB
p23
sVLaptop Computer Type
p24
VChromebooks
p25
sVProcessor Core Type
p26
VDual-core (2 Core)
p27
sVProcessor Type
p28
VIntel Core i3
p29
sVmanufacturer_part_number
p30
Vcp5-471-312n
p31
sVScreen Size
p32
V14.0"
p33
sVModel
p34
VNX.GE8AA.004
p35
sVCondition
p36
VNew
p37
sVManufacturer
p38
VAcer
p39
ssS'title'
p40
VAcer Chromebook 14 for Work CP5-471-312N - 14" - Core i3 6100U - 8 GB RAM - 32 GB SSD - US
p41
sb.