ccopy_reg
_reconstructor
p0
(c__main__
ProductRecord
p1
c__builtin__
object
p2
Ntp3
Rp4
(dp5
S'product_url'
p6
S'http://www.walmart.com/ip/HP-Chromebook-14-G4-14-Celeron-N2840-4-GB-RAM-16-GB-SSD/48172060'
p7
sS'price'
p8
V$249.26
p9
sS'properties'
p10
(dp11
VRAM Memory
p12
V4 GB
p13
sVOperating System
p14
VChrome
p15
sVFeatures
p16
VN2840 2.58G 4GB 16GB 14IN WL BT
p17
sVVideo Game Platform
p18
VPC
p19
sVBrand
p20
VHP
p21
sVProcessor Speed
p22
V2.16 GHz, with a Max Turbo Speed of 2.58 GHz
p23
sVManufacturer Part Number
p24
VT4M32UT#ABA
p25
sVMaximum RAM Supported
p26
V4 GB
p27
sVHard Drive Capacity
p28
V0 Gigabytes
p29
sVBattery Life
p30
V8 hours 15 minutes
p31
sVAssembled Product Dimensions (L x W x H)
p32
V18.50 x 11.60 x 3.00 Inches
p33
sVModel
p34
VT4M32UT#ABA
p35
sVScreen Size
p36
V14 in
p37
sVProcessor Type
p38
VIntel Celeron
p39
sVCondition
p40
VNew
p41
ssS'title'
p42
VHP Chromebook 14 G4 - 14" - Celeron N2840 - 4 GB RAM - 16 GB SSD
p43
sb.