ccopy_reg
_reconstructor
p0
(c__main__
ProductRecord
p1
c__builtin__
object
p2
Ntp3
Rp4
(dp5
S'product_url'
p6
S'http://www.walmart.com/ip/Acer-Chromebook-14-for-Work-CP5-471-581N-14-Core-i5-6200U-8-GB-RAM-32-GB-SSD-US/52467863'
p7
sS'price'
p8
V$568.91
p9
sS'properties'
p10
(dp11
VRAM Memory
p12
V8 GB
p13
sVOperating System
p14
VChrome
p15
sVVideo Game Platform
p16
VPC
p17
sVBrand
p18
VAcer
p19
sVProcessor Speed
p20
V2.30 GHz, with a Max Turbo Speed of 2.80 GHz
p21
sVManufacturer Part Number
p22
VNX.GE8AA.003
p23
sVHard Drive Capacity
p24
V32 GB
p25
sVBattery Life
p26
V0 h
p27
sVAssembled Product Dimensions (L x W x H)
p28
V0.90 x 8.90 x 13.00 Inches
p29
sVModel
p30
VNX.GE8AA.003
p31
sVScreen Size
p32
V14.0"
p33
sVProcessor Type
p34
VIntel Core i5
p35
sVCondition
p36
VNew
p37
ssS'title'
p38
VAcer Chromebook 14 for Work CP5-471-581N - 14" - Core i5 6200U - 8 GB RAM - 32 GB SSD - US
p39
sb.