ccopy_reg
_reconstructor
p0
(c__main__
ProductRecord
p1
c__builtin__
object
p2
Ntp3
Rp4
(dp5
S'product_url'
p6
S'http://www.walmart.com/ip/Hisense-Chromebook-11-6-Quad-Core-Processor/44389793'
p7
sS'price'
p8
V$179.99
p9
sS'properties'
p10
(dp11
VRAM Memory
p12
V2 GB
p13
sVOperating System
p14
VChrome OS
p15
sVFeatures
p16
VHisense ChromebookPower adapter
p17
sVVideo Game Platform
p18
VPC
p19
sVBrand
p20
VHisense
p21
sVProcessor Speed
p22
V1.8 GHz
p23
sVManufacturer Part Number
p24
VC11
p25
sVHard Drive Capacity
p26
V16 GB
p27
sVBattery Life
p28
VUp to 10 hours, secondary protection design of current, voltage and temperature
p29
sVAssembled Product Dimensions (L x W x H)
p30
V11.42 x 8.03 x 0.76 Inches
p31
sVModel
p32
VC11
p33
sVScreen Size
p34
V11.6"
p35
sVProcessor Type
p36
VRockchip RK3288 Cortex A17 Quad-Core Processor
p37
sVCondition
p38
VNew
p39
ssS'title'
p40
VHisense Chromebook (11.6" Quad-Core Processor)
p41
sb.