ccopy_reg
_reconstructor
p0
(c__main__
ProductRecord
p1
c__builtin__
object
p2
Ntp3
Rp4
(dp5
S'product_url'
p6
S'http://www.walmart.com/ip/C300SA-DH02-CEL-N3060-4GB-16GB-13-3IN-CHROME-OS/940273768'
p7
sS'price'
p8
V$244.00
p9
sS'properties'
p10
(dp11
VRAM Memory
p12
V4.00 GB
p13
sVOperating System
p14
VChrome OS
p15
sVColor Category
p16
VBlack
p17
sVLaptop Computer Type
p18
VChromebooks
p19
sVBrand
p20
VASUS
p21
sVManufacturer Part Number
p22
VC300SA-DH02
p23
sVHard Drive Capacity
p24
V16.00 GB
p25
sVProcessor Core Type
p26
VDual-core (2 Core)
p27
sVProcessor Type
p28
VIntel Dual-Core Celeron N3060
p29
sVScreen Size
p30
V13.30 in
p31
sVModel
p32
VC300SA-DH02
p33
sVCondition
p34
VNew
p35
sVManufacturer
p36
VASUS - CHROMEBOOK
p37
ssS'title'
p38
VC300SA-DH02 CEL N3060 4GB 16GB 13.3IN CHROME OS
p39
sb.