ccopy_reg
_reconstructor
p0
(c__main__
ProductRecord
p1
c__builtin__
object
p2
Ntp3
Rp4
(dp5
S'product_url'
p6
S'http://www.walmart.com/ip/Refurbished-Asus-C200MA-DS01-11-6-Chromebook-Celeron-N2830-Dual-Core-2-16GHz-2GB-16GB-SSD/796971814'
p7
sS'price'
p8
V$129.95
p9
sS'properties'
p10
(dp11
VRAM Memory
p12
V2 GB
p13
sVOperating System
p14
VChrome OS
p15
sVColor Category
p16
VBlack
p17
sVLaptop Computer Type
p18
VChromebooks
p19
sVBrand
p20
VASUS
p21
sVManufacturer Part Number
p22
VC200MA-DS01-PB-RCB
p23
sVHard Drive Capacity
p24
V16 GB
p25
sVModel
p26
VC200MA-DS01
p27
sVScreen Size
p28
V11.6\u005c"
p29
sVManufacturer
p30
VAsus
p31
ssS'title'
p32
VRefurbished Asus C200MA-DS01 11.6" Chromebook Celeron N2830 Dual-Core 2.16GHz 2GB 16GB SSD
p33
sb.