ccopy_reg
_reconstructor
p0
(c__main__
ProductRecord
p1
c__builtin__
object
p2
Ntp3
Rp4
(dp5
S'product_url'
p6
S'http://www.walmart.com/ip/ASUS-Black-11-6-C200MA-EDU2-Chromebook-PC-with-Intel-Celeron-N2830-Processor-4GB-Memory-16GB-Solid-State-Drive-and-Chrome-OS/50372162'
p7
sS'price'
p8
V$219.98
p9
sS'properties'
p10
(dp11
VRAM Memory
p12
V4 GB
p13
sVOperating System
p14
VChrome
p15
sVFeatures
p16
VROHS Compliant
p17
sVBrand
p18
VASUS
p19
sVProcessor Speed
p20
V2.16 GHz, with a Max Turbo Speed of 2.41 GHz
p21
sVManufacturer Part Number
p22
V90NB05M1-M01040
p23
sVHard Drive Capacity
p24
V16 GB
p25
sVBattery Life
p26
V10 hours
p27
sVAssembled Product Dimensions (L x W x H)
p28
V14.60 x 10.00 x 2.30 Inches
p29
sVModel
p30
V90NB05M1-M01040
p31
sVScreen Size
p32
V11.6"
p33
sVProcessor Type
p34
VIntel Celeron
p35
sVCondition
p36
VNew
p37
ssS'title'
p38
VASUS Black 11.6" C200MA-EDU2 Chromebook PC with Intel Celeron N2830 Processor, 4GB Memory, 16GB Solid State Drive and Chrome OS
p39
sb.