ccopy_reg
_reconstructor
p0
(c__main__
ProductRecord
p1
c__builtin__
object
p2
Ntp3
Rp4
(dp5
S'product_url'
p6
S'http://www.walmart.com/ip/Acer-Chromebook-C910-3916-15-6-Core-i3-5005U-4-GB-RAM-32-GB-SSD-US/44459930'
p7
sS'price'
p8
V$436.98
p9
sS'properties'
p10
(dp11
VRAM Memory
p12
V4 Gigabytes
p13
sVOperating System
p14
VChrome OS
p15
sVBrand
p16
VAcer
p17
sVProcessor Speed
p18
V2 Gigahertz
p19
sVManufacturer Part Number
p20
VNX.EF3AA.010
p21
sVHard Drive Capacity
p22
V32
p23
sVBattery Life
p24
V8 hours
p25
sVAssembled Product Dimensions (L x W x H)
p26
V12.00 x 12.00 x 12.00 Inches
p27
sVModel
p28
VNX.EF3AA.010
p29
sVScreen Size
p30
V15.60 in
p31
sVProcessor Type
p32
VIntel Core i3
p33
ssS'title'
p34
VAcer Chromebook C910-3916 - 15.6" - Core i3 5005U - 4 GB RAM - 32 GB SSD - US
p35
sb.