ccopy_reg
_reconstructor
p0
(c__main__
ProductRecord
p1
c__builtin__
object
p2
Ntp3
Rp4
(dp5
S'product_url'
p6
S'http://www.walmart.com/ip/Acer-Chromebook-14-for-Work-CP5-471-35T4-14-Core-i3-6100U-4-GB-RAM-32-GB-SSD-US/52467867'
p7
sS'price'
p8
V$413.46
p9
sS'properties'
p10
(dp11
VRAM Memory
p12
V4 GB
p13
sVOperating System
p14
VChrome
p15
sVBrand
p16
VAcer
p17
sVProcessor Speed
p18
V2.30 GHz
p19
sVManufacturer Part Number
p20
VNX.GE8AA.002
p21
sVHard Drive Capacity
p22
V32 GB
p23
sVAssembled Product Dimensions (L x W x H)
p24
V0.90 x 8.90 x 13.00 Inches
p25
sVModel
p26
VNX.GE8AA.002
p27
sVScreen Size
p28
V14.0"
p29
sVProcessor Type
p30
VIntel Core i3
p31
sVCondition
p32
VNew
p33
ssS'title'
p34
VAcer Chromebook 14 for Work CP5-471-35T4 - 14" - Core i3 6100U - 4 GB RAM - 32 GB SSD - US
p35
sb.