ccopy_reg
_reconstructor
p0
(c__main__
ProductRecord
p1
c__builtin__
object
p2
Ntp3
Rp4
(dp5
S'product_url'
p6
S'http://www.walmart.com/ip/Refurbished-Acer-C720-Chromebook-11-6-Inch-2GB/359851989'
p7
sS'price'
p8
V$129.99
p9
sS'properties'
p10
(dp11
VLaptop Computer Type
p12
VChromebooks
p13
sVBrand
p14
VAcer
p15
sVScreen Size
p16
V11.6\u005c"
p17
sVOperating System
p18
VChrome OS
p19
sVManufacturer
p20
VAcer
p21
ssS'title'
p22
VRefurbished Acer C720 Chromebook (11.6-Inch, 2GB)
p23
sb.