ccopy_reg
_reconstructor
p0
(c__main__
ProductRecord
p1
c__builtin__
object
p2
Ntp3
Rp4
(dp5
S'product_url'
p6
S'http://www.walmart.com/ip/CHROMEBOOK-3180-11-6IN-NON-TCH-CELERON-N3060-2GB-16GB-1YR-MI/192211792'
p7
sS'price'
p8
V$205.02
p9
sS'properties'
p10
(dp11
VRAM Memory
p12
V2.00 GB
p13
sVOperating System
p14
VChrome
p15
sVColor Category
p16
VBlack
p17
sVVideo Game Platform
p18
VPC
p19
sVBrand
p20
VDell
p21
sVManufacturer Part Number
p22
VD44PV
p23
sVHard Drive Capacity
p24
V16.00 GB
p25
sVLaptop Computer Type
p26
VChromebooks
p27
sVProcessor Core Type
p28
VDual-core (2 Core)
p29
sVProcessor Type
p30
VIntel Celeron
p31
sVScreen Size
p32
V11.60 in
p33
sVModel
p34
VD44PV
p35
sVCondition
p36
VNew
p37
sVManufacturer
p38
VDELL CHROMEBOOKS
p39
ssS'title'
p40
VCHROMEBOOK 3180 11.6IN NON TCH CELERON N3060 2GB 16GB 1YR MI
p41
sb.