ccopy_reg
_reconstructor
p0
(c__main__
ProductRecord
p1
c__builtin__
object
p2
Ntp3
Rp4
(dp5
S'product_url'
p6
S'http://www.walmart.com/ip/HP-Chromebook-13-G1-13-3-Core-m7-6Y75-16-GB-RAM-32-GB-SSD/52587613'
p7
sS'price'
p8
V$969.95
p9
sS'properties'
p10
(dp11
VRAM Memory
p12
V16 GB
p13
sVOperating System
p14
VChrome
p15
sVFeatures
p16
VM7-6Y75 16GB 32GB 13.3IN BT
p17
sVBrand
p18
VHP
p19
sVProcessor Speed
p20
V1.20 GHz
p21
sVManufacturer Part Number
p22
VW0T02UT#ABA
p23
sVHard Drive Capacity
p24
V32 GB
p25
sVBattery Life
p26
V8 hours 30 minutes
p27
sVAssembled Product Dimensions (L x W x H)
p28
V19.00 x 12.00 x 2.70 Inches
p29
sVModel
p30
VW0T02UT#ABA
p31
sVScreen Size
p32
V13.3"
p33
sVProcessor Type
p34
VIntel Core M7-6Y75 Dual-Core Processor
p35
sVCondition
p36
VNew
p37
ssS'title'
p38
VHP Chromebook 13 G1 - 13.3" - Core m7 6Y75 - 16 GB RAM - 32 GB SSD
p39
sb.