ccopy_reg
_reconstructor
p0
(c__main__
ProductRecord
p1
c__builtin__
object
p2
Ntp3
Rp4
(dp5
S'product_url'
p6
S'http://www.walmart.com/ip/C771T-C1WS-CELERON-3855U-1-6G-4GB-32GB-11-6IN-TCH-CHROME-OS/915334778'
p7
sS'price'
p8
V$329.99
p9
sS'properties'
p10
(dp11
VRAM Memory
p12
V4 Gigabytes
p13
sVOperating System
p14
VChrome OS
p15
sVBrand
p16
VAcer
p17
sVProcessor Speed
p18
V1.6 Gigahertz
p19
sVManufacturer Part Number
p20
VNX.GP6AA.001
p21
sVHard Drive Capacity
p22
V32 Gigabytes
p23
sVModel
p24
VNX.GP6AA.001
p25
sVScreen Size
p26
V11.60 Inches
p27
sVProcessor Type
p28
VIntel 3855U
p29
sVCondition
p30
VNew
p31
ssS'title'
p32
VC771T-C1WS CELERON 3855U 1.6G 4GB 32GB 11.6IN TCH CHROME OS
p33
sb.