ccopy_reg
_reconstructor
p0
(c__main__
ProductRecord
p1
c__builtin__
object
p2
Ntp3
Rp4
(dp5
S'product_url'
p6
S'http://www.walmart.com/ip/HP-Chromebook-13-G1-13-3-Core-m3-6Y30-4-GB-RAM-32-GB-SSD/52563096'
p7
sS'price'
p8
V$630.75
p9
sS'properties'
p10
(dp11
VRAM Memory
p12
V4 GB
p13
sVOperating System
p14
VChrome
p15
sVVideo Game Platform
p16
VPC
p17
sVBrand
p18
VHP
p19
sVProcessor Speed
p20
V900 MHz
p21
sVManufacturer Part Number
p22
VW0T00UT#ABA
p23
sVHard Drive Capacity
p24
V32 GB
p25
sVBattery Life
p26
V8 hours 45 minutes
p27
sVAssembled Product Dimensions (L x W x H)
p28
V19.00 x 12.20 x 2.70 Inches
p29
sVModel
p30
VW0T00UT#ABA
p31
sVScreen Size
p32
V13.3"
p33
sVProcessor Type
p34
VIntel Core M3 6Y30 Dual-Core Processor
p35
sVCondition
p36
VNew
p37
ssS'title'
p38
VHP Chromebook 13 G1 - 13.3" - Core m3 6Y30 - 4 GB RAM - 32 GB SSD
p39
sb.