ccopy_reg
_reconstructor
p0
(c__main__
ProductRecord
p1
c__builtin__
object
p2
Ntp3
Rp4
(dp5
S'product_url'
p6
S'http://www.walmart.com/ip/HP-Chromebook-14-G4-14-Celeron-N2840-2-GB-RAM-16-GB-SSD/48896259'
p7
sS'price'
p8
V$268.30
p9
sS'properties'
p10
(dp11
VRAM Memory
p12
V2 GB
p13
sVOperating System
p14
VChrome
p15
sVFeatures
p16
V2.58 GHz), TV HD webcam, HP SmartBuy Chromebook 14 G4, Intel 802.11 a/b/g/n +BT 4.0TPM 1.2, 2GB 1600 (2 GB On Mb), No Optical, Chrome OS, 14.0 LED HD SVA AG, UMA: HD, 3-Cell 37 WHr, Celeron Processor N2840 (1M Cache, 1/1/0, 16GB eMMC
p17
sVVideo Game Platform
p18
VPC
p19
sVBrand
p20
VHP
p21
sVProcessor Speed
p22
V2.16 GHz, with a Max Turbo Speed of 2.58 GHz
p23
sVManufacturer Part Number
p24
VT4M31UT#ABA
p25
sVHard Drive Capacity
p26
V16 GB
p27
sVBattery Life
p28
V9 hours 15 minutes
p29
sVAssembled Product Dimensions (L x W x H)
p30
V18.50 x 11.60 x 3.00 Inches
p31
sVModel
p32
VT4M31UT#ABA
p33
sVScreen Size
p34
V14.0"
p35
sVProcessor Type
p36
VIntel Celeron
p37
sVCondition
p38
VNew
p39
ssS'title'
p40
VHP Chromebook 14 G4 - 14" - Celeron N2840 - 2 GB RAM - 16 GB SSD
p41
sb.