ccopy_reg
_reconstructor
p0
(c__main__
ProductRecord
p1
c__builtin__
object
p2
Ntp3
Rp4
(dp5
S'product_url'
p6
S'http://www.walmart.com/ip/Lenovo-N42-20-Chromebook-14-Celeron-N3060-4-GB-RAM-16-GB-SSD/53952680'
p7
sS'price'
p8
V$245.98
p9
sS'properties'
p10
(dp11
VRAM Memory
p12
V4 Gigabytes
p13
sVOperating System
p14
VChrome OS
p15
sVColor Category
p16
VMulticolor
p17
sVVideo Game Platform
p18
VPC
p19
sVBrand
p20
VLenovo
p21
sVManufacturer Part Number
p22
V80US0000US
p23
sVLaptop Computer Type
p24
VChromebooks
p25
sVProcessor Core Type
p26
VDual-core (2 Core)
p27
sVProcessor Type
p28
VIntel Celeron
p29
sVScreen Size
p30
V14.00 in
p31
sVModel
p32
V80US0000US
p33
sVCondition
p34
VNew
p35
sVManufacturer
p36
VLENOVO
p37
ssS'title'
p38
VLenovo N42-20 Chromebook - 14" - Celeron N3060 - 4 GB RAM - 16 GB SSD
p39
sb.