ccopy_reg
_reconstructor
p0
(c__main__
ProductRecord
p1
c__builtin__
object
p2
Ntp3
Rp4
(dp5
S'product_url'
p6
S'http://www.walmart.com/ip/Acer-Black-11-6-C730-Chromebook-PC-with-Intel-Celeron-N2840-Processor-4GB-Memory-16GB-eMMC-Drive-and-Chrome/48714423'
p7
sS'price'
p8
V$276.34
p9
sS'properties'
p10
(dp11
VRAM Memory
p12
V4 GB
p13
sVOperating System
p14
VChrome
p15
sVVideo Game Platform
p16
VPC
p17
sVBrand
p18
VAcer
p19
sVProcessor Speed
p20
V2.16 GHz, with a Max Turbo Speed of 2.58 GHz
p21
sVManufacturer Part Number
p22
VNX.GC1AA.002
p23
sVHard Drive Capacity
p24
V16 GB
p25
sVBattery Life
p26
V13 Hours
p27
sVAssembled Product Dimensions (L x W x H)
p28
V0.90 x 11.90 x 8.10 Inches
p29
sVModel
p30
VNX.GC1AA.002
p31
sVScreen Size
p32
V11.6 in
p33
sVProcessor Type
p34
VIntel 7260 AC (2x2 AC, 867 Mbps)
p35
sVCondition
p36
VNew
p37
ssS'title'
p38
VAcer Black 11.6" C730 Chromebook PC with Intel Celeron N2840 Processor, 4GB Memory, 16GB eMMC Drive and Chrome
p39
sb.