ccopy_reg
_reconstructor
p0
(c__main__
ProductRecord
p1
c__builtin__
object
p2
Ntp3
Rp4
(dp5
S'product_url'
p6
S'http://www.walmart.com/ip/HP-Chromebook-14-ak041dx-Celeron-N2840-2-16-GHz-Chrome-OS-4-GB-RAM-16-GB-eMMC-14-1366-x-768-HD-HD-Graphics-802-11ac-HP-star-pattern-ano-silver-snow-w/897337361'
p7
sS'price'
p8
V$259.99
p9
sS'properties'
p10
(dp11
VRAM Memory
p12
V4 GB
p13
sVOperating System
p14
VChrome OS
p15
sVBrand
p16
VHP
p17
sVManufacturer Part Number
p18
V1KD89UA#ABA
p19
sVModel
p20
V14-ak041dx
p21
sVScreen Size
p22
V14
p23
ssS'title'
p24
VHP Chromebook 14-ak041dx - Celeron N2840 / 2.16 GHz - Chrome OS - 4 GB RAM - 16 GB eMMC - 14" 1366 x 768 (HD) - HD Graphics - 802.11ac - HP star pattern in ano silver with a snow white cover - kbd: US
p25
sb.