ccopy_reg
_reconstructor
p0
(c__main__
ProductRecord
p1
c__builtin__
object
p2
Ntp3
Rp4
(dp5
S'product_url'
p6
S'http://www.walmart.com/ip/C202SA-YS02-GR-N3060-1-6G-4GB-16GB-11-6IN-CHROME-OS-NO-TOUCH-SCRN/413108906'
p7
sS'price'
p8
V$247.46
p9
sS'properties'
p10
(dp11
VRAM Memory
p12
V4 GB
p13
sVOperating System
p14
VChrome OS
p15
sVColor Category
p16
VGray
p17
sVLaptop Computer Type
p18
VChromebooks
p19
sVBrand
p20
VASUS
p21
sVManufacturer Part Number
p22
VC202SA-YS02-GR
p23
sVHard Drive Capacity
p24
V16 GB
p25
sVProcessor Core Type
p26
VDual-core (2 Core)
p27
sVProcessor Type
p28
VIntel Dual-Core Celeron N3060
p29
sVScreen Size
p30
V11.6 in
p31
sVModel
p32
VC202SAYS02GR
p33
sVCondition
p34
VNew
p35
sVManufacturer
p36
VASUS - NOTEBOOKS
p37
ssS'title'
p38
VC202SA-YS02-GR N3060 1.6G 4GB 16GB 11.6IN CHROME OS NO TOUCH SCRN
p39
sb.