ccopy_reg
_reconstructor
p0
(c__main__
ProductRecord
p1
c__builtin__
object
p2
Ntp3
Rp4
(dp5
S'product_url'
p6
S'http://www.walmart.com/ip/HP-Chromebook-11-v011dx-11-6-Celeron-N-4GB-RAM-16GB-SSD-Certified-Refurbished/991819320'
p7
sS'price'
p8
V$179.99
p9
sS'properties'
p10
(dp11
VRAM Memory
p12
V4 GB
p13
sVOperating System
p14
VChrome OS
p15
sVLaptop Computer Type
p16
VChromebooks
p17
sVBrand
p18
VHP
p19
sVManufacturer Part Number
p20
VX7T66UA#ABA
p21
sVHard Drive Capacity
p22
V16
p23
sVModel
p24
V11-v011dx
p25
sVScreen Size
p26
V11.6
p27
sVManufacturer
p28
VHP
p29
ssS'title'
p30
VHP Chromebook 11-v011dx - 11.6" - Celeron N - 4GB RAM - 16GB SSD (Certified Refurbished)
p31
sb.