ccopy_reg
_reconstructor
p0
(c__main__
ProductRecord
p1
c__builtin__
object
p2
Ntp3
Rp4
(dp5
S'product_url'
p6
S'http://www.walmart.com/ip/Lenovo-Black-11-6-N21-Chromebook-PC-with-Intel-Celeron-N2840-Dual-Core-Processor-4GB-Memory-16GB-Solid-State-Drive-and-Chrome-OS-Refurbished/736267401'
p7
sS'price'
p8
V$159.99
p9
sS'properties'
p10
(dp11
VRAM Memory
p12
V4 GB
p13
sVOperating System
p14
VChrome OS
p15
sVFeatures
p16
V1 x USB 3.0, 1 x USB 2.0, 1 x HDMI
p17
sVVideo Game Platform
p18
VPC
p19
sVBrand
p20
VLenovo
p21
sVManufacturer Part Number
p22
V80MG0001US
p23
sVHard Drive Capacity
p24
V16 GB
p25
sVAssembled Product Dimensions (L x W x H)
p26
V9.00 x 15.00 x 3.00 Inches
p27
sVModel
p28
V80MG0001US
p29
sVScreen Size
p30
V11.6\u005c"
p31
ssS'title'
p32
VLenovo Black 11.6" N21 Chromebook PC with Intel Celeron N2840 Dual-Core Processor, 4GB Memory, 16GB Solid State Drive and Chrome OS (Refurbished)
p33
sb.