ccopy_reg
_reconstructor
p0
(c__main__
ProductRecord
p1
c__builtin__
object
p2
Ntp3
Rp4
(dp5
S'product_url'
p6
S'http://www.walmart.com/ip/Acer-Chromebook-15-CB3-532-C42P-15-6-Celeron-N3060-4-GB-RAM-16-GB-SSD-US/989218540'
p7
sS'price'
p8
V$255.90
p9
sS'properties'
p10
(dp11
VRAM Memory
p12
V4 Gigabytes
p13
sVOperating System
p14
VChrome OS
p15
sVBrand
p16
VAcer
p17
sVProcessor Speed
p18
V1.6 Gigahertz
p19
sVManufacturer Part Number
p20
VNX.GHJAA.004
p21
sVHard Drive Capacity
p22
V16 Gigabytes
p23
sVBattery Life
p24
V0 h
p25
sVModel
p26
VNX.GHJAA.004
p27
sVScreen Size
p28
V15.60 Inches
p29
sVProcessor Type
p30
VIntel N3060
p31
sVCondition
p32
VNew
p33
ssS'title'
p34
VAcer Chromebook 15 CB3-532-C42P - 15.6" - Celeron N3060 - 4 GB RAM - 16 GB SSD - US
p35
sb.