ccopy_reg
_reconstructor
p0
(c__main__
ProductRecord
p1
c__builtin__
object
p2
Ntp3
Rp4
(dp5
S'product_url'
p6
S'http://www.walmart.com/ip/Lenovo-N42-20-Chromebook-14-Celeron-N3060-2-GB-RAM-16-GB-SSD/174408983'
p7
sS'price'
p8
V$188.91
p9
sS'properties'
p10
(dp11
VRAM Memory
p12
V2 Gigabytes
p13
sVOperating System
p14
VChrome OS
p15
sVFeatures
p16
V14" HD TN AG Display, 3 Cell 45 WH Battery, Intel N3060, WIFI 2X2 AC, Keyboard, FACTORY DIRECT ITEM ONLY N42, Chrome, HD 720P Camera, 16GB EMMC, BT4.1, 2 GB Memory, 1 Year Mail in Warranty
p17
sVVideo Game Platform
p18
VSee Description
p19
sVBrand
p20
VLenovo
p21
sVProcessor Speed
p22
V1.6 Gigahertz
p23
sVManufacturer Part Number
p24
V80US0003US
p25
sVHard Drive Capacity
p26
V16 Gigabytes
p27
sVAssembled Product Dimensions (L x W x H)
p28
V5.00 x 5.00 x 5.00 Inches
p29
sVModel
p30
V80US0003US
p31
sVScreen Size
p32
V14.00 in
p33
sVProcessor Type
p34
VIntel N3060
p35
sVCondition
p36
VNew
p37
ssS'title'
p38
VLenovo N42-20 Chromebook - 14" - Celeron N3060 - 2 GB RAM - 16 GB SSD
p39
sb.