ccopy_reg
_reconstructor
p0
(c__main__
ProductRecord
p1
c__builtin__
object
p2
Ntp3
Rp4
(dp5
S'product_url'
p6
S'http://www.walmart.com/ip/Acer-Chromebook-C720-2848-Refurbished/474685333'
p7
sS'price'
p8
V$129.99
p9
sS'properties'
p10
(dp11
VLaptop Computer Type
p12
VChromebooks
p13
sVBrand
p14
VAcer
p15
sVmanufacturer_part_number
p16
Vc720-2848
p17
sVOperating System
p18
VChrome OS
p19
sVManufacturer
p20
VApple
p21
ssS'title'
p22
VAcer Chromebook C720-2848 - Refurbished
p23
sb.