ccopy_reg
_reconstructor
p0
(c__main__
ProductRecord
p1
c__builtin__
object
p2
Ntp3
Rp4
(dp5
S'product_url'
p6
S'http://www.walmart.com/ip/Manufacturer-Refurbished-Acer-CB3-431-C0AK-14-Chromebook-Chrome-OS-Intel-Celeron-N3160-Processor-4GB-RAM-32GB-Flash-Drive/55429974'
p7
sS'price'
p8
V$216.29
p9
sS'properties'
p10
(dp11
VRAM Memory
p12
V4 GB
p13
sVOperating System
p14
VChrome
p15
sVColor Category
p16
VGold
p17
sVVideo Game Platform
p18
VPC
p19
sVBrand
p20
VAcer
p21
sVManufacturer Part Number
p22
VNX.GJEAA.001
p23
sVHard Drive Capacity
p24
V32 GB
p25
sVLaptop Computer Type
p26
VChromebooks
p27
sVProcessor Type
p28
VIntel Celeron
p29
sVScreen Size
p30
V14.0"
p31
sVModel
p32
VCB3-431-C0AK
p33
sVManufacturer
p34
VAcer
p35
ssS'title'
p36
VManufacturer Refurbished Acer CB3-431-C0AK 14" Chromebook, Chrome OS, Intel Celeron N3160 Processor, 4GB RAM, 32GB Flash Drive
p37
sb.