ccopy_reg
_reconstructor
p0
(c__main__
ProductRecord
p1
c__builtin__
object
p2
Ntp3
Rp4
(dp5
S'product_url'
p6
S'http://www.walmart.com/ip/Original-HP-45W-AC-Charger-Power-Adapter-Cord-HP-Pavilion-x360-Convertible-15-bk015nr-15-bk020wm-15-bk021nr-15-bk027cl-15-bk074nr-15-bk075nr-15-bk076/151491360'
p7
sS'price'
p8
S'N/A'
p9
sS'properties'
p10
(dp11
VBrand
p12
VHP
p13
ssS'title'
p14
VOriginal HP 45W AC Charger Power Adapter Cord For HP Pavilion x360 Convertible 15-bk015nr 15-bk020wm 15-bk021nr 15-bk027cl 15-bk074nr 15-bk075nr 15-bk076nr
p15
sb.