ccopy_reg
_reconstructor
p0
(c__main__
ProductRecord
p1
c__builtin__
object
p2
Ntp3
Rp4
(dp5
S'product_url'
p6
S'http://www.walmart.com/ip/ACER-CHROMEBOOK-15-CELERON-N3060-15-6-HD-2GB-LPDDR3-16GB-STORAGE-CB3-532-C3F7/369167922'
p7
sS'price'
p8
V$248.99
p9
sS'properties'
p10
(dp11
VRAM Memory
p12
V2 GB
p13
sVOperating System
p14
VChrome OS
p15
sVFeatures
p16
VIntel HD Graphics 400 LPDDR3 Shared graphics memory., Wireless 802.11ac Up to 3X, Easily transfer text and data files, photos and even movies at ten times the speed of USB 2.0., Intel Celeron N3060 1.6 GHz; Dual-core, Chrome OS platform is optimized for Google's app suite.
p17
sVBrand
p18
VAcer
p19
sVProcessor Speed
p20
V1.60 GHz
p21
sVManufacturer Part Number
p22
VNX.GHJAA.007
p23
sVBattery Life
p24
V12 Hour
p25
sVAssembled Product Dimensions (L x W x H)
p26
V0.08 x 0.95 x 0.95 Inches
p27
sVModel
p28
VHD Graphics 400
p29
sVScreen Size
p30
V15.6"
p31
sVProcessor Type
p32
VIntel Celeron
p33
ssS'title'
p34
VACER CHROMEBOOK 15, CELERON N3060, 15.6" HD, 2GB LPDDR3, 16GB STORAGE, CB3-532-C3F7
p35
sb.