ccopy_reg
_reconstructor
p0
(c__main__
ProductRecord
p1
c__builtin__
object
p2
Ntp3
Rp4
(dp5
S'product_url'
p6
S'http://www.walmart.com/ip/2017-Acer-Flagship-CB3-532-15-6-HD-Premium-Chromebook-Intel-Dual-Core-Celeron-N3060-2-48GHz-2GB-RAM-16GB-SSD-Wireless-AC-HDMI-USB-3-0-Webcam-Chrome-O/765120769'
p7
sS'price'
p8
V$228.99
p9
sS'properties'
p10
(dp11
VRAM Memory
p12
V2 GB
p13
sVOperating System
p14
VChrome OS
p15
sVLaptop Computer Type
p16
VChromebooks
p17
sVBrand
p18
VAcer
p19
sVManufacturer Part Number
p20
VOEM
p21
sVHard Drive Capacity
p22
V16 GB
p23
sVScreen Size
p24
V15.6\u005c"
p25
sVManufacturer
p26
VAcer
p27
ssS'title'
p28
V2017 Acer Flagship CB3-532 15.6" HD Premium Chromebook - Intel Dual-Core Celeron N3060 up to 2.48GHz, 2GB RAM, 16GB SSD, Wireless AC, HDMI, USB 3.0, Webcam, Chrome OS[Certified Refurbished]
p29
sb.