ccopy_reg
_reconstructor
p0
(c__main__
ProductRecord
p1
c__builtin__
object
p2
Ntp3
Rp4
(dp5
S'product_url'
p6
S'http://www.walmart.com/ip/CTL-NL61-11-6-16-9-Chromebook-1366-x-768-Intel-Celeron-N3160-Quad-core-4-Core-1-60-GHz-4-GB-32-GB-Flash-Memory-Capacity-Chrome-OS-nbcnl61/141270857'
p7
sS'price'
p8
S'N/A'
p9
sS'properties'
p10
(dp11
VRAM Memory
p12
V4 Gigabytes
p13
sVOperating System
p14
VChrome OS
p15
sVBrand
p16
VCTL Corp
p17
sVProcessor Speed
p18
V1.6 Gigahertz
p19
sVHard Drive Capacity
p20
V32 Gigabytes
p21
sVBattery Life
p22
V14 Hours
p23
sVModel
p24
VNBCNL61
p25
sVScreen Size
p26
V11.60 in
p27
sVProcessor Type
p28
VIntel N3160
p29
sVmanufacturer_part_number
p30
VNL61
p31
ssS'title'
p32
VCTL NL61 11.6" 16:9 Chromebook - 1366 x 768 - Intel Celeron N3160 Quad-core [4 Core] 1.60 GHz - 4 GB - 32 GB Flash Memory Capacity - Chrome OS (nbcnl61)
p33
sb.