ccopy_reg
_reconstructor
p0
(c__main__
ProductRecord
p1
c__builtin__
object
p2
Ntp3
Rp4
(dp5
S'product_url'
p6
S'http://www.walmart.com/ip/Acer-Chromebook-14-CB3-431-C6ZB-14-inch-Intel-Celeron-N3160-1-6GHz-4GB-LPDDR3-32GB-eMMC-USB3-0-Chrome-Notebook-Gold/799646107'
p7
sS'price'
p8
V$477.41
p9
sS'properties'
p10
(dp11
VBrand
p12
VAcer
p13
sVHard Drive Capacity
p14
V32
p15
sVCondition
p16
VNew
p17
ssS'title'
p18
VAcer Chromebook 14 CB3-431-C6ZB 14 inch Intel Celeron N3160 1.6GHz/ 4GB LPDDR3/ 32GB eMMC/ USB3.0/ Chrome Notebook (Gold)
p19
sb.