ccopy_reg
_reconstructor
p0
(c__main__
ProductRecord
p1
c__builtin__
object
p2
Ntp3
Rp4
(dp5
S'product_url'
p6
S'http://www.walmart.com/ip/Manufacturer-Refurbished-ASUS-C302CA-RHPDT11-12-5-Laptop-Intel-Pentium-4405Y-1-5GHz-4GB-32GB-Chrome-OS/280751956'
p7
sS'price'
p8
V$380.99
p9
sS'properties'
p10
(dp11
VRAM Memory
p12
V32 GB
p13
sVOperating System
p14
VMicrosoft Windows
p15
sVBrand
p16
VASUS
p17
sVManufacturer Part Number
p18
VC302CA-RHPDT11-RF
p19
sVModel
p20
VC302CA-RHPDT11-RF
p21
sVScreen Size
p22
V12.5\u005c"
p23
ssS'title'
p24
VManufacturer Refurbished - ASUS C302CA-RHPDT11 12.5" Laptop Intel Pentium 4405Y 1.5GHz 4GB 32GB Chrome OS
p25
sb.