ccopy_reg
_reconstructor
p0
(c__main__
ProductRecord
p1
c__builtin__
object
p2
Ntp3
Rp4
(dp5
S'product_url'
p6
S'http://www.walmart.com/ip/Dell-Re-certified-Chromebook-13-3380-13-3-Laptop-LCD-Intel-Celeron-3855U-32GB-SSD-4GB-RAM-Chrome-OS-Black/352724058'
p7
sS'price'
p8
V$299.00
p9
sS'properties'
p10
(dp11
VRAM Memory
p12
V4.00 GB
p13
sVOperating System
p14
VChrome OS
p15
sVBrand
p16
VDell Laptop
p17
sVHard Drive Capacity
p18
V32 GB
p19
sVProcessor Type
p20
VIntel Celeron
p21
sVScreen Size
p22
V20 in
p23
sVProcessor Speed
p24
V1.60 GHz
p25
sVCondition
p26
VNew
p27
ssS'title'
p28
VDell Re-certified Chromebook 13 3380 13.3" Laptop, LCD, Intel Celeron 3855U, 32GB SSD, 4GB RAM, Chrome OS, Black
p29
sb.