ccopy_reg
_reconstructor
p0
(c__main__
ProductRecord
p1
c__builtin__
object
p2
Ntp3
Rp4
(dp5
S'product_url'
p6
S'http://www.walmart.com/ip/HP-Spectre-x360-13-AC013DX-2-in-1-13-3-Touch-Screen-Laptop-Core-i7-7500U-8GB-RAM-256GB-SSD-Certified-Refurbished/229061642'
p7
sS'price'
p8
S'N/A'
p9
sS'properties'
p10
(dp11
VBrand
p12
VHP
p13
sVScreen Size
p14
V13.3
p15
sVHard Drive Capacity
p16
V256
p17
sVManufacturer Part Number
p18
V13-ac013dx
p19
ssS'title'
p20
VHP Spectre x360 13-AC013DX 2-in-1 13.3" Touch-Screen Laptop - Core i7-7500U, 8GB RAM, 256GB SSD (Certified Refurbished)
p21
sb.