ccopy_reg
_reconstructor
p0
(c__main__
ProductRecord
p1
c__builtin__
object
p2
Ntp3
Rp4
(dp5
S'product_url'
p6
S'http://www.walmart.com/ip/Refurbished-Asus-Chromebook-Flip-2-in-1-C100PA-10-1-Touch-Rockchip-RK3288C-2GB-16GB-Flash/942472806'
p7
sS'price'
p8
V$232.36
p9
sS'properties'
p10
(dp11
VBrand
p12
VASUS
p13
sVHard Drive Capacity
p14
V16
p15
ssS'title'
p16
VRefurbished Asus Chromebook Flip 2-in-1 C100PA - 10.1 Touch - Rockchip RK3288C - 2GB - 16GB Flash
p17
sb.