ccopy_reg
_reconstructor
p0
(c__main__
ProductRecord
p1
c__builtin__
object
p2
Ntp3
Rp4
(dp5
S'product_url'
p6
S'http://www.walmart.com/ip/Hp-Chromebook-13-G1-13-3-brightview-Chromebook-Intel-Pentium-4405y-Dual-core-2-Core-1-50-Ghz-4-Gb-Lpddr3-Ram-32-Gb-Flash-Memory-Capacity-Intel-Hd-Gra/52874136'
p7
sS'price'
p8
V$551.39
p9
sS'properties'
p10
(dp11
VRAM Memory
p12
V4 GB
p13
sVOperating System
p14
VChrome OS
p15
sVLaptop Computer Type
p16
VChromebooks
p17
sVBrand
p18
VHP
p19
sVManufacturer Part Number
p20
VW0S99UT#ABA
p21
sVProcessor Core Type
p22
VPentium
p23
sVProcessor Type
p24
VIntel Pentium
p25
sVScreen Size
p26
V13.3"
p27
sVModel
p28
VW0S99UT#ABA
p29
sVManufacturer
p30
VHewlett Packard
p31
ssS'title'
p32
VHp Chromebook 13 G1 13.3" [brightview] Chromebook - Intel Pentium 4405y Dual-core [2 Core] 1.50 Ghz - 4 Gb Lpddr3 Ram - 32 Gb Flash Memory Capacity - Intel Hd Graphics 515 Lpddr3 - (w0s99ut-aba)
p33
sb.