ccopy_reg
_reconstructor
p0
(c__main__
ProductRecord
p1
c__builtin__
object
p2
Ntp3
Rp4
(dp5
S'product_url'
p6
S'http://www.walmart.com/ip/Lenovo-ThinkPad-13-Chromebook-Celeron-3855U-4GB-RAM-16GB-eMMC-Chrome/936919407'
p7
sS'price'
p8
V$469.72
p9
sS'properties'
p10
(dp11
VRAM Memory
p12
V4 Gigabytes
p13
sVOperating System
p14
VChrome OS
p15
sVBrand
p16
VLenovo
p17
sVProcessor Speed
p18
V1.6 Gigahertz
p19
sVManufacturer Part Number
p20
V20GL0000US-2-zZz
p21
sVHard Drive Capacity
p22
V16 Gigabytes
p23
sVBattery Life
p24
V10 Hours
p25
sVAssembled Product Dimensions (L x W x H)
p26
V12.70 x 8.80 x 0.80 Inches
p27
sVModel
p28
V20GL0000US
p29
sVScreen Size
p30
V13.3 Inches
p31
sVProcessor Type
p32
VIntel Celeron
p33
sVCondition
p34
VNew
p35
ssS'title'
p36
VLenovo ThinkPad 13 Chromebook - Celeron 3855U, 4GB RAM, 16GB eMMC, Chrome
p37
sb.