ccopy_reg
_reconstructor
p0
(c__main__
ProductRecord
p1
c__builtin__
object
p2
Ntp3
Rp4
(dp5
S'product_url'
p6
S'http://www.walmart.com/ip/Refurbished-Toshiba-CB35-A3120-13-3-Inch-Chromebook-Wi-Fi-16GB/103653714'
p7
sS'price'
p8
V$189.00
p9
sS'properties'
p10
(dp11
sS'title'
p12
VRefurbished Toshiba CB35-A3120 13.3-Inch Chromebook Wi-Fi 16GB
p13
sb.