ccopy_reg
_reconstructor
p0
(c__main__
ProductRecord
p1
c__builtin__
object
p2
Ntp3
Rp4
(dp5
S'product_url'
p6
S'http://www.walmart.com/ip/Acer-Chromebook-C730-C730E-Laptop-Grey-Touchpad-56-MRCN7-001/514986543'
p7
sS'price'
p8
V$17.99
p9
sS'properties'
p10
(dp11
VBrand
p12
VAcer
p13
sVCondition
p14
VNew
p15
ssS'title'
p16
VAcer Chromebook C730 C730E Laptop Grey Touchpad 56.MRCN7.001
p17
sb.