ccopy_reg
_reconstructor
p0
(c__main__
ProductRecord
p1
c__builtin__
object
p2
Ntp3
Rp4
(dp5
S'product_url'
p6
S'http://www.walmart.com/ip/Refurbished-Samsung-Series-5-12-1-Chromebook-Computer-4GB-RAM-16GB-SSD-Wi-Fi-Only-Scratches-Dents/306513826'
p7
sS'price'
p8
V$149.99
p9
sS'properties'
p10
(dp11
VRAM Memory
p12
V4 GB
p13
sVOperating System
p14
VChrome OS
p15
sVBrand
p16
VSamsungg
p17
sVManufacturer Part Number
p18
VXE550C22-A01US
p19
sVHard Drive Capacity
p20
V16 GB
p21
sVModel
p22
VXE550C22-A01US
p23
sVScreen Size
p24
V12.1\u005c"
p25
ssS'title'
p26
VRefurbished Samsung Series 5 12.1" Chromebook Computer (4GB RAM, 16GB SSD, Wi-Fi Only) (Scratches & Dents)
p27
sb.