ccopy_reg
_reconstructor
p0
(c__main__
ProductRecord
p1
c__builtin__
object
p2
Ntp3
Rp4
(dp5
S'product_url'
p6
S'http://www.walmart.com/ip/Refurbished-Dell-Chromebook-11-CB1C13-11-6-Laptop-Intel-Celeron-2955U-1-40GHz-4GB-16GB-SSD/504845230'
p7
sS'price'
p8
V$99.95
p9
sS'properties'
p10
(dp11
VRAM Memory
p12
V4 GB
p13
sVOperating System
p14
VChrome OS
p15
sVBrand
p16
VDell
p17
sVManufacturer Part Number
p18
VDell-CB1C13-4GB-RCC
p19
sVHard Drive Capacity
p20
V16 GB
p21
sVModel
p22
VCB1C13
p23
sVScreen Size
p24
V11.6\u005c"
p25
ssS'title'
p26
VRefurbished Dell Chromebook 11 CB1C13 11.6" Laptop Intel Celeron 2955U 1.40GHz 4GB 16GB SSD
p27
sb.