ccopy_reg
_reconstructor
p0
(c__main__
ProductRecord
p1
c__builtin__
object
p2
Ntp3
Rp4
(dp5
S'product_url'
p6
S'http://www.walmart.com/ip/New-HP-Chromebook-11-G5-EE-11-6-LCD-Chromebook-Intel-Celeron-N3060-Dual-core-2-Core-1-60-GHz-4-GB-16-GB-Flash-Memory-Chrome-OS-English/842559327'
p7
sS'price'
p8
V$215.00
p9
sS'properties'
p10
(dp11
VRAM Memory
p12
V4 GB
p13
sVOperating System
p14
VChrome OS
p15
sVBrand
p16
VHP
p17
sVProcessor Speed
p18
V1.6 GHz
p19
sVManufacturer Part Number
p20
V1FX82UT#ABA
p21
sVHard Drive Capacity
p22
V16 GB
p23
sVModel
p24
VChrome 11 G5
p25
sVScreen Size
p26
V11.6 in
p27
sVProcessor Type
p28
VIntel Celeron
p29
ssS'title'
p30
VNew HP Chromebook 11 G5 EE 11.6" LCD Chromebook - Intel Celeron N3060 Dual-core (2 Core) 1.60 GHz - 4 GB - 16 GB Flash Memory - Chrome OS (English)
p31
sb.