ccopy_reg
_reconstructor
p0
(c__main__
ProductRecord
p1
c__builtin__
object
p2
Ntp3
Rp4
(dp5
S'product_url'
p6
S'http://www.walmart.com/ip/Refurbished-Acer-NX-GE8AA-003-Chromebook-14-2-3-GHz-8GB-RAM-32GB-SSD/465527788'
p7
sS'price'
p8
V$278.45
p9
sS'properties'
p10
(dp11
VRAM Memory
p12
V8 GB
p13
sVOperating System
p14
VChrome OS
p15
sVFeatures
p16
VNo features description available
p17
sVBrand
p18
VAcer
p19
sVManufacturer Part Number
p20
VNX.GE8AA.003
p21
sVHard Drive Capacity
p22
V32 GB
p23
sVAssembled Product Dimensions (L x W x H)
p24
V13.00 x 8.90 x 0.90 Inches
p25
sVModel
p26
VVIPRB-NX.GE8AA.003
p27
sVScreen Size
p28
V14\u005c"
p29
sVCondition
p30
VRefurbished
p31
ssS'title'
p32
VRefurbished Acer NX.GE8AA.003 Chromebook 14" 2.3 GHz 8GB RAM 32GB SSD
p33
sb.