ccopy_reg
_reconstructor
p0
(c__main__
ProductRecord
p1
c__builtin__
object
p2
Ntp3
Rp4
(dp5
S'product_url'
p6
S'http://www.walmart.com/ip/HP-CHROMEBOOK-14-CA020NR/559231607'
p7
sS'price'
p8
V$264.61
p9
sS'properties'
p10
(dp11
VRAM Memory
p12
V4.00 GB
p13
sVOperating System
p14
VChrome OS
p15
sVBrand
p16
VHP
p17
sVProcessor Speed
p18
V1.10 GHz
p19
sVManufacturer Part Number
p20
V3GY42UA#ABA
p21
sVHard Drive Capacity
p22
V16.00 GB
p23
sVBattery Life
p24
V11.00 h
p25
sVAssembled Product Dimensions (L x W x H)
p26
V13.27 x 8.94 x 0.72 Inches
p27
sVModel
p28
VHP 14-Ca020Nr
p29
sVScreen Size
p30
V14.00 in
p31
sVProcessor Type
p32
VIntel Celeron
p33
ssS'title'
p34
VHP CHROMEBOOK 14-CA020NR
p35
sb.