ccopy_reg
_reconstructor
p0
(c__main__
ProductRecord
p1
c__builtin__
object
p2
Ntp3
Rp4
(dp5
S'product_url'
p6
S'http://www.walmart.com/ip/ASUS-Flip-TP200SA-11-6-inch-2-in-1-Touchscreen-Laptop-N3050-4-64GB-Win-10-New-Open-Box/178743556'
p7
sS'price'
p8
S'N/A'
p9
sS'properties'
p10
(dp11
VOperating System
p12
VMicrosoft Windows
p13
sVBrand
p14
VASUS
p15
sVScreen Size
p16
V11.6\u005c"
p17
ssS'title'
p18
VASUS Flip TP200SA 11.6-inch 2-in-1 Touchscreen Laptop N3050 4/64GB Win 10 - New Open Box
p19
sb.