ccopy_reg
_reconstructor
p0
(c__main__
ProductRecord
p1
c__builtin__
object
p2
Ntp3
Rp4
(dp5
S'product_url'
p6
S'http://www.walmart.com/ip/LENOVO-N21-CHROMEBOOK-LAPTOP-80MG-CELERON-N2840-4-GB-16-GB-SSD-11-6-CHROME-OS-Brand-New/718312882'
p7
sS'price'
p8
V$199.00
p9
sS'properties'
p10
(dp11
VRAM Memory
p12
V4 GB
p13
sVOperating System
p14
VChrome OS
p15
sVBrand
p16
VLenovo
p17
sVHard Drive Capacity
p18
V16 GB
p19
sVProcessor Speed
p20
V2.16 GHz
p21
sVScreen Size
p22
V11.6 in
p23
sVCondition
p24
VNew
p25
ssS'title'
p26
VLENOVO N21 CHROMEBOOK LAPTOP 80MG, CELERON N2840, 4 GB, 16 GB SSD, 11.6, CHROME OS [ Brand New]
p27
sb.