ccopy_reg
_reconstructor
p0
(c__main__
ProductRecord
p1
c__builtin__
object
p2
Ntp3
Rp4
(dp5
S'product_url'
p6
S'http://www.walmart.com/ip/Asus-Chromebook-C301SA-DB04-13-3-Chromebook-Intel-Celeron-Refurbished/261192108'
p7
sS'price'
p8
V$265.49
p9
sS'properties'
p10
(dp11
VRAM Memory
p12
V4 GB
p13
sVOperating System
p14
VChrome OS
p15
sVBrand
p16
VASUS
p17
sVProcessor Speed
p18
V1.6 GHz
p19
sVHard Drive Capacity
p20
V64 GB
p21
sVModel
p22
VC301SA-DB04
p23
sVScreen Size
p24
V13.3 in
p25
sVProcessor Type
p26
VIntel Celeron
p27
sVmanufacturer_part_number
p28
Vc301sa-db04
p29
ssS'title'
p30
VAsus Chromebook C301SA-DB04 13.3" Chromebook - Intel Celeron (Refurbished)
p31
sb.