ccopy_reg
_reconstructor
p0
(c__main__
ProductRecord
p1
c__builtin__
object
p2
Ntp3
Rp4
(dp5
S'product_url'
p6
S'http://www.walmart.com/ip/Refurbished-Lenovo-N23-80YS0003US-Chromebook-PC-Intel-Celeron-N3060-1-6-GHz-Dual-Core-Processor-4-GB-LPDDR3-SDRAM-16-GB-Flash-Memory-11-6-inch-Displa/601792043'
p7
sS'price'
p8
V$169.78
p9
sS'properties'
p10
(dp11
VRAM Memory
p12
V4 GB
p13
sVOperating System
p14
VChrome OS
p15
sVBrand
p16
VLenovo
p17
sVManufacturer Part Number
p18
V80YS0003US
p19
sVModel
p20
V80YS0003USRB
p21
sVScreen Size
p22
V11.6\u005c"
p23
ssS'title'
p24
VRefurbished Lenovo N23 80YS0003US Chromebook PC - Intel Celeron N3060 1.6 GHz Dual-Core Processor - 4 GB LPDDR3 SDRAM - 16 GB Flash Memory - 11.6-inch Display - Chrome OS
p25
sb.