ccopy_reg
_reconstructor
p0
(c__main__
ProductRecord
p1
c__builtin__
object
p2
Ntp3
Rp4
(dp5
S'product_url'
p6
S'http://www.walmart.com/ip/Lenovo-ThinkPad-11e-20HV0000US-11-6-LCD-Netbook/491623206'
p7
sS'price'
p8
V$736.99
p9
sS'properties'
p10
(dp11
VRAM Memory
p12
V8 GB
p13
sVOperating System
p14
VMicrosoft Windows, Windows 10 Pro (English)
p15
sVBrand
p16
VLenovo
p17
sVProcessor Speed
p18
V2.40 GHz
p19
sVManufacturer Part Number
p20
V20HV0000US
p21
sVHard Drive Capacity
p22
V128 GB
p23
sVModel
p24
V20HV0000US
p25
sVScreen Size
p26
V11.6"
p27
sVProcessor Type
p28
VIntel Core i3
p29
sVCondition
p30
VNew
p31
ssS'title'
p32
VLenovo ThinkPad 11e 20HV0000US 11.6" LCD Netbook
p33
sb.