ccopy_reg
_reconstructor
p0
(c__main__
ProductRecord
p1
c__builtin__
object
p2
Ntp3
Rp4
(dp5
S'product_url'
p6
S'http://www.walmart.com/ip/HP-Chromebook-14-ca070nr/381886666'
p7
sS'price'
p8
V$315.71
p9
sS'properties'
p10
(dp11
VRAM Memory
p12
V4.00 GB
p13
sVOperating System
p14
VChrome OS
p15
sVBrand
p16
VHP
p17
sVProcessor Speed
p18
V1.10 GHz
p19
sVManufacturer Part Number
p20
V3GY52UA#ABA
p21
sVHard Drive Capacity
p22
V32.00 GB
p23
sVAssembled Product Dimensions (L x W x H)
p24
V18.00 x 12.00 x 3.00 Inches
p25
sVModel
p26
V3GY52UA#ABA
p27
sVScreen Size
p28
V14.00 in
p29
sVProcessor Type
p30
VIntel Celeron
p31
sVCondition
p32
VNew
p33
ssS'title'
p34
VHP Chromebook 14-ca070nr
p35
sb.