ccopy_reg
_reconstructor
p0
(c__main__
ProductRecord
p1
c__builtin__
object
p2
Ntp3
Rp4
(dp5
S'product_url'
p6
S'http://www.walmart.com/ip/Acer-CP5-471-35T4-Chromebook-Notebooks/367813443'
p7
sS'price'
p8
V$1,875.95
p9
sS'properties'
p10
(dp11
VBrand
p12
VAcer
p13
ssS'title'
p14
V"Acer CP5-471-35T4 Chromebook Notebooks"
p15
sb.