ccopy_reg
_reconstructor
p0
(c__main__
ProductRecord
p1
c__builtin__
object
p2
Ntp3
Rp4
(dp5
S'product_url'
p6
S'http://www.walmart.com/ip/HP-Chromebook-14-G4-14-34-16-9-Chromebook-1366-x-768-Intel-Celeron-N2840-Dual-core-2-Core-2-16-GHz-2-GB-DDR3L-SDRAM-16-GB-SSD-Chrome-OS-English-Intel/186759151'
p7
sS'price'
p8
V$340.54
p9
sS'properties'
p10
(dp11
VRAM Memory
p12
V2 GB
p13
sVOperating System
p14
VChrome OS
p15
sVBrand
p16
VHP INC. - CHROMEBOOKS
p17
sVHard Drive Capacity
p18
V16
p19
sVAssembled Product Dimensions (L x W x H)
p20
V18.50 x 2.75 x 11.50 Inches
p21
sVScreen Size
p22
V14
p23
sVCondition
p24
VNew
p25
ssS'title'
p26
VHP Chromebook 14 G4 14" 16:9 Chromebook - 1366 x 768 - Intel Celeron N2840 Dual-core (2 Core) 2.16 GHz - 2 GB DDR3L SDRAM - 16 GB SSD - Chrome OS (English) - Intel HD Graphics DDR3L SDRAM - B
p27
sb.