ccopy_reg
_reconstructor
p0
(c__main__
ProductRecord
p1
c__builtin__
object
p2
Ntp3
Rp4
(dp5
S'product_url'
p6
S'http://www.walmart.com/ip/Lenovo-N22-CEL-1-point-6-11-point-6TCH-2GB-16GB-CAM-BT-CHRM-80VH0000US-Notebooks/271822258'
p7
sS'price'
p8
V$226.72
p9
sS'properties'
p10
(dp11
VRAM Memory
p12
V2 Gigabytes
p13
sVOperating System
p14
VChrome OS
p15
sVVideo Game Platform
p16
VPC
p17
sVBrand
p18
VLenovo
p19
sVProcessor Speed
p20
V1.6 Gigahertz
p21
sVManufacturer Part Number
p22
V80VH0000US
p23
sVHard Drive Capacity
p24
V16 Gigabytes
p25
sVModel
p26
V80VH0000US
p27
sVScreen Size
p28
V11.60 Inches
p29
sVProcessor Type
p30
VIntel N3060
p31
sVCondition
p32
VNew
p33
ssS'title'
p34
V"Lenovo N22 CEL-1 point 6 11 point 6TCH 2GB 16GB CAM BT CHRM 80VH0000US Notebooks"
p35
sb.