ccopy_reg
_reconstructor
p0
(c__main__
ProductRecord
p1
c__builtin__
object
p2
Ntp3
Rp4
(dp5
S'product_url'
p6
S'http://www.walmart.com/ip/Refurbished-Lenovo-ThinkPad-X131e-11-6-Chromebook-Intel-Dual-Core-1-5GHz-4GB-16GB-SSD/341530854'
p7
sS'price'
p8
V$119.95
p9
sS'properties'
p10
(dp11
VRAM Memory
p12
V4 GB
p13
sVBrand
p14
VLenovo
p15
sVManufacturer Part Number
p16
VLenovo-X131E-RCC
p17
sVHard Drive Capacity
p18
V16 GB
p19
sVModel
p20
VLenovo-X131E
p21
sVScreen Size
p22
V11.6\u005c"
p23
ssS'title'
p24
VRefurbished Lenovo ThinkPad X131e 11.6" Chromebook Intel Dual-Core 1.5GHz 4GB 16GB SSD
p25
sb.