ccopy_reg
_reconstructor
p0
(c__main__
ProductRecord
p1
c__builtin__
object
p2
Ntp3
Rp4
(dp5
S'product_url'
p6
S'http://www.walmart.com/ip/HP-14-Chromebook-14-G4-w-Intel-Celeron-N2840-4GB-RAM-Chrome-OS-Open-Box/900345687'
p7
sS'price'
p8
V$209.99
p9
sS'properties'
p10
(dp11
VOperating System
p12
VChrome OS
p13
sVBrand
p14
VHP
p15
sVRAM Memory
p16
V4 GB
p17
sVScreen Size
p18
V14\u005c"
p19
ssS'title'
p20
VHP 14" Chromebook 14 G4 w/ Intel Celeron N2840, 4GB RAM, & Chrome OS, Open Box
p21
sb.