ccopy_reg
_reconstructor
p0
(c__main__
ProductRecord
p1
c__builtin__
object
p2
Ntp3
Rp4
(dp5
S'product_url'
p6
S'http://www.walmart.com/ip/HP-Chromebook-11-G5-11-6-34-16-9-Chromebook-1366-x-768-Intel-Celeron-N3050-Dual-core-2-Core-1-60-GHz-2-GB-DDR3L-SDRAM-16-GB-Flash-Memory-Capacity-Chr/476874768'
p7
sS'price'
p8
V$254.38
p9
sS'properties'
p10
(dp11
VAssembled Product Dimensions (L x W x H)
p12
V17.50 x 10.25 x 3.00 Inches
p13
sVBrand
p14
VHP INC. - CHROMEBOOKS
p15
sVScreen Size
p16
V11.6
p17
ssS'title'
p18
VHP Chromebook 11 G5 11.6" 16:9 Chromebook - 1366 x 768 - Intel Celeron N3050 Dual-core (2 Core) 1.60 GHz - 2 GB DDR3L SDRAM - 16 GB Flash Memory Capacity - Chrome OS (English) - Intel HD Grap
p19
sb.