ccopy_reg
_reconstructor
p0
(c__main__
ProductRecord
p1
c__builtin__
object
p2
Ntp3
Rp4
(dp5
S'product_url'
p6
S'http://www.walmart.com/ip/PcProfessional-Screen-Protector-Set-of-2-for-Lenovo-Thinkpad-13-Thinkpad-Chromebook-13-Touch-Screen-Laptop-High-Clarity-Anti-Scratch/133170115'
p7
sS'price'
p8
V$14.99
p9
sS'properties'
p10
(dp11
VBrand
p12
VPcProfessional
p13
sVScreen Size
p14
V13
p15
sVCondition
p16
VNew
p17
ssS'title'
p18
VPcProfessional Screen Protector (Set of 2) for Lenovo Thinkpad 13" Thinkpad Chromebook 13" Touch Screen Laptop High Clarity Anti Scratch
p19
sb.