ccopy_reg
_reconstructor
p0
(c__main__
ProductRecord
p1
c__builtin__
object
p2
Ntp3
Rp4
(dp5
S'product_url'
p6
S'http://www.walmart.com/ip/Mightyskins-Protective-Skin-Decal-Cover-for-Acer-C7-Chromebook-with-11-6-screen-wrap-sticker-skins-Wooden-Abstract/118173922'
p7
sS'price'
p8
V$18.99
p9
sS'properties'
p10
(dp11
VColor
p12
VYellow
p13
sVBrand
p14
VMightyskins
p15
sVCompatible Brands
p16
VAcer
p17
sVCondition
p18
VNew
p19
sVManufacturer Part Number
p20
VACC7-Wooden Abstract
p21
ssS'title'
p22
VMightyskins Protective Skin Decal Cover for Acer C7 Chromebook with 11.6" screen wrap sticker skins Wooden Abstract
p23
sb.