ccopy_reg
_reconstructor
p0
(c__main__
ProductRecord
p1
c__builtin__
object
p2
Ntp3
Rp4
(dp5
S'product_url'
p6
S'http://www.walmart.com/ip/Mightyskins-Protective-Vinyl-Skin-Decal-Cover-for-ASUS-Chromebook-13-3-Cover-wrap-sticker-skins-Urban-Night/103054724'
p7
sS'price'
p8
V$18.99
p9
sS'properties'
p10
(dp11
VColor
p12
VBlack
p13
sVBrand
p14
VMightyskins
p15
sVCompatible Brands
p16
VAsus
p17
sVCondition
p18
VNew
p19
sVManufacturer Part Number
p20
VASCH13-Urban Night
p21
ssS'title'
p22
VMightyskins Protective Vinyl Skin Decal Cover for ASUS Chromebook 13.3" Cover wrap sticker skins Urban Night
p23
sb.