ccopy_reg
_reconstructor
p0
(c__main__
ProductRecord
p1
c__builtin__
object
p2
Ntp3
Rp4
(dp5
S'product_url'
p6
S'http://www.walmart.com/ip/CWK-Long-Life-Replacement-Laptop-Notebook-Battery-HP-Pavilion-Chromebook-14-c001sf-Chromebook-14-c001tu-Chromebook-14-c002ea-Chromebook-14-c002sa-Chr/250815368'
p7
sS'price'
p8
V$20.99
p9
sS'properties'
p10
(dp11
VBrand
p12
VCWK
p13
ssS'title'
p14
VCWK Long Life Replacement Laptop Notebook Battery for HP Pavilion Chromebook 14-c001sf Chromebook 14-c001tu Chromebook 14-c002ea Chromebook 14-c002sa Chromebook 14-c002tu Chromebook
p15
sb.