ccopy_reg
_reconstructor
p0
(c__main__
ProductRecord
p1
c__builtin__
object
p2
Ntp3
Rp4
(dp5
S'product_url'
p6
S'http://www.walmart.com/ip/Lenovo-Miix-320-10ICR-10-1-Atom-x5-Z8350-4-GB-RAM-128-GB-SSD/954721100'
p7
sS'price'
p8
S'N/A'
p9
sS'properties'
p10
(dp11
VRAM Memory
p12
V4 Gigabytes
p13
sVOperating System
p14
VWindows 10 Pro (English)
p15
sVFeatures
p16
VMIIX320 W10P Z8350 4GB 128GB 1YR
p17
sVVideo Game Platform
p18
VSee Description
p19
sVBrand
p20
VLenovo
p21
sVProcessor Speed
p22
V1.44 Gigahertz
p23
sVManufacturer Part Number
p24
V80XF00AVUS
p25
sVHard Drive Capacity
p26
V128 Gigabytes
p27
sVAssembled Product Dimensions (L x W x H)
p28
V15.70 x 10.20 x 3.20 Inches
p29
sVModel
p30
V80XF00AVUS
p31
sVScreen Size
p32
V10.10 Inches
p33
sVProcessor Type
p34
VIntel x5-Z8350
p35
sVCondition
p36
VNew
p37
ssS'title'
p38
VLenovo Miix 320-10ICR - 10.1" - Atom x5 Z8350 - 4 GB RAM - 128 GB SSD
p39
sb.