ccopy_reg
_reconstructor
p0
(c__main__
ProductRecord
p1
c__builtin__
object
p2
Ntp3
Rp4
(dp5
S'product_url'
p6
S'http://www.walmart.com/ip/HP-CHROMEBOOK-ACCESSORIES/730924814'
p7
sS'price'
p8
V$91.36
p9
sS'properties'
p10
(dp11
VAssembled Product Dimensions (L x W x H)
p12
V6.75 x 1.10 x 5.50 Inches
p13
sVBrand
p14
VStarTech
p15
sVOperating System
p16
VChrome OS
p17
ssS'title'
p18
VHP CHROMEBOOK ACCESSORIES
p19
sb.