ccopy_reg
_reconstructor
p0
(c__main__
ProductRecord
p1
c__builtin__
object
p2
Ntp3
Rp4
(dp5
S'product_url'
p6
S'http://www.walmart.com/ip/ACER-Refurbished-C720-280-Chromebook-Laptop-CELERON-2955U-1-4-GHZ-2GB-SSD-16GB-11-6W-BLUETOOTH-CHROME-OS-WEBCAM/843882180'
p7
sS'price'
p8
V$101.00
p9
sS'properties'
p10
(dp11
VRAM Memory
p12
V2 GB
p13
sVOperating System
p14
VChrome OS
p15
sVBrand
p16
VACER - CHROMEBOOKS
p17
sVHard Drive Capacity
p18
V16 GB
p19
sVProcessor Type
p20
VIntel Celeron
p21
sVScreen Size
p22
V11.6 in
p23
sVProcessor Speed
p24
V1.4 GHz
p25
ssS'title'
p26
VACER Refurbished C720 - 280 Chromebook Laptop CELERON 2955U, 1.4 GHZ, 2GB, SSD 16GB, 11.6W, BLUETOOTH, CHROME OS, WEBCAM
p27
sb.