ccopy_reg
_reconstructor
p0
(c__main__
ProductRecord
p1
c__builtin__
object
p2
Ntp3
Rp4
(dp5
S'product_url'
p6
S'http://www.walmart.com/ip/Refurbished-Acer-CB3-531-C4A5-15-6-Chromebook-Chrome-Intel-Celeron-N2830-Dual-Core-Processor-2GB-RAM-16GB-Hard-Drive/55206718'
p7
sS'price'
p8
V$149.18
p9
sS'properties'
p10
(dp11
VRAM Memory
p12
V2 GB
p13
sVOperating System
p14
VChrome OS
p15
sVLaptop Computer Type
p16
VChromebooks
p17
sVBrand
p18
VAcer
p19
sVManufacturer Part Number
p20
VCB3-531-C4A5
p21
sVHard Drive Capacity
p22
V16
p23
sVModel
p24
VCB3-531-C4A5
p25
sVScreen Size
p26
V15.6
p27
sVManufacturer
p28
VAcer
p29
ssS'title'
p30
VRefurbished Acer CB3-531-C4A5 15.6" Chromebook, Chrome, Intel Celeron N2830 Dual-Core Processor, 2GB RAM, 16GB Hard Drive
p31
sb.