ccopy_reg
_reconstructor
p0
(c__main__
ProductRecord
p1
c__builtin__
object
p2
Ntp3
Rp4
(dp5
S'product_url'
p6
S'http://www.walmart.com/ip/Refurbished-HP-Chromebook-11-G5-EE-11-6-LCD-Chromebook-Intel-Celeron-N3060-Dual-core-2-Core-1-60-GHz-4-GB-LPDDR3-16-GB-Flash-Memory-Chrome-OS-English/217758779'
p7
sS'price'
p8
V$179.68
p9
sS'properties'
p10
(dp11
sS'title'
p12
VRefurbished HP Chromebook 11 G5 EE 11.6" LCD Chromebook - Intel Celeron N3060 Dual-core (2 Core) 1.60 GHz - 4 GB LPDDR3 - 16 GB Flash Memory - Chrome OS (English) - 1366 x 768 - Intel HD Graphics
p13
sb.