ccopy_reg
_reconstructor
p0
(c__main__
ProductRecord
p1
c__builtin__
object
p2
Ntp3
Rp4
(dp5
S'product_url'
p6
S'http://www.walmart.com/ip/Manufacturer-Refurbished-HP-Chromebook-11T-W3Z78AV-11-6-Intel-Celeron-N3060-1-60GHz-2GB-32GB-Chrome-OS/709870924'
p7
sS'price'
p8
V$199.99
p9
sS'properties'
p10
(dp11
VOperating System
p12
VChrome OS
p13
sVBrand
p14
VHP
p15
sVScreen Size
p16
V11.6\u005c"
p17
sVModel
p18
V11T-RF
p19
sVManufacturer Part Number
p20
V11T-RF
p21
ssS'title'
p22
VManufacturer Refurbished - HP Chromebook 11T W3Z78AV 11.6" Intel Celeron N3060 1.60GHz 2GB 32GB Chrome OS
p23
sb.