ccopy_reg
_reconstructor
p0
(c__main__
ProductRecord
p1
c__builtin__
object
p2
Ntp3
Rp4
(dp5
S'product_url'
p6
S'http://www.walmart.com/ip/Refurbished-Dell-Chromebook-11-11-6-Touchscreen-Chromebook-Intel-Celeron-N2840-Dual-core-2-Core-2-16-GHz-4-GB-DDR3L-SDRAM-16-GB-Flash-Memory-Chrome-O/890698809'
p7
sS'price'
p8
V$202.92
p9
sS'properties'
p10
(dp11
sS'title'
p12
VRefurbished Dell Chromebook 11 11.6" Touchscreen Chromebook - Intel Celeron N2840 Dual-core (2 Core) 2.16 GHz - 4 GB DDR3L SDRAM - 16 GB Flash Memory - Chrome OS - 1366 x 768 - In-plane Switching
p13
sb.