ccopy_reg
_reconstructor
p0
(c__main__
ProductRecord
p1
c__builtin__
object
p2
Ntp3
Rp4
(dp5
S'product_url'
p6
S'http://www.walmart.com/ip/Refurbished-Acer-CB3-532-C42P-15-6-Active-Matrix-TFT-Color-LCD-Chromebook-Intel-Celeron-N3060-Dual-core-2-Core-1-60-GHz-4-GB-LPDDR3-16-GB-Flash-Memor/168002743'
p7
sS'price'
p8
V$203.44
p9
sS'properties'
p10
(dp11
sS'title'
p12
VRefurbished Acer CB3-532-C42P 15.6" Active Matrix TFT Color LCD Chromebook - Intel Celeron N3060 Dual-core (2 Core) 1.60 GHz - 4 GB LPDDR3 - 16 GB Flash Memory - Chrome OS - 1366 x 768 - ComfyView
p13
sb.