ccopy_reg
_reconstructor
p0
(c__main__
ProductRecord
p1
c__builtin__
object
p2
Ntp3
Rp4
(dp5
S'product_url'
p6
S'http://www.walmart.com/ip/Lenovo-Yoga-700-2-in-1-11-6-inch-FHD-1080P-IPS-Touch-Screen-Convertible-Laptop-Intel-Core-m3-6Y30-Light-Silver-Refurbished/283939865'
p7
sS'price'
p8
S'N/A'
p9
sS'properties'
p10
(dp11
VBrand
p12
VLenovo
p13
sVOperating System
p14
VMicrosoft Windows
p15
sVFeatures
p16
VProduct Condition: Refurbished
p17
ssS'title'
p18
VLenovo Yoga 700 2-in-1 11.6 inch FHD 1080P IPS Touch-Screen Convertible Laptop Intel Core m3-6Y30 - Light Silver - Refurbished
p19
sb.