ccopy_reg
_reconstructor
p0
(c__main__
ProductRecord
p1
c__builtin__
object
p2
Ntp3
Rp4
(dp5
S'product_url'
p6
S'http://www.walmart.com/ip/Refurbished-Acer-11-6-Chromebook-11-Intel-Celeron-1-6GHz-4GB-Ram-16GB-Flash-ChromeOS/366303269'
p7
sS'price'
p8
V$205.79
p9
sS'properties'
p10
(dp11
VRAM Memory
p12
V4 GB
p13
sVOperating System
p14
VChrome OS
p15
sVBrand
p16
VAcer
p17
sVManufacturer Part Number
p18
VNX.GN3AA.001
p19
sVModel
p20
VCB311-7H-C5ED
p21
sVScreen Size
p22
V11.6 in
p23
sVProcessor Speed
p24
V1.60 GHz
p25
sVCondition
p26
VNew
p27
ssS'title'
p28
VRefurbished Acer 11.6" Chromebook 11 Intel Celeron 1.6GHz 4GB Ram 16GB Flash ChromeOS
p29
sb.