ccopy_reg
_reconstructor
p0
(c__main__
ProductRecord
p1
c__builtin__
object
p2
Ntp3
Rp4
(dp5
S'product_url'
p6
S'http://www.walmart.com/ip/Lenovo-80ys0000us-N23-80YS0000US-11-6in-Chromebook-Intel-Celeron-N3060-Dual-core-1-6GHz-2GB-LPDDR4-16GB-Flash-Memory-Chrome-OS-Black/901767441'
p7
sS'price'
p8
V$245.25
p9
sS'properties'
p10
(dp11
VRAM Memory
p12
V2 GB
p13
sVOperating System
p14
VChrome OS
p15
sVBrand
p16
VLenovo
p17
sVManufacturer Part Number
p18
V80YS0000US
p19
sVHard Drive Capacity
p20
V16
p21
sVScreen Size
p22
V11.6
p23
ssS'title'
p24
VLenovo 80ys0000us N23 80YS0000US 11.6in Chromebook, Intel Celeron N3060 Dual-core 1.6GHz, 2GB LPDDR4, 16GB Flash Memory, Chrome OS, Black
p25
sb.