ccopy_reg
_reconstructor
p0
(c__main__
ProductRecord
p1
c__builtin__
object
p2
Ntp3
Rp4
(dp5
S'product_url'
p6
S'http://www.walmart.com/ip/Refurbished-HP-X9U02UT-ABA-11-6-Chromebook-11-G5-4GB-RAM-16GB-HDD/665481929'
p7
sS'price'
p8
V$104.95
p9
sS'properties'
p10
(dp11
VRAM Memory
p12
V4 GB
p13
sVOperating System
p14
VChrome OS
p15
sVFeatures
p16
VNo features description available
p17
sVBrand
p18
VHP
p19
sVManufacturer Part Number
p20
VX9U02UT#ABA
p21
sVHard Drive Capacity
p22
V16 GB
p23
sVAssembled Product Dimensions (L x W x H)
p24
V11.30 x 0.50 x 8.10 Inches
p25
sVModel
p26
VVIPRB-X9U02UT#ABA
p27
sVScreen Size
p28
V11.6\u005c"
p29
ssS'title'
p30
VRefurbished HP X9U02UT#ABA 11.6" Chromebook 11 G5 4GB RAM, 16GB HDD
p31
sb.