ccopy_reg
_reconstructor
p0
(c__main__
ProductRecord
p1
c__builtin__
object
p2
Ntp3
Rp4
(dp5
S'product_url'
p6
S'http://www.walmart.com/ip/Acer-C771-C4TM-11-6-LCD-Chromebook-Intel-Celeron-3855U-Refurbished/530167785'
p7
sS'price'
p8
V$252.49
p9
sS'properties'
p10
(dp11
VRAM Memory
p12
V0 GB
p13
sVOperating System
p14
VChrome OS
p15
sVBrand
p16
VAcer
p17
sVHard Drive Capacity
p18
V0 GB
p19
sVModel
p20
VNX.GNZAA.002
p21
sVScreen Size
p22
V0 in
p23
sVProcessor Speed
p24
V0 GHz
p25
sVmanufacturer_part_number
p26
Vc771-c4tm
p27
ssS'title'
p28
VAcer C771-C4TM 11.6" LCD Chromebook - Intel Celeron 3855U (Refurbished)
p29
sb.