ccopy_reg
_reconstructor
p0
(c__main__
ProductRecord
p1
c__builtin__
object
p2
Ntp3
Rp4
(dp5
S'product_url'
p6
S'http://www.walmart.com/ip/Lenovo-N22-80SF0001US-Chromebook-PC-Intel-Celeron-N3050-1-6-GHz-Refurbished/690510563'
p7
sS'price'
p8
V$259.97
p9
sS'properties'
p10
(dp11
VRAM Memory
p12
V0 GB
p13
sVOperating System
p14
VChrome OS
p15
sVBrand
p16
VLenovo
p17
sVHard Drive Capacity
p18
V0 GB
p19
sVModel
p20
V80SF0001US
p21
sVScreen Size
p22
V0 in
p23
sVProcessor Speed
p24
V0 GHz
p25
sVmanufacturer_part_number
p26
V80sf0001us
p27
ssS'title'
p28
VLenovo N22 80SF0001US Chromebook PC - Intel Celeron N3050 1.6 GHz (Refurbished)
p29
sb.