ccopy_reg
_reconstructor
p0
(c__main__
ProductRecord
p1
c__builtin__
object
p2
Ntp3
Rp4
(dp5
S'product_url'
p6
S'http://www.walmart.com/ip/HP-Chromebook-11-G6-Education-Edition-11-6-Chromebook-Laptop-N3350-4GB-32GB/614675888'
p7
sS'price'
p8
V$267.35
p9
sS'properties'
p10
(dp11
VRAM Memory
p12
V4 Gigabytes
p13
sVOperating System
p14
VChrome OS
p15
sVBrand
p16
VHP
p17
sVProcessor Speed
p18
V1.1 Gigahertz
p19
sVManufacturer Part Number
p20
V3NU58UT#ABA
p21
sVHard Drive Capacity
p22
V32 Gigabytes
p23
sVModel
p24
V3NU58UT#ABA
p25
sVScreen Size
p26
V11.60 Inches
p27
sVProcessor Type
p28
VIntel N3350
p29
sVCondition
p30
VNew
p31
ssS'title'
p32
VHP Chromebook 11 G6 Education Edition 11.6" Chromebook Laptop N3350 4GB 32GB
p33
sb.