ccopy_reg
_reconstructor
p0
(c__main__
ProductRecord
p1
c__builtin__
object
p2
Ntp3
Rp4
(dp5
S'product_url'
p6
S'http://www.walmart.com/ip/CHROMEBOOK-11-6IN-IPS-QC1-86-4GB-16GB-SSD-CHROME-O-S-1YR-WARR/937692351'
p7
sS'price'
p8
V$286.50
p9
sS'properties'
p10
(dp11
VAssembled Product Dimensions (L x W x H)
p12
V17.00 x 9.75 x 2.50 Inches
p13
sVBrand
p14
VCTL CORP
p15
sVScreen Size
p16
V11.6
p17
sVHard Drive Capacity
p18
V16
p19
sVCondition
p20
VNew
p21
ssS'title'
p22
VCHROMEBOOK 11.6IN IPS QC1.86 4GB 16GB SSD CHROME O/S 1YR WARR
p23
sb.