ccopy_reg
_reconstructor
p0
(c__main__
ProductRecord
p1
c__builtin__
object
p2
Ntp3
Rp4
(dp5
S'product_url'
p6
S'http://www.walmart.com/ip/Asus-Chromebook-C202SA-YS02-GR-11-6-quot-LCD-Chromebook-C202SA-YS02-GR-11-6-Inch-LCD-Chromebook/149988515'
p7
sS'price'
p8
V$289.95
p9
sS'properties'
p10
(dp11
VBrand
p12
VASUS
p13
ssS'title'
p14
V"Asus Chromebook C202SA-YS02-GR 11.6" LCD Chromebook C202SA-YS02-GR 11.6 Inch LCD Chromebook"
p15
sb.