ccopy_reg
_reconstructor
p0
(c__main__
ProductRecord
p1
c__builtin__
object
p2
Ntp3
Rp4
(dp5
S'product_url'
p6
S'http://www.walmart.com/ip/HP-Chromebook-11-G4-EE-11-6-34-16-9-Chromebook-1366-x-768-Intel-Celeron-N2840-Dual-core-2-Core-2-16-GHz-4-GB-DDR3L-SDRAM-16-GB-Flash-Memory-Capacity-/131929669'
p7
sS'price'
p8
V$291.22
p9
sS'properties'
p10
(dp11
VAssembled Product Dimensions (L x W x H)
p12
V17.20 x 10.20 x 3.00 Inches
p13
sVBrand
p14
VHP INC. - CHROMEBOOKS
p15
sVScreen Size
p16
V11.6
p17
ssS'title'
p18
VHP Chromebook 11 G4 EE 11.6" 16:9 Chromebook - 1366 x 768 - Intel Celeron N2840 Dual-core (2 Core) 2.16 GHz - 4 GB DDR3L SDRAM - 16 GB Flash Memory Capacity - Chrome OS (English) - Intel HD G
p19
sb.