ccopy_reg
_reconstructor
p0
(c__main__
ProductRecord
p1
c__builtin__
object
p2
Ntp3
Rp4
(dp5
S'product_url'
p6
S'http://www.walmart.com/ip/Refurbished-Asus-Chromebook-C301SA-DB04-13-3-Chromebook-Intel-Celeron-N3160-Quad-core-4-Core-1-60-GHz-4-GB-LPDDR3-64-GB-Flash-Memory-Chrome-OS-1920-x/976754315'
p7
sS'price'
p8
V$293.01
p9
sS'properties'
p10
(dp11
sS'title'
p12
VRefurbished Asus Chromebook C301SA-DB04 13.3" Chromebook - Intel Celeron N3160 Quad-core (4 Core) 1.60 GHz - 4 GB LPDDR3 - 64 GB Flash Memory - Chrome OS - 1920 x 1080 - Metal - Intel HD Graphics
p13
sb.