ccopy_reg
_reconstructor
p0
(c__main__
ProductRecord
p1
c__builtin__
object
p2
Ntp3
Rp4
(dp5
S'product_url'
p6
S'http://www.walmart.com/ip/ASUS-C300SA-13-3-Chromebook-Chrome-Intel-Celeron-N3060-Processor-4GB-RAM-32GB-eMMC-Drive/54772693'
p7
sS'price'
p8
V$288.51
p9
sS'properties'
p10
(dp11
VRAM Memory
p12
V4 GB
p13
sVOperating System
p14
VChrome
p15
sVColor Category
p16
VBlack
p17
sVLaptop Computer Type
p18
VChromebooks
p19
sVBrand
p20
VASUS
p21
sVManufacturer Part Number
p22
VC300SA-WH04
p23
sVHard Drive Capacity
p24
V32 GB
p25
sVProcessor Type
p26
VIntel Celeron
p27
sVScreen Size
p28
V13.3"
p29
sVModel
p30
VC300SA-WH04
p31
sVCondition
p32
VNew
p33
sVManufacturer
p34
VAsus
p35
ssS'title'
p36
VASUS C300SA 13.3" Chromebook, Chrome, Intel Celeron N3060 Processor, 4GB RAM, 32GB eMMC Drive
p37
sb.