ccopy_reg
_reconstructor
p0
(c__main__
ProductRecord
p1
c__builtin__
object
p2
Ntp3
Rp4
(dp5
S'product_url'
p6
S'http://www.walmart.com/ip/Lenovo-Thinkpad-11E-Chromebook-N2930-4GB-Touch-Motherboard-00HW155/563984320'
p7
sS'price'
p8
V$299.95
p9
sS'properties'
p10
(dp11
VBrand
p12
VLenovo
p13
sVCondition
p14
VNew
p15
ssS'title'
p16
VLenovo Thinkpad 11E Chromebook N2930 4GB Touch Motherboard 00HW155
p17
sb.