ccopy_reg
_reconstructor
p0
(c__main__
ProductRecord
p1
c__builtin__
object
p2
Ntp3
Rp4
(dp5
S'product_url'
p6
S'http://www.walmart.com/ip/Acer-Chromebook-11-C732-c6wu-11-6-Lcd-Chromebook-Intel-Celeron-N3350-Dual-core-2-Core-1-10-Ghz-4-Gb-Lpddr4-32-Gb-Flash-Memory-Chrome-Os-1366-X-768-Co/883230712'
p7
sS'price'
p8
V$302.66
p9
sS'properties'
p10
(dp11
VRAM Memory
p12
V4 Gigabytes
p13
sVOperating System
p14
VChrome OS
p15
sVBrand
p16
VAcer
p17
sVProcessor Speed
p18
V1.1 Gigahertz
p19
sVManufacturer Part Number
p20
VNX.GUKAA.001
p21
sVHard Drive Capacity
p22
V32 Gigabytes
p23
sVBattery Life
p24
V12 Hours
p25
sVModel
p26
VNX.GUKAA.001
p27
sVScreen Size
p28
V11.60 Inches
p29
sVProcessor Type
p30
VIntel N3350
p31
ssS'title'
p32
VAcer Chromebook 11 C732-c6wu 11.6" Lcd Chromebook - Intel Celeron N3350 Dual-core [2 Core] 1.10 Ghz - 4 Gb Lpddr4 - 32 Gb Flash Memory - Chrome Os - 1366 X 768 - Comfyview - Obsidian (nx-gukaa-001)
p33
sb.