ccopy_reg
_reconstructor
p0
(c__main__
ProductRecord
p1
c__builtin__
object
p2
Ntp3
Rp4
(dp5
S'product_url'
p6
S'http://www.walmart.com/ip/Lenovo-Chromebook-N42-20-80US0000US-With-Combo-Pack-Chromebook-N42-20/590504154'
p7
sS'price'
p8
V$305.95
p9
sS'properties'
p10
(dp11
VBrand
p12
VLenovo
p13
sVmanufacturer_part_number
p14
V80us0000us
p15
ssS'title'
p16
V"Lenovo Chromebook N42-20 80US0000US With Combo Pack Chromebook N42-20"
p17
sb.