ccopy_reg
_reconstructor
p0
(c__main__
ProductRecord
p1
c__builtin__
object
p2
Ntp3
Rp4
(dp5
S'product_url'
p6
S'http://www.walmart.com/ip/Dell-Chromebook-11-3380-Intel-Celeron-3855U-X2-1-6GHz-4GB-16GB-Black-Certified-Refurbished/119073019'
p7
sS'price'
p8
V$308.63
p9
sS'properties'
p10
(dp11
VRAM Memory
p12
V4 Gigabytes
p13
sVOperating System
p14
VChrome OS
p15
sVFeatures
p16
V4-cell Lithium-Ion Battery, Chrome OS Operating System, 4GB DDR3 System Memory, 1MP Webcam and Integrated Microphone, 0.91" x 13.11" x 9.13" (HxWxD); 3.5lbs, 13.3-inch (1366 x 768) LCD Display, This Certified Refurbished product is tested and certified to look and work like new. The refurbishing process includes functionality testing, basic cleaning, inspection, and repackaging. The product ships with all relevant accessories, a minimum 90-day warranty, and may arrive in a generic box., 2 x USB 3.0, 1 x HDMI, Standard Keyboard and Touchpad, 16GB eMMC, No Ethernet, 802.11AC and Bluetooth 4.0 + HS, Intel Celeron 3855U Processor (Dual-Core, 1.6GHz, 2MB Cache), Energy Star Compliant, Integrated Intel HD Graphics
p17
sVBrand
p18
VDell
p19
sVManufacturer Part Number
p20
V1508420463-RFB
p21
sVMaximum RAM Supported
p22
V4 Gigabytes
p23
sVHard Drive Capacity
p24
V16 Gigabytes
p25
sVBattery Life
p26
V10 Hours
p27
sVAssembled Product Dimensions (L x W x H)
p28
V13.10 x 9.10 x 0.90 Inches
p29
sVProcessor Type
p30
VIntel Celeron
p31
sVScreen Size
p32
V13.3 Inches
p33
sVProcessor Speed
p34
V1.6 Gigahertz
p35
ssS'title'
p36
VDell Chromebook 11 - 3380 Intel Celeron 3855U X2 1.6GHz 4GB 16GB, Black (Certified Refurbished)
p37
sb.