ccopy_reg
_reconstructor
p0
(c__main__
ProductRecord
p1
c__builtin__
object
p2
Ntp3
Rp4
(dp5
S'product_url'
p6
S'http://www.walmart.com/ip/Refurbished-Lenovo-ThinkPad-11e-20HY0000US-11-6-Touchscreen-LCD-Chromebook-Intel-Celeron-N3450-Quad-core-4-Core-1-10-GHz-4-GB-LPDDR4-32-GB-Flash-Memo/781771315'
p7
sS'price'
p8
V$339.54
p9
sS'properties'
p10
(dp11
sS'title'
p12
VRefurbished Lenovo ThinkPad 11e 20HY0000US 11.6" Touchscreen LCD Chromebook - Intel Celeron N3450 Quad-core (4 Core) 1.10 GHz - 4 GB LPDDR4 - 32 GB Flash Memory - Chrome OS - 1366 x 768 - In-plane
p13
sb.