ccopy_reg
_reconstructor
p0
(c__main__
ProductRecord
p1
c__builtin__
object
p2
Ntp3
Rp4
(dp5
S'product_url'
p6
S'http://www.walmart.com/ip/Acer-Chromebook-R-11-C738T-C8Q2-11-6-Celeron-N3060-4-GB-RAM-16-GB-SSD-US/512192220'
p7
sS'price'
p8
V$345.18
p9
sS'properties'
p10
(dp11
VRAM Memory
p12
V4 Gigabytes
p13
sVOperating System
p14
VChrome OS
p15
sVFeatures
p16
V11.6"T CN3060 4G 16GB Chrome
p17
sVBrand
p18
VAcer
p19
sVProcessor Speed
p20
V1.6 Gigahertz
p21
sVManufacturer Part Number
p22
VNX.G55AA.011
p23
sVHard Drive Capacity
p24
V16 Gigabytes
p25
sVBattery Life
p26
V0 h
p27
sVAssembled Product Dimensions (L x W x H)
p28
V5.00 x 5.00 x 5.00 Inches
p29
sVModel
p30
VNX.G55AA.011
p31
sVScreen Size
p32
V11.60 Inches
p33
sVProcessor Type
p34
VIntel N3060
p35
sVCondition
p36
VNew
p37
ssS'title'
p38
VAcer Chromebook R 11 C738T-C8Q2 - 11.6" - Celeron N3060 - 4 GB RAM - 16 GB SSD - US
p39
sb.