ccopy_reg
_reconstructor
p0
(c__main__
ProductRecord
p1
c__builtin__
object
p2
Ntp3
Rp4
(dp5
S'product_url'
p6
S'http://www.walmart.com/ip/Chrom-11-6-N3060-16g-4g-Gry-3c/159012178'
p7
sS'price'
p8
V$404.18
p9
sS'properties'
p10
(dp11
VBrand
p12
VHP
p13
sVCondition
p14
VNew
p15
ssS'title'
p16
VChrom 11.6 N3060 16g 4g Gry 3c
p17
sb.