ccopy_reg
_reconstructor
p0
(c__main__
ProductRecord
p1
c__builtin__
object
p2
Ntp3
Rp4
(dp5
S'product_url'
p6
S'http://www.walmart.com/ip/Acer-Chromebook-C738T-C5R6-11-6-Celeron-N3150-4-Gb-Ram-32-Gb-Ssd/771347950'
p7
sS'price'
p8
V$419.99
p9
sS'properties'
p10
(dp11
VRAM Memory
p12
V4 GB
p13
sVOperating System
p14
VChrome OS
p15
sVBrand
p16
VACER CHROME
p17
sVHard Drive Capacity
p18
V32 GB
p19
sVScreen Size
p20
V11.6\u005c"
p21
sVCondition
p22
VNew
p23
sVmanufacturer_part_number
p24
VC738T-C5R6
p25
ssS'title'
p26
VAcer Chromebook C738T-C5R6 - 11.6" - Celeron N3150 - 4 Gb Ram - 32 Gb Ssd
p27
sb.