ccopy_reg
_reconstructor
p0
(c__main__
ProductRecord
p1
c__builtin__
object
p2
Ntp3
Rp4
(dp5
S'product_url'
p6
S'http://www.walmart.com/ip/Acer-CB3-431-C6ZB-14-34-16-9-Chromebook-1920-x-1080-In-plane-Switching-IPS-Technology-Intel-Celeron-N3160-Quad-core-4-Core-1-60-GHz-4-GB-LPDDR3-32-GB/624466254'
p7
sS'price'
p8
V$491.21
p9
sS'properties'
p10
(dp11
VAssembled Product Dimensions (L x W x H)
p12
V17.70 x 11.10 x 2.00 Inches
p13
sVBrand
p14
VACER- CHROME PRODUCTS
p15
sVScreen Size
p16
V14
p17
sVmanufacturer_part_number
p18
Vcb3-431-c6zb
p19
ssS'title'
p20
VAcer CB3-431-C6ZB 14" 16:9 Chromebook - 1920 x 1080 - In-plane Switching (IPS) Technology - Intel Celeron N3160 Quad-core (4 Core) 1.60 GHz - 4 GB LPDDR3 - 32 GB Flash Memory Capacity - Chrom
p21
sb.