ccopy_reg
_reconstructor
p0
(c__main__
ProductRecord
p1
c__builtin__
object
p2
Ntp3
Rp4
(dp5
S'product_url'
p6
S'http://www.walmart.com/ip/15-6-I3-5005u-4GB-32GB-Chrome/101645902'
p7
sS'price'
p8
V$629.33
p9
sS'properties'
p10
(dp11
VBrand
p12
VAcer
p13
sVScreen Size
p14
V15.6
p15
sVCondition
p16
VNew
p17
ssS'title'
p18
V15.6" I3 5005u 4GB 32GB Chrome
p19
sb.