ccopy_reg
_reconstructor
p0
(c__main__
ProductRecord
p1
c__builtin__
object
p2
Ntp3
Rp4
(dp5
S'product_url'
p6
S'http://www.walmart.com/ip/Hp-Chromebook-13-G1-13-3-brightview-In-plane-Switching-ips-Technology-Chromebook-Intel-Core-M-6th-Gen-M3-6y30-Dual-core-2-Core-900-Mhz-4-Gb-Lpddr3-Ra/52084676'
p7
sS'price'
p8
V$661.33
p9
sS'properties'
p10
(dp11
VRAM Memory
p12
V4 GB
p13
sVOperating System
p14
VChrome OS
p15
sVBrand
p16
VHP
p17
sVProcessor Speed
p18
V900 MHz
p19
sVManufacturer Part Number
p20
VW0T00UT#ABA
p21
sVModel
p22
VW0T00UT#ABA
p23
sVScreen Size
p24
V13.3"
p25
sVProcessor Type
p26
VCore M
p27
sVCondition
p28
VNew
p29
ssS'title'
p30
VHp Chromebook 13 G1 13.3" [brightview, In-plane Switching [ips] Technology] Chromebook - Intel Core M [6th Gen] M3-6y30 Dual-core [2 Core] 900 Mhz - 4 Gb Lpddr3 Ram - 32 Gb Flash Memory (w0t00ut-aba)
p31
sb.