ccopy_reg
_reconstructor
p0
(c__main__
ProductRecord
p1
c__builtin__
object
p2
Ntp3
Rp4
(dp5
S'product_url'
p6
S'http://www.walmart.com/ip/Refurbished-HP-Pavilion-x360-Convertible-13-s161nr-13-4-GB-RAM-Touch-Screen-2-in-1-Windows-10-Notebook/117786922'
p7
sS'price'
p8
S'N/A'
p9
sS'properties'
p10
(dp11
VBrand
p12
VHP
p13
ssS'title'
p14
VRefurbished HP Pavilion x360 Convertible 13-s161nr, 13, 4 GB RAM,Touch Screen, 2-in-1, Windows 10 Notebook
p15
sb.