ccopy_reg
_reconstructor
p0
(c__main__
ProductRecord
p1
c__builtin__
object
p2
Ntp3
Rp4
(dp5
S'product_url'
p6
S'http://www.walmart.com/ip/15-6-I5-5200u-4GB-32GB-Win8/176812814'
p7
sS'price'
p8
V$730.57
p9
sS'properties'
p10
(dp11
VOperating System
p12
VMicrosoft Windows
p13
sVBrand
p14
VAcer
p15
sVScreen Size
p16
V15.6
p17
sVCondition
p18
VNew
p19
ssS'title'
p20
V15.6" I5 5200u 4GB 32GB Win8
p21
sb.