ccopy_reg
_reconstructor
p0
(c__main__
ProductRecord
p1
c__builtin__
object
p2
Ntp3
Rp4
(dp5
S'product_url'
p6
S'http://www.walmart.com/ip/Acer-C910-54M1-15-6-34-16-9-Chromebook-1920-x-1080-ComfyView-Intel-Core-i5-i5-5200U-Dual-core-2-Core-2-20-GHz-4-GB-DDR3L-SDRAM-32-GB-SSD-Chrome-OS-64/171319753'
p7
sS'price'
p8
V$747.52
p9
sS'properties'
p10
(dp11
VAssembled Product Dimensions (L x W x H)
p12
V19.40 x 12.00 x 2.70 Inches
p13
sVBrand
p14
VACER- CHROME PRODUCTS
p15
sVHard Drive Capacity
p16
V32
p17
sVScreen Size
p18
V15.6
p19
sVCondition
p20
VNew
p21
sVmanufacturer_part_number
p22
Vc910-54m1
p23
ssS'title'
p24
VAcer C910-54M1 15.6" 16:9 Chromebook - 1920 x 1080 - ComfyView - Intel Core i5 i5-5200U Dual-core (2 Core) 2.20 GHz - 4 GB DDR3L SDRAM - 32 GB SSD - Chrome OS 64-bit - Black - Intel HD 5500 -
p25
sb.