ccopy_reg
_reconstructor
p0
(c__main__
ProductRecord
p1
c__builtin__
object
p2
Ntp3
Rp4
(dp5
S'product_url'
p6
S'http://www.walmart.com/ip/NEW-LocknCharge-LNC-10008-Carrier-30-Cart-Charge-Only-Charging-iPad-Laptop-Chromebook-School/488288873'
p7
sS'price'
p8
V$1,499.95
p9
sS'properties'
p10
(dp11
VBrand
p12
VLockNCharge
p13
sVmanufacturer_part_number
p14
Vlnc-10008
p15
ssS'title'
p16
VNEW LocknCharge LNC-10008 Carrier 30 Cart Charge Only Charging iPad Laptop Chromebook School
p17
sb.