ccopy_reg
_reconstructor
p0
(c__main__
ProductRecord
p1
c__builtin__
object
p2
Ntp3
Rp4
(dp5
S'product_url'
p6
S'http://www.walmart.com/ip/Acer-CB3-532-C47C-15-6-Chromebook-Chrome-OS-Intel-Celeron-N3060-Dual-Core-Processor-2GB-RAM-16GB-Internal-Storage/54518466'
p7
sS'price'
p8
V$199.00
p9
sS'properties'
p10
(dp11
VRAM Memory
p12
V2 GB
p13
sVOperating System
p14
VChrome OS
p15
sVFeatures
p16
VAcer Chromebook CB3-532-C47C3-cell batteryPower adapter
p17
sVBrand
p18
VAcer
p19
sVProcessor Speed
p20
V1.6 GHz
p21
sVManufacturer Part Number
p22
Vcb3-532-c47c
p23
sVMaximum RAM Supported
p24
V2 GB
p25
sVHard Drive Capacity
p26
V16 GB
p27
sVBattery Life
p28
V12 h
p29
sVAssembled Product Dimensions (L x W x H)
p30
V15.08 x 10.08 x 0.95 Inches
p31
sVModel
p32
VCB3-532-C47C
p33
sVScreen Size
p34
V15.6 in
p35
sVProcessor Type
p36
VIntel Celeron
p37
ssS'title'
p38
VAcer CB3-532-C47C 15.6" Chromebook, Chrome OS, Intel Celeron N3060 Dual-Core Processor, 2GB RAM, 16GB Internal Storage
p39
sb.