ccopy_reg
_reconstructor
p0
(c__main__
ProductRecord
p1
c__builtin__
object
p2
Ntp3
Rp4
(dp5
S'product_url'
p6
S'http://www.walmart.com/ip/Acer-Spin-11-11-6-Touchscreen-2-in-1-Chromebook-Celeron-N3350-4GB-32GB-eMMC/539177212'
p7
sS'price'
p8
S'N/A'
p9
sS'properties'
p10
(dp11
VRAM Memory
p12
V4 Gigabytes
p13
sVOperating System
p14
VChrome OS
p15
sVBrand
p16
VAcer
p17
sVProcessor Speed
p18
V1.1 Gigahertz
p19
sVManufacturer Part Number
p20
VNX.GPZAA.001
p21
sVHard Drive Capacity
p22
V32 Gigabytes
p23
sVBattery Life
p24
V10 Hours
p25
sVModel
p26
VNX.GPZAA.001
p27
sVScreen Size
p28
V11.60 Inches
p29
sVProcessor Type
p30
VIntel N3350
p31
sVCondition
p32
VNew
p33
ssS'title'
p34
VAcer Spin 11 11.6" Touchscreen 2-in-1 Chromebook Celeron N3350 4GB 32GB eMMC
p35
sb.