ccopy_reg
_reconstructor
p0
(c__main__
ProductRecord
p1
c__builtin__
object
p2
Ntp3
Rp4
(dp5
S'product_url'
p6
S'http://www.walmart.com/ip/Acer-Granite-Gray-15-6-CB3-531-C4A5-Chromebook-PC-with-Intel-Celeron-N2830-Dual-Core-Processor-2GB-Memory-16GB-Hard-Drive-and-Chrome-OS/45622188'
p7
sS'price'
p8
V$248.68
p9
sS'properties'
p10
(dp11
VRAM Memory
p12
V2 GB
p13
sVOperating System
p14
VChrome OS
p15
sVColor Category
p16
VGray
p17
sVVideo Game Platform
p18
VPC
p19
sVBrand
p20
VAcer
p21
sVManufacturer Part Number
p22
VNX.G15AA.001
p23
sVWireless Technology
p24
VBluetooth 4.0
p25
sVLaptop Computer Type
p26
VChromebooks
p27
sVProcessor Core Type
p28
VDual-core (2 Core)
p29
sVProcessor Type
p30
VIntel Celeron
p31
sVScreen Size
p32
V15.6 in
p33
sVModel
p34
VCB3-531-C4A5
p35
sVCondition
p36
VNew
p37
sVManufacturer
p38
VAcer
p39
ssS'title'
p40
VAcer Granite Gray 15.6" CB3-531-C4A5 Chromebook PC with Intel Celeron N2830 Dual-Core Processor, 2GB Memory, 16GB Hard Drive and Chrome OS
p41
sb.