ccopy_reg
_reconstructor
p0
(c__main__
ProductRecord
p1
c__builtin__
object
p2
Ntp3
Rp4
(dp5
S'product_url'
p6
S'http://www.walmart.com/ip/HP-Chromebook-14-with-Intel-Processor-4-GB-Memory-16-GB-SSD-Chrome-OS-and-Included-4-g-Mobile-Internet-Service-200MB-month-Peach-Choral/28858405'
p7
sS'price'
p8
V$299.99
p9
sS'properties'
p10
(dp11
VRAM Memory
p12
V4 GB
p13
sVOperating System
p14
VChrome OS
p15
sVFeatures
p16
VEPEAT, HP TrueVision HD webcam
p17
sVVideo Game Platform
p18
VPC
p19
sVBrand
p20
VHP
p21
sVProcessor Speed
p22
V1.50 GHz
p23
sVManufacturer Part Number
p24
VF0H08UA#ABA
p25
sVMaximum RAM Supported
p26
V4
p27
sVHard Drive Capacity
p28
V16 GB
p29
sVAssembled Product Dimensions (L x W x H)
p30
V9.44 x 13.56 x 0.81 Inches
p31
sVModel
p32
V14-q049WM
p33
sVScreen Size
p34
V14.0"
p35
sVProcessor Type
p36
VIntel Celeron
p37
ssS'title'
p38
VHP Chromebook 14" with Intel Processor, 4 GB Memory, 16 GB SSD, Chrome OS and Included 4 g Mobile Internet Service (200MB/month), Peach Choral
p39
sb.