ccopy_reg
_reconstructor
p0
(c__main__
ProductRecord
p1
c__builtin__
object
p2
Ntp3
Rp4
(dp5
S'product_url'
p6
S'http://www.walmart.com/ip/HP-14-14-X010WM-Chromebook-PC-with-NVIDIA-Tegra-K1-Mobile-Processor-2GB-Memory-16GB-eMMC-and-Chrome-OS-Available-in-two-colors/39073482'
p7
sS'price'
p8
V$312.14
p9
sS'properties'
p10
(dp11
VRAM Memory
p12
V2 GB
p13
sVOperating System
p14
VChrome OS
p15
sVFeatures
p16
VEPEAT
p17
sVVideo Game Platform
p18
VPC
p19
sVBrand
p20
VHP
p21
sVProcessor Speed
p22
V2.30 GHz
p23
sVManufacturer Part Number
p24
VJ9M90UA#ABA
p25
sVHard Drive Capacity
p26
V16 GB
p27
sVAssembled Product Dimensions (L x W x H)
p28
V9.45 x 13.54 x 0.70 Inches
p29
sVModel
p30
V14-x010wm
p31
sVScreen Size
p32
V14.0"
p33
sVProcessor Type
p34
VNvidia Tegra
p35
sVCondition
p36
VNew
p37
ssS'title'
p38
VHP 14" 14-X010WM Chromebook PC with NVIDIA Tegra K1 Mobile Processor, 2GB Memory, 16GB eMMC and Chrome OS (Available in two colors)
p39
sb.