ccopy_reg
_reconstructor
p0
(c__main__
ProductRecord
p1
c__builtin__
object
p2
Ntp3
Rp4
(dp5
S'product_url'
p6
S'http://www.walmart.com/ip/HP-Stream-14-ax030wm-14-Smoke-Gray-Windows-10-Home-Office-365-Personal-1-year-included-Intel-Celeron-Processor-N3060-4GB-Memory-32GB-Storage/441405265'
p7
sS'price'
p8
V$219.00
p9
sS'properties'
p10
(dp11
VRAM Memory
p12
V4 KB
p13
sVOperating System
p14
VWindows 10
p15
sVColor Category
p16
VGray
p17
sVLaptop Computer Type
p18
VPC Laptops
p19
sVBrand
p20
VHP
p21
sVManufacturer Part Number
p22
VX7S51UA#ABA
p23
sVHard Drive Capacity
p24
V32 KB
p25
sVProcessor Type
p26
VIntel?? Celeron?? Processor N3060
p27
sVScreen Size
p28
V14 in
p29
sVModel
p30
V14-AX030WM
p31
sVManufacturer
p32
VHP
p33
ssS'title'
p34
VHP Stream 14-ax030wm 14\u201d Smoke Gray, Windows 10 Home, Office 365 Personal 1-year included, Intel Celeron Processor N3060, 4GB Memory, 32GB Storage
p35
sb.