ccopy_reg
_reconstructor
p0
(c__main__
ProductRecord
p1
c__builtin__
object
p2
Ntp3
Rp4
(dp5
S'product_url'
p6
S'http://www.walmart.com/ip/Dell-Inspiron-2-in-1-11-6-Touch-Screen-Laptop-Intel-Pentium-4GB-Memory-500GB-HD-Red/52443743'
p7
sS'price'
p8
S'N/A'
p9
sS'properties'
p10
(dp11
VRAM Memory
p12
V4 KB
p13
sVOperating System
p14
VWindows 10
p15
sVVideo Game Platform
p16
VPC
p17
sVBrand
p18
VDell
p19
sVProcessor Speed
p20
V1.6 Hz
p21
sVManufacturer Part Number
p22
Vi3168-3270RED
p23
sVHard Drive Capacity
p24
V500 KB
p25
sVAssembled Product Dimensions (L x W x H)
p26
V16.00 x 10.20 x 3.00 Inches
p27
sVModel
p28
Vi3168-3270RED
p29
sVScreen Size
p30
V11.6"
p31
sVProcessor Type
p32
VIntel Pentium
p33
sVCondition
p34
VNew
p35
ssS'title'
p36
VDell - Inspiron 2-in-1 11.6" Touch-Screen Laptop - Intel Pentium - 4GB Memory - 500GB HD - Red
p37
sb.