ccopy_reg
_reconstructor
p0
(c__main__
ProductRecord
p1
c__builtin__
object
p2
Ntp3
Rp4
(dp5
S'product_url'
p6
S'http://www.walmart.com/ip/ASUS-Transformer-Book-T100-Chi-10-1-inch-Full-HD-Corning-Concore-Glass-Touchscreen-Detachable-2-in-1-Laptop-Intel-Quad-core-Processor-128-GB-Storage-/465041840'
p7
sS'price'
p8
S'N/A'
p9
sS'properties'
p10
(dp11
VRAM Memory
p12
V4 GB
p13
sVOperating System
p14
VMicrosoft Windows
p15
sVColor Category
p16
VBlack
p17
sVVideo Game Platform
p18
V.
p19
sVBrand
p20
VASUS
p21
sVManufacturer Part Number
p22
VT100CHI-I4-BK
p23
sVLaptop Computer Type
p24
VTouchscreen
p25
sVModel
p26
VT100CHI-I4-BK
p27
sVCondition
p28
VNew
p29
sVManufacturer
p30
VOther
p31
ssS'title'
p32
VASUS Transformer Book T100 Chi 10.1 inch Full HD Corning Concore Glass Touchscreen Detachable 2-in-1 Laptop, Intel Quad core Processor 128 GB Storage, 4GB Ram, Windows 10 - keyboard included
p33
sb.