ccopy_reg
_reconstructor
p0
(c__main__
ProductRecord
p1
c__builtin__
object
p2
Ntp3
Rp4
(dp5
S'product_url'
p6
S'http://www.walmart.com/ip/Refurbished-HP-Pavilion-X2-10-1-inch-Detachable-2-in-1-Laptop-32GB/166135738'
p7
sS'price'
p8
S'N/A'
p9
sS'properties'
p10
(dp11
VLaptop Computer Type
p12
VPC Laptops
p13
sVBrand
p14
VHP
p15
sVOperating System
p16
VMicrosoft Windows
p17
sVCondition
p18
VRefurbished
p19
ssS'title'
p20
VRefurbished HP Pavilion X2 10.1-inch Detachable 2 in 1 Laptop (32GB)
p21
sb.