ccopy_reg
_reconstructor
p0
(c__main__
ProductRecord
p1
c__builtin__
object
p2
Ntp3
Rp4
(dp5
S'product_url'
p6
S'http://www.walmart.com/ip/HP-Black-15-6-15-f233wm-Laptop-PC-with-Intel-Celeron-N3050-Processor-4GB-Memory-500GB-Hard-Drive-and-Windows-10-Home/46429969'
p7
sS'price'
p8
V$279.00
p9
sS'properties'
p10
(dp11
VRAM Memory
p12
V4 GB
p13
sVOperating System
p14
VWindows 10
p15
sVColor Category
p16
VBlack
p17
sVVideo Game Platform
p18
VPC
p19
sVBrand
p20
VHP
p21
sVManufacturer Part Number
p22
VL0T33UA#ABA
p23
sVWireless Technology
p24
VFast Ethernet
p25
sVLaptop Computer Type
p26
Vnotebook
p27
sVProcessor Type
p28
VIntel Celeron
p29
sVScreen Size
p30
V15.6 in
p31
sVModel
p32
V15-f233wm
p33
sVCondition
p34
VNew
p35
sVManufacturer
p36
VHewlett Packard
p37
ssS'title'
p38
VHP Black 15.6" 15-f233wm Laptop PC with Intel Celeron N3050 Processor, 4GB Memory, 500GB Hard Drive and Windows 10 Home
p39
sb.