ccopy_reg
_reconstructor
p0
(c__main__
ProductRecord
p1
c__builtin__
object
p2
Ntp3
Rp4
(dp5
S'product_url'
p6
S'http://www.walmart.com/ip/HP-15-bw011wm-15-6-Soft-Gold-Laptop-Windows-10-AMD-A9-9420-Processor-4GB-Memory-500GB-Hard-Drive-DVD/56153454'
p7
sS'price'
p8
V$299.00
p9
sS'properties'
p10
(dp11
VRAM Memory
p12
V4 KB
p13
sVOperating System
p14
VWindows 10
p15
sVBrand
p16
VHP
p17
sVProcessor Speed
p18
V3 Hz
p19
sVMaximum RAM Supported
p20
V4 KB
p21
sVHard Drive Capacity
p22
V500 GB
p23
sVBattery Life
p24
V6.75 h
p25
sVAssembled Product Dimensions (L x W x H)
p26
V14.96 x 9.99 x 0.94 Inches
p27
sVModel
p28
V15-bw011wm
p29
sVScreen Size
p30
V15.6
p31
sVProcessor Type
p32
V7th Generation AMD A9-9420 APU
p33
sVmanufacturer_part_number
p34
V15-bw011wm
p35
ssS'title'
p36
VHP 15-bw011wm 15.6" Soft Gold Laptop, Windows 10, AMD A9-9420 Processor, 4GB Memory, 500GB Hard Drive, DVD
p37
sb.