ccopy_reg
_reconstructor
p0
(c__main__
ProductRecord
p1
c__builtin__
object
p2
Ntp3
Rp4
(dp5
S'product_url'
p6
S'http://www.walmart.com/ip/Refurbished-Dell-i7348-3571SLV-Inspiron-13-7000-Series-13-Inch-2-in-1-Convertible-Touchscreen-Laptop-Intel-Core-i3-5010U-Processor-4GB-R/973312498'
p7
sS'price'
p8
S'N/A'
p9
sS'properties'
p10
(dp11
VBrand
p12
VDell
p13
sVScreen Size
p14
V13
p15
sVmanufacturer_part_number
p16
Vi7348-3571slv
p17
ssS'title'
p18
VRefurbished Dell  i7348-3571SLV  Inspiron 13 7000 Series 13-Inch 2-in-1 Convertible Touchscreen Laptop, Intel Core i3-5010U Processor, 4GB R
p19
sb.