ccopy_reg
_reconstructor
p0
(c__main__
ProductRecord
p1
c__builtin__
object
p2
Ntp3
Rp4
(dp5
S'product_url'
p6
S'http://www.walmart.com/ip/Acer-Aspire-5-A515-51-3509-15-6-Full-HD-1920-x-1080-7th-Gen-Intel-Core-i3-7100U-8GB-DDR4-1TB-HDD-Windows-10-Home/230736492'
p7
sS'price'
p8
S'N/A'
p9
sS'properties'
p10
(dp11
sS'title'
p12
S'Missing'
p13
sb.