ccopy_reg
_reconstructor
p0
(c__main__
ProductRecord
p1
c__builtin__
object
p2
Ntp3
Rp4
(dp5
S'product_url'
p6
S'http://www.walmart.com/ip/HP-Stream-14-ax020nr-14-Laptop-Windows-10-Home-Office-365-Personal-1-year-subscription-included-Intel-Celeron-N3060-Processor-4GB-RAM-32GB-eMMC-Stora/54512364'
p7
sS'price'
p8
S'N/A'
p9
sS'properties'
p10
(dp11
VRAM Memory
p12
V4 KB
p13
sVOperating System
p14
VWindows 10
p15
sVFeatures
p16
VEPEAT
p17
sVVideo Game Platform
p18
VPC
p19
sVBrand
p20
VHP
p21
sVProcessor Speed
p22
V1.6 Hz
p23
sVManufacturer Part Number
p24
VX7S45UA#ABA
p25
sVHard Drive Capacity
p26
V32 KB
p27
sVAssembled Product Dimensions (L x W x H)
p28
V8.90 x 13.27 x 0.70 Inches
p29
sVModel
p30
VHP X7S45UA#ABA
p31
sVScreen Size
p32
V14.0"
p33
sVProcessor Type
p34
VIntel Celeron
p35
sVCondition
p36
VNew
p37
ssS'title'
p38
VHP Stream 14-ax020nr 14" Laptop, Windows 10 Home, Office 365 Personal 1-year subscription included, Intel Celeron N3060 Processor, 4GB RAM, 32GB eMMC Storage
p39
sb.