ccopy_reg
_reconstructor
p0
(c__main__
ProductRecord
p1
c__builtin__
object
p2
Ntp3
Rp4
(dp5
S'product_url'
p6
S'http://www.walmart.com/ip/Acer-Swift-1-SF113-31-P5CK-13-3-Ultra-Thin-Laptop-Intel-Pentium-N4200-Processor-4GB-RAM-64GB-Storage-Drive-13-3-Full-HD-Widescreen-Display/184804525'
p7
sS'price'
p8
V$319.00
p9
sS'properties'
p10
(dp11
VRAM Memory
p12
V4 GB
p13
sVOperating System
p14
VWindows 10
p15
sVBrand
p16
VAcer
p17
sVProcessor Speed
p18
V2.5 Hz
p19
sVManufacturer Part Number
p20
VNX.GP2AA.002
p21
sVHard Drive Capacity
p22
V64 GB
p23
sVBattery Life
p24
V10 h
p25
sVAssembled Product Dimensions (L x W x H)
p26
V12.58 x 2.32 x 11.50 Inches
p27
sVModel
p28
VSF113-31-P5CK
p29
sVScreen Size
p30
V13.3 in
p31
sVProcessor Type
p32
VInte Pentium N4200 quad core processor
p33
ssS'title'
p34
VAcer Swift 1 SF113-31-P5CK 13.3" Ultra-Thin Laptop , Intel Pentium N4200 Processor, 4GB RAM, 64GB Storage Drive & 13.3\u201d Full HD Widescreen Display
p35
sb.