ccopy_reg
_reconstructor
p0
(c__main__
ProductRecord
p1
c__builtin__
object
p2
Ntp3
Rp4
(dp5
S'product_url'
p6
S'http://www.walmart.com/ip/HP-14-Bw010Nr-14-Laptop-Windows-10-Home-AMD-E2-9000e-Dual-Core-Processor-4GB-RAM-500GB-Hard-Drive/55868221'
p7
sS'price'
p8
V$229.99
p9
sS'properties'
p10
(dp11
VRAM Memory
p12
V4 KB
p13
sVOperating System
p14
VWindows 10
p15
sVFeatures
p16
VEPEAT
p17
sVVideo Game Platform
p18
VPC
p19
sVBrand
p20
VHP
p21
sVProcessor Speed
p22
V1.5 Hz
p23
sVManufacturer Part Number
p24
V1KU84UA#ABA
p25
sVHard Drive Capacity
p26
V500 KB
p27
sVBattery Life
p28
V6 hours 15 minutes
p29
sVAssembled Product Dimensions (L x W x H)
p30
V9.45 x 13.39 x 0.93 Inches
p31
sVModel
p32
VHP 14-Bw010Nr
p33
sVScreen Size
p34
V14.0"
p35
sVProcessor Type
p36
VAMD Dual-Core E2-9000e Processor
p37
sVCondition
p38
VNew
p39
ssS'title'
p40
VHP 14-Bw010Nr 14" Laptop, Windows 10 Home, AMD E2-9000e Dual-Core Processor, 4GB RAM, 500GB Hard Drive
p41
sb.