ccopy_reg
_reconstructor
p0
(c__main__
ProductRecord
p1
c__builtin__
object
p2
Ntp3
Rp4
(dp5
S'product_url'
p6
S'http://www.walmart.com/ip/HP-15-ay070wm-15-6-Realtree-Xtra-Camo-Laptop-Windows-10-Intel-Pentium-N3710-Processor-4GB-Memory-1TB-Hard-Drive/51397785'
p7
sS'price'
p8
V$359.00
p9
sS'properties'
p10
(dp11
VRAM Memory
p12
V4 KB
p13
sVOperating System
p14
VWindows 10
p15
sVFeatures
p16
VEPEAT
p17
sVVideo Game Platform
p18
VPC
p19
sVBrand
p20
VHP
p21
sVProcessor Speed
p22
V1.6 Hz
p23
sVManufacturer Part Number
p24
VX0S19UA
p25
sVHard Drive Capacity
p26
V1000 KB
p27
sVBattery Life
p28
V5 hours
p29
sVAssembled Product Dimensions (L x W x H)
p30
V15.12 x 10.02 x 0.95 Inches
p31
sVModel
p32
V15-bn070WM
p33
sVScreen Size
p34
V15.6 Inches
p35
sVProcessor Type
p36
VIntel Pentium
p37
sVCondition
p38
VNew
p39
ssS'title'
p40
VHP 15-ay070wm 15.6" Realtree Xtra Camo Laptop, Windows 10, Intel Pentium N3710 Processor, 4GB Memory, 1TB Hard Drive
p41
sb.