ccopy_reg
_reconstructor
p0
(c__main__
ProductRecord
p1
c__builtin__
object
p2
Ntp3
Rp4
(dp5
S'product_url'
p6
S'http://www.walmart.com/ip/Acer-Aspire-5-A515-51-75UY-15-6-Full-HD-1920-x-1080-7th-Gen-Intel-Core-i7-7500U-8GB-DDR4-1TB-HDD-Windows-10-Home/201297867'
p7
sS'price'
p8
V$599.00
p9
sS'properties'
p10
(dp11
VRAM Memory
p12
V8 GB
p13
sVOperating System
p14
VWindows 10
p15
sVBrand
p16
VAcer
p17
sVProcessor Speed
p18
V3.5 Hz
p19
sVManufacturer Part Number
p20
VNX.GP4AA.004
p21
sVMaximum RAM Supported
p22
V8 KB
p23
sVHard Drive Capacity
p24
V1 TB
p25
sVBattery Life
p26
V7 h
p27
sVAssembled Product Dimensions (L x W x H)
p28
V15.02 x 10.35 x 0.85 Inches
p29
sVModel
p30
VA515-51-75UY
p31
sVScreen Size
p32
V15.6 in
p33
sVProcessor Type
p34
VIntel Core i7
p35
sVCondition
p36
VNew
p37
ssS'title'
p38
VAcer Aspire 5 A515-51-75UY, 15.6" Full HD (1920 x 1080), 7th Gen Intel Core i7-7500U, 8GB DDR4, 1TB HDD, Windows 10 Home
p39
sb.