ccopy_reg
_reconstructor
p0
(c__main__
ProductRecord
p1
c__builtin__
object
p2
Ntp3
Rp4
(dp5
S'product_url'
p6
S'http://www.walmart.com/ip/Dell-Latitude-E6420-Laptop-HDMI-Intel-i5-2-5ghz-4GB-DDR3-320GB-DVDRW-Windows-10-64bit/778007468'
p7
sS'price'
p8
V$208.49
p9
sS'properties'
p10
(dp11
VRAM Memory
p12
V4.00 KB
p13
sVOperating System
p14
VWindows 10 Home 64bit
p15
sVLaptop Computer Type
p16
VPC Laptops
p17
sVBrand
p18
VDell
p19
sVManufacturer Part Number
p20
VNB-DL-LATITUDE_E6420-NB-i5-2.5-4-320-RW-N-10H-ANB-DL-LATITUDE_E6420-NB-i5-2.5-4-320-RW-N-10H-A
p21
sVWireless Technology
p22
V802_11_BGN
p23
sVHard Drive Capacity
p24
V320.00 KB
p25
sVProcessor Type
p26
VIntel
p27
sVScreen Size
p28
V14.1 in
p29
sVModel
p30
VLatitude E6420
p31
sVManufacturer
p32
VDell
p33
ssS'title'
p34
VDell Latitude E6420 Laptop - HDMI - Intel i5 2.5ghz - 4GB DDR3 - 320GB - DVDRW - Windows 10 64bit
p35
sb.