ccopy_reg
_reconstructor
p0
(c__main__
ProductRecord
p1
c__builtin__
object
p2
Ntp3
Rp4
(dp5
S'product_url'
p6
S'http://www.walmart.com/ip/Lenovo-ideapad-320-15-6-Laptop-Windows-10-AMD-A9-9420-Dual-Core-Processor-4GB-RAM-1TB-Hard-Drive-Onyx-Black/55846559'
p7
sS'price'
p8
V$259.00
p9
sS'properties'
p10
(dp11
VRAM Memory
p12
V4 KB
p13
sVOperating System
p14
VWindows 10
p15
sVFeatures
p16
VEPEAT
p17
sVVideo Game Platform
p18
VPC
p19
sVBrand
p20
VLenovo
p21
sVProcessor Speed
p22
V2.9 Hz
p23
sVManufacturer Part Number
p24
V80XV00HSUS
p25
sVMaximum RAM Supported
p26
V4 KB
p27
sVHard Drive Capacity
p28
V1 KB
p29
sVBattery Life
p30
V4.5 h
p31
sVAssembled Product Dimensions (L x W x H)
p32
V14.88 x 10.24 x 0.90 Inches
p33
sVModel
p34
V80XV00HSUS
p35
sVScreen Size
p36
V15.6 in
p37
sVProcessor Type
p38
VAMD A9-9420 Dual-Core Processor
p39
ssS'title'
p40
VLenovo ideapad 320 15.6" Laptop, Windows 10, AMD A9-9420 Dual-Core Processor, 4GB RAM, 1TB Hard Drive - Onyx Black
p41
sb.