ccopy_reg
_reconstructor
p0
(c__main__
ProductRecord
p1
c__builtin__
object
p2
Ntp3
Rp4
(dp5
S'product_url'
p6
S'http://www.walmart.com/ip/Refurbished-Dell-14-E6420-Laptop-PC-with-Intel-Core-i5-Processor-4GB-Memory-320GB-Hard-Drive-and-Windows-10-Pro/37403500'
p7
sS'price'
p8
V$199.00
p9
sS'properties'
p10
(dp11
VRAM Memory
p12
V4 GB
p13
sVOperating System
p14
VWindows 10
p15
sVVideo Game Platform
p16
VPC
p17
sVBrand
p18
VLatitude
p19
sVProcessor Speed
p20
V2.50 GHz
p21
sVManufacturer Part Number
p22
VE6420
p23
sVMaximum RAM Supported
p24
V16 GB
p25
sVHard Drive Capacity
p26
V320 Gigabytes
p27
sVBattery Life
p28
V30 minutes
p29
sVAssembled Product Dimensions (L x W x H)
p30
V9.50 x 13.80 x 1.30 Inches
p31
sVModel
p32
VE6420
p33
sVScreen Size
p34
V14.0"
p35
sVProcessor Type
p36
VIntel Core i5
p37
sVCondition
p38
VRefurbished
p39
ssS'title'
p40
VRefurbished Dell 14" E6420 Laptop PC with Intel Core i5 Processor, 4GB Memory, 320GB Hard Drive and Windows 10 Pro
p41
sb.