ccopy_reg
_reconstructor
p0
(c__main__
ProductRecord
p1
c__builtin__
object
p2
Ntp3
Rp4
(dp5
S'product_url'
p6
S'http://www.walmart.com/ip/Dell-Inspiron-17-5000-17-3-HD-AMD-A9-8GB-Memory-1TB-5400-RPM/54748229'
p7
sS'price'
p8
V$549.00
p9
sS'properties'
p10
(dp11
VRAM Memory
p12
V8 KB
p13
sVOperating System
p14
VWindows 10
p15
sVVideo Game Platform
p16
VPC
p17
sVBrand
p18
VDell
p19
sVProcessor Speed
p20
V2.9 Hz
p21
sVManufacturer Part Number
p22
Vi5765-1317GRY
p23
sVHard Drive Capacity
p24
V1 KB
p25
sVBattery Life
p26
V0 h
p27
sVAssembled Product Dimensions (L x W x H)
p28
V21.80 x 13.80 x 3.20 Inches
p29
sVModel
p30
Vi5765-1317GRY
p31
sVScreen Size
p32
V17.3"
p33
sVProcessor Type
p34
VAMD A9-9400 Processor
p35
sVCondition
p36
VNew
p37
ssS'title'
p38
VDell - Inspiron 17 5000 17.3" HD - AMD A9 - 8GB Memory - 1TB 5400 RPM
p39
sb.