ccopy_reg
_reconstructor
p0
(c__main__
ProductRecord
p1
c__builtin__
object
p2
Ntp3
Rp4
(dp5
S'product_url'
p6
S'http://www.walmart.com/ip/Microsoft-Office-365-Personal-1-year-subscription-1-users-PC-Mac-Key-Card/51503872'
p7
sS'price'
p8
S'N/A'
p9
sS'properties'
p10
(dp11
VOperating System
p12
VAndroid
p13
sVVideo Game Platform
p14
VMulti-Platform
p15
sVBrand
p16
VMicrosoft
p17
sVManufacturer Part Number
p18
VMicrosoft
p19
sVProduct Line
p20
VMicrosoft Office
p21
sVModel
p22
VQQ2-00597
p23
sVComputer Software Type
p24
VBusiness & Office Software
p25
sVManufacturer
p26
VMicrosoft
p27
ssS'title'
p28
VMicrosoft Office 365 Personal | 1-year subscription, 1 users, PC/Mac Key Card
p29
sb.