ccopy_reg
_reconstructor
p0
(c__main__
ProductRecord
p1
c__builtin__
object
p2
Ntp3
Rp4
(dp5
S'product_url'
p6
S'http://www.walmart.com/ip/Refurbished-HP-ProBook-X360-G1-Y3K68AW-Convertible-Notebook-PC-Intel-Pentium-N4200-1-1-GHz-Quad-Core-Processor-4-GB-DDR3L-SDRAM-128-GB-Solid-State-Dr/436849367'
p7
sS'price'
p8
S'N/A'
p9
sS'properties'
p10
(dp11
sS'title'
p12
VRefurbished HP ProBook X360 G1 Y3K68AW Convertible Notebook PC - Intel Pentium N4200 1.1 GHz Quad-Core Processor - 4 GB DDR3L SDRAM - 128 GB Solid State Drive - 11.6-inch Touchscreen Display -
p13
sb.