ccopy_reg
_reconstructor
p0
(c__main__
ProductRecord
p1
c__builtin__
object
p2
Ntp3
Rp4
(dp5
S'product_url'
p6
S'http://www.walmart.com/ip/MSI-Gaming-Laptop-17-3-FHD-Screen-Intel-Core-i7-7700HQ-2-8-3-8-GHZ-NVIDIA-GEFORCE-GTX1050-Graphic-Card-16G-DDR5-Memory-128GB-NVMe-SSD-1-TB-HDD-GL72MX/374166657'
p7
sS'price'
p8
V$999.00
p9
sS'properties'
p10
(dp11
VRAM Memory
p12
V16 KB
p13
sVOperating System
p14
VWindows 10
p15
sVColor Category
p16
VBlack
p17
sVLaptop Computer Type
p18
VPC Laptops
p19
sVBrand
p20
VMSI
p21
sVManufacturer Part Number
p22
VGL72MX1227
p23
sVWireless Technology
p24
VBluetooth; 802.11ac
p25
sVHard Drive Capacity
p26
V1 KB
p27
sVProcessor Core Type
p28
VQuad-core (4 Core)
p29
sVProcessor Type
p30
VIntel Core i7
p31
sVScreen Size
p32
V17.30 in
p33
sVModel
p34
VGL72MX1227
p35
sVCondition
p36
VNew
p37
sVManufacturer
p38
VMSI
p39
ssS'title'
p40
VMSI Gaming Laptop, 17.3" FHD Screen, Intel Core i7-7700HQ, 2.8-3.8 GHZ, NVIDIA GEFORCE GTX1050 Graphic Card, 16G DDR5 Memory, 128GB NVMe SSD + 1 TB HDD, GL72MX1227
p41
sb.