ccopy_reg
_reconstructor
p0
(c__main__
ProductRecord
p1
c__builtin__
object
p2
Ntp3
Rp4
(dp5
S'product_url'
p6
S'http://www.walmart.com/ip/HP-HP-Omen-Laptop-15-6-FHD-Screen-Intel-Core-i7-7700HQ-2-8GHZ-NVIDIA-GeForce-GTX-1050-Ti-4GB-GDDR5-8GB-DDR4-Memory-1TB-HD-128GB-SSD-Windows-Home-10-1/55868218'
p7
sS'price'
p8
V$949.99
p9
sS'properties'
p10
(dp11
VRAM Memory
p12
V8 GB
p13
sVOperating System
p14
VWindows 10
p15
sVFeatures
p16
VEPEAT
p17
sVVideo Game Platform
p18
VPC
p19
sVBrand
p20
VHP
p21
sVProcessor Speed
p22
V2.80 GHz, with a Max Turbo Speed of 3.80 GHz
p23
sVManufacturer Part Number
p24
VW2N39UA#ABA
p25
sVHard Drive Capacity
p26
V1 TB, 128 GB
p27
sVBattery Life
p28
V10 hours 30 minutes
p29
sVAssembled Product Dimensions (L x W x H)
p30
V9.94 x 15.06 x 0.96 Inches
p31
sVModel
p32
VHP 15-Ax210Nr
p33
sVScreen Size
p34
V15.6"
p35
sVProcessor Type
p36
VIntel Core i7
p37
ssS'title'
p38
VHP HP Omen Laptop 15.6" FHD Screen, Intel Core i7-7700HQ, 2.8GHZ, NVIDIA GeForce GTX 1050 Ti 4GB GDDR5, 8GB DDR4 Memory, 1TB HD 128GB SSD, Windows Home 10, 15-ax210nr
p39
sb.