ccopy_reg
_reconstructor
p0
(c__main__
ProductRecord
p1
c__builtin__
object
p2
Ntp3
Rp4
(dp5
S'product_url'
p6
S'http://www.walmart.com/ip/Acer-Nitro-5-7th-Gen-Intel-Core-i5-7300HQ-GeForce-GTX-1050-Ti-Graphics-16GB-DDR4-256GB-SSD-Windows-10-Home-AN515-51-504A/672118546'
p7
sS'price'
p8
V$749.00
p9
sS'properties'
p10
(dp11
VRAM Memory
p12
V16 KB
p13
sVOperating System
p14
VWindows 10
p15
sVColor Category
p16
VBlack
p17
sVLaptop Computer Type
p18
VPC Laptops
p19
sVBrand
p20
VAcer
p21
sVManufacturer Part Number
p22
VNH.Q2QAA.008
p23
sVHard Drive Capacity
p24
V256 KB
p25
sVProcessor Core Type
p26
VQuad-core (4 Core)
p27
sVProcessor Type
p28
VIntel i5-7300HQ
p29
sVScreen Size
p30
V15.6 in
p31
sVModel
p32
VAN515-51-504A
p33
sVCondition
p34
VNew
p35
sVManufacturer
p36
VAcer
p37
ssS'title'
p38
VAcer Nitro 5, 7th Gen Intel Core i5-7300HQ, GeForce GTX 1050 Ti Graphics, 16GB DDR4, 256GB SSD, Windows 10 Home, AN515-51-504A
p39
sb.