ccopy_reg
_reconstructor
p0
(c__main__
ProductRecord
p1
c__builtin__
object
p2
Ntp3
Rp4
(dp5
S'product_url'
p6
S'http://www.walmart.com/ip/Acer-Swift-3-SF314-51-76EY-i7-7500U-Processor-2-7GHz-14-8GB-DDR4-256GB-SSD/55559115'
p7
sS'price'
p8
V$699.00
p9
sS'properties'
p10
(dp11
VRAM Memory
p12
V8 GB
p13
sVOperating System
p14
VMicrosoft Windows, Windows 10
p15
sVBrand
p16
VAcer
p17
sVProcessor Speed
p18
V2.70 GHz
p19
sVManufacturer Part Number
p20
VNX.GKKAA.006
p21
sVHard Drive Capacity
p22
V256
p23
sVBattery Life
p24
V10 Hour
p25
sVAssembled Product Dimensions (L x W x H)
p26
V13.43 x 9.31 x 11.34 Inches
p27
sVModel
p28
VSF314-51-76EY
p29
sVScreen Size
p30
V14"
p31
sVProcessor Type
p32
VIntel Core i7
p33
sVCondition
p34
VNew
p35
ssS'title'
p36
VAcer Swift 3 SF314-51-76EY i7-7500U Processor 2.7GHz 14" 8GB DDR4 256GB SSD
p37
sb.