ccopy_reg
_reconstructor
p0
(c__main__
ProductRecord
p1
c__builtin__
object
p2
Ntp3
Rp4
(dp5
S'product_url'
p6
S'http://www.walmart.com/ip/Refurbished-HP-Pavilion-15-au020wm-15-6-Laptop-Windows-10-Home-Intel-Core-i5-6200U-Dual-Core-Processor-8GB-RAM-1TB-Hard-Drive/54650619'
p7
sS'price'
p8
V$398.99
p9
sS'properties'
p10
(dp11
VRAM Memory
p12
V8 GB
p13
sVOperating System
p14
VWindows 10
p15
sVFeatures
p16
VEPEAT
p17
sVVideo Game Platform
p18
VPC
p19
sVBrand
p20
VDell
p21
sVProcessor Speed
p22
V2.30 GHz, with a Max Turbo Speed of 2.80 GHz
p23
sVManufacturer Part Number
p24
V15-au020wm
p25
sVHard Drive Capacity
p26
V1 TB
p27
sVBattery Life
p28
V7 hours
p29
sVAssembled Product Dimensions (L x W x H)
p30
V2.50 x 2.50 x 2.50 Inches
p31
sVModel
p32
V15-au020wm
p33
sVScreen Size
p34
V15.6 in
p35
sVProcessor Type
p36
VIntel Core i5
p37
sVCondition
p38
VRefurbished
p39
ssS'title'
p40
VRefurbished HP Pavilion 15-au020wm 15.6" Laptop, Windows 10 Home, Intel Core i5-6200U Dual-Core Processor, 8GB RAM, 1TB Hard Drive
p41
sb.