ccopy_reg
_reconstructor
p0
(c__main__
ProductRecord
p1
c__builtin__
object
p2
Ntp3
Rp4
(dp5
S'product_url'
p6
S'http://www.walmart.com/ip/Refurbished-Lenovo-Black-14-T430-WA5-1083-Laptop-PC-with-Intel-Core-i5-3320M-Processor-4GB-Memory-320GB-Hard-Drive-and-Windows-10-Pro/50909501'
p7
sS'price'
p8
V$249.99
p9
sS'properties'
p10
(dp11
VRAM Memory
p12
V4 GB
p13
sVOperating System
p14
VWindows 10
p15
sVColor Category
p16
VBlack
p17
sVVideo Game Platform
p18
VPC
p19
sVBrand
p20
VLenovo
p21
sVManufacturer Part Number
p22
VWA5-1083
p23
sVHard Drive Capacity
p24
V320 GB
p25
sVLaptop Computer Type
p26
VPC Laptops
p27
sVProcessor Type
p28
VIntel Core i5
p29
sVScreen Size
p30
V14.0"
p31
sVModel
p32
VT430
p33
sVCondition
p34
VRefurbished
p35
sVManufacturer
p36
VLENOVO
p37
ssS'title'
p38
VRefurbished Lenovo Black 14" T430 WA5-1083 Laptop PC with Intel Core i5-3320M Processor, 4GB Memory, 320GB Hard Drive and Windows 10 Pro
p39
sb.