ccopy_reg
_reconstructor
p0
(c__main__
ProductRecord
p1
c__builtin__
object
p2
Ntp3
Rp4
(dp5
S'product_url'
p6
S'http://www.walmart.com/ip/HP-Notebook-15-bs091ms-15-6-Touch-Screen-Intel-Core-i3-7100U-2-4GHZ-8GB-RAM-1TB-HDD-in-Black-Certified-Refurbished/124965540'
p7
sS'price'
p8
V$329.99
p9
sS'properties'
p10
(dp11
VRAM Memory
p12
V8 GB
p13
sVOperating System
p14
VWindows 10
p15
sVBrand
p16
VHP
p17
sVManufacturer Part Number
p18
V2UE58UA#ABA.RB
p19
sVHard Drive Capacity
p20
V1000 GB
p21
sVModel
p22
V2UE58UA#ABA.RB
p23
sVScreen Size
p24
V15.6\u005c"
p25
sVProcessor Type
p26
VIntel Core i3
p27
sVCondition
p28
VRefurbished
p29
ssS'title'
p30
VHP Notebook 15-bs091ms - 15.6" Touch Screen, Intel Core i3-7100U@2.4GHZ, 8GB RAM, 1TB HDD, in Black (Certified Refurbished)
p31
sb.