ccopy_reg
_reconstructor
p0
(c__main__
ProductRecord
p1
c__builtin__
object
p2
Ntp3
Rp4
(dp5
S'product_url'
p6
S'http://www.walmart.com/ip/Refurbished-Lenovo-ThinkPad-T430-Laptop-i5-3210M-2-5GHz-4GB-320GB-WebCam-Wireless-Win10-Pro/278838625'
p7
sS'price'
p8
V$249.99
p9
sS'properties'
p10
(dp11
VRAM Memory
p12
V4 GB
p13
sVOperating System
p14
VWindows 10
p15
sVFeatures
p16
VBuilt-in Webcam
p17
sVBrand
p18
VLenovo
p19
sVManufacturer Part Number
p20
VDoes Not Apply
p21
sVHard Drive Capacity
p22
V320 GB
p23
sVModel
p24
VT430
p25
sVProcessor Type
p26
VIntel Core i5 3rd Gen.
p27
sVCondition
p28
VNew
p29
ssS'title'
p30
VRefurbished Lenovo ThinkPad T430 Laptop i5-3210M 2.5GHz 4GB 320GB WebCam Wireless Win10 Pro
p31
sb.