ccopy_reg
_reconstructor
p0
(c__main__
ProductRecord
p1
c__builtin__
object
p2
Ntp3
Rp4
(dp5
S'product_url'
p6
S'http://www.walmart.com/ip/Refurbished-Toshiba-Jet-Black-15-6-Satellite-C55D-B5206-Laptop-PC-AMD-A8-6410-Quad-Core-Processor-4GB-Memory-750GB-Hard-Drive-Windows-8-1-Eligible-Fr/43977709'
p7
sS'price'
p8
V$299.00
p9
sS'properties'
p10
(dp11
VRAM Memory
p12
V4 GB
p13
sVOperating System
p14
VMicrosoft Windows
p15
sVVideo Game Platform
p16
VPC
p17
sVBrand
p18
VToshiba
p19
sVProcessor Speed
p20
V2.00 GHz
p21
sVHard Drive Capacity
p22
V750 GB
p23
sVAssembled Product Dimensions (L x W x H)
p24
V10.24 x 15.40 x 0.99 Inches
p25
sVModel
p26
VRBC55D-B5206
p27
sVScreen Size
p28
V15.6 in
p29
sVProcessor Type
p30
VAMD A-Series
p31
sVCondition
p32
VRefurbished
p33
sVmanufacturer_part_number
p34
VC55D-B5206
p35
ssS'title'
p36
VRefurbished Toshiba Jet Black 15.6" Satellite C55D-B5206 Laptop PC with AMD A8-6410 Quad-Core Processor, 4GB Memory, 750GB Hard Drive and Windows 8.1 (Eligible for Free Windows 10 Upgrade)
p37
sb.