ccopy_reg
_reconstructor
p0
(c__main__
ProductRecord
p1
c__builtin__
object
p2
Ntp3
Rp4
(dp5
S'product_url'
p6
S'http://www.walmart.com/ip/Dell-Latitude-E6420-Laptop-HDMI-Intel-i5-2-5ghz-6GB-DDR3-320GB-DVDRW-Windows-10-64bit-Refurbished/560383761'
p7
sS'price'
p8
V$225.49
p9
sS'properties'
p10
(dp11
VRAM Memory
p12
V6.00 GB
p13
sVOperating System
p14
VWindows 10 Home 64bit
p15
sVColor Category
p16
VGray
p17
sVLaptop Computer Type
p18
VPC Laptops
p19
sVBrand
p20
VDell
p21
sVWireless Technology
p22
V802_11_BGN
p23
sVHard Drive Capacity
p24
V320.00 GB
p25
sVProcessor Type
p26
VIntel Core i5
p27
sVScreen Size
p28
V14 in
p29
ssS'title'
p30
VDell Latitude E6420 Laptop - HDMI - Intel i5 2.5ghz - 6GB DDR3 - 320GB - DVDRW - Windows 10 64bit - Refurbished
p31
sb.