ccopy_reg
_reconstructor
p0
(c__main__
ProductRecord
p1
c__builtin__
object
p2
Ntp3
Rp4
(dp5
S'product_url'
p6
S'http://www.walmart.com/ip/Manufacturer-Refurbished-HP-15-AY083NR-15-6-Touch-Laptop-Intel-i3-5005U-2-0GHz-8GB-1TB-Windows-10/146482532'
p7
sS'price'
p8
V$314.99
p9
sS'properties'
p10
(dp11
VBrand
p12
VHP
p13
sVModel
p14
V15-AY083NR-RF
p15
sVManufacturer Part Number
p16
V15-AY083NR-RF
p17
ssS'title'
p18
VManufacturer Refurbished - HP 15-AY083NR 15.6" Touch Laptop Intel i3-5005U 2.0GHz 8GB 1TB Windows 10
p19
sb.