ccopy_reg
_reconstructor
p0
(c__main__
ProductRecord
p1
c__builtin__
object
p2
Ntp3
Rp4
(dp5
S'product_url'
p6
S'http://www.walmart.com/ip/Refurbished-HP-x360-11-p100-11-p110nr-11-6-LCD-2-1-Notebook-Intel-Celeron-N2840-Dual-core-2-Core-2-16-GHz-2-GB-DDR3L-SDRAM-32-GB-Flash-Memory-Windows/853364373'
p7
sS'price'
p8
S'N/A'
p9
sS'properties'
p10
(dp11
sS'title'
p12
VRefurbished HP x360 11-p100 11-p110nr 11.6" LCD 2 in 1 Notebook - Intel Celeron N2840 Dual-core (2 Core) 2.16 GHz - 2 GB DDR3L SDRAM - 32 GB Flash Memory - Windows 10 Home 64-bit - 1366 x 768 -
p13
sb.