ccopy_reg
_reconstructor
p0
(c__main__
ProductRecord
p1
c__builtin__
object
p2
Ntp3
Rp4
(dp5
S'product_url'
p6
S'http://www.walmart.com/ip/14-Full-HD-IPS-screen-Laptop-Ultra-Slim-Laptop-Windows-10-Intel-Atom-Quad-Core-Processor-2GB-RAM-32GB-Flash-Storage-with-a-Carry-Case-included/54265082'
p7
sS'price'
p8
V$199.00
p9
sS'properties'
p10
(dp11
VRAM Memory
p12
V2 GB
p13
sVOperating System
p14
VWindows 10
p15
sVVideo Game Platform
p16
VPC
p17
sVBrand
p18
VEPIK
p19
sVProcessor Speed
p20
V1.44 GHz
p21
sVManufacturer Part Number
p22
VELL1401-BK
p23
sVHard Drive Capacity
p24
V32 GB
p25
sVAssembled Product Dimensions (L x W x H)
p26
V13.75 x 9.25 x 0.45 Inches
p27
sVModel
p28
VELL1401-BK
p29
sVScreen Size
p30
V14.0"
p31
sVProcessor Type
p32
VIntel Cherry Trail Z8300 Quad-Core Processor
p33
ssS'title'
p34
V14" Full HD IPS screen Laptop, Ultra-Slim Laptop, Windows 10, Intel Atom Quad Core Processor, 2GB RAM, 32GB Flash Storage with a Carry Case included
p35
sb.