ccopy_reg
_reconstructor
p0
(c__main__
ProductRecord
p1
c__builtin__
object
p2
Ntp3
Rp4
(dp5
S'product_url'
p6
S'http://www.walmart.com/ip/Acer-Spin-SP515-51GN-SP515-51GN-807G-15-6-Intel-Core-i7-i7-8550U-8GB-DDR4-1TB-HDD-Windows-10-Home-1920-x-1080-IPS-Convertible-2-in-1-Notebook/242238897'
p7
sS'price'
p8
S'N/A'
p9
sS'properties'
p10
(dp11
VRAM Memory
p12
V8.00 GB
p13
sVOperating System
p14
VWindows 10
p15
sVFeatures
p16
VBIOS Passwords:UserSupervisorHDD
p17
sVBrand
p18
VAcer
p19
sVProcessor Speed
p20
V1.80 GHz
p21
sVManufacturer Part Number
p22
VNX.GTQAA.001
p23
sVMaximum RAM Supported
p24
V16.00 GB
p25
sVHard Drive Capacity
p26
V1.00 TB
p27
sVAssembled Product Dimensions (L x W x H)
p28
V20.00 x 12.00 x 3.00 Inches
p29
sVModel
p30
VSP51551GN807G
p31
sVScreen Size
p32
V15.60 in
p33
sVProcessor Type
p34
VIntel Core i7
p35
sVCondition
p36
VNew
p37
ssS'title'
p38
VAcer Spin SP515-51GN SP515-51GN-807G 15.6" - Intel Core i7 i7-8550U 8GB DDR4 1TB HDD - Windows 10 Home 1920 x 1080 - IPS Convertible 2 in 1 Notebook
p39
sb.