ccopy_reg
_reconstructor
p0
(c__main__
ProductRecord
p1
c__builtin__
object
p2
Ntp3
Rp4
(dp5
S'product_url'
p6
S'http://www.walmart.com/ip/HP-Eclipse-Ci5-14-bf050wm-14-Laptop-Full-HD-IPS-Mico-Edge-Display-Intel-Core-i5-7200U-Processor-8GB-Memory-1TB-Hard-Drive-128-SSD-Windows-10-Home/579111314'
p7
sS'price'
p8
V$719.00
p9
sS'properties'
p10
(dp11
VRAM Memory
p12
V8 KB
p13
sVOperating System
p14
VWindows 10
p15
sVColor Category
p16
VSilver
p17
sVLaptop Computer Type
p18
VPC Laptops
p19
sVBrand
p20
VHP
p21
sVManufacturer Part Number
p22
V1WZ15UA#ABA
p23
sVWireless Technology
p24
V802.11ac\u005c
p25
sVHard Drive Capacity
p26
V1 KB
p27
sVProcessor Type
p28
V7th Generation Intel?? Core??? i5-7200U Processor7th Generation Intel?? Core??? i5-7200U Processor
p29
sVScreen Size
p30
V14 in
p31
sVModel
p32
V14-bf040wm
p33
sVManufacturer
p34
VHP
p35
ssS'title'
p36
VHP Eclipse Ci5 14-bf050wm 14\u201d Laptop, Full HD IPS Mico Edge Display, Intel Core i5-7200U Processor, 8GB Memory, 1TB Hard Drive + 128 SSD, Windows 10 Home
p37
sb.