ccopy_reg
_reconstructor
p0
(c__main__
ProductRecord
p1
c__builtin__
object
p2
Ntp3
Rp4
(dp5
S'product_url'
p6
S'http://www.walmart.com/ip/iView-13-3-1330NB-Laptop-PC-with-Intel-Atom-Cherry-Trail-Z8300-Processor-2GB-Memory-32GB-Flash-Drive-and-Windows-10/50998039'
p7
sS'price'
p8
V$169.00
p9
sS'properties'
p10
(dp11
VRAM Memory
p12
V2 GB
p13
sVOperating System
p14
VWindows 10
p15
sVVideo Game Platform
p16
VPC
p17
sVBrand
p18
VIVIEW
p19
sVProcessor Speed
p20
V1.60 GHz, with a Max Turbo Speed of 1.80 GHz
p21
sVManufacturer Part Number
p22
V1330NB-PK
p23
sVHard Drive Capacity
p24
V32 GB
p25
sVAssembled Product Dimensions (L x W x H)
p26
V12.83 x 8.61 x 0.78 Inches
p27
sVModel
p28
V1330NB-PK
p29
sVScreen Size
p30
V13.3 in
p31
sVProcessor Type
p32
VIntel Atom Cherry Trail Z8300 Quad-Core Processor
p33
sVCondition
p34
VNew
p35
ssS'title'
p36
ViView 13.3" 1330NB Laptop PC with Intel Atom Cherry Trail Z8300 Processor, 2GB Memory, 32GB Flash Drive and Windows 10
p37
sb.