ccopy_reg
_reconstructor
p0
(c__main__
ProductRecord
p1
c__builtin__
object
p2
Ntp3
Rp4
(dp5
S'product_url'
p6
S'http://www.walmart.com/ip/Lenovo-IdeaPad-320-15IKB-Core-i5-4GB-1TB-Laptop/979449489'
p7
sS'price'
p8
V$473.16
p9
sS'properties'
p10
(dp11
VRAM Memory
p12
V4.00 GB
p13
sVOperating System
p14
VWindows 10
p15
sVColor Category
p16
VGray
p17
sVLaptop Computer Type
p18
VPC Laptops
p19
sVBrand
p20
VLenovo
p21
sVManufacturer Part Number
p22
V80XL03CBUS
p23
sVWireless Technology
p24
V802.11ac; Bluetooth
p25
sVHard Drive Capacity
p26
V1.00 TB
p27
sVProcessor Core Type
p28
VDual-core (2 Core)
p29
sVProcessor Type
p30
VIntel Core i5
p31
sVScreen Size
p32
V15.60 in
p33
sVModel
p34
V80XL03CBUS
p35
sVCondition
p36
VNew
p37
sVManufacturer
p38
VLenovo Group Limited
p39
ssS'title'
p40
VLenovo IdeaPad 320-15IKB Core i5 4GB 1TB Laptop
p41
sb.