ccopy_reg
_reconstructor
p0
(c__main__
ProductRecord
p1
c__builtin__
object
p2
Ntp3
Rp4
(dp5
S'product_url'
p6
S'http://www.walmart.com/ip/HP-x360-11-p100-11-p110nr-11-6-LCD-2-in-1-Notebook-Intel-Refurbished/627049408'
p7
sS'price'
p8
S'N/A'
p9
sS'properties'
p10
(dp11
VRAM Memory
p12
V2 GB
p13
sVOperating System
p14
VWindows 10 Home 64-bit Edition
p15
sVBrand
p16
VHP
p17
sVProcessor Speed
p18
V2.16 GHz
p19
sVHard Drive Capacity
p20
V32 GB
p21
sVModel
p22
VP1F14UA
p23
sVScreen Size
p24
V11.6 in
p25
sVProcessor Type
p26
VIntel Celeron
p27
ssS'title'
p28
VHP x360 11-p100 11-p110nr 11.6" LCD 2 in 1 Notebook - Intel (Refurbished)
p29
sb.