ccopy_reg
_reconstructor
p0
(c__main__
ProductRecord
p1
c__builtin__
object
p2
Ntp3
Rp4
(dp5
S'product_url'
p6
S'http://www.walmart.com/ip/HP-Stream-Notebook-14-ax022nr-14-Screen-Celeron-N-1-6GHz-4GB-RAM-32GB-eMMC-White-Certified-Refurbished/505076408'
p7
sS'price'
p8
V$184.85
p9
sS'properties'
p10
(dp11
VRAM Memory
p12
V4 GB
p13
sVOperating System
p14
VWindows 10
p15
sVColor Category
p16
VWhite
p17
sVLaptop Computer Type
p18
VPC Laptops
p19
sVBrand
p20
VHP
p21
sVManufacturer Part Number
p22
VX7S49UA#ABA
p23
sVHard Drive Capacity
p24
V32
p25
sVModel
p26
V14-ax010nr
p27
sVScreen Size
p28
V14
p29
sVManufacturer
p30
VHP
p31
ssS'title'
p32
VHP Stream Notebook 14-ax022nr - 14" Screen, Celeron N @ 1.6GHz, 4GB RAM, 32GB eMMC, White (Certified Refurbished)
p33
sb.