ccopy_reg
_reconstructor
p0
(c__main__
ProductRecord
p1
c__builtin__
object
p2
Ntp3
Rp4
(dp5
S'product_url'
p6
S'http://www.walmart.com/ip/Refurbished-HP-EliteBook-Folio-9470M-14-Laptop-Windows-10-Home-Intel-Core-i5-3427U-Processor-4GB-RAM-500GB-Hard-Drive/55727694'
p7
sS'price'
p8
S'N/A'
p9
sS'properties'
p10
(dp11
sS'title'
p12
S'Missing'
p13
sb.