ccopy_reg
_reconstructor
p0
(c__main__
ProductRecord
p1
c__builtin__
object
p2
Ntp3
Rp4
(dp5
S'product_url'
p6
S'http://www.walmart.com/ip/S5-371-3164-I3-6100U-2-3G-4GB-128GB-SSD-13-3IN-11AC-BT4-0-W10H/52467864'
p7
sS'price'
p8
V$490.24
p9
sS'properties'
p10
(dp11
VRAM Memory
p12
V4 GB
p13
sVOperating System
p14
VWindows 10
p15
sVVideo Game Platform
p16
VPC
p17
sVBrand
p18
VAcer
p19
sVProcessor Speed
p20
V2.30 GHz
p21
sVManufacturer Part Number
p22
VNX.GCHAA.002
p23
sVHard Drive Capacity
p24
V128 GB
p25
sVBattery Life
p26
V11 hours
p27
sVAssembled Product Dimensions (L x W x H)
p28
V0.60 x 9.00 x 12.90 Inches
p29
sVModel
p30
VNX.GCHAA.002
p31
sVScreen Size
p32
V13.3"
p33
sVProcessor Type
p34
VIntel Core i3
p35
sVCondition
p36
VNew
p37
ssS'title'
p38
VS5-371-3164 I3-6100U 2.3G 4GB 128GB SSD 13.3IN 11AC BT4.0 W10H
p39
sb.