ccopy_reg
_reconstructor
p0
(c__main__
ProductRecord
p1
c__builtin__
object
p2
Ntp3
Rp4
(dp5
S'product_url'
p6
S'http://www.walmart.com/ip/Refurbished-Dell-Latitude-E6430-i7-2-9GHz-4GB-320GB-DVD-Windows-10-Pro-64-Laptop-B-Camera/133377633'
p7
sS'price'
p8
V$254.05
p9
sS'properties'
p10
(dp11
VRAM Memory
p12
V4 Gigabytes
p13
sVOperating System
p14
VWindows 10
p15
sVLaptop Computer Type
p16
VPC Laptops
p17
sVBrand
p18
VDell
p19
sVManufacturer Part Number
p20
VE6430
p21
sVWireless Technology
p22
V802 11 GN
p23
sVHard Drive Capacity
p24
V320 Gigabytes
p25
sVProcessor Type
p26
VIntel Core i7
p27
sVScreen Size
p28
V14 Inches
p29
sVModel
p30
VLatitude E6430
p31
sVManufacturer
p32
VDell
p33
ssS'title'
p34
VRefurbished Dell Latitude E6430 i7 2.9GHz 4GB 320GB DVD Windows 10 Pro 64 Laptop B Camera
p35
sb.