ccopy_reg
_reconstructor
p0
(c__main__
ProductRecord
p1
c__builtin__
object
p2
Ntp3
Rp4
(dp5
S'product_url'
p6
S'http://www.walmart.com/ip/Ematic-14-1-EWT144-Laptop-PC-with-Intel-Atom-Quad-Core-Processor-2GB-Memory-32GB-Flash-Storage-and-Windows-10/49931324'
p7
sS'price'
p8
V$229.99
p9
sS'properties'
p10
(dp11
VRAM Memory
p12
V2 GB
p13
sVOperating System
p14
VWindows 10
p15
sVVideo Game Platform
p16
VPC
p17
sVBrand
p18
VEmatic
p19
sVProcessor Speed
p20
V1.30 GHz
p21
sVManufacturer Part Number
p22
VEWT144BL
p23
sVHard Drive Capacity
p24
V32 GB
p25
sVAssembled Product Dimensions (L x W x H)
p26
V14.29 x 10.04 x 2.20 Inches
p27
sVModel
p28
VEWT144BL
p29
sVScreen Size
p30
V14.1"
p31
sVProcessor Type
p32
VIntel Atom
p33
sVCondition
p34
VNew
p35
ssS'title'
p36
VEmatic 14.1" EWT144 Laptop PC with Intel Atom Quad-Core Processor, 2GB Memory, 32GB Flash Storage and Windows 10
p37
sb.