ccopy_reg
_reconstructor
p0
(c__main__
ProductRecord
p1
c__builtin__
object
p2
Ntp3
Rp4
(dp5
S'product_url'
p6
S'http://www.walmart.com/ip/Acer-Aspire-5-Notebook-with-Intel-i5-8250U-8GB-1TB-HDD-256GB-SSD/482841145'
p7
sS'price'
p8
V$724.29
p9
sS'properties'
p10
(dp11
VRAM Memory
p12
V8 Gigabytes
p13
sVOperating System
p14
VWindows 10
p15
sVFeatures
p16
V256GB SSD 1TB 15.6IN 11AC W10H
p17
sVBrand
p18
VAcer
p19
sVProcessor Speed
p20
V1.6 Gigahertz
p21
sVManufacturer Part Number
p22
VNX.GTCAA.018
p23
sVHard Drive Capacity
p24
V1 Terabytes
p25
sVBattery Life
p26
V7 Hours
p27
sVAssembled Product Dimensions (L x W x H)
p28
V19.60 x 12.10 x 4.60 Inches
p29
sVModel
p30
VA51551G5067
p31
sVScreen Size
p32
V15.60 Inches
p33
sVProcessor Type
p34
VIntel i5-8250U
p35
sVCondition
p36
VNew
p37
ssS'title'
p38
VAcer Aspire 5 Notebook with Intel i5-8250U, 8GB 1TB HDD 256GB SSD
p39
sb.