ccopy_reg
_reconstructor
p0
(c__main__
ProductRecord
p1
c__builtin__
object
p2
Ntp3
Rp4
(dp5
S'product_url'
p6
S'http://www.walmart.com/ip/HP-Stream-Pro-11-G3-11-6-Celeron-N3060-4-GB-RAM-64-GB-SSD/112599694'
p7
sS'price'
p8
V$189.99
p9
sS'properties'
p10
(dp11
VRAM Memory
p12
V2 Gigabytes
p13
sVOperating System
p14
VWindows 10
p15
sVColor Category
p16
VMulticolor
p17
sVVideo Game Platform
p18
VPC
p19
sVBrand
p20
VHP
p21
sVManufacturer Part Number
p22
VX9V65UT#ABA
p23
sVHard Drive Capacity
p24
V64 Gigabytes
p25
sVLaptop Computer Type
p26
VPC Laptops
p27
sVProcessor Core Type
p28
VDual-core (2 Core)
p29
sVProcessor Type
p30
VIntel N3060
p31
sVScreen Size
p32
V11.60 in
p33
sVModel
p34
VX9V65UT#ABA
p35
sVManufacturer
p36
VHP
p37
ssS'title'
p38
VHP Stream Pro 11 G3 - 11.6" - Celeron N3060 - 4 GB RAM - 64 GB SSD
p39
sb.