ccopy_reg
_reconstructor
p0
(c__main__
ProductRecord
p1
c__builtin__
object
p2
Ntp3
Rp4
(dp5
S'product_url'
p6
S'http://www.walmart.com/ip/Manufacturer-Refurbished-HP-15-BW020NR-15-6-Laptop-AMD-A6-9220-2-5GHz-4GB-1TB-Windows-10/222256184'
p7
sS'price'
p8
V$264.99
p9
sS'properties'
p10
(dp11
VBrand
p12
VHP
p13
sVScreen Size
p14
V15.6\u005c"
p15
sVModel
p16
V15-BW020NR-RF
p17
sVCondition
p18
VRefurbished
p19
sVManufacturer Part Number
p20
V15-BW020NR-RF
p21
ssS'title'
p22
VManufacturer Refurbished - HP 15-BW020NR 15.6" Laptop AMD A6-9220 2.5GHz 4GB 1TB Windows 10
p23
sb.