ccopy_reg
_reconstructor
p0
(c__main__
ProductRecord
p1
c__builtin__
object
p2
Ntp3
Rp4
(dp5
S'product_url'
p6
S'http://www.walmart.com/ip/Refurbished-Dell-Latitude-E6520-i7-2-8GHz-4GB-320GB-DRW-Windows-10-Pro-64-Laptop-B-Camera/383108100'
p7
sS'price'
p8
V$287.35
p9
sS'properties'
p10
(dp11
VRAM Memory
p12
V4 Gigabytes
p13
sVOperating System
p14
VWindows 10
p15
sVBrand
p16
VDell
p17
sVProcessor Speed
p18
V2.8 Gigahertz
p19
sVMaximum RAM Supported
p20
V8 Gigabytes
p21
sVHard Drive Capacity
p22
V320 Gigabytes
p23
sVModel
p24
VLatitude E6520
p25
sVProcessor Type
p26
VIntel Core i7
p27
ssS'title'
p28
VRefurbished Dell Latitude E6520 i7 2.8GHz 4GB 320GB DRW Windows 10 Pro 64 Laptop B Camera
p29
sb.