ccopy_reg
_reconstructor
p0
(c__main__
ProductRecord
p1
c__builtin__
object
p2
Ntp3
Rp4
(dp5
S'product_url'
p6
S'http://www.walmart.com/ip/HP-17-3-inch-HD-Flagship-High-Performance-Laptop-PC-Intel-Core-i7-7500U-2-7GHz-Dual-Core-8GB-DDR4-1TB-HDD-DVD-RW-Stereo-Speakers-Webcam-WIFI-Windows-/881170322'
p7
sS'price'
p8
V$659.00
p9
sS'properties'
p10
(dp11
VRAM Memory
p12
V8.00 GB
p13
sVOperating System
p14
VWindows 10
p15
sVBrand
p16
VHP
p17
sVHard Drive Capacity
p18
V1.00 TB
p19
sVProcessor Type
p20
VIntel Core i7-7500U
p21
sVProcessor Speed
p22
V2.70 GHz
p23
sVCondition
p24
VNew
p25
ssS'title'
p26
VHP 17.3 inch HD Flagship High Performance Laptop PC, Intel Core i7-7500U 2.7GHz Dual-Core, 8GB DDR4, 1TB HDD, DVD RW, Stereo Speakers, Webcam, WIFI, Windows 10, Black
p27
sb.