ccopy_reg
_reconstructor
p0
(c__main__
ProductRecord
p1
c__builtin__
object
p2
Ntp3
Rp4
(dp5
S'product_url'
p6
S'http://www.walmart.com/ip/Intel-Compute-Stick-STK2m3W64CC-Intel-Core-M-m3-6Y30-Dual-core-2-Core-900-MHz-4-GB-LPDDR3-64-GB-Flash-Memory-Intel-HD-Graphics-515-Wireless-LAN-Bluet/194829238'
p7
sS'price'
p8
V$372.87
p9
sS'properties'
p10
(dp11
VRAM Memory
p12
V4 Gigabytes
p13
sVOperating System
p14
VWindows 10
p15
sVBrand
p16
VIntel
p17
sVProcessor Speed
p18
V900 Megahertz
p19
sVManufacturer Part Number
p20
VBOXSTK2M3W64CC
p21
sVHard Drive Capacity
p22
V4
p23
sVModel
p24
VSTK2m3W64CC
p25
sVProcessor Type
p26
VCore M
p27
ssS'title'
p28
VIntel Compute Stick STK2m3W64CC - Intel - Core M - m3-6Y30 - Dual-core (2 Core) - 900 MHz - 4 GB - LPDDR3 - 64 GB Flash Memory - Intel - HD Graphics 515 - Wireless LAN - Bluetooth - HDMI - 1 x Number
p29
sb.