ccopy_reg
_reconstructor
p0
(c__main__
ProductRecord
p1
c__builtin__
object
p2
Ntp3
Rp4
(dp5
S'product_url'
p6
S'http://www.walmart.com/ip/Refurbished-HP-ENVY-13-d040wm-13-3-Laptop-Windows-10-Home-Intel-Core-i7-6500U-Dual-Core-Processor-8GB-RAM-256GB-Solid-State-Drive/55472773'
p7
sS'price'
p8
V$540.00
p9
sS'properties'
p10
(dp11
VRAM Memory
p12
V8 GB
p13
sVOperating System
p14
VWindows 10
p15
sVFeatures
p16
VEPEAT
p17
sVVideo Game Platform
p18
VPC
p19
sVBrand
p20
VHP
p21
sVProcessor Speed
p22
V2.50 GHz, with a Max Turbo Speed of 3.10 GHz
p23
sVManufacturer Part Number
p24
VN5S61UA#ABA
p25
sVHard Drive Capacity
p26
V256 GB
p27
sVBattery Life
p28
V7 hours 30 minutes
p29
sVAssembled Product Dimensions (L x W x H)
p30
V18.50 x 11.57 x 2.99 Inches
p31
sVModel
p32
VRB13-d040wm
p33
sVScreen Size
p34
V13.3"
p35
sVProcessor Type
p36
VIntel Core i7
p37
sVCondition
p38
VRefurbished
p39
ssS'title'
p40
VRefurbished HP ENVY 13-d040wm 13.3" Laptop, Windows 10 Home, Intel Core i7-6500U Dual-Core Processor, 8GB RAM, 256GB Solid State Drive
p41
sb.