ccopy_reg
_reconstructor
p0
(c__main__
ProductRecord
p1
c__builtin__
object
p2
Ntp3
Rp4
(dp5
S'product_url'
p6
S'http://www.walmart.com/ip/Refurbished-Dell-745-SFF-Desktop-PC-with-Intel-Core-2-Duo-E6300-Processor-4GB-Memory-22-LCD-Monitor-160GB-Hard-Drive-and-Windows-10-Home/55484901'
p7
sS'price'
p8
V$167.93
p9
sS'properties'
p10
(dp11
VRAM Memory
p12
V4 GB
p13
sVOperating System
p14
VWindows 10
p15
sVColor Category
p16
VGray
p17
sVVideo Game Platform
p18
VPC
p19
sVBrand
p20
VDell
p21
sVManufacturer Part Number
p22
V62805557297
p23
sVHard Drive Capacity
p24
V160 GB
p25
sVLaptop Computer Type
p26
VPC Laptops
p27
sVProcessor Type
p28
VIntel Core 2 Duo E6300 Processor
p29
sVScreen Size
p30
V22"
p31
sVModel
p32
VDell 745 + 22" LCD
p33
sVManufacturer
p34
VDell
p35
ssS'title'
p36
VRefurbished Dell 745 SFF Desktop PC with Intel Core 2 Duo E6300 Processor, 4GB Memory, 22" LCD Monitor, 160GB Hard Drive and Windows 10 Home
p37
sb.