ccopy_reg
_reconstructor
p0
(c__main__
ProductRecord
p1
c__builtin__
object
p2
Ntp3
Rp4
(dp5
S'product_url'
p6
S'http://www.walmart.com/ip/Refurbished-Dell-Silver-14-1-Latitude-E6410-WA5-1165-Laptop-PC-with-Intel-Core-i5-520M-Processor-4GB-Memory-320GB-Hard-Drive-and-Windows-10-Pro/50910370'
p7
sS'price'
p8
V$180.00
p9
sS'properties'
p10
(dp11
VRAM Memory
p12
V4 GB
p13
sVOperating System
p14
VMicrosoft Windows, Windows 10
p15
sVVideo Game Platform
p16
VPC
p17
sVBrand
p18
VDell
p19
sVProcessor Speed
p20
V2.40 GHz
p21
sVManufacturer Part Number
p22
VIM5-0053-RF
p23
sVMaximum RAM Supported
p24
V8 GB
p25
sVHard Drive Capacity
p26
V320 GB
p27
sVAssembled Product Dimensions (L x W x H)
p28
V13.20 x 1.20 x 9.40 Inches
p29
sVModel
p30
VE6410
p31
sVScreen Size
p32
V14.1"
p33
sVProcessor Type
p34
VIntel Core i5
p35
sVCondition
p36
VRefurbished
p37
ssS'title'
p38
VRefurbished Dell Silver 14.1" Latitude E6410 WA5-1165 Laptop PC with Intel Core i5-520M Processor, 4GB Memory, 320GB Hard Drive and Windows 10 Pro
p39
sb.