ccopy_reg
_reconstructor
p0
(c__main__
ProductRecord
p1
c__builtin__
object
p2
Ntp3
Rp4
(dp5
S'product_url'
p6
S'http://www.walmart.com/ip/Refurbished-Dell-E6430-14-0-Laptop-Windows-10-Pro-Intel-Core-i5-3210M-Processor-4GB-RAM-120GB-Solid-State-Drive/55536476'
p7
sS'price'
p8
V$233.00
p9
sS'properties'
p10
(dp11
VRAM Memory
p12
V4 GB
p13
sVOperating System
p14
VWindows 10
p15
sVLaptop Computer Type
p16
VPC Laptops
p17
sVBrand
p18
VDell
p19
sVManufacturer Part Number
p20
V16VFDELP0347
p21
sVHard Drive Capacity
p22
V120 GB
p23
sVProcessor Type
p24
VIntel Core i5
p25
sVScreen Size
p26
V14.0"
p27
sVModel
p28
VDell Latitude E6430
p29
sVManufacturer
p30
VDell
p31
ssS'title'
p32
VRefurbished Dell E6430 14.0" Laptop, Windows 10 Pro, Intel Core i5-3210M Processor, 4GB RAM, 120GB Solid State Drive
p33
sb.