ccopy_reg
_reconstructor
p0
(c__main__
ProductRecord
p1
c__builtin__
object
p2
Ntp3
Rp4
(dp5
S'product_url'
p6
S'http://www.walmart.com/ip/Acer-Aspire-E15-E5-575-74RC-15-6-Full-HD-Screen-Intel-Core-i7-7500U-Processor-8GB-DDR4-1TB-Hard-Drive-Windows-10-Home-Steel-Gray/55484960'
p7
sS'price'
p8
V$618.90
p9
sS'properties'
p10
(dp11
VRAM Memory
p12
V8 KB
p13
sVOperating System
p14
VWindows 10
p15
sVBrand
p16
VAcer
p17
sVProcessor Speed
p18
V2.7 Hz
p19
sVManufacturer Part Number
p20
VNX.GLBAA.001
p21
sVMaximum RAM Supported
p22
V32 KB
p23
sVHard Drive Capacity
p24
V1 KB
p25
sVBattery Life
p26
V8 h
p27
sVAssembled Product Dimensions (L x W x H)
p28
V15.02 x 10.20 x 1.19 Inches
p29
sVModel
p30
VE5-575-74RC
p31
sVScreen Size
p32
V15.6 in
p33
sVProcessor Type
p34
V7th Generation Intel? Core? i7-7500U Processor 2.7GHz with Turbo Boost Technology up to 3.5GHz
p35
sVCondition
p36
VNew
p37
ssS'title'
p38
VAcer Aspire E15 E5-575-74RC 15.6" Full HD Screen,Intel Core i7-7500U Processor, 8GB DDR4, 1TB Hard Drive, Windows 10 Home, Steel Gray
p39
sb.