ccopy_reg
_reconstructor
p0
(c__main__
ProductRecord
p1
c__builtin__
object
p2
Ntp3
Rp4
(dp5
S'product_url'
p6
S'http://www.walmart.com/ip/HP-Silver-17-3-Pavilion-17-g121wm-Laptop-PC-with-AMD-A10-8700P-Processor-8GB-Memory-1TB-Hard-Drive-and-Windows-10-Home/46429956'
p7
sS'price'
p8
V$569.00
p9
sS'properties'
p10
(dp11
VRAM Memory
p12
V8 GB
p13
sVOperating System
p14
VWindows 10
p15
sVFeatures
p16
VEPEAT
p17
sVVideo Game Platform
p18
VPC
p19
sVBrand
p20
VHP
p21
sVProcessor Speed
p22
V1.80 GHz, with a Max Turbo Speed of 3.20 GHz
p23
sVManufacturer Part Number
p24
VN9E13UA#ABA
p25
sVHard Drive Capacity
p26
V1 Terabytes
p27
sVBattery Life
p28
V5 hours
p29
sVAssembled Product Dimensions (L x W x H)
p30
V0.29 x 16.49 x 1.07 Inches
p31
sVModel
p32
V17-g121wm
p33
sVScreen Size
p34
V17.3"
p35
sVProcessor Type
p36
VAMD Quad-Core A10-8700P APU Processor
p37
sVCondition
p38
VNew
p39
ssS'title'
p40
VHP Silver 17.3" Pavilion 17-g121wm Laptop PC with AMD A10-8700P Processor, 8GB Memory, 1TB Hard Drive and Windows 10 Home
p41
sb.