ccopy_reg
_reconstructor
p0
(c__main__
ProductRecord
p1
c__builtin__
object
p2
Ntp3
Rp4
(dp5
S'product_url'
p6
S'http://www.walmart.com/ip/HP-Core-i5-7200U-2-50-GHz-8-GB-15-6-Notebook/738067185'
p7
sS'price'
p8
S'N/A'
p9
sS'properties'
p10
(dp11
VRAM Memory
p12
V8.00 GB
p13
sVOperating System
p14
VWindows 10
p15
sVColor Category
p16
VBlack
p17
sVLaptop Computer Type
p18
VPC Laptops
p19
sVBrand
p20
VHP
p21
sVManufacturer Part Number
p22
V1WP55UA#ABA
p23
sVHard Drive Capacity
p24
V1.00 TB
p25
sVProcessor Core Type
p26
VDual-core (2 Core)
p27
sVProcessor Type
p28
VIntel Core i5
p29
sVScreen Size
p30
V15.60 in
p31
sVModel
p32
V15BS071NRDEMO
p33
sVManufacturer
p34
VHP INC.
p35
ssS'title'
p36
VHP Core i5 7200U 2.50 GHz - 8 GB 15.6" Notebook
p37
sb.