ccopy_reg
_reconstructor
p0
(c__main__
ProductRecord
p1
c__builtin__
object
p2
Ntp3
Rp4
(dp5
S'product_url'
p6
S'http://www.walmart.com/ip/Refurbished-Dell-390-TWR-Desktop-PC-with-Intel-Core-i5-2400-Processor-4GB-Memory-250GB-Hard-Drive-and-Windows-10-Home-Monitor-Not-Included/55649359'
p7
sS'price'
p8
V$187.26
p9
sS'properties'
p10
(dp11
VRAM Memory
p12
V4 GB
p13
sVOperating System
p14
VWindows 10
p15
sVFeatures
p16
VWireless, ROHS Compliant
p17
sVVideo Game Platform
p18
VPC
p19
sVBrand
p20
VDell
p21
sVProcessor Speed
p22
V3.10 GHz
p23
sVManufacturer Part Number
p24
V62805557580
p25
sVMaximum RAM Supported
p26
V16 GB
p27
sVHard Drive Capacity
p28
V250 GB
p29
sVAssembled Product Dimensions (L x W x H)
p30
V16.42 x 6.89 x 14.17 Inches
p31
sVModel
p32
VDell 390 Wifi
p33
sVProcessor Type
p34
VIntel Core i5-2400 Processor
p35
ssS'title'
p36
VRefurbished Dell 390 TWR Desktop PC with Intel Core i5-2400 Processor, 4GB Memory, 250GB Hard Drive and Windows 10 Home (Monitor Not Included)
p37
sb.