ccopy_reg
_reconstructor
p0
(c__main__
ProductRecord
p1
c__builtin__
object
p2
Ntp3
Rp4
(dp5
S'product_url'
p6
S'http://www.walmart.com/ip/ASUS-Q304UA-BHI5T11-2-in-1-13-3-Touchscreen-Touch-Screen-Laptop-Notebook-PC-Computer-Tablet-i5-6GB-1TB-7th-Gen-KABY-LAKE-i5-7200U/107490907'
p7
sS'price'
p8
S'N/A'
p9
sS'properties'
p10
(dp11
VRAM Memory
p12
V6 GB
p13
sVOperating System
p14
VMicrosoft Windows
p15
sVLaptop Computer Type
p16
VTouchscreen
p17
sVBrand
p18
VASUS
p19
sVModel
p20
VBHI5T11
p21
sVManufacturer
p22
VAsus
p23
sVScreen Size
p24
V13.3
p25
sVCondition
p26
VNew
p27
sVmanufacturer_part_number
p28
VQ304UA-BHI5T11
p29
ssS'title'
p30
VASUS Q304UA-BHI5T11 2-in-1 13.3" Touchscreen Touch Screen Laptop Notebook PC Computer Tablet i5 6GB 1TB 7th Gen KABY LAKE i5-7200U
p31
sb.