ccopy_reg
_reconstructor
p0
(c__main__
ProductRecord
p1
c__builtin__
object
p2
Ntp3
Rp4
(dp5
S'product_url'
p6
S'http://www.walmart.com/ip/Acer-SW312-31P-P5BE-12-2-Touchscreen-LCD-2-1-Notebook-Intel-Pentium-N4200-Quad-core-4-Core-1-10-GHz-4-GB-LPDDR3-128-GB-Flash-Memory-Windows-10-Pro-64/563061811'
p7
sS'price'
p8
S'N/A'
p9
sS'properties'
p10
(dp11
VRAM Memory
p12
V4 Gigabytes
p13
sVOperating System
p14
VWindows 10
p15
sVBrand
p16
VAcer
p17
sVProcessor Speed
p18
V1.1 Gigahertz
p19
sVManufacturer Part Number
p20
VNT.LE5AA.001
p21
sVHard Drive Capacity
p22
V128 Gigabytes
p23
sVModel
p24
VNT.LE5AA.001
p25
sVScreen Size
p26
V12.20 Inches
p27
sVProcessor Type
p28
VIntel N4200
p29
sVCondition
p30
VNew
p31
ssS'title'
p32
VAcer SW312-31P-P5BE 12.2" Touchscreen LCD 2 in 1 Notebook - Intel Pentium N4200 Quad-core (4 Core) 1.10 GHz - 4 GB LPDDR3 - 128 GB Flash Memory - Windows 10 Pro 64-bit - 1920 x 1200 -
p33
sb.