ccopy_reg
_reconstructor
p0
(c__main__
ProductRecord
p1
c__builtin__
object
p2
Ntp3
Rp4
(dp5
S'product_url'
p6
S'http://www.walmart.com/ip/Refurbished-Lenovo-Black-15-6-ThinkPad-T510-Laptop-PC-with-Intel-Core-i5-520M-Processor-4GB-Memory-250GB-Hard-Drive-and-Windows-10-Home/50910397'
p7
sS'price'
p8
V$234.09
p9
sS'properties'
p10
(dp11
VRAM Memory
p12
V4 GB
p13
sVOperating System
p14
VWindows 10
p15
sVVideo Game Platform
p16
VPC
p17
sVBrand
p18
VLenovo
p19
sVProcessor Speed
p20
V2.40 GHz
p21
sVManufacturer Part Number
p22
VWA5-1192
p23
sVMaximum RAM Supported
p24
V8 GB
p25
sVHard Drive Capacity
p26
V250 GB
p27
sVAssembled Product Dimensions (L x W x H)
p28
V14.70 x 1.40 x 9.60 Inches
p29
sVModel
p30
VT510
p31
sVScreen Size
p32
V15.6 in
p33
sVProcessor Type
p34
VIntel Core i5
p35
sVCondition
p36
VRefurbished
p37
ssS'title'
p38
VRefurbished Lenovo Black 15.6" ThinkPad T510 Laptop PC with Intel Core i5-520M Processor, 4GB Memory, 250GB Hard Drive and Windows 10 Home
p39
sb.