ccopy_reg
_reconstructor
p0
(c__main__
ProductRecord
p1
c__builtin__
object
p2
Ntp3
Rp4
(dp5
S'product_url'
p6
S'http://www.walmart.com/ip/Asus-FX503VM-15-6-FHD-Intel-Core-i7-7700HQ-Quad-Core-2-8GHz-Turbo-3-8GHz-3GB-GTX-1060-128GB-SSD-1TB-HDD-16GB-DDR4-Windows-10-Powerful-Gaming-Laptop/614634188'
p7
sS'price'
p8
V$1,099.00
p9
sS'properties'
p10
(dp11
VRAM Memory
p12
V16.00 GB
p13
sVOperating System
p14
VWindows 10
p15
sVVideo Game Platform
p16
VSee Description
p17
sVBrand
p18
VASUS
p19
sVProcessor Speed
p20
V2.80 GHz
p21
sVManufacturer Part Number
p22
V90NR0GP1-M00060
p23
sVMaximum RAM Supported
p24
V32.00 GB
p25
sVHard Drive Capacity
p26
V1.00 TB
p27
sVAssembled Product Dimensions (L x W x H)
p28
V15.10 x 10.30 x 0.90 Inches
p29
sVModel
p30
VFX503VMEH73
p31
sVScreen Size
p32
V15.60 in
p33
sVProcessor Type
p34
VIntel Core i7
p35
sVCondition
p36
VNew
p37
ssS'title'
p38
VAsus FX503VM 15.6\u201d FHD, Intel Core i7-7700HQ Quad-Core 2.8GHz (Turbo up to 3.8GHz), 3GB GTX 1060, 128GB SSD + 1TB HDD, 16GB DDR4, Windows 10 Powerful Gaming Laptop
p39
sb.