ccopy_reg
_reconstructor
p0
(c__main__
ProductRecord
p1
c__builtin__
object
p2
Ntp3
Rp4
(dp5
S'product_url'
p6
S'http://www.walmart.com/ip/Asus-FX73VE-WH71-17-3-Full-HD-GTX-1050Ti-4GB-GDDR5-Gaming-Laptop/344414193'
p7
sS'price'
p8
V$899.00
p9
sS'properties'
p10
(dp11
VRAM Memory
p12
V8.00 GB
p13
sVOperating System
p14
VWindows 10
p15
sVFeatures
p16
VINTEL CORE I7-7700HQ 2.8GHZ
p17
sVVideo Game Platform
p18
VSee Description
p19
sVBrand
p20
VASUS
p21
sVProcessor Speed
p22
V2.80 GHz
p23
sVManufacturer Part Number
p24
V90NB0DN3-M02700
p25
sVMaximum RAM Supported
p26
V24.00 GB
p27
sVHard Drive Capacity
p28
V1.00 TB
p29
sVBattery Life
p30
V0 h
p31
sVAssembled Product Dimensions (L x W x H)
p32
V16.00 x 11.00 x 1.00 Inches
p33
sVModel
p34
VFX73VEWH71
p35
sVScreen Size
p36
V15.60 in
p37
sVProcessor Type
p38
VIntel Core i7
p39
sVCondition
p40
VNew
p41
ssS'title'
p42
VAsus FX73VE-WH71 17.3" Full HD GTX 1050Ti 4GB GDDR5 Gaming Laptop
p43
sb.