ccopy_reg
_reconstructor
p0
(c__main__
ProductRecord
p1
c__builtin__
object
p2
Ntp3
Rp4
(dp5
S'product_url'
p6
S'http://www.walmart.com/ip/HP-Stream-14in-Notebook-With-32GB-4GB-RAM-1-6GHz-and-DeskJet-3755-Photo-Printer-and-20-Sheets-of-HP-Photo-Paper-Bundle-Certified-Refurbished/172333349'
p7
sS'price'
p8
V$260.99
p9
sS'properties'
p10
(dp11
VRAM Memory
p12
V32 GB, 4 GB
p13
sVOperating System
p14
VWindows 10
p15
sVFeatures
p16
VHP Webcam
p17
sVBrand
p18
VHP
p19
sVManufacturer Part Number
p20
V3752.X7S45UA.RB
p21
sVModel
p22
V3752.X7S45UA
p23
sVScreen Size
p24
V14\u005c"
p25
sVProcessor Type
p26
VIntel Celeron
p27
ssS'title'
p28
VHP Stream 14in Notebook With 32GB, 4GB RAM, 1.6GHz, and DeskJet 3755 Photo Printer and 20 Sheets of HP Photo Paper Bundle (Certified Refurbished)
p29
sb.