ccopy_reg
_reconstructor
p0
(c__main__
ProductRecord
p1
c__builtin__
object
p2
Ntp3
Rp4
(dp5
S'product_url'
p6
S'http://www.walmart.com/ip/REFURBISHED-Lenovo-ThinkPad-T430-i5-2-6GHz-8GB-320GB-DRW-Windows-10-Pro-64-Laptop-Computer/53749698'
p7
sS'price'
p8
V$268.05
p9
sS'properties'
p10
(dp11
VRAM Memory
p12
V8 Gigabytes
p13
sVOperating System
p14
VWindows 10
p15
sVColor Category
p16
VBlack
p17
sVLaptop Computer Type
p18
VPC Laptops
p19
sVBrand
p20
VLenovo
p21
sVWireless Technology
p22
V802 11 ABGN
p23
sVHard Drive Capacity
p24
V320 Gibibytes
p25
sVProcessor Core Type
p26
VIntel i5 Dual Core
p27
sVProcessor Type
p28
VIntel Core i5
p29
sVScreen Size
p30
V14.0" WideScreen
p31
sVModel
p32
VThinkpad T430
p33
sVCondition
p34
VRefurbished
p35
sVManufacturer
p36
VLENOVO
p37
ssS'title'
p38
VREFURBISHED Lenovo ThinkPad T430 i5 2.6GHz 8GB 320GB DRW Windows 10 Pro 64 Laptop Computer
p39
sb.