ccopy_reg
_reconstructor
p0
(c__main__
ProductRecord
p1
c__builtin__
object
p2
Ntp3
Rp4
(dp5
S'product_url'
p6
S'http://www.walmart.com/ip/HP-15-ay039wm-15-6-Silver-Fusion-Laptop-Windows-10-Intel-Core-i3-6100U-Processor-8GB-Memory-1TB-Hard-Drive/51397788'
p7
sS'price'
p8
V$469.00
p9
sS'properties'
p10
(dp11
VRAM Memory
p12
V8 GB
p13
sVOperating System
p14
VWindows 10
p15
sVFeatures
p16
VEPEAT
p17
sVVideo Game Platform
p18
VPC
p19
sVBrand
p20
VHP
p21
sVProcessor Speed
p22
V2.3 GHz
p23
sVManufacturer Part Number
p24
VX0H85UA#ABA
p25
sVMaximum RAM Supported
p26
V8 GB
p27
sVHard Drive Capacity
p28
V1 TB
p29
sVBattery Life
p30
V6 hours
p31
sVAssembled Product Dimensions (L x W x H)
p32
V15.12 x 10.02 x 0.95 Inches
p33
sVModel
p34
V15-ay039wm
p35
sVScreen Size
p36
V15.6 in
p37
sVProcessor Type
p38
VIntel Core i3-6100U Dual-Core Processor2.3GHz
p39
sVCondition
p40
VNew
p41
ssS'title'
p42
VHP 15-ay039wm 15.6" Silver Fusion Laptop, Windows 10, Intel Core i3-6100U Processor, 8GB Memory, 1TB Hard Drive
p43
sb.