ccopy_reg
_reconstructor
p0
(c__main__
ProductRecord
p1
c__builtin__
object
p2
Ntp3
Rp4
(dp5
S'product_url'
p6
S'http://www.walmart.com/ip/Manufacturer-Refurbished-Asus-L200HA-BB01-BL-11-6-Laptop-Intel-Atom-Z8350-1-44GHz-32GB-eMMC-2GB-Blue/654326775'
p7
sS'price'
p8
V$149.99
p9
sS'properties'
p10
(dp11
VRAM Memory
p12
V2 Gigabytes
p13
sVOperating System
p14
VWindows 10
p15
sVColor Category
p16
VBlue
p17
sVLaptop Computer Type
p18
VPC Laptops
p19
sVBrand
p20
VASUS
p21
sVManufacturer Part Number
p22
VL200HA-RF
p23
sVWireless Technology
p24
VDual-band 802.11 a/b/g/n/ac
p25
sVHard Drive Capacity
p26
V32 Gigabytes
p27
sVProcessor Type
p28
VIntel Atom
p29
sVScreen Size
p30
V11.6 Inches
p31
sVModel
p32
VL200HA-RF
p33
sVManufacturer
p34
VAsus
p35
ssS'title'
p36
VManufacturer Refurbished - Asus L200HA-BB01-BL 11.6" Laptop  Intel Atom Z8350 1.44GHz 32GB eMMC 2GB - Blue
p37
sb.