ccopy_reg
_reconstructor
p0
(c__main__
ProductRecord
p1
c__builtin__
object
p2
Ntp3
Rp4
(dp5
S'product_url'
p6
S'http://www.walmart.com/ip/Samsung-NP800G5M-X01US-Odyssey-15-6-Laptop-Windows-10-Home-Intel-Core-i7-7700HQ-16GB-RAM-128GB-Solid-State-and-1TB-Hard-Drive/55615854'
p7
sS'price'
p8
V$1,197.99
p9
sS'properties'
p10
(dp11
VRAM Memory
p12
V16 GB
p13
sVOperating System
p14
VWindows 10
p15
sVFeatures
p16
VEPEAT
p17
sVVideo Game Platform
p18
VPC
p19
sVBrand
p20
VSamsung
p21
sVProcessor Speed
p22
V2.80 GHz, with a Max Turbo Speed of 3.80 GHz
p23
sVManufacturer Part Number
p24
V4U0367
p25
sVMaximum RAM Supported
p26
V16 GB
p27
sVHard Drive Capacity
p28
V1 TB, 128 GB
p29
sVBattery Life
p30
V7 Hour
p31
sVAssembled Product Dimensions (L x W x H)
p32
V14.88 x 10.24 x 0.94 Inches
p33
sVModel
p34
VNP800G5M-X01US
p35
sVScreen Size
p36
V15.6"
p37
sVProcessor Type
p38
VIntel Core i7
p39
ssS'title'
p40
VSamsung NP800G5M-X01US Odyssey 15.6" Laptop, Windows 10 Home, Intel Core i7-7700HQ, 16GB RAM, 128GB Solid State and 1TB Hard Drive
p41
sb.