ccopy_reg
_reconstructor
p0
(c__main__
ProductRecord
p1
c__builtin__
object
p2
Ntp3
Rp4
(dp5
S'product_url'
p6
S'http://www.walmart.com/ip/Microsoft-Surface-Book-with-Performance-Base-13-5-Core-i7-6600U-8-GB-RAM-256-GB-SSD-English-North-America/139803946'
p7
sS'price'
p8
S'N/A'
p9
sS'properties'
p10
(dp11
VRAM Memory
p12
V8 Gigabytes
p13
sVOperating System
p14
VWindows 10
p15
sVVideo Game Platform
p16
VPC
p17
sVBrand
p18
VMicrosoft
p19
sVProcessor Speed
p20
V2.60 Gigahertz
p21
sVManufacturer Part Number
p22
V9ER-00001
p23
sVBattery Life
p24
V16
p25
sVAssembled Product Dimensions (L x W x H)
p26
V5.00 x 5.00 x 5.00 Inches
p27
sVModel
p28
V9ER-00001
p29
sVScreen Size
p30
V13.5 Inches
p31
sVProcessor Type
p32
VIntel Core i7
p33
sVCondition
p34
VNew
p35
ssS'title'
p36
VMicrosoft Surface Book with Performance Base - 13.5" - Core i7 6600U - 8 GB RAM - 256 GB SSD - English - North America
p37
sb.