ccopy_reg
_reconstructor
p0
(c__main__
ProductRecord
p1
c__builtin__
object
p2
Ntp3
Rp4
(dp5
S'product_url'
p6
S'http://www.walmart.com/ip/Acer-Aspire-5-Notebook-with-Intel-i5-8250U-8GB-1TB-HDD/719943578'
p7
sS'price'
p8
V$558.65
p9
sS'properties'
p10
(dp11
VRAM Memory
p12
V8 Gigabytes
p13
sVOperating System
p14
VWindows 10
p15
sVBrand
p16
VAcer
p17
sVProcessor Speed
p18
V1.6 Gigahertz
p19
sVManufacturer Part Number
p20
VNX.GTPAA.005
p21
sVHard Drive Capacity
p22
V1 Terabytes
p23
sVBattery Life
p24
V7 Hours
p25
sVAssembled Product Dimensions (L x W x H)
p26
V19.60 x 12.10 x 4.60 Inches
p27
sVModel
p28
VA515515398
p29
sVScreen Size
p30
V15.60 Inches
p31
sVProcessor Type
p32
VIntel i5-8250U
p33
sVCondition
p34
VNew
p35
ssS'title'
p36
VAcer Aspire 5 Notebook with Intel i5-8250U, 8GB 1TB HDD
p37
sb.