ccopy_reg
_reconstructor
p0
(c__main__
ProductRecord
p1
c__builtin__
object
p2
Ntp3
Rp4
(dp5
S'product_url'
p6
S'http://www.walmart.com/ip/Refurbished-HP-6005-DT-AMD-Processor-8GB-750GB-Windows-10-Home-Wi-Fi/334402743'
p7
sS'price'
p8
V$170.49
p9
sS'properties'
p10
(dp11
VRAM Memory
p12
V8 GB
p13
sVOperating System
p14
VWindows 10
p15
sVFeatures
p16
VComes with new wired keyboard and mouse
p17
sVBrand
p18
VHP
p19
sVProcessor Speed
p20
V3.0 GHz
p21
sVManufacturer Part Number
p22
V0062805557835
p23
sVMaximum RAM Supported
p24
V16 GB
p25
sVHard Drive Capacity
p26
V750 GB
p27
sVAssembled Product Dimensions (L x W x H)
p28
V19.00 x 19.00 x 9.00 Inches
p29
sVModel
p30
V0062805557835
p31
sVProcessor Type
p32
VAthlon II Dual-core Processor, 3.0 GHz
p33
sVCondition
p34
VRefurbished
p35
ssS'title'
p36
VRefurbished HP 6005 DT, AMD Processor, 8GB, 750GB, Windows 10 Home, Wi-Fi
p37
sb.