ccopy_reg
_reconstructor
p0
(c__main__
ProductRecord
p1
c__builtin__
object
p2
Ntp3
Rp4
(dp5
S'product_url'
p6
S'http://www.walmart.com/ip/Refurbished-HP-14-EliteBook-8460P-Laptop-PC-with-Intel-Core-i5-Processor-4GB-Memory-750GB-Hard-Drive-and-Windows-10-Pro/38760883'
p7
sS'price'
p8
V$218.00
p9
sS'properties'
p10
(dp11
VRAM Memory
p12
V4 GB
p13
sVOperating System
p14
VWindows 10
p15
sVVideo Game Platform
p16
VPC
p17
sVBrand
p18
VHP
p19
sVProcessor Speed
p20
V2.50 GHz
p21
sVManufacturer Part Number
p22
V8460P LT
p23
sVMaximum RAM Supported
p24
V8 GB
p25
sVHard Drive Capacity
p26
V750 GB
p27
sVBattery Life
p28
V30 minutes
p29
sVAssembled Product Dimensions (L x W x H)
p30
V9.10 x 1.50 x 13.30 Inches
p31
sVModel
p32
V8460P LT
p33
sVScreen Size
p34
V14.0 in
p35
sVProcessor Type
p36
VIntel Core i5
p37
sVCondition
p38
VRefurbished
p39
ssS'title'
p40
VRefurbished HP 14" EliteBook 8460P Laptop PC with Intel Core i5 Processor, 4GB Memory, 750GB Hard Drive and Windows 10 Pro
p41
sb.