ccopy_reg
_reconstructor
p0
(c__main__
ProductRecord
p1
c__builtin__
object
p2
Ntp3
Rp4
(dp5
S'product_url'
p6
S'http://www.walmart.com/ip/Acer-Swift-5-SF514-52T-SF514-52T-82WQ-14-Intel-Core-i7-i7-8550U-16GB-512GB-SSD-Windows-10-Home-1920-x-1080-IPS-Pro-Ultrabook/259562819'
p7
sS'price'
p8
V$1,296.99
p9
sS'properties'
p10
(dp11
VRAM Memory
p12
V16.00 GB
p13
sVOperating System
p14
VWindows 10
p15
sVBrand
p16
VAcer
p17
sVProcessor Speed
p18
V1.80 GHz
p19
sVManufacturer Part Number
p20
VNX.GTMAA.002
p21
sVHard Drive Capacity
p22
V512.00 GB
p23
sVBattery Life
p24
V8.00 h
p25
sVAssembled Product Dimensions (L x W x H)
p26
V18.75 x 3.90 x 1.20 Inches
p27
sVModel
p28
VSF51452T82WQ
p29
sVScreen Size
p30
V14.00 in
p31
sVProcessor Type
p32
VIntel Core i7
p33
sVCondition
p34
VNew
p35
ssS'title'
p36
VAcer Swift 5 SF514-52T SF514-52T-82WQ 14" Intel Core i7 i7-8550U 16GB 512GB SSD - Windows 10 Home 1920 x 1080 IPS-Pro Ultrabook
p37
sb.