ccopy_reg
_reconstructor
p0
(c__main__
ProductRecord
p1
c__builtin__
object
p2
Ntp3
Rp4
(dp5
S'product_url'
p6
S'http://www.walmart.com/ip/HP-Envy-15-as014wm-15-6-Laptop-Full-HD-IPS-Touch-Screen-Windows-10-Intel-Core-i7-6500U-Processor-8GB-Memory-1TB-Hard-Drive-Natural-Silver/51397792'
p7
sS'price'
p8
V$649.00
p9
sS'properties'
p10
(dp11
VRAM Memory
p12
V8 GB
p13
sVOperating System
p14
VWindows 10
p15
sVFeatures
p16
VEPEAT
p17
sVVideo Game Platform
p18
VPC
p19
sVBrand
p20
VHP
p21
sVProcessor Speed
p22
V2.50 GHz, with a Max Turbo Speed of 3.10 GHz
p23
sVHard Drive Capacity
p24
V1 TB
p25
sVBattery Life
p26
V9 hours
p27
sVAssembled Product Dimensions (L x W x H)
p28
V14.96 x 10.04 x 0.71 Inches
p29
sVModel
p30
V15-as014wm
p31
sVScreen Size
p32
V15.6 in
p33
sVProcessor Type
p34
VIntel 7265 AC (2x2 AC, 867 Mbps)
p35
sVCondition
p36
VNew
p37
sVmanufacturer_part_number
p38
V15-as014wm
p39
ssS'title'
p40
VHP Envy 15-as014wm 15.6" Laptop, Full-HD IPS Touch Screen, Windows 10, Intel Core i7-6500U Processor, 8GB Memory, 1TB Hard Drive, Natural Silver
p41
sb.