ccopy_reg
_reconstructor
p0
(c__main__
ProductRecord
p1
c__builtin__
object
p2
Ntp3
Rp4
(dp5
S'product_url'
p6
S'http://www.walmart.com/ip/Refurbished-Lenovo-ThinkPad-T440s-2-1GHz-i7-12GB-240SSD-Windows-10-Pro-64-Laptop-B/947708643'
p7
sS'price'
p8
V$372.00
p9
sS'properties'
p10
(dp11
VBrand
p12
VLenovo
p13
sVModel
p14
VThinkPad T440s
p15
ssS'title'
p16
VRefurbished Lenovo ThinkPad T440s 2.1GHz i7 12GB 240SSD Windows 10 Pro 64 Laptop B
p17
sb.