ccopy_reg
_reconstructor
p0
(c__main__
ProductRecord
p1
c__builtin__
object
p2
Ntp3
Rp4
(dp5
S'product_url'
p6
S'http://www.walmart.com/ip/DELL-XPS-13-9360-256GB-SSD-3200-x-1800-IPS-Notebook/778064485'
p7
sS'price'
p8
V$1,655.99
p9
sS'properties'
p10
(dp11
VRAM Memory
p12
V8.00 GB
p13
sVOperating System
p14
VWindows 10
p15
sVFeatures
p16
VHD 6403200X1800N1535W10SILVER13.3IN
p17
sVBrand
p18
VDell
p19
sVProcessor Speed
p20
V2.40 GHz
p21
sVManufacturer Part Number
p22
VPFG0V
p23
sVMaximum RAM Supported
p24
V16.00 GB
p25
sVHard Drive Capacity
p26
V256.00 GB
p27
sVBattery Life
p28
V13.00 h
p29
sVAssembled Product Dimensions (L x W x H)
p30
V11.50 x 12.00 x 0.60 Inches
p31
sVModel
p32
VXPS9360PFG0V
p33
sVScreen Size
p34
V13.30 in
p35
sVProcessor Type
p36
VIntel Core i7
p37
sVCondition
p38
VNew
p39
ssS'title'
p40
VDELL XPS 13 9360 256GB SSD - 3200 x 1800 IPS Notebook
p41
sb.