ccopy_reg
_reconstructor
p0
(c__main__
ProductRecord
p1
c__builtin__
object
p2
Ntp3
Rp4
(dp5
S'product_url'
p6
S'http://www.walmart.com/ip/Asus-ROG-Strix-GL503VM-Core-i7-7700HQ-15-6-FHD-1920-1080-GTX-1060-256GB-NVMe-PCIE-SSD-1TB-SSHD-Gaming-Laptop/941955133'
p7
sS'price'
p8
V$1,544.15
p9
sS'properties'
p10
(dp11
VRAM Memory
p12
V16.00 GB
p13
sVOperating System
p14
VWindows 10
p15
sVVideo Game Platform
p16
VSee Description
p17
sVBrand
p18
VASUS
p19
sVProcessor Speed
p20
V2.80 GHz
p21
sVManufacturer Part Number
p22
V90NB0GI4-M01970
p23
sVMaximum RAM Supported
p24
V32.00 GB
p25
sVHard Drive Capacity
p26
V1.00 TB
p27
sVBattery Life
p28
V4 Hours
p29
sVAssembled Product Dimensions (L x W x H)
p30
V15.10 x 0.43 x 0.04 Inches
p31
sVModel
p32
VGL503VMDB74
p33
sVScreen Size
p34
V15.60 in
p35
sVProcessor Type
p36
VIntel Core i7
p37
sVCondition
p38
VNew
p39
ssS'title'
p40
VAsus ROG Strix GL503VM Core i7-7700HQ 15.6" FHD (1920*1080) GTX 1060 256GB NVMe/PCIE SSD + 1TB SSHD Gaming Laptop
p41
sb.