ccopy_reg
_reconstructor
p0
(c__main__
ProductRecord
p1
c__builtin__
object
p2
Ntp3
Rp4
(dp5
S'product_url'
p6
S'http://www.walmart.com/ip/Acer-Swift-3-15-6-Full-HD-8th-Gen-Intel-Core-i5-8250U-NVIDIA-GeForce-MX150-8GB-DDR4-256GB-SSD-Windows-10-SF315-51G-51CE/56147310'
p7
sS'price'
p8
V$699.00
p9
sS'properties'
p10
(dp11
VRAM Memory
p12
V8 GB
p13
sVOperating System
p14
VMicrosoft Windows, Windows 10
p15
sVFeatures
p16
VGorilla Glass,  Kensington Lock Slot Acer Bio-Protection fingerprint solution, featuring computer protection and Windows Hello Certification BIOS Passwords:  User Supervisor HDD   
p17
sVBrand
p18
VAcer
p19
sVProcessor Speed
p20
V1.6 Hz
p21
sVManufacturer Part Number
p22
VNX.GSJAA.001
p23
sVMaximum RAM Supported
p24
V16 GB
p25
sVHard Drive Capacity
p26
V256 GB
p27
sVBattery Life
p28
V10 Hour
p29
sVAssembled Product Dimensions (L x W x H)
p30
V14.59 x 10.04 x 12.20 Inches
p31
sVModel
p32
VSF315-51G-51CE
p33
sVScreen Size
p34
V15.6"
p35
sVProcessor Type
p36
VIntel Core i5
p37
sVCondition
p38
VNew
p39
ssS'title'
p40
VAcer Swift 3, 15.6" Full HD, 8th Gen Intel Core i5-8250U, NVIDIA GeForce MX150, 8GB DDR4, 256GB SSD, Windows 10, SF315-51G-51CE
p41
sb.