ccopy_reg
_reconstructor
p0
(c__main__
ProductRecord
p1
c__builtin__
object
p2
Ntp3
Rp4
(dp5
S'product_url'
p6
S'http://www.walmart.com/ip/Dell-Inspiron-i3162-0003BLU-11-6-Inch-HD-Laptop-4GB-RAM-Windows-10-Certified-Refurbished/666128538'
p7
sS'price'
p8
V$169.99
p9
sS'properties'
p10
(dp11
VRAM Memory
p12
V4.00 GB
p13
sVOperating System
p14
VWindows 10
p15
sVFeatures
p16
VStereo speakers; MaxxAudio; Express Transfers
p17
sVBrand
p18
VDell
p19
sVProcessor Speed
p20
V2.48 GHz
p21
sVManufacturer Part Number
p22
VI3162-0003BLU-REFA
p23
sVHard Drive Capacity
p24
V32.00 GB
p25
sVModel
p26
VI3162-0003BLU-REFA
p27
sVScreen Size
p28
V11.60 in
p29
sVProcessor Type
p30
VIntel Celeron
p31
ssS'title'
p32
VDell Inspiron i3162-0003BLU 11.6-Inch HD Laptop, 4GB RAM, Windows 10 - (Certified Refurbished)
p33
sb.