ccopy_reg
_reconstructor
p0
(c__main__
ProductRecord
p1
c__builtin__
object
p2
Ntp3
Rp4
(dp5
S'product_url'
p6
S'http://www.walmart.com/ip/Refurbished-Dell-Latitude-E6420-Laptop-Core-i5-2520M-2-5GHz-4GB-RAM-120SSD-14-Win10-Webcam/501460484'
p7
sS'price'
p8
V$229.99
p9
sS'properties'
p10
(dp11
VRAM Memory
p12
V4 GB
p13
sVOperating System
p14
VWindows 10
p15
sVFeatures
p16
VBuilt-in Webcam
p17
sVBrand
p18
VDell
p19
sVManufacturer Part Number
p20
VDoes Not Apply
p21
sVModel
p22
VE6420
p23
sVScreen Size
p24
V14\u005c"
p25
sVProcessor Type
p26
VIntel Core i5 2nd Gen.
p27
sVCondition
p28
VNew
p29
ssS'title'
p30
VRefurbished Dell Latitude E6420 Laptop Core i5-2520M 2.5GHz 4GB RAM 120SSD 14" Win10 Webcam
p31
sb.