ccopy_reg
_reconstructor
p0
(c__main__
ProductRecord
p1
c__builtin__
object
p2
Ntp3
Rp4
(dp5
S'product_url'
p6
S'http://www.walmart.com/ip/Refurbished-Dell-Latitude-E5430-i5-2-6GHz-4GB-320GB-DVDRW-Win-10-Pro-64-Laptop-Computer/123653704'
p7
sS'price'
p8
V$189.00
p9
sS'properties'
p10
(dp11
VRAM Memory
p12
V4 Gigabytes
p13
sVOperating System
p14
VWindows 10
p15
sVBrand
p16
VDell
p17
sVProcessor Speed
p18
V2.6 Gigahertz
p19
sVMaximum RAM Supported
p20
V16 Gigabytes
p21
sVHard Drive Capacity
p22
V320 Gigabytes
p23
sVModel
p24
VLatitude E5430
p25
sVScreen Size
p26
V14.1 in
p27
sVProcessor Type
p28
VIntel Core i5
p29
ssS'title'
p30
VRefurbished Dell Latitude E5430 i5 2.6GHz 4GB 320GB DVDRW Win 10 Pro 64 Laptop Computer
p31
sb.