ccopy_reg
_reconstructor
p0
(c__main__
ProductRecord
p1
c__builtin__
object
p2
Ntp3
Rp4
(dp5
S'product_url'
p6
S'http://www.walmart.com/ip/ASUS-GL503VD-DB71-Gaming-Laptop-w-FREE-BUNDLE-15-6-FHD-Intel-Core-i7-7700HQ-NVIDIA-GeForce-GTX1050-16GB-DDR4-250GB-Samsung-960-EVO-NVMe-SSD-1TB-SSHD-/435455505'
p7
sS'price'
p8
S'N/A'
p9
sS'properties'
p10
(dp11
sS'title'
p12
S'Missing'
p13
sb.