ccopy_reg
_reconstructor
p0
(c__main__
ProductRecord
p1
c__builtin__
object
p2
Ntp3
Rp4
(dp5
S'product_url'
p6
S'http://www.walmart.com/ip/Dell-Latitude-3580-15-6-HD-Laptop-Intel-Core-i3-6006U-4GB-DDR4-500GB-Hard-Drive-Windows-10-Pro/837079075'
p7
sS'price'
p8
V$519.99
p9
sS'properties'
p10
(dp11
VRAM Memory
p12
V4.00 GB
p13
sVOperating System
p14
VWindows 10
p15
sVFeatures
p16
V500GB 15.6IN HD W10P 1YR NBD
p17
sVBrand
p18
VDell
p19
sVProcessor Speed
p20
V2.00 GHz
p21
sVManufacturer Part Number
p22
VLATI35806FC0D
p23
sVHard Drive Capacity
p24
V500.00 GB
p25
sVBattery Life
p26
V13.50 h
p27
sVAssembled Product Dimensions (L x W x H)
p28
V12.00 x 12.00 x 12.00 Inches
p29
sVModel
p30
V6FC0D
p31
sVScreen Size
p32
V15.60 in
p33
sVProcessor Type
p34
VIntel Core i3
p35
sVCondition
p36
VNew
p37
ssS'title'
p38
VDell Latitude 3580, 15.6" HD Laptop Intel Core i3-6006U, 4GB DDR4, 500GB Hard Drive, Windows 10 Pro
p39
sb.