ccopy_reg
_reconstructor
p0
(c__main__
ProductRecord
p1
c__builtin__
object
p2
Ntp3
Rp4
(dp5
S'product_url'
p6
S'http://www.walmart.com/ip/Lenovo-ThinkPad-X1-Tablet-12-Core-m5-6Y57-4-GB-RAM-128-GB-SSD/123620557'
p7
sS'price'
p8
S'N/A'
p9
sS'properties'
p10
(dp11
VOperating System
p12
VWindows 10
p13
sVAccessories Included
p14
VPower Cord, Battery, Stylus
p15
sVColor
p16
VBlack, Midnight Black
p17
sVVideo Game Platform
p18
VPC
p19
sVBrand
p20
VLenovo
p21
sVManufacturer Part Number
p22
V20GG001VUS
p23
sVMaximum RAM Supported
p24
V4 GB
p25
sVBattery Life
p26
V10 hours
p27
sVAssembled Product Dimensions (L x W x H)
p28
V14.30 x 10.70 x 3.30 Inches
p29
sVModel
p30
V20GG001VUS
p31
sVScreen Size
p32
V12.0"
p33
sVCondition
p34
VNew
p35
ssS'title'
p36
VLenovo ThinkPad X1 Tablet - 12" - Core m5 6Y57 - 4 GB RAM - 128 GB SSD
p37
sb.