ccopy_reg
_reconstructor
p0
(c__main__
ProductRecord
p1
c__builtin__
object
p2
Ntp3
Rp4
(dp5
S'product_url'
p6
S'http://www.walmart.com/ip/HP-PROBOOK-450-G2-LAPTOP-15-6-INTEL-CORE-I3-5005U-2-00GHZ-4GB-RAM-500GB-HDD-INTEL-HD-GRAPHICS-5500-WINDOWS-10-PRO-Certified-Refurbished/914399265'
p7
sS'price'
p8
V$329.99
p9
sS'properties'
p10
(dp11
VRAM Memory
p12
V4 GB
p13
sVOperating System
p14
VWindows 10
p15
sVBrand
p16
VHP
p17
sVManufacturer Part Number
p18
VV1H28UT#ABL.RB
p19
sVHard Drive Capacity
p20
V500 GB
p21
sVModel
p22
VV1H28UT#ABL.RB
p23
sVScreen Size
p24
V15.6\u005c"
p25
sVProcessor Type
p26
VINTEL CORE I3-5005U
p27
ssS'title'
p28
VHP PROBOOK 450 G2 LAPTOP, 15.6", INTEL CORE I3-5005U @2.00GHZ, 4GB RAM, 500GB HDD, INTEL HD GRAPHICS 5500, WINDOWS 10 PRO (Certified Refurbished)
p29
sb.