ccopy_reg
_reconstructor
p0
(c__main__
ProductRecord
p1
c__builtin__
object
p2
Ntp3
Rp4
(dp5
S'product_url'
p6
S'http://www.walmart.com/ip/ES1-732-P4G9-N4200-1-1G-4GB-1TB-DVDRW-17-3IN-11AC-W10H-64BIT/55428696'
p7
sS'price'
p8
V$421.87
p9
sS'properties'
p10
(dp11
VRAM Memory
p12
V4 GB
p13
sVOperating System
p14
VWindows 10
p15
sVFeatures
p16
VASPIRE ES1-732, INTEL PENTIUM N4200, WINDOWS 10 HOME (64-BIT), 4GB, 1TB HD
p17
sVVideo Game Platform
p18
VPC
p19
sVBrand
p20
VAcer
p21
sVProcessor Speed
p22
V1.10 GHz
p23
sVManufacturer Part Number
p24
VNX.GH4AA.001
p25
sVMaximum RAM Supported
p26
V8 GB
p27
sVHard Drive Capacity
p28
V1 TB
p29
sVBattery Life
p30
V3 hours 30 minutes
p31
sVAssembled Product Dimensions (L x W x H)
p32
V13.00 x 22.00 x 3.50 Inches
p33
sVModel
p34
VNX.GH4AA.001
p35
sVScreen Size
p36
V17.3"
p37
sVProcessor Type
p38
VIntel Pentium
p39
sVCondition
p40
VNew
p41
ssS'title'
p42
VES1-732-P4G9 N4200 1.1G 4GB 1TB DVDRW 17.3IN 11AC W10H 64BIT
p43
sb.