ccopy_reg
_reconstructor
p0
(c__main__
ProductRecord
p1
c__builtin__
object
p2
Ntp3
Rp4
(dp5
S'product_url'
p6
S'http://www.walmart.com/ip/HP-Stream-14-ax020nr-14-Celeron-1-6GHz-4GB-RAM-32GB-eMMC-Bluetooth-Webcam-Windows-10-Purple-Certified-Refurbished/170248999'
p7
sS'price'
p8
V$190.99
p9
sS'properties'
p10
(dp11
VRAM Memory
p12
V32 GB
p13
sVOperating System
p14
VWindows 10
p15
sVBrand
p16
VHP
p17
sVManufacturer Part Number
p18
VX7S45UA
p19
sVModel
p20
V14-ax020nr.RB
p21
sVScreen Size
p22
V14
p23
sVProcessor Type
p24
VIntel Celeron
p25
ssS'title'
p26
VHP Stream 14-ax020nr 14", Celeron 1.6GHz, 4GB RAM, 32GB eMMC, Bluetooth, Webcam, Windows 10, Purple (Certified Refurbished)
p27
sb.