ccopy_reg
_reconstructor
p0
(c__main__
ProductRecord
p1
c__builtin__
object
p2
Ntp3
Rp4
(dp5
S'product_url'
p6
S'http://www.walmart.com/ip/HP-17-x022cy-17-3-1600x900-Laptop-Pentium-N3710-4GB-1TB-Refurbished-Teal/407819283'
p7
sS'price'
p8
V$329.85
p9
sS'properties'
p10
(dp11
VRAM Memory
p12
V4 GB
p13
sVOperating System
p14
VMicrosoft Windows, Windows 10
p15
sVBrand
p16
VHP
p17
sVProcessor Speed
p18
V1.60 GHz
p19
sVManufacturer Part Number
p20
V1VK80UAR#ABA
p21
sVHard Drive Capacity
p22
V1 TB
p23
sVModel
p24
V1VK80UAR#ABA
p25
sVScreen Size
p26
V17.3"
p27
sVProcessor Type
p28
VIntel Pentium
p29
sVCondition
p30
VRefurbished
p31
ssS'title'
p32
VHP 17-x022cy 17.3" 1600x900 Laptop Pentium N3710 4GB 1TB Refurbished Teal
p33
sb.