ccopy_reg
_reconstructor
p0
(c__main__
ProductRecord
p1
c__builtin__
object
p2
Ntp3
Rp4
(dp5
S'product_url'
p6
S'http://www.walmart.com/ip/Dell-Inspiron-15-i5578-3052GRY-PUS-15-6-Full-HD-2-in-1-Convertible-Touchscreen-Notebook-Intel-i3-7100U-8GB-RAM-1TB-HDD/310173930'
p7
sS'price'
p8
S'N/A'
p9
sS'properties'
p10
(dp11
VRAM Memory
p12
V8.00 GB
p13
sVOperating System
p14
VWindows 10
p15
sVBrand
p16
VDell
p17
sVManufacturer Part Number
p18
Vi5578-3052GRY-PUS
p19
sVMaximum RAM Supported
p20
V16.00 GB
p21
sVHard Drive Capacity
p22
V1.00 TB
p23
sVModel
p24
Vi5578-3052GRY-PUS
p25
sVScreen Size
p26
V15.60 in
p27
ssS'title'
p28
VDell Inspiron 15 i5578-3052GRY-PUS 15.6" Full HD 2-in-1 Convertible Touchscreen Notebook, Intel i3-7100U, 8GB RAM, 1TB HDD
p29
sb.