ccopy_reg
_reconstructor
p0
(c__main__
ProductRecord
p1
c__builtin__
object
p2
Ntp3
Rp4
(dp5
S'product_url'
p6
S'http://www.walmart.com/ip/Dell-XPS-13-Series-13-3-Laptop-Windows-10-Home-Intel-Core-i5-7200U-Processor-8GB-RAM-256GB-Solid-State-Drive/55628622'
p7
sS'price'
p8
V$1,049.11
p9
sS'properties'
p10
(dp11
VRAM Memory
p12
V8 GB
p13
sVOperating System
p14
VWindows 10
p15
sVVideo Game Platform
p16
VPC
p17
sVBrand
p18
VDell
p19
sVProcessor Speed
p20
V3.10 GHz
p21
sVManufacturer Part Number
p22
VXPS9360-5642SL
p23
sVHard Drive Capacity
p24
V256 GB
p25
sVAssembled Product Dimensions (L x W x H)
p26
V7.88 x 11.98 x 0.60 Inches
p27
sVModel
p28
VXPS9360-5642SL
p29
sVScreen Size
p30
V13.3"
p31
sVProcessor Type
p32
VIntel Core i5
p33
sVCondition
p34
VNew
p35
ssS'title'
p36
VDell XPS 13 Series 13.3" Laptop, Windows 10 Home, Intel Core i5-7200U Processor, 8GB RAM, 256GB Solid State Drive
p37
sb.