ccopy_reg
_reconstructor
p0
(c__main__
ProductRecord
p1
c__builtin__
object
p2
Ntp3
Rp4
(dp5
S'product_url'
p6
S'http://www.walmart.com/ip/Acer-Aspire-A517-51-A517-51-568Y-17-3-Core-i5-i5-8250U-8GB-DDR4-1TB-HDD-Windows-10-Home-Obsidian-Black-Notebook/277601420'
p7
sS'price'
p8
V$584.97
p9
sS'properties'
p10
(dp11
VRAM Memory
p12
V8.00 GB
p13
sVOperating System
p14
VWindows 10
p15
sVFeatures
p16
V1TB DVDRW 17.3IN 11AC W10H
p17
sVBrand
p18
VAcer
p19
sVProcessor Speed
p20
V1.60 GHz
p21
sVManufacturer Part Number
p22
VNX.GSWAA.001
p23
sVHard Drive Capacity
p24
V1.00 TB
p25
sVAssembled Product Dimensions (L x W x H)
p26
V12.80 x 11.80 x 4.00 Inches
p27
sVModel
p28
VA51751568Y
p29
sVScreen Size
p30
V17.30 in
p31
sVProcessor Type
p32
VIntel Core i5
p33
sVCondition
p34
VNew
p35
ssS'title'
p36
VAcer Aspire A517-51 A517-51-568Y 17.3" Core i5 i5-8250U 8GB DDR4 1TB HDD - Windows 10 Home Obsidian Black Notebook
p37
sb.