ccopy_reg
_reconstructor
p0
(c__main__
ProductRecord
p1
c__builtin__
object
p2
Ntp3
Rp4
(dp5
S'product_url'
p6
S'http://www.walmart.com/ip/Acer-TravelMate-P249-M-TMP249-M-50XC-14-LCD-Notebook-Intel-Core-i5-6th-Gen-i5-6200U-Dual-core-2-Core-2-30-GHz-8-GB-DDR4-SDRAM-500-GB-HDD-Windows-10-P/859714068'
p7
sS'price'
p8
V$614.98
p9
sS'properties'
p10
(dp11
VRAM Memory
p12
V8 GB
p13
sVOperating System
p14
VMicrosoft Windows, Windows 10
p15
sVBrand
p16
VAcer
p17
sVProcessor Speed
p18
V2.30 GHz
p19
sVMaximum RAM Supported
p20
V32 GB
p21
sVHard Drive Capacity
p22
V500 GB
p23
sVBattery Life
p24
V9 Hour
p25
sVModel
p26
VP249-M-50XC
p27
sVScreen Size
p28
V14"
p29
sVProcessor Type
p30
VIntel Core i5
p31
sVCondition
p32
VNew
p33
sVmanufacturer_part_number
p34
Vtmp249-m-50xc
p35
ssS'title'
p36
VAcer TravelMate P249-M TMP249-M-50XC 14" LCD Notebook - Intel Core i5 (6th Gen) i5-6200U Dual-core (2 Core) 2.30 GHz - 8 GB DDR4 SDRAM - 500 GB HDD - Windows 10 Pro 64-bit - 1366 x 768 - ComfyView
p37
sb.