ccopy_reg
_reconstructor
p0
(c__main__
ProductRecord
p1
c__builtin__
object
p2
Ntp3
Rp4
(dp5
S'product_url'
p6
S'http://www.walmart.com/ip/Lenovo-ThinkPad-T470-14-Core-i5-7300U-8-GB-RAM-500-GB-HDD/740090587'
p7
sS'price'
p8
V$1,047.86
p9
sS'properties'
p10
(dp11
VRAM Memory
p12
V8.00 GB
p13
sVOperating System
p14
VWindows 10
p15
sVVideo Game Platform
p16
VPC
p17
sVBrand
p18
VLenovo
p19
sVProcessor Speed
p20
V2.60 GHz
p21
sVManufacturer Part Number
p22
V20HD004AUS
p23
sVHard Drive Capacity
p24
V500.00 GB
p25
sVAssembled Product Dimensions (L x W x H)
p26
V12.00 x 12.00 x 12.00 Inches
p27
sVModel
p28
V20HD004AUS
p29
sVScreen Size
p30
V14.00 in
p31
sVProcessor Type
p32
VCore i5-7300U
p33
sVCondition
p34
VNew
p35
ssS'title'
p36
VLenovo ThinkPad T470 - 14" - Core i5 7300U - 8 GB RAM - 500 GB HDD
p37
sb.