ccopy_reg
_reconstructor
p0
(c__main__
ProductRecord
p1
c__builtin__
object
p2
Ntp3
Rp4
(dp5
S'product_url'
p6
S'http://www.walmart.com/ip/Acer-15-6-Intel-Core-i7-2-6GHz-16-GB-Ram-1-TB-HDD-256-GB-SSD-Windows-10-Home-G9-593-72VT/736109471'
p7
sS'price'
p8
V$1,136.09
p9
sS'properties'
p10
(dp11
VRAM Memory
p12
V16 GB
p13
sVOperating System
p14
VWindows 10
p15
sVBrand
p16
VAcer
p17
sVProcessor Speed
p18
V2.6 GHz
p19
sVManufacturer Part Number
p20
VNH.Q1CAA.001
p21
sVHard Drive Capacity
p22
V1 TB
p23
sVBattery Life
p24
V3 h
p25
sVAssembled Product Dimensions (L x W x H)
p26
V11.80 x 15.40 x 1.50 Inches
p27
sVModel
p28
VG9-593-72VT
p29
sVScreen Size
p30
V15.6 in
p31
sVProcessor Type
p32
VIntel Core i7
p33
sVCondition
p34
VNew
p35
ssS'title'
p36
VAcer 15.6" Intel Core i7 2.6GHz 16 GB Ram 1 TB HDD + 256 GB SSD Windows 10 Home|G9-593-72VT
p37
sb.