ccopy_reg
_reconstructor
p0
(c__main__
ProductRecord
p1
c__builtin__
object
p2
Ntp3
Rp4
(dp5
S'product_url'
p6
S'http://www.walmart.com/ip/Acer-Aspire-5-A517-51-33Q4-17-3-1600x900-Laptop-i3-6006U-8GB-1TB-Win10/868274652'
p7
sS'price'
p8
V$538.34
p9
sS'properties'
p10
(dp11
VRAM Memory
p12
V8 Gigabytes
p13
sVOperating System
p14
VWindows 10
p15
sVBrand
p16
VAcer
p17
sVProcessor Speed
p18
V2 Gigahertz
p19
sVManufacturer Part Number
p20
VNX.GSUAA.001
p21
sVHard Drive Capacity
p22
V1 Terabytes
p23
sVBattery Life
p24
V0 h
p25
sVAssembled Product Dimensions (L x W x H)
p26
V13.00 x 22.00 x 3.00 Inches
p27
sVModel
p28
VNX.GSUAA.001
p29
sVScreen Size
p30
V17.30 Inches
p31
sVProcessor Type
p32
VIntel i3-6006U
p33
sVCondition
p34
VNew
p35
ssS'title'
p36
VAcer Aspire 5 A517-51-33Q4 17.3" 1600x900 Laptop i3-6006U 8GB 1TB Win10
p37
sb.