ccopy_reg
_reconstructor
p0
(c__main__
ProductRecord
p1
c__builtin__
object
p2
Ntp3
Rp4
(dp5
S'product_url'
p6
S'http://www.walmart.com/ip/MSI-GL62M-15-6-Gaming-Laptop-Core-i5-i5-7300HQ-8GB-256GB-M-2-SSD-GTX-1050-Win10/468252873'
p7
sS'price'
p8
V$729.00
p9
sS'properties'
p10
(dp11
VRAM Memory
p12
V8 Gigabytes
p13
sVOperating System
p14
VWindows 10
p15
sVFeatures
p16
Vi5-7300HQ GTX1050 8G 256G M.2 WIN10
p17
sVBrand
p18
VMSI
p19
sVProcessor Speed
p20
V2.5 Gigahertz
p21
sVMaximum RAM Supported
p22
V32 Gigabytes
p23
sVHard Drive Capacity
p24
V256 Gigabytes
p25
sVModel
p26
VGL62M1407
p27
sVScreen Size
p28
V15.60 Inches
p29
sVProcessor Type
p30
VIntel i5-7300HQ
p31
sVCondition
p32
VNew
p33
sVmanufacturer_part_number
p34
Vgl62m
p35
ssS'title'
p36
VMSI GL62M 15.6" Gaming Laptop Core i5 i5-7300HQ 8GB 256GB M.2 SSD GTX 1050 Win10
p37
sb.