ccopy_reg
_reconstructor
p0
(c__main__
ProductRecord
p1
c__builtin__
object
p2
Ntp3
Rp4
(dp5
S'product_url'
p6
S'http://www.walmart.com/ip/Refurbished-Acer-Midnight-Black-15-6-Aspire-E5-571-563B-Laptop-PC-Intel-Core-i5-4210U-Processor-6GB-Memory-1TB-Hard-Drive-Windows-8-1-Eligible-Free-W/43979067'
p7
sS'price'
p8
V$441.00
p9
sS'properties'
p10
(dp11
VRAM Memory
p12
V6 GB
p13
sVOperating System
p14
VMicrosoft Windows
p15
sVVideo Game Platform
p16
VPC
p17
sVBrand
p18
VAcer
p19
sVProcessor Speed
p20
V1.70 GHz, with a Max Turbo Speed of 2.70 GHz
p21
sVManufacturer Part Number
p22
VRBE5-571-563B
p23
sVMaximum RAM Supported
p24
V16 GB
p25
sVHard Drive Capacity
p26
V1 TB
p27
sVBattery Life
p28
V7 hours
p29
sVAssembled Product Dimensions (L x W x H)
p30
V10.10 x 15.00 x 1.20 Inches
p31
sVModel
p32
VRBE5-571-563B
p33
sVScreen Size
p34
V15.6"
p35
sVProcessor Type
p36
VIntel Core i5
p37
sVCondition
p38
VRefurbished
p39
ssS'title'
p40
VRefurbished Acer Midnight Black 15.6" Aspire E5-571-563B Laptop PC with Intel Core i5-4210U Processor, 6GB Memory, 1TB Hard Drive and Windows 8.1 (Eligible for Free Windows 10 Upgrade)
p41
sb.