ccopy_reg
_reconstructor
p0
(c__main__
ProductRecord
p1
c__builtin__
object
p2
Ntp3
Rp4
(dp5
S'product_url'
p6
S'http://www.walmart.com/ip/Asus-ROG-Strix-GL503VD-DB74-15-6-Full-HD-256GB-SSD-1TB-HDD-Core-i7-7700HQ-GTX-1050-Ultrabook-Laptop/532160452'
p7
sS'price'
p8
V$330.75
p9
sS'properties'
p10
(dp11
VRAM Memory
p12
V8 GB
p13
sVOperating System
p14
VWindows 10
p15
sVVideo Game Platform
p16
VPC
p17
sVBrand
p18
VLatitude
p19
sVProcessor Speed
p20
V1.90 GHz
p21
sVManufacturer Part Number
p22
VWA5-30582
p23
sVMaximum RAM Supported
p24
V16 GB
p25
sVHard Drive Capacity
p26
V128 GB
p27
sVBattery Life
p28
V1 hour
p29
sVAssembled Product Dimensions (L x W x H)
p30
V13.20 x 0.80 x 9.10 Inches
p31
sVModel
p32
VE7440
p33
sVScreen Size
p34
V14.0"
p35
sVProcessor Type
p36
VIntel Core i5
p37
ssS'title'
p38
VRefurbished Dell Latitude E7440 14" Laptop, Windows 10 Pro, Intel Core i5-4300U Processor, 8GB RAM, 128GB Solid State Drive
p39
sb.