ccopy_reg
_reconstructor
p0
(c__main__
ProductRecord
p1
c__builtin__
object
p2
Ntp3
Rp4
(dp5
S'product_url'
p6
S'http://www.walmart.com/ip/Lenovo-Yoga-900-13-3-quot-2-in-1-Touch-Screen-Laptop-i7-Processor-16GB-Memory-512GB-SSD-13-3-quot-QHD-Multi-touch-Disply-3200x1800-Win10-Silver/151097990'
p7
sS'price'
p8
S'N/A'
p9
sS'properties'
p10
(dp11
VBrand
p12
VLenovo
p13
sVScreen Size
p14
V13.3
p15
sVHard Drive Capacity
p16
V512
p17
ssS'title'
p18
VLenovo - Yoga 900 13.3" 2-in-1 Touch-Screen Laptop - ( i7 Processor, 16GB Memory, 512GB SSD, 13.3" QHD Multi-touch Disply 3200x1800, Win10 )- Silver
p19
sb.