ccopy_reg
_reconstructor
p0
(c__main__
ProductRecord
p1
c__builtin__
object
p2
Ntp3
Rp4
(dp5
S'product_url'
p6
S'http://www.walmart.com/ip/Refurbished-Dell-Black-14-Latitude-E5430-WA5-1049-Laptop-PC-Intel-Core-i5-3320M-Processor-8GB-Memory-128GB-Solid-State-Drive-Windows-10-Home/50909466'
p7
sS'price'
p8
V$296.51
p9
sS'properties'
p10
(dp11
VRAM Memory
p12
V8 GB
p13
sVOperating System
p14
VWindows 10
p15
sVVideo Game Platform
p16
VPC
p17
sVBrand
p18
VLatitude
p19
sVProcessor Speed
p20
V2.60 GHz
p21
sVManufacturer Part Number
p22
VWA5-1049
p23
sVMaximum RAM Supported
p24
V16 GB
p25
sVHard Drive Capacity
p26
V128 GB
p27
sVAssembled Product Dimensions (L x W x H)
p28
V13.80 x 1.30 x 9.40 Inches
p29
sVModel
p30
VE5430
p31
sVScreen Size
p32
V14.0"
p33
sVProcessor Type
p34
VIntel Core i5
p35
sVCondition
p36
VRefurbished
p37
ssS'title'
p38
VRefurbished Dell Black 14" Latitude E5430 WA5-1049 Laptop PC with Intel Core i5-3320M Processor, 8GB Memory, 128GB Solid State Drive and Windows 10 Home
p39
sb.