ccopy_reg
_reconstructor
p0
(c__main__
ProductRecord
p1
c__builtin__
object
p2
Ntp3
Rp4
(dp5
S'product_url'
p6
S'http://www.walmart.com/ip/Dell-i5567-7526GRY-15-6-Intel-i7-256GB-SSD-8GB-DDR4-Win-10-Intel-HD-graphics-620-Laptop-Computer/559680513'
p7
sS'price'
p8
V$749.99
p9
sS'properties'
p10
(dp11
VBrand
p12
VDell
p13
sVManufacturer Part Number
p14
VI5567-7526GRY
p15
sVMaximum RAM Supported
p16
V8 GB
p17
sVBattery Life
p18
V7 h
p19
sVModel
p20
Vi5567-7526GRY
p21
sVCondition
p22
VNew
p23
ssS'title'
p24
VDell i5567-7526GRY 15.6" Intel i7, 256GB SSD, 8GB DDR4, Win 10, Intel HD graphics 620 Laptop Computer
p25
sb.