ccopy_reg
_reconstructor
p0
(c__main__
ProductRecord
p1
c__builtin__
object
p2
Ntp3
Rp4
(dp5
S'product_url'
p6
S'http://www.walmart.com/ip/HP-250-G5-15-6-Core-i5-6200U-4-GB-RAM-500-GB-HDD/179672401'
p7
sS'price'
p8
V$590.98
p9
sS'properties'
p10
(dp11
VRAM Memory
p12
V4 GB
p13
sVOperating System
p14
VWindows 10
p15
sVVideo Game Platform
p16
VPC
p17
sVBrand
p18
VHP
p19
sVProcessor Speed
p20
V2.30 GHz
p21
sVManufacturer Part Number
p22
VW0S98UT#ABA
p23
sVHard Drive Capacity
p24
V500 GB
p25
sVAssembled Product Dimensions (L x W x H)
p26
V2.99 x 20.35 x 12.24 Inches
p27
sVModel
p28
VW0S98UT#ABA
p29
sVScreen Size
p30
V15.6"
p31
sVProcessor Type
p32
VIntel Core i5
p33
sVCondition
p34
VNew
p35
ssS'title'
p36
VHP 250 G5 - 15.6" - Core i5 6200U - 4 GB RAM - 500 GB HDD
p37
sb.