ccopy_reg
_reconstructor
p0
(c__main__
ProductRecord
p1
c__builtin__
object
p2
Ntp3
Rp4
(dp5
S'product_url'
p6
S'http://www.walmart.com/ip/Refurbished-HP-Envy-x360-N5S77UA-15-U493CL-Convertible-Laptop-PC-Intel-Core-i7-6500U-2-5-GHz-Dual-Core-Processor-12-GB-DDR3L-SDRAM-1-TB-Hard-Drive-15/646980433'
p7
sS'price'
p8
S'N/A'
p9
sS'properties'
p10
(dp11
sS'title'
p12
VRefurbished HP Envy x360 N5S77UA 15-U493CL Convertible Laptop PC - Intel Core i7-6500U 2.5 GHz Dual-Core Processor - 12 GB DDR3L SDRAM - 1 TB Hard Drive - 15.6-inch Touch Screen Display - Windows
p13
sb.