ccopy_reg
_reconstructor
p0
(c__main__
ProductRecord
p1
c__builtin__
object
p2
Ntp3
Rp4
(dp5
S'product_url'
p6
S'http://www.walmart.com/ip/ProBook-450-G5-i5-8250U-8-GB-256-GB-15-6-Windows-10-Pro-Notebook/457464111'
p7
sS'price'
p8
V$821.16
p9
sS'properties'
p10
(dp11
VRAM Memory
p12
V8.00 GB
p13
sVOperating System
p14
VWindows 10
p15
sVFeatures
p16
VI5-8250U 8GB 256GB SSD 15.6IN W10P
p17
sVBrand
p18
VHP
p19
sVProcessor Speed
p20
V1.60 GHz
p21
sVManufacturer Part Number
p22
V2ST09UT#ABA
p23
sVMaximum RAM Supported
p24
V32.00 GB
p25
sVHard Drive Capacity
p26
V256.00 GB
p27
sVBattery Life
p28
V14.00 h
p29
sVAssembled Product Dimensions (L x W x H)
p30
V19.00 x 12.00 x 3.00 Inches
p31
sVModel
p32
V2ST09UT
p33
sVScreen Size
p34
V15.60 in
p35
sVProcessor Type
p36
VIntel Core i5
p37
sVCondition
p38
VNew
p39
ssS'title'
p40
VProBook 450 G5 i5-8250U 8 GB 256 GB 15.6" Windows 10 Pro Notebook
p41
sb.