ccopy_reg
_reconstructor
p0
(c__main__
ProductRecord
p1
c__builtin__
object
p2
Ntp3
Rp4
(dp5
S'product_url'
p6
S'http://www.walmart.com/ip/Hp-15-ay000-15-ay068nr-15-6-Notebook-Intel-Core-I7-6th-Gen-I7-6500u-Dual-core-2-Core-2-50-Ghz-8-Gb-Ddr3l-Sdram-1-Tb-Hdd-Windows-10-Home-64-bit-1366-X/185189566'
p7
sS'price'
p8
V$599.00
p9
sS'properties'
p10
(dp11
VRAM Memory
p12
V8 Gigabytes
p13
sVOperating System
p14
VWindows 10
p15
sVColor Category
p16
VSilver
p17
sVLaptop Computer Type
p18
VPC Laptops
p19
sVBrand
p20
VHP
p21
sVManufacturer Part Number
p22
VX0H83UA#ABA
p23
sVHard Drive Capacity
p24
V1 Terabytes
p25
sVProcessor Core Type
p26
VDual-core (2 Core)
p27
sVProcessor Type
p28
VIntel i7-6500U
p29
sVScreen Size
p30
V15.60 Inches
p31
sVModel
p32
VX0H83UA#ABA
p33
sVCondition
p34
VNew
p35
sVManufacturer
p36
VHewlett Packard
p37
ssS'title'
p38
VHp 15-ay000 15-ay068nr 15.6" Notebook - Intel Core I7 [6th Gen] I7-6500u Dual-core [2 Core] 2.50 Ghz - 8 Gb Ddr3l Sdram - 1 Tb Hdd - Windows 10 Home 64-bit - 1366 X 768 - Brightview - (x0h83ua-aba)
p39
sb.