ccopy_reg
_reconstructor
p0
(c__main__
ProductRecord
p1
c__builtin__
object
p2
Ntp3
Rp4
(dp5
S'product_url'
p6
S'http://www.walmart.com/ip/Dell-Inspiron-15-3552-Intel-Celeron-N3060-X2-1-6GHz-4GB-500GB-15-6-Black-Certified-Refurbished/575469121'
p7
sS'price'
p8
V$208.61
p9
sS'properties'
p10
(dp11
VRAM Memory
p12
V4 Gigabytes
p13
sVOperating System
p14
VWindows 10
p15
sVFeatures
p16
V1 x USB 3.0, 2 x USB 2.0, 4-cell Lithium-Ion Battery, 4GB DDR3 System Memory, SuperMulti-DVD Burner, 1MP Webcam and Integrated Microphone, This Certified Refurbished product is tested and certified to look and work like new. The refurbishing process includes functionality testing, basic cleaning, inspection, and repackaging. The product ships with all relevant accessories, a minimum 90-day warranty, and may arrive in a generic box., 500GB (5400RPM) SATA Hard Disk Drive (HDD), 15.6-inch (1366 x 768) LED Display, 0.85" x 14.9" x 10.24" (HxWxD); 4.7lbs, Energy Star Compliant, Microsoft Windows 10 Home Operating System, 10/100/1000 Gigabit Ethernet, 802.11AC and Bluetooth 4.2, Intel Celeron N3060 Processor (Dual-Core, 1.6GHz, 2MB Cache), Full Size (10 Key) Keyboard and Touchpad, Integrated Intel HD Graphics
p17
sVBrand
p18
VDell
p19
sVManufacturer Part Number
p20
V1509438777-RFB
p21
sVMaximum RAM Supported
p22
V8 Gigabytes
p23
sVHard Drive Capacity
p24
V500 Gigabytes
p25
sVBattery Life
p26
V8 Hours
p27
sVAssembled Product Dimensions (L x W x H)
p28
V14.90 x 10.20 x 0.90 Inches
p29
sVProcessor Type
p30
VIntel Celeron
p31
sVScreen Size
p32
V15.6 Inches
p33
sVProcessor Speed
p34
V1.6 Gigahertz
p35
ssS'title'
p36
VDell Inspiron 15-3552 Intel Celeron N3060 X2 1.6GHz 4GB 500GB 15.6", Black (Certified Refurbished)
p37
sb.