ccopy_reg
_reconstructor
p0
(c__main__
ProductRecord
p1
c__builtin__
object
p2
Ntp3
Rp4
(dp5
S'product_url'
p6
S'http://www.walmart.com/ip/Off-Lease-REFURBISHED-Dell-Latitude-E6510-i5-2-4GHz-4GB-320GB-DRW-Windows-10-Pro-64-Laptop/114013102'
p7
sS'price'
p8
V$263.99
p9
sS'properties'
p10
(dp11
VRAM Memory
p12
V4 Gigabytes
p13
sVOperating System
p14
VWindows 10
p15
sVBrand
p16
VDell
p17
sVProcessor Speed
p18
V2.4 Gigahertz
p19
sVManufacturer Part Number
p20
V9SIA9UW3J82900
p21
sVMaximum RAM Supported
p22
V8
p23
sVHard Drive Capacity
p24
V320 Gibibytes
p25
sVModel
p26
VLatitude E6510
p27
sVScreen Size
p28
V15 Inches
p29
sVProcessor Type
p30
VIntel Core i5
p31
ssS'title'
p32
VOff Lease REFURBISHED Dell Latitude E6510 i5 2.4GHz 4GB 320GB DRW Windows 10 Pro 64 Laptop
p33
sb.