ccopy_reg
_reconstructor
p0
(c__main__
ProductRecord
p1
c__builtin__
object
p2
Ntp3
Rp4
(dp5
S'product_url'
p6
S'http://www.walmart.com/ip/Refurbished-HP-Folio-9470M-14-Laptop-Windows-10-Pro-Intel-Core-i5-3427U-Processor-8GB-RAM-180GB-Solid-State-Drive/56150773'
p7
sS'price'
p8
V$288.42
p9
sS'properties'
p10
(dp11
VRAM Memory
p12
V8 GB
p13
sVOperating System
p14
VWindows 10
p15
sVVideo Game Platform
p16
VPC
p17
sVBrand
p18
VHP
p19
sVProcessor Speed
p20
V1.80 GHz
p21
sVMaximum RAM Supported
p22
V16 GB
p23
sVHard Drive Capacity
p24
V180 GB
p25
sVBattery Life
p26
V1 hour
p27
sVAssembled Product Dimensions (L x W x H)
p28
V13.30 x 0.70 x 9.10 Inches
p29
sVModel
p30
VFolio 9470M
p31
sVScreen Size
p32
V14.0"
p33
sVProcessor Type
p34
VIntel Core i5
p35
sVmanufacturer_part_number
p36
V9470m
p37
ssS'title'
p38
VRefurbished HP Folio 9470M 14" Laptop, Windows 10 Pro, Intel Core i5-3427U Processor, 8GB RAM, 180GB Solid State Drive
p39
sb.