ccopy_reg
_reconstructor
p0
(c__main__
ProductRecord
p1
c__builtin__
object
p2
Ntp3
Rp4
(dp5
S'product_url'
p6
S'http://www.walmart.com/ip/Ingram-Certified-Pre-Owned-Latitude-E5440-17-Notebook-Intel-Core-i5-4th-Gen-i5-4300U-Dual-core-2-Core-1-90-GHz-8-GB-128-GB-SSD-Windows-10-Black-5440-/198868459'
p7
sS'price'
p8
V$353.40
p9
sS'properties'
p10
(dp11
VRAM Memory
p12
V8 Gigabytes
p13
sVOperating System
p14
VWindows 10
p15
sVBrand
p16
VDell
p17
sVProcessor Speed
p18
V1.9 Gigahertz
p19
sVManufacturer Part Number
p20
V5440I519812810P
p21
sVHard Drive Capacity
p22
V128 Gigabytes
p23
sVModel
p24
V5440I519812810P
p25
sVScreen Size
p26
V17.00 Inches
p27
sVProcessor Type
p28
VIntel i5-4300U
p29
ssS'title'
p30
VIngram - Certified Pre-Owned Latitude E5440 17" Notebook - Intel Core i5 [4th Gen] i5-4300U Dual-core [2 Core] 1.90 GHz - 8 GB - 128 GB SSD - Windows 10 - Black - (5440-i5-19-8-128-10p)
p31
sb.