ccopy_reg
_reconstructor
p0
(c__main__
ProductRecord
p1
c__builtin__
object
p2
Ntp3
Rp4
(dp5
S'product_url'
p6
S'http://www.walmart.com/ip/iView-1410NB-14-1-Laptop-Windows-10-Intel-Quad-Core-Cherry-Trail-Z8300-Processor-2GB-RAM-32GB-Hard-Drive/54884813'
p7
sS'price'
p8
V$175.53
p9
sS'properties'
p10
(dp11
VRAM Memory
p12
V2 GB
p13
sVOperating System
p14
VMicrosoft Windows, Windows 10
p15
sVFeatures
p16
VWebcam, G-sensor
p17
sVVideo Game Platform
p18
VPC
p19
sVBrand
p20
VIVIEW
p21
sVProcessor Speed
p22
V1.60 GHz, with a Max Turbo Speed of 1.80 GHz
p23
sVManufacturer Part Number
p24
V1410NB
p25
sVHard Drive Capacity
p26
V32 GB
p27
sVAssembled Product Dimensions (L x W x H)
p28
V13.81 x 9.13 x 0.70 Inches
p29
sVModel
p30
V1410NB
p31
sVScreen Size
p32
V14.1"
p33
sVProcessor Type
p34
VIntel Quad-Core Cherry Trail Z8300 Processor
p35
ssS'title'
p36
ViView 1410NB 14.1" Laptop, Windows 10, Intel Quad-Core Cherry Trail Z8300 Processor, 2GB RAM, 32GB Hard Drive
p37
sb.