ccopy_reg
_reconstructor
p0
(c__main__
ProductRecord
p1
c__builtin__
object
p2
Ntp3
Rp4
(dp5
S'product_url'
p6
S'http://www.walmart.com/ip/Refurbished-Acer-Predator-17-Laptop-Intel-i7-2-80GHz-16GB-Ram-1TB-HDD-256GB-SSD-Win10Home/981463814'
p7
sS'price'
p8
V$1,081.49
p9
sS'properties'
p10
(dp11
VRAM Memory
p12
V16 GB
p13
sVOperating System
p14
VWindows 10
p15
sVBrand
p16
VAcer
p17
sVManufacturer Part Number
p18
VNH.Q29AA.002
p19
sVModel
p20
VPH317-51-787B
p21
sVScreen Size
p22
V17.3 in
p23
sVProcessor Speed
p24
V2.80 GHz
p25
sVCondition
p26
VNew
p27
ssS'title'
p28
VRefurbished Acer Predator 17" Laptop Intel i7 2.80GHz 16GB Ram 1TB HDD 256GB SSD Win10Home
p29
sb.