ccopy_reg
_reconstructor
p0
(c__main__
ProductRecord
p1
c__builtin__
object
p2
Ntp3
Rp4
(dp5
S'product_url'
p6
S'http://www.walmart.com/ip/HP-ProBook-440-G5-Intel-Core-i3-7100U-7th-Gen-Dual-Core-2-4-GHz-4-GB-RAM-500-GB-HDD-Windows-10-Pro-Anti-Glare-Notebook-PC/145054043'
p7
sS'price'
p8
V$627.78
p9
sS'properties'
p10
(dp11
VRAM Memory
p12
V4.00 GB
p13
sVOperating System
p14
VWindows 10
p15
sVFeatures
p16
VI3-7100U 2.4G 4GB 500GB 14IN W10P
p17
sVBrand
p18
VHP
p19
sVProcessor Speed
p20
V2.40 GHz
p21
sVManufacturer Part Number
p22
V2SS93UT#ABA
p23
sVMaximum RAM Supported
p24
V32.00 GB
p25
sVHard Drive Capacity
p26
V500.00 GB
p27
sVBattery Life
p28
V16.25 h
p29
sVAssembled Product Dimensions (L x W x H)
p30
V17.00 x 3.00 x 12.00 Inches
p31
sVModel
p32
V2SS93UT
p33
sVScreen Size
p34
V14.00 in
p35
sVProcessor Type
p36
VIntel Core i3
p37
sVCondition
p38
VNew
p39
ssS'title'
p40
VHP ProBook 440 G5 Intel Core i3-7100U (7th Gen) Dual-Core 2.4 GHz - 4 GB RAM - 500 GB HDD - Windows 10 Pro - Anti-Glare Notebook PC
p41
sb.