ccopy_reg
_reconstructor
p0
(c__main__
ProductRecord
p1
c__builtin__
object
p2
Ntp3
Rp4
(dp5
S'product_url'
p6
S'http://www.walmart.com/ip/Refurbished-HP-8200-SFF-Desktop-PC-with-Intel-Core-i5-2400-Processor-4GB-Memory-22-LCD-Monitor-2TB-Hard-Drive-and-Windows-10-Home/55484891'
p7
sS'price'
p8
V$311.20
p9
sS'properties'
p10
(dp11
VRAM Memory
p12
V4 GB
p13
sVOperating System
p14
VWindows 10
p15
sVFeatures
p16
VROHS Compliant
p17
sVVideo Game Platform
p18
VPC
p19
sVBrand
p20
VHP
p21
sVProcessor Speed
p22
V3.10 GHz
p23
sVManufacturer Part Number
p24
V62805557285
p25
sVMaximum RAM Supported
p26
V16 GB
p27
sVHard Drive Capacity
p28
V2 TB
p29
sVAssembled Product Dimensions (L x W x H)
p30
V14.90 x 13.30 x 4.00 Inches
p31
sVModel
p32
VHP 8200 + 22" LCD
p33
sVScreen Size
p34
V22"
p35
sVProcessor Type
p36
VIntel Core i5-2400 Processor
p37
ssS'title'
p38
VRefurbished HP 8200 SFF Desktop PC with Intel Core i5-2400 Processor, 4GB Memory, 22" LCD Monitor, 2TB Hard Drive and Windows 10 Home
p39
sb.