ccopy_reg
_reconstructor
p0
(c__main__
ProductRecord
p1
c__builtin__
object
p2
Ntp3
Rp4
(dp5
S'product_url'
p6
S'http://www.walmart.com/ip/Refurbished-Dell-15-6-Latitude-E6530-WA5-0852-Laptop-PC-with-Intel-Core-i7-3520M-Processor-12GB-Memory-750GB-Hard-Drive-and-Windows-10-Pro/49822553'
p7
sS'price'
p8
V$448.35
p9
sS'properties'
p10
(dp11
VRAM Memory
p12
V12 GB
p13
sVOperating System
p14
VWindows 10
p15
sVColor Category
p16
VBlack
p17
sVVideo Game Platform
p18
VPC
p19
sVBrand
p20
VLatitude
p21
sVManufacturer Part Number
p22
VWA5-0852
p23
sVLaptop Computer Type
p24
VPC Laptops
p25
sVProcessor Type
p26
VIntel Core i7
p27
sVScreen Size
p28
V15.6 in
p29
sVModel
p30
VE6530
p31
sVCondition
p32
VRefurbished
p33
sVManufacturer
p34
VDell
p35
ssS'title'
p36
VRefurbished Dell 15.6" Latitude E6530 WA5-0852 Laptop PC with Intel Core i7-3520M Processor, 12GB Memory, 750GB Hard Drive and Windows 10 Pro
p37
sb.