ccopy_reg
_reconstructor
p0
(c__main__
ProductRecord
p1
c__builtin__
object
p2
Ntp3
Rp4
(dp5
S'product_url'
p6
S'http://www.walmart.com/ip/Refurbished-Dell-Black-15-6-Latitude-E6530-Laptop-PC-with-Intel-Core-i5-3210M-Processor-6GB-Memory-500GB-Hard-Drive-and-Windows-10-Home/46461707'
p7
sS'price'
p8
S'N/A'
p9
sS'properties'
p10
(dp11
sS'title'
p12
S'Missing'
p13
sb.