ccopy_reg
_reconstructor
p0
(c__main__
ProductRecord
p1
c__builtin__
object
p2
Ntp3
Rp4
(dp5
S'product_url'
p6
S'http://www.walmart.com/ip/HP-15-6-Notebook-15-bs065nr-Intel-Dual-Core-Celeron-N3060-1-6GHz-4GB-RAM-500GB-HDD-Windows-10-Home-Intel-HD-Graphics-400-Laptop-Certified-Refurbished/870195782'
p7
sS'price'
p8
V$279.99
p9
sS'properties'
p10
(dp11
VRAM Memory
p12
V4 GB
p13
sVOperating System
p14
VWindows 10
p15
sVBrand
p16
VHP
p17
sVManufacturer Part Number
p18
V1TJ83UA#ABA.RB
p19
sVHard Drive Capacity
p20
V500 GB
p21
sVModel
p22
V1TJ83UA#ABA.RB
p23
sVScreen Size
p24
V15.6\u005c"
p25
sVProcessor Type
p26
VIntel Celeron
p27
ssS'title'
p28
VHP 15.6" Notebook 15-bs065nr, Intel Dual-Core Celeron N3060 @ 1.6GHz, 4GB RAM, 500GB HDD, Windows 10 Home, Intel HD Graphics 400 Laptop (Certified Refurbished)
p29
sb.