ccopy_reg
_reconstructor
p0
(c__main__
ProductRecord
p1
c__builtin__
object
p2
Ntp3
Rp4
(dp5
S'product_url'
p6
S'http://www.walmart.com/ip/Refurbished-Acer-12-5-Intel-Core-M-0-80-GHz-4-GB-Ram-128-GB-SSD-Windows-8-1-SW5-271-64V2/479798863'
p7
sS'price'
p8
S'N/A'
p9
sS'properties'
p10
(dp11
VRAM Memory
p12
V4 GB
p13
sVOperating System
p14
VWindows 8
p15
sVBrand
p16
VAcer
p17
sVManufacturer Part Number
p18
VNT.L7FAA.006
p19
sVModel
p20
VSW5-271-64V2
p21
sVScreen Size
p22
V12.5 in
p23
sVProcessor Speed
p24
V0.80 GHz
p25
sVCondition
p26
VNew
p27
ssS'title'
p28
VRefurbished Acer 12.5" Intel Core M 0.80 GHz 4 GB Ram 128 GB SSD Windows 8.1|SW5-271-64V2
p29
sb.