ccopy_reg
_reconstructor
p0
(c__main__
ProductRecord
p1
c__builtin__
object
p2
Ntp3
Rp4
(dp5
S'product_url'
p6
S'http://www.walmart.com/ip/Manufacturer-Refurbished-HP-15-bw064nr-15-6-Laptop-AMD-Dual-Core-A9-9420-3-0GHz-4GB-1TB-HDD-W10/632569529'
p7
sS'price'
p8
V$334.99
p9
sS'properties'
p10
(dp11
VBrand
p12
VHP
p13
sVScreen Size
p14
V15.6\u005c"
p15
sVModel
p16
V15-bw064nr / 1KV23UA-RF
p17
sVManufacturer Part Number
p18
V15-bw064nr / 1KV23UA-RF
p19
ssS'title'
p20
VManufacturer Refurbished - HP 15-bw064nr 15.6" Laptop AMD Dual-Core A9-9420 3.0GHz 4GB 1TB HDD W10
p21
sb.