ccopy_reg
_reconstructor
p0
(c__main__
ProductRecord
p1
c__builtin__
object
p2
Ntp3
Rp4
(dp5
S'product_url'
p6
S'http://www.walmart.com/ip/Toshiba-Tecra-A50-D1532-15-6-Core-i5-7200U-8-GB-RAM-256-GB-SSD/226924445'
p7
sS'price'
p8
V$935.64
p9
sS'properties'
p10
(dp11
VRAM Memory
p12
V0 Gigabytes
p13
sVOperating System
p14
VWindows 10
p15
sVFeatures
p16
VTECRA A50-D1532 - INTEL - CORE I5 - 7200U - 2.5 GHZ - DDR4 SDRAM - RAM: 8 GB - 2
p17
sVBrand
p18
VToshiba
p19
sVProcessor Speed
p20
V0 Gigahertz
p21
sVManufacturer Part Number
p22
VPT581U-003012
p23
sVHard Drive Capacity
p24
V0 Gigabytes
p25
sVBattery Life
p26
V0 h
p27
sVAssembled Product Dimensions (L x W x H)
p28
V16.70 x 2.50 x 13.90 Inches
p29
sVModel
p30
VPT581U-003012
p31
sVScreen Size
p32
V15.6
p33
sVProcessor Type
p34
VIntel i5-7200U
p35
sVCondition
p36
VNew
p37
ssS'title'
p38
VToshiba Tecra A50-D1532 - 15.6" - Core i5 7200U - 8 GB RAM - 256 GB SSD
p39
sb.