ccopy_reg
_reconstructor
p0
(c__main__
ProductRecord
p1
c__builtin__
object
p2
Ntp3
Rp4
(dp5
S'product_url'
p6
S'http://www.walmart.com/ip/Dell-Inspiron-Premium-Laptop-PC-15-6-inch-HD-LED-backlit-Display-AMD-A8-7410-Quad-Core-Processor-6GB-DDR3L-RAM-500GB-HDD-DVD-RW-Radeon-R5-Graphics-Wi/613404609'
p7
sS'price'
p8
V$429.00
p9
sS'properties'
p10
(dp11
VRAM Memory
p12
V6.00 GB
p13
sVOperating System
p14
VWindows 10
p15
sVBrand
p16
VDell
p17
sVHard Drive Capacity
p18
V500.00 GB
p19
sVProcessor Type
p20
VAMD A8-7410 Quad Core Processor
p21
sVScreen Size
p22
V15.6\u005c"
p23
sVProcessor Speed
p24
V2.20 GHz
p25
ssS'title'
p26
VDell Inspiron Premium Laptop PC, 15.6-inch HD LED-backlit Display, AMD A8-7410 Quad Core Processor, 6GB DDR3L RAM, 500GB HDD, DVD +/- RW, Radeon R5 Graphics, Windows 10
p27
sb.