ccopy_reg
_reconstructor
p0
(c__main__
ProductRecord
p1
c__builtin__
object
p2
Ntp3
Rp4
(dp5
S'product_url'
p6
S'http://www.walmart.com/ip/Dell-Latitude-E6320-13-3-Windows-10-Laptop-Notebook-PC-Intel-i5-2520M-2-5GHz-4GB-Ram-a-320GB-Hard-Drive-and-Wifi-Refurbished-Laptop/982960100'
p7
sS'price'
p8
V$198.88
p9
sS'properties'
p10
(dp11
VOperating System
p12
VWindows 10
p13
sVBrand
p14
VDell
p15
sVManufacturer Part Number
p16
VE6320
p17
sVHard Drive Capacity
p18
V320
p19
sVModel
p20
VE6320
p21
sVScreen Size
p22
V13.3
p23
sVProcessor Type
p24
VIntel Core i5 2nd Gen.
p25
ssS'title'
p26
VDell Latitude E6320 13.3" Windows 10 Laptop Notebook PC Intel i5-2520M 2.5GHz 4GB Ram a 320GB Hard Drive and Wifi - Refurbished Laptop
p27
sb.