ccopy_reg
_reconstructor
p0
(c__main__
ProductRecord
p1
c__builtin__
object
p2
Ntp3
Rp4
(dp5
S'product_url'
p6
S'http://www.walmart.com/ip/ASUS-M01990-13-3-Laptop-Windows-10-Intel-Core-i5-6198DU-Processor-8GB-RAM-1TB-Hard-Drive/54808096'
p7
sS'price'
p8
V$780.35
p9
sS'properties'
p10
(dp11
VRAM Memory
p12
V8 GB
p13
sVOperating System
p14
VWindows 10
p15
sVVideo Game Platform
p16
VPC
p17
sVBrand
p18
VASUS
p19
sVProcessor Speed
p20
V2.30 GHz, with a Max Turbo Speed of 2.80 GHz
p21
sVManufacturer Part Number
p22
V90NB0CJ1-M01990
p23
sVHard Drive Capacity
p24
V1 TB
p25
sVAssembled Product Dimensions (L x W x H)
p26
V18.30 x 2.60 x 10.90 Inches
p27
sVModel
p28
V90NB0CJ1-M01990
p29
sVScreen Size
p30
V13.3"
p31
sVProcessor Type
p32
VIntel Core i5-6198DU Processor
p33
ssS'title'
p34
VASUS M01990 13.3" Laptop, Windows 10, Intel Core i5-6198DU Processor, 8GB RAM, 1TB Hard Drive
p35
sb.