ccopy_reg
_reconstructor
p0
(c__main__
ProductRecord
p1
c__builtin__
object
p2
Ntp3
Rp4
(dp5
S'product_url'
p6
S'http://www.walmart.com/ip/Refurbished-HP-W7B87UAR-ABL-Recertified-HP-15-ay000-15-ay013ca-15-6-quot-Notebook/182201572'
p7
sS'price'
p8
V$299.99
p9
sS'properties'
p10
(dp11
VRAM Memory
p12
V4 Gigabytes
p13
sVOperating System
p14
VWindows 10
p15
sVBrand
p16
VHP
p17
sVProcessor Speed
p18
V1.60 Gigahertz
p19
sVManufacturer Part Number
p20
VW7B87UAR#ABL
p21
sVHard Drive Capacity
p22
V500 Gigabytes
p23
sVModel
p24
VW7B87UAR#ABL
p25
sVScreen Size
p26
V15.6 Inches
p27
sVProcessor Type
p28
VIntel N3710 Pentium Quad-core (4 Core)
p29
ssS'title'
p30
VRefurbished HP W7B87UAR#ABL Recertified HP 15-ay000 15-ay013ca 15.6" Notebook
p31
sb.