ccopy_reg
_reconstructor
p0
(c__main__
ProductRecord
p1
c__builtin__
object
p2
Ntp3
Rp4
(dp5
S'product_url'
p6
S'http://www.walmart.com/ip/Acer-15-6-Intel-Celeron-1-6-GHz-4-GB-Ram-500GB-HDD-Windows-10-Home-ES1-531-C1GF/824687296'
p7
sS'price'
p8
V$238.34
p9
sS'properties'
p10
(dp11
VRAM Memory
p12
V4 GB
p13
sVOperating System
p14
VWindows 10
p15
sVBrand
p16
VAcer
p17
sVManufacturer Part Number
p18
VNX.MZ8AA.014
p19
sVModel
p20
VN3060
p21
sVScreen Size
p22
V15.6 in
p23
sVProcessor Speed
p24
V1.60 GHz
p25
ssS'title'
p26
VRefurbished Acer 15.6" Intel Celeron 1.6 GHz 4 GB Ram 500GB HDD Windows 10 Home|ES1-531-C1GF
p27
sb.