ccopy_reg
_reconstructor
p0
(c__main__
ProductRecord
p1
c__builtin__
object
p2
Ntp3
Rp4
(dp5
S'product_url'
p6
S'http://www.walmart.com/ip/LG-13Z970-U-AAW5U1-gram-Intel-i5-8GB-RAM-256GB-SSD-13-Laptop-White-Elite-Suite-17-Standard-Software-Bundle-Corel-WordPerfect-PC-Mover-PDF-Fusion-X9-1/192300230'
p7
sS'price'
p8
V$997.99
p9
sS'properties'
p10
(dp11
VRAM Memory
p12
V8.00 GB
p13
sVOperating System
p14
VWindows 10
p15
sVFeatures
p16
VBuilt-in Stereo Speakers; Webcam
p17
sVBrand
p18
VLG
p19
sVProcessor Speed
p20
V2.50 GHz
p21
sVManufacturer Part Number
p22
V13Z970-U.AAW5U1
p23
sVHard Drive Capacity
p24
V256.00 GB
p25
sVBattery Life
p26
V17.50 h
p27
sVModel
p28
V13Z970-U.AAW5U1
p29
sVScreen Size
p30
V13.30 in
p31
sVProcessor Type
p32
VIntel Core i5
p33
sVCondition
p34
VNew
p35
ssS'title'
p36
VLG 13Z970-U.AAW5U1 gram Intel i5 8GB RAM 256GB SSD 13" Laptop, White + Elite Suite 17 Standard Software Bundle (Corel WordPerfect, PC Mover,PDF Fusion,X9) + 1 Year Extended Warranty
p37
sb.