ccopy_reg
_reconstructor
p0
(c__main__
ProductRecord
p1
c__builtin__
object
p2
Ntp3
Rp4
(dp5
S'product_url'
p6
S'http://www.walmart.com/ip/Acer-Aspire-3-Notebook-with-Intel-Celeron-N3350-4GB-500GB-HDD/680155325'
p7
sS'price'
p8
V$313.17
p9
sS'properties'
p10
(dp11
VRAM Memory
p12
V4 Gigabytes
p13
sVOperating System
p14
VWindows 10
p15
sVBrand
p16
VAcer
p17
sVProcessor Speed
p18
V1.1 Gigahertz
p19
sVManufacturer Part Number
p20
VNX.GNTAA.001
p21
sVHard Drive Capacity
p22
V500 Gigabytes
p23
sVBattery Life
p24
V6 Hours
p25
sVAssembled Product Dimensions (L x W x H)
p26
V20.00 x 12.00 x 3.00 Inches
p27
sVModel
p28
VNX.GNTAA.001
p29
sVScreen Size
p30
V15.60 Inches
p31
sVProcessor Type
p32
VIntel N3350
p33
sVCondition
p34
VNew
p35
ssS'title'
p36
VAcer Aspire 3 Notebook with Intel Celeron N3350, 4GB 500GB HDD
p37
sb.