ccopy_reg
_reconstructor
p0
(c__main__
ProductRecord
p1
c__builtin__
object
p2
Ntp3
Rp4
(dp5
S'product_url'
p6
S'http://www.walmart.com/ip/Lenovo-Yoga-Book-YB1-X91F-10-1-Atom-x5-x5-Z8550-4GB-LPDDR3-64GB-Flash-Memory-Android-6-0-1920-x-1200-IPS-Convertible-2-in-1-Notebook/893833198'
p7
sS'price'
p8
S'N/A'
p9
sS'properties'
p10
(dp11
VRAM Memory
p12
V4.00 GB
p13
sVOperating System
p14
VAndroid 6.0
p15
sVFeatures
p16
VYOGA BOOK,ANDROID,X5,4G,64G,1YR
p17
sVBrand
p18
VLenovo
p19
sVProcessor Speed
p20
V1.44 GHz
p21
sVManufacturer Part Number
p22
VZA0V0224US
p23
sVHard Drive Capacity
p24
V64.00 GB
p25
sVBattery Life
p26
V15.00 h
p27
sVAssembled Product Dimensions (L x W x H)
p28
V13.00 x 7.00 x 2.00 Inches
p29
sVModel
p30
VZA0V0224US
p31
sVScreen Size
p32
V10.10 in
p33
sVProcessor Type
p34
VAtom x5
p35
sVCondition
p36
VNew
p37
ssS'title'
p38
VLenovo Yoga Book YB1-X91F 10.1" Atom x5 x5-Z8550 4GB LPDDR3 - 64GB Flash Memory Android 6.0 1920 x 1200 IPS Convertible 2 in 1 Notebook
p39
sb.