ccopy_reg
_reconstructor
p0
(c__main__
ProductRecord
p1
c__builtin__
object
p2
Ntp3
Rp4
(dp5
S'product_url'
p6
S'http://www.walmart.com/ip/Refurbished-Dell-Laptop-XPS-12-Convertible-9Q33-12-5-1920x1080-i5-4200U-4GB-RAM-128GB-SSD-Touch-Screen-Windows-10/255969591'
p7
sS'price'
p8
S'N/A'
p9
sS'properties'
p10
(dp11
VOperating System
p12
VMicrosoft Windows
p13
sVBrand
p14
VHP
p15
sVRAM Memory
p16
V4 GB
p17
sVScreen Size
p18
V12.5
p19
sVHard Drive Capacity
p20
V128
p21
ssS'title'
p22
VRefurbished Dell Laptop XPS 12 Convertible - 9Q33 12.5" 1920x1080 i5 4200U 4GB RAM 128GB SSD Touch Screen Windows 10
p23
sb.