ccopy_reg
_reconstructor
p0
(c__main__
ProductRecord
p1
c__builtin__
object
p2
Ntp3
Rp4
(dp5
S'product_url'
p6
S'http://www.walmart.com/ip/Acer-One-10-S1003-15NJ-10-1-Touchscreen-LCD-2-1-Notebook-Intel-Atom-x5-x5-Z8350-Quad-core-4-Core-1-44-GHz-2-GB-DDR3L-SDRAM-64-GB-Flash-Memory-Windows/639708941'
p7
sS'price'
p8
V$231.99
p9
sS'properties'
p10
(dp11
VRAM Memory
p12
V2.00 GB
p13
sVOperating System
p14
VWindows 10
p15
sVBrand
p16
VAcer
p17
sVProcessor Speed
p18
V1.40 GHz
p19
sVManufacturer Part Number
p20
VNT.LCQAA.004
p21
sVHard Drive Capacity
p22
V64.00 GB
p23
sVBattery Life
p24
V0 h
p25
sVAssembled Product Dimensions (L x W x H)
p26
V13.30 x 10.30 x 0.40 Inches
p27
sVModel
p28
VS100315NJ
p29
sVScreen Size
p30
V10.10 in
p31
sVProcessor Type
p32
VIntel Atom x5-Z8350
p33
sVCondition
p34
VNew
p35
ssS'title'
p36
VAcer One 10 S1003-15NJ 10.1" Touchscreen LCD 2 in 1 Notebook - Intel Atom x5 x5-Z8350 Quad-core (4 Core) 1.44 GHz - 2 GB DDR3L SDRAM - 64 GB Flash Memory - Windows 10 Home
p37
sb.