ccopy_reg
_reconstructor
p0
(c__main__
ProductRecord
p1
c__builtin__
object
p2
Ntp3
Rp4
(dp5
S'product_url'
p6
S'http://www.walmart.com/ip/Refurbished-Dell-Silver-15-6-Latitude-E6510-Laptop-PC-with-Intel-Core-i5-520M-Processor-4GB-Memory-250GB-Hard-Drive-and-Windows-10-Home/50910390'
p7
sS'price'
p8
V$220.00
p9
sS'properties'
p10
(dp11
VRAM Memory
p12
V4 KB
p13
sVOperating System
p14
VWindows 10
p15
sVVideo Game Platform
p16
VPC
p17
sVBrand
p18
VLatitude
p19
sVProcessor Speed
p20
V2.4 Hz
p21
sVManufacturer Part Number
p22
VWA5-1185
p23
sVMaximum RAM Supported
p24
V8 KB
p25
sVHard Drive Capacity
p26
V250 KB
p27
sVAssembled Product Dimensions (L x W x H)
p28
V14.70 x 1.30 x 10.00 Inches
p29
sVModel
p30
VE6510
p31
sVScreen Size
p32
V15.6"
p33
sVProcessor Type
p34
VIntel Core i5
p35
sVCondition
p36
VRefurbished
p37
ssS'title'
p38
VRefurbished Dell Silver 15.6" Latitude E6510 Laptop PC with Intel Core i5-520M Processor, 4GB Memory, 250GB Hard Drive and Windows 10 Home
p39
sb.