ccopy_reg
_reconstructor
p0
(c__main__
ProductRecord
p1
c__builtin__
object
p2
Ntp3
Rp4
(dp5
S'product_url'
p6
S'http://www.walmart.com/ip/Acer-TravelMate-P446-M-77QP-14-Core-i7-5500U-8-GB-RAM-500-GB-HDD-US-International/49844550'
p7
sS'price'
p8
V$718.00
p9
sS'properties'
p10
(dp11
VRAM Memory
p12
V8 GB
p13
sVOperating System
p14
VWindows 10
p15
sVFeatures
p16
V8GB 500GB 14IN WL W10P/W7P
p17
sVVideo Game Platform
p18
VPC
p19
sVBrand
p20
VAcer
p21
sVProcessor Speed
p22
V2.40 GHz
p23
sVManufacturer Part Number
p24
VNX.VCEAA.003
p25
sVMaximum RAM Supported
p26
V12 GB
p27
sVHard Drive Capacity
p28
V500 GB
p29
sVBattery Life
p30
V7 hours
p31
sVAssembled Product Dimensions (L x W x H)
p32
V0.90 x 9.40 x 13.40 Inches
p33
sVModel
p34
VNX.VCEAA.003
p35
sVScreen Size
p36
V14.0"
p37
sVProcessor Type
p38
VIntel Core i7
p39
sVCondition
p40
VNew
p41
ssS'title'
p42
VAcer TravelMate P446-M-77QP - 14" - Core i7 5500U - 8 GB RAM - 500 GB HDD - US International
p43
sb.