ccopy_reg
_reconstructor
p0
(c__main__
ProductRecord
p1
c__builtin__
object
p2
Ntp3
Rp4
(dp5
S'product_url'
p6
S'http://www.walmart.com/ip/Refurbished-Lenovo-ThinkPad-T510-15-6-Display-Core-i5-2-4GHz-4GB-160GB/252881700'
p7
sS'price'
p8
V$243.59
p9
sS'properties'
p10
(dp11
VRAM Memory
p12
V4 GB
p13
sVOperating System
p14
VWindows 10
p15
sVColor Category
p16
VBlack
p17
sVLaptop Computer Type
p18
VPC Laptops
p19
sVBrand
p20
VLenovo
p21
sVManufacturer Part Number
p22
VT510
p23
sVHard Drive Capacity
p24
V160 GB
p25
sVProcessor Type
p26
VIntel Core i5
p27
sVScreen Size
p28
V15.6 in
p29
sVModel
p30
VT510
p31
sVCondition
p32
VRefurbished
p33
sVManufacturer
p34
VLENOVO
p35
ssS'title'
p36
VRefurbished Lenovo ThinkPad T510 15.6" Display Core i5 2.4GHz/4GB/160GB
p37
sb.