ccopy_reg
_reconstructor
p0
(c__main__
ProductRecord
p1
c__builtin__
object
p2
Ntp3
Rp4
(dp5
S'product_url'
p6
S'http://www.walmart.com/ip/Refurbished-HP-Envy-17-17-3-1080-Notebook-Laptop-Intel-Core-i7-7500U-2-7GHz-16GB-Ram-Memory-1TB-Hard-Drive-NVIDIA-4GB-940MX-WiFi-AC-Bluetooth-DVDRW-B/797959676'
p7
sS'price'
p8
V$765.35
p9
sS'properties'
p10
(dp11
VRAM Memory
p12
V16 GB
p13
sVOperating System
p14
VWindows 10
p15
sVBrand
p16
VHP
p17
sVProcessor Speed
p18
V2.7 GHz
p19
sVManufacturer Part Number
p20
VW0U97AAR - WNQN
p21
sVMaximum RAM Supported
p22
V16 GB
p23
sVHard Drive Capacity
p24
V1 TB
p25
sVModel
p26
VHP ENVY 17T-S100
p27
sVScreen Size
p28
V17.3 in
p29
sVProcessor Type
p30
VIntel Core i7
p31
ssS'title'
p32
VRefurbished HP Envy 17 17.3" 1080 Notebook/Laptop, Intel Core i7-7500U 2.7GHz, 16GB Ram Memory, 1TB Hard Drive, NVIDIA 4GB 940MX, WiFi AC, Bluetooth, DVDRW, Backlit Keyboard, Windows 10 Home
p33
sb.