ccopy_reg
_reconstructor
p0
(c__main__
ProductRecord
p1
c__builtin__
object
p2
Ntp3
Rp4
(dp5
S'product_url'
p6
S'http://www.walmart.com/ip/TOPSELLER-X1-TABLET-12IN-256GB-SSD-W10P-64BIT-KEYB-PEN/154376628'
p7
sS'price'
p8
S'N/A'
p9
sS'properties'
p10
(dp11
VRAM Memory
p12
V8 GB
p13
sVOperating System
p14
VWindows 10
p15
sVVideo Game Platform
p16
VPC
p17
sVBrand
p18
VLenovo
p19
sVProcessor Speed
p20
V1.20 GHz
p21
sVManufacturer Part Number
p22
V20GG001NUS
p23
sVMaximum RAM Supported
p24
V8 GB
p25
sVHard Drive Capacity
p26
V256 GB
p27
sVBattery Life
p28
V10 hours
p29
sVAssembled Product Dimensions (L x W x H)
p30
V14.10 x 10.80 x 3.30 Inches
p31
sVModel
p32
V20GG001NUS
p33
sVScreen Size
p34
V12.0"
p35
sVProcessor Type
p36
VIntel Core M7-6Y75 Dual-Core Processor
p37
sVCondition
p38
VNew
p39
ssS'title'
p40
VTOPSELLER X1 TABLET 12IN 256GB SSD W10P 64BIT KEYB PEN
p41
sb.