ccopy_reg
_reconstructor
p0
(c__main__
ProductRecord
p1
c__builtin__
object
p2
Ntp3
Rp4
(dp5
S'product_url'
p6
S'http://www.walmart.com/ip/Asus-VivoBook-Pro-17-Full-HD-Intel-i7-8550U-Processor-16GB-RAM-256GB-SSD-1TB-HDD-GeForce-GTX-1050-Backlit-Keyboard-Windows-10-Star-Gray-N705UD-EH76-T/865116334'
p7
sS'price'
p8
V$1,089.99
p9
sS'properties'
p10
(dp11
VRAM Memory
p12
V16.00 GB
p13
sVOperating System
p14
VWindows 10
p15
sVBrand
p16
VASUS
p17
sVProcessor Speed
p18
V1.80 GHz
p19
sVManufacturer Part Number
p20
V90NB0GA1-M01590
p21
sVMaximum RAM Supported
p22
V32.00 GB
p23
sVHard Drive Capacity
p24
V1.00 TB
p25
sVAssembled Product Dimensions (L x W x H)
p26
V21.00 x 13.00 x 3.00 Inches
p27
sVModel
p28
VN705UDEH76
p29
sVScreen Size
p30
V17.00 in
p31
sVProcessor Type
p32
VIntel Core i7
p33
sVCondition
p34
VNew
p35
ssS'title'
p36
VAsus VivoBook Pro, 17" Full HD , Intel i7-8550U Processor, 16GB RAM, 256GB SSD + 1TB HDD, GeForce GTX 1050,Backlit Keyboard, Windows 10, Star Gray, N705UD-EH76 Thin & Light Laptop
p37
sb.