ccopy_reg
_reconstructor
p0
(c__main__
ProductRecord
p1
c__builtin__
object
p2
Ntp3
Rp4
(dp5
S'product_url'
p6
S'http://www.walmart.com/ip/REFURB-TS-17-3-i7-16G-1T-MX150/609741499'
p7
sS'price'
p8
V$869.99
p9
sS'properties'
p10
(dp11
VRAM Memory
p12
V16 GB
p13
sVOperating System
p14
VMicrosoft Windows, Windows 10
p15
sVBrand
p16
VHP-Consumer Remarketing
p17
sVProcessor Speed
p18
V1.80 GHz
p19
sVManufacturer Part Number
p20
V1KT19UAR#ABA
p21
sVHard Drive Capacity
p22
V1 TB
p23
sVModel
p24
V1KT19UAR#ABA
p25
sVScreen Size
p26
V17.3"
p27
sVProcessor Type
p28
VIntel Core i7
p29
ssS'title'
p30
VREFURB TS 17.3 i7 16G 1T MX150
p31
sb.