ccopy_reg
_reconstructor
p0
(c__main__
ProductRecord
p1
c__builtin__
object
p2
Ntp3
Rp4
(dp5
S'product_url'
p6
S'http://www.walmart.com/ip/Refurbished-HP-6000-SFF-Desktop-PC-with-Intel-Core-2-Duo-E8400-Processor-4GB-Memory-19-LCD-Monitor-1TB-Hard-Drive-and-Windows-10-Home/55484953'
p7
sS'price'
p8
V$192.14
p9
sS'properties'
p10
(dp11
VRAM Memory
p12
V4 GB
p13
sVOperating System
p14
VWindows 10
p15
sVFeatures
p16
VROHS Compliant
p17
sVVideo Game Platform
p18
VPC
p19
sVBrand
p20
VHP
p21
sVProcessor Speed
p22
V3.00 GHz
p23
sVManufacturer Part Number
p24
V62805557349
p25
sVMaximum RAM Supported
p26
V8 GB
p27
sVHard Drive Capacity
p28
V1 TB
p29
sVAssembled Product Dimensions (L x W x H)
p30
V14.90 x 13.30 x 3.95 Inches
p31
sVModel
p32
VHP 6000 + 19" LCD
p33
sVScreen Size
p34
V19"
p35
sVProcessor Type
p36
VIntel Core 2 Duo E8400 Processor
p37
ssS'title'
p38
VRefurbished HP 6000 SFF Desktop PC with Intel Core 2 Duo E8400 Processor, 4GB Memory, 19" LCD Monitor, 1TB Hard Drive and Windows 10 Home
p39
sb.