ccopy_reg
_reconstructor
p0
(c__main__
ProductRecord
p1
c__builtin__
object
p2
Ntp3
Rp4
(dp5
S'product_url'
p6
S'http://www.walmart.com/ip/HP-ZBook-17-G4-Mobile-Workstation-17-3-Core-i7-7820HQ-16-GB-RAM-512-GB-SSD-1-TB-HDD-US/242213219'
p7
sS'price'
p8
V$2,486.22
p9
sS'properties'
p10
(dp11
VRAM Memory
p12
V16.00 GB
p13
sVOperating System
p14
VWindows 10
p15
sVFeatures
p16
VI7-7820HQ 2.9G 16GB 1TB 17.3IN W10P
p17
sVBrand
p18
VHP
p19
sVProcessor Speed
p20
V2.90 GHz
p21
sVManufacturer Part Number
p22
V1NL43UT#ABA
p23
sVHard Drive Capacity
p24
V512.00 GB
p25
sVAssembled Product Dimensions (L x W x H)
p26
V12.00 x 12.00 x 12.00 Inches
p27
sVModel
p28
V1NL43UT
p29
sVScreen Size
p30
V17.30 in
p31
sVProcessor Type
p32
VIntel Core i7
p33
sVCondition
p34
VNew
p35
ssS'title'
p36
VHP ZBook 17 G4 Mobile Workstation - 17.3" - Core i7 7820HQ - 16 GB RAM - 512 GB SSD + 1 TB HDD - US
p37
sb.