ccopy_reg
_reconstructor
p0
(c__main__
ProductRecord
p1
c__builtin__
object
p2
Ntp3
Rp4
(dp5
S'product_url'
p6
S'http://www.walmart.com/ip/Lenovo-Recertified-Yoga-910-13IKB-2-IN-1-Core-i7-7500U-2-7GHz-1TBSSD-16GB-13-9-UHD-3840x2160-IPS-TOUCHSCREEN-BT-WIN10-Pro-Webcam-DARK-GREY-Backlit-Ke/845210177'
p7
sS'price'
p8
S'N/A'
p9
sS'properties'
p10
(dp11
VOperating System
p12
VWindows 10
p13
sVFeatures
p14
VIPS TOUCHSCREEN, Up to 15.5 hours battery life, 12.72 x 8.84 x 0.56 in (323.08 x 224.53 x 14.22 mm), Bluetooth 4.1, 3.00 lbs (1.36 kg), 1 USB 3.1 Type-C ? 1 USB 3.0 (charge) ? Headphone output/Microphone input combo
p15
sVBrand
p16
VLenovo
p17
sVProcessor Speed
p18
V2.7 GHz
p19
sVManufacturer Part Number
p20
V910-13ikb
p21
sVBattery Life
p22
V15 h
p23
sVModel
p24
VYoga 910-13KB
p25
sVProcessor Type
p26
VIntel Core i7 -7500U, Intel Core i7
p27
sVCondition
p28
VNew
p29
ssS'title'
p30
VLenovo Recertified Yoga 910-13IKB 2-IN-1 Core? i7-7500U 2.7GHz 1TBSSD 16GB 13.9" UHD (3840x2160) IPS TOUCHSCREEN BT WIN10 Pro Webcam DARK GREY Backlit Keyboard
p31
sb.