ccopy_reg
_reconstructor
p0
(c__main__
ProductRecord
p1
c__builtin__
object
p2
Ntp3
Rp4
(dp5
S'product_url'
p6
S'http://www.walmart.com/ip/A-Unity-System-Huruma-AUS3-JWE-19-15-6-Laptop-Windows-10-Intel-Atom-Quad-Core-Processor-4GB-RAM-64GB-Flash-Storage/56064586'
p7
sS'price'
p8
V$298.81
p9
sS'properties'
p10
(dp11
VRAM Memory
p12
V4 GB
p13
sVOperating System
p14
VWindows 10
p15
sVVideo Game Platform
p16
VPC
p17
sVBrand
p18
VHuruma
p19
sVProcessor Speed
p20
V1.44 GHz, with a Max Turbo Speed of 1.92 GHz
p21
sVManufacturer Part Number
p22
VAUS3-JWE-19
p23
sVMaximum RAM Supported
p24
V4 GB
p25
sVHard Drive Capacity
p26
V64 GB
p27
sVBattery Life
p28
V8 hours
p29
sVAssembled Product Dimensions (L x W x H)
p30
V9.45 x 14.60 x 0.84 Inches
p31
sVModel
p32
VAUS3-JWE-19
p33
sVScreen Size
p34
V15.6"
p35
sVProcessor Type
p36
VIntel Atom
p37
sVCondition
p38
VNew
p39
ssS'title'
p40
VA Unity System Huruma AUS3-JWE-19 15.6" Laptop, Windows 10, Intel Atom Quad-Core Processor, 4GB RAM, 64GB Flash Storage
p41
sb.