ccopy_reg
_reconstructor
p0
(c__main__
ProductRecord
p1
c__builtin__
object
p2
Ntp3
Rp4
(dp5
S'product_url'
p6
S'http://www.walmart.com/ip/Acer-Aspire-F-15-F5-573-55W1-15-6-Core-i5-7200U-8-GB-RAM-1-TB-HDD-US-International/185493566'
p7
sS'price'
p8
V$535.83
p9
sS'properties'
p10
(dp11
VRAM Memory
p12
V8 Gigabytes
p13
sVOperating System
p14
VWindows 10
p15
sVFeatures
p16
VAspire F5-573 15.6" Ci57200U 8G 1TB Win 10 - Red
p17
sVBrand
p18
VAcer
p19
sVProcessor Speed
p20
V2.5 Gigahertz
p21
sVManufacturer Part Number
p22
VNX.GJZAA.001
p23
sVMaximum RAM Supported
p24
V32 Gigabytes
p25
sVHard Drive Capacity
p26
V1 Terabytes
p27
sVAssembled Product Dimensions (L x W x H)
p28
V5.00 x 5.00 x 5.00 Inches
p29
sVModel
p30
VNX.GJZAA.001
p31
sVScreen Size
p32
V15.60 in
p33
sVProcessor Type
p34
VIntel i5-7200U
p35
sVCondition
p36
VNew
p37
ssS'title'
p38
VAcer Aspire F 15 F5-573-55W1 - 15.6" - Core i5 7200U - 8 GB RAM - 1 TB HDD - US International
p39
sb.