ccopy_reg
_reconstructor
p0
(c__main__
ProductRecord
p1
c__builtin__
object
p2
Ntp3
Rp4
(dp5
S'product_url'
p6
S'http://www.walmart.com/ip/Refurbished-Lenovo-X1-Carbon-Laptop-Intel-Core-i5-1-8GHz-Processor-4GB-Memory-128GB-Solid-State-Hard-Drive-Webcam-Windows-10-Pro/737363353'
p7
sS'price'
p8
V$329.97
p9
sS'properties'
p10
(dp11
VRAM Memory
p12
V4.00 KB
p13
sVOperating System
p14
VWindows 10
p15
sVBrand
p16
VLenovo
p17
sVProcessor Speed
p18
V1.90 Hz
p19
sVManufacturer Part Number
p20
VX1RB
p21
sVMaximum RAM Supported
p22
V8.00 KB
p23
sVHard Drive Capacity
p24
V128.00 KB
p25
sVBattery Life
p26
V0 h
p27
sVModel
p28
VX1RBRCP
p29
sVScreen Size
p30
V14 in
p31
sVProcessor Type
p32
VIntel Core i5
p33
ssS'title'
p34
VRefurbished Lenovo X1 Carbon Laptop Intel Core i5 1.8GHz Processor 4GB Memory 128GB Solid State Hard Drive Webcam Windows 10 Pro
p35
sb.