ccopy_reg
_reconstructor
p0
(c__main__
ProductRecord
p1
c__builtin__
object
p2
Ntp3
Rp4
(dp5
S'product_url'
p6
S'http://www.walmart.com/ip/Acer-Aspire-C22-860-UR11-i3-7100U-2-40-GHz-4-GB-DDR4-SDRAM-1-TB-HDD-1920-x-1080-Windows-10-Home-All-in-One/338372926'
p7
sS'price'
p8
V$595.45
p9
sS'properties'
p10
(dp11
VRAM Memory
p12
V4 GB
p13
sVOperating System
p14
VWindows 10
p15
sVBrand
p16
VAcer
p17
sVProcessor Speed
p18
V2.4 GHz
p19
sVManufacturer Part Number
p20
VDQ.B93AA.001
p21
sVMaximum RAM Supported
p22
V16 GB
p23
sVHard Drive Capacity
p24
V1 TB
p25
sVBattery Life
p26
V0 h
p27
sVAssembled Product Dimensions (L x W x H)
p28
V8.00 x 23.00 x 20.00 Inches
p29
sVModel
p30
VC22860UR11
p31
sVScreen Size
p32
V21.5 in
p33
sVProcessor Type
p34
VIntel Core i3
p35
ssS'title'
p36
VAcer Aspire C22-860-UR11 - i3-7100U 2.40 GHz - 4 GB DDR4 SDRAM - 1 TB HDD 1920 x 1080 - Windows 10 Home All-in-One
p37
sb.