ccopy_reg
_reconstructor
p0
(c__main__
ProductRecord
p1
c__builtin__
object
p2
Ntp3
Rp4
(dp5
S'product_url'
p6
S'http://www.walmart.com/ip/HP-15-ay020nr-15-6-Notebook-w-Intel-i3-4GB-RAM-1TB-HDD-Windows-10-Home/51629777'
p7
sS'price'
p8
V$399.00
p9
sS'properties'
p10
(dp11
VRAM Memory
p12
V4 Gigabytes
p13
sVOperating System
p14
VWindows 10
p15
sVVideo Game Platform
p16
VSee Description
p17
sVBrand
p18
VHP
p19
sVProcessor Speed
p20
V2 Gigahertz
p21
sVManufacturer Part Number
p22
VW2M73UA#ABA
p23
sVHard Drive Capacity
p24
V1 Terabytes
p25
sVModel
p26
VW2M73UA#ABA
p27
sVScreen Size
p28
V15.60 in
p29
sVProcessor Type
p30
VIntel i3-5005U Core i3 Dual-core (2 Core)
p31
sVCondition
p32
VNew
p33
ssS'title'
p34
VHP 15-ay020nr 15.6" Notebook w/ Intel i3, 4GB RAM, 1TB HDD, & Windows 10 Home
p35
sb.