ccopy_reg
_reconstructor
p0
(c__main__
ProductRecord
p1
c__builtin__
object
p2
Ntp3
Rp4
(dp5
S'product_url'
p6
S'http://www.walmart.com/ip/Refurbished-HP-EliteBook-8470p-2-6GHz-i7-8GB-256SSD-DRW-Windows-10-Pro-64-Laptop-B-Camera/472052136'
p7
sS'price'
p8
V$284.25
p9
sS'properties'
p10
(dp11
VBrand
p12
VHP
p13
sVModel
p14
VEliteBook 8470p
p15
ssS'title'
p16
VRefurbished HP EliteBook 8470p 2.6GHz i7 8GB 256SSD DRW Windows 10 Pro 64 Laptop B Camera
p17
sb.