ccopy_reg
_reconstructor
p0
(c__main__
ProductRecord
p1
c__builtin__
object
p2
Ntp3
Rp4
(dp5
S'product_url'
p6
S'http://www.walmart.com/ip/HP-ProBook-470-G4-17-3-Core-i7-7500U-8-GB-RAM-1-TB-HDD/55605370'
p7
sS'price'
p8
V$939.52
p9
sS'properties'
p10
(dp11
VRAM Memory
p12
V8 GB
p13
sVOperating System
p14
VWindows 10
p15
sVFeatures
p16
V1TB DVD 17.3IN BT W10P 64BIT
p17
sVVideo Game Platform
p18
VPC
p19
sVBrand
p20
VHP
p21
sVProcessor Speed
p22
V2.70 GHz
p23
sVManufacturer Part Number
p24
VZ1Z75UT#ABA
p25
sVHard Drive Capacity
p26
V1 TB
p27
sVAssembled Product Dimensions (L x W x H)
p28
V11.02 x 16.41 x 1.02 Inches
p29
sVModel
p30
VZ1Z75UT#ABA
p31
sVScreen Size
p32
V17.3"
p33
sVProcessor Type
p34
VIntel Core i7
p35
sVCondition
p36
VNew
p37
ssS'title'
p38
VHP ProBook 470 G4 - 17.3" - Core i7 7500U - 8 GB RAM - 1 TB HDD
p39
sb.