ccopy_reg
_reconstructor
p0
(c__main__
ProductRecord
p1
c__builtin__
object
p2
Ntp3
Rp4
(dp5
S'product_url'
p6
S'http://www.walmart.com/ip/Lenovo-ThinkPad-E570-15-6-Core-i5-7200U-8-GB-RAM-180-GB-SSD/880923082'
p7
sS'price'
p8
V$777.95
p9
sS'properties'
p10
(dp11
VRAM Memory
p12
V8.00 GB
p13
sVOperating System
p14
VWindows 10
p15
sVFeatures
p16
VI5-7200U 2.5G 8GB 180GB SSD W10P
p17
sVVideo Game Platform
p18
VPC
p19
sVBrand
p20
VLenovo
p21
sVProcessor Speed
p22
V2.50 GHz
p23
sVManufacturer Part Number
p24
V20H500A9US
p25
sVHard Drive Capacity
p26
V180.00 GB
p27
sVAssembled Product Dimensions (L x W x H)
p28
V5.00 x 5.00 x 5.00 Inches
p29
sVModel
p30
V20H500A9US
p31
sVScreen Size
p32
V15.60 in
p33
sVProcessor Type
p34
VIntel Core i5
p35
sVCondition
p36
VNew
p37
ssS'title'
p38
VLenovo ThinkPad E570 - 15.6" - Core i5 7200U - 8 GB RAM - 180 GB SSD
p39
sb.