ccopy_reg
_reconstructor
p0
(c__main__
ProductRecord
p1
c__builtin__
object
p2
Ntp3
Rp4
(dp5
S'product_url'
p6
S'http://www.walmart.com/ip/2017-Newest-HP-Premium-High-Performance-17-3-Inch-Business-Laptop-Intel-Pentium-N3710-Quad-Core-Processor-4GB-Memory-1TB-Hard-Drive-HD-Webcam-DVD-HDM/839492335'
p7
sS'price'
p8
V$549.00
p9
sS'properties'
p10
(dp11
VRAM Memory
p12
V4.00 GB
p13
sVOperating System
p14
VWindows 10
p15
sVBrand
p16
VHP
p17
sVHard Drive Capacity
p18
V1.00 TB
p19
sVProcessor Type
p20
VIntel Pentium N3710 Quad Core
p21
sVScreen Size
p22
V17.30 in
p23
sVProcessor Speed
p24
V1.60 GHz
p25
sVmanufacturer_part_number
p26
V2017
p27
ssS'title'
p28
V2017 Newest HP Premium High Performance 17.3 Inch Business Laptop Intel Pentium N3710 Quad-Core Processor 4GB Memory 1TB Hard Drive HD Webcam DVD HDMI Webcam 802.11ac Bluetooth Window 10- Turbo Silver
p29
sb.