ccopy_reg
_reconstructor
p0
(c__main__
ProductRecord
p1
c__builtin__
object
p2
Ntp3
Rp4
(dp5
S'product_url'
p6
S'http://www.walmart.com/ip/15-6-A49120-8G-1TB-Win10/844740714'
p7
sS'price'
p8
V$369.00
p9
sS'properties'
p10
(dp11
VRAM Memory
p12
V8 Gigabytes
p13
sVOperating System
p14
VWindows 10
p15
sVFeatures
p16
VAcer Aspire 3 - 15.6" Display, AMD A4-9120 CPU, 8GB RAM, 1TB HDD, Windows 10 Home - Black
p17
sVBrand
p18
VAcer
p19
sVProcessor Speed
p20
V2.2 Gigahertz
p21
sVManufacturer Part Number
p22
VNX.GNVAA.010
p23
sVMaximum RAM Supported
p24
V12 Gigabytes
p25
sVHard Drive Capacity
p26
V1 Terabytes
p27
sVBattery Life
p28
V6 Hours
p29
sVAssembled Product Dimensions (L x W x H)
p30
V20.00 x 12.00 x 3.00 Inches
p31
sVModel
p32
VNX.GNVAA.010
p33
sVScreen Size
p34
V15.60 Inches
p35
sVProcessor Type
p36
VAMD A4-9120
p37
sVCondition
p38
VNew
p39
ssS'title'
p40
V15.6" A49120 8G 1TB Win10
p41
sb.