ccopy_reg
_reconstructor
p0
(c__main__
ProductRecord
p1
c__builtin__
object
p2
Ntp3
Rp4
(dp5
S'product_url'
p6
S'http://www.walmart.com/ip/Refurbished-Lenovo-ThinkCentre-M91P-Desktop-PC-Intel-Core-i5-2400S-Processor-8GB-Memory-320GB-Hard-Drive-Windows-10-Pro-Monitor-Included/52030504'
p7
sS'price'
p8
V$188.05
p9
sS'properties'
p10
(dp11
VRAM Memory
p12
V8 GB
p13
sVOperating System
p14
VWindows 10
p15
sVVideo Game Platform
p16
VPC
p17
sVBrand
p18
VThinkCentre
p19
sVProcessor Speed
p20
V2.50 GHz
p21
sVManufacturer Part Number
p22
VWA3-0103
p23
sVMaximum RAM Supported
p24
V8 GB
p25
sVHard Drive Capacity
p26
V320 GB
p27
sVAssembled Product Dimensions (L x W x H)
p28
V13.30 x 3.90 x 14.50 Inches
p29
sVModel
p30
VM91P
p31
sVProcessor Type
p32
VIntel Core i5-2400S Processor
p33
sVCondition
p34
VRefurbished
p35
ssS'title'
p36
VRefurbished Lenovo ThinkCentre M91P Desktop PC with Intel Core i5-2400S Processor, 8GB Memory, 320GB Hard Drive and Windows 10 Pro (Monitor Not Included)
p37
sb.