ccopy_reg
_reconstructor
p0
(c__main__
ProductRecord
p1
c__builtin__
object
p2
Ntp3
Rp4
(dp5
S'product_url'
p6
S'http://www.walmart.com/ip/Acer-Swift-7-Notebook-with-Intel-i7-7Y75-8GB-512GB-SSD/284968322'
p7
sS'price'
p8
V$1,287.86
p9
sS'properties'
p10
(dp11
VRAM Memory
p12
V8 Gigabytes
p13
sVOperating System
p14
VWindows 10
p15
sVVideo Game Platform
p16
VSee Description
p17
sVBrand
p18
VAcer
p19
sVProcessor Speed
p20
V1.3 Gigahertz
p21
sVManufacturer Part Number
p22
VNX.GN2AA.001
p23
sVHard Drive Capacity
p24
V512 Gigabytes
p25
sVBattery Life
p26
V9 Hours
p27
sVAssembled Product Dimensions (L x W x H)
p28
V13.00 x 12.80 x 0.40 Inches
p29
sVModel
p30
VSF713-51-M51W
p31
sVScreen Size
p32
V13.30 Inches
p33
sVProcessor Type
p34
VIntel i7-7Y75
p35
sVCondition
p36
VNew
p37
ssS'title'
p38
VAcer Swift 7 Notebook with Intel i7-7Y75, 8GB 512GB SSD
p39
sb.