ccopy_reg
_reconstructor
p0
(c__main__
ProductRecord
p1
c__builtin__
object
p2
Ntp3
Rp4
(dp5
S'product_url'
p6
S'http://www.walmart.com/ip/Refurbished-Lenovo-ThinkPad-T430-i7-2-9GHz-4GB-256SSD-DRW-Windows-10-Pro-64-Laptop-CAM/932040175'
p7
sS'price'
p8
V$364.76
p9
sS'properties'
p10
(dp11
VBrand
p12
VLenovo
p13
sVModel
p14
VThinkpad T430
p15
ssS'title'
p16
VRefurbished Lenovo ThinkPad T430 i7 2.9GHz 4GB 256SSD DRW Windows 10 Pro 64 Laptop CAM
p17
sb.