ccopy_reg
_reconstructor
p0
(c__main__
ProductRecord
p1
c__builtin__
object
p2
Ntp3
Rp4
(dp5
S'product_url'
p6
S'http://www.walmart.com/ip/HP-Stream-14-Laptop-Windows-10-Home-Office-365-Personal-1-year-included-Intel-Celeron-N3060-Processor-4GB-RAM-32GB-eMMC-Storage/54056482'
p7
sS'price'
p8
S'N/A'
p9
sS'properties'
p10
(dp11
VRAM Memory
p12
V4 GB
p13
sVOperating System
p14
VWindows 10
p15
sVColor Category
p16
VPurple
p17
sVVideo Game Platform
p18
VPC
p19
sVBrand
p20
VHP
p21
sVManufacturer Part Number
p22
VX7S47UA#ABA
p23
sVHard Drive Capacity
p24
V32
p25
sVLaptop Computer Type
p26
VPC Laptops
p27
sVProcessor Type
p28
VIntel Celeron
p29
sVScreen Size
p30
V14.0 in
p31
sVModel
p32
V14-ax020wm
p33
sVCondition
p34
VNew
p35
sVManufacturer
p36
VHewlett Packard
p37
ssS'title'
p38
VHP Stream 14" Laptop, Windows 10 Home, Office 365 Personal 1-year included, Intel Celeron N3060 Processor, 4GB RAM, 32GB eMMC Storage
p39
sb.