ccopy_reg
_reconstructor
p0
(c__main__
ProductRecord
p1
c__builtin__
object
p2
Ntp3
Rp4
(dp5
S'product_url'
p6
S'http://www.walmart.com/ip/HP-Stream-11-6-Laptop-Windows-10-Home-Office-365-Personal-1-year-subscription-included-Intel-Celeron-N3060-Processor-4GB-RAM-32GB-eMMC-Storage/54056481'
p7
sS'price'
p8
V$199.00
p9
sS'properties'
p10
(dp11
VRAM Memory
p12
V4 GB
p13
sVOperating System
p14
VWindows 10
p15
sVFeatures
p16
VEPEAT
p17
sVVideo Game Platform
p18
VPC
p19
sVBrand
p20
VHP
p21
sVProcessor Speed
p22
V1.60 GHz, with a Max Turbo Speed of 2.48 GHz
p23
sVManufacturer Part Number
p24
VX7V32UA#ABA
p25
sVHard Drive Capacity
p26
V32 GB
p27
sVBattery Life
p28
V10 hours
p29
sVAssembled Product Dimensions (L x W x H)
p30
V11.80 x 81.00 x 0.71 Inches
p31
sVModel
p32
V11-y020wm
p33
sVScreen Size
p34
V11.6 in
p35
sVProcessor Type
p36
VIntel Celeron
p37
sVCondition
p38
VNew
p39
ssS'title'
p40
VHP Stream 11.6" Laptop, Windows 10 Home, Office 365 Personal 1-year subscription included, Intel Celeron N3060 Processor, 4GB RAM, 32GB eMMC Storage
p41
sb.