ccopy_reg
_reconstructor
p0
(c__main__
ProductRecord
p1
c__builtin__
object
p2
Ntp3
Rp4
(dp5
S'product_url'
p6
S'http://www.walmart.com/ip/Dell-Black-15-6-Inspiron-i3552-Laptop-PC-with-Intel-Celeron-N3050-Processor-4GB-Memory-500GB-Hard-Drive-and-Windows-10-Home/49835462'
p7
sS'price'
p8
V$349.00
p9
sS'properties'
p10
(dp11
VRAM Memory
p12
V4 GB
p13
sVOperating System
p14
VWindows 10
p15
sVVideo Game Platform
p16
VPC
p17
sVBrand
p18
VDell
p19
sVProcessor Speed
p20
Vup to 2.16 GHz
p21
sVManufacturer Part Number
p22
Vi3552-4042BLK
p23
sVMaximum RAM Supported
p24
V4 GB
p25
sVHard Drive Capacity
p26
V500 GB
p27
sVBattery Life
p28
V8 Hour
p29
sVAssembled Product Dimensions (L x W x H)
p30
V13.70 x 19.45 x 3.11 Inches
p31
sVModel
p32
Vi3552-4042BLK
p33
sVScreen Size
p34
V15.6 in
p35
sVProcessor Type
p36
VIntel Celeron
p37
sVCondition
p38
VNew
p39
ssS'title'
p40
VDell Black 15.6" Inspiron i3552 Laptop PC with Intel Celeron N3050 Processor, 4GB Memory, 500GB Hard Drive and Windows 10 Home
p41
sb.