ccopy_reg
_reconstructor
p0
(c__main__
ProductRecord
p1
c__builtin__
object
p2
Ntp3
Rp4
(dp5
S'product_url'
p6
S'http://www.walmart.com/ip/Lenovo-Legion-Y520-15IKBN-15-6-Core-i7-7700HQ-8-GB-RAM-1-TB-HDD/537331027'
p7
sS'price'
p8
V$948.00
p9
sS'properties'
p10
(dp11
VRAM Memory
p12
V8 Gigabytes
p13
sVOperating System
p14
VWindows 10
p15
sVFeatures
p16
V15.6 LEGIONGAMING NB
p17
sVVideo Game Platform
p18
VPC
p19
sVBrand
p20
VLenovo
p21
sVProcessor Speed
p22
V2.8 Gigahertz
p23
sVManufacturer Part Number
p24
V80WK001JUS
p25
sVHard Drive Capacity
p26
V1 Terabytes
p27
sVAssembled Product Dimensions (L x W x H)
p28
V18.78 x 14.57 x 4.29 Inches
p29
sVModel
p30
V80WK001JUS
p31
sVScreen Size
p32
V15.60 Inches
p33
sVProcessor Type
p34
VIntel i7-7700HQ
p35
sVCondition
p36
VNew
p37
ssS'title'
p38
VLenovo Legion Y520-15IKBN - 15.6" - Core i7 7700HQ - 8 GB RAM - 1 TB HDD
p39
sb.