ccopy_reg
_reconstructor
p0
(c__main__
ProductRecord
p1
c__builtin__
object
p2
Ntp3
Rp4
(dp5
S'product_url'
p6
S'http://www.walmart.com/ip/Alienware-15-R3-15-6-Notebook-with-Intel-i7-7700HQ-16GB-256GB-SSD/194403148'
p7
sS'price'
p8
V$1,590.16
p9
sS'properties'
p10
(dp11
VRAM Memory
p12
V16 Gigabytes
p13
sVOperating System
p14
VWindows 10
p15
sVBrand
p16
VAlienware
p17
sVProcessor Speed
p18
V2.8 Gigahertz
p19
sVManufacturer Part Number
p20
VAW15R3-7001SLV
p21
sVHard Drive Capacity
p22
V1 Terabytes
p23
sVAssembled Product Dimensions (L x W x H)
p24
V4.60 x 17.20 x 18.90 Inches
p25
sVModel
p26
VAW15R37001SLV
p27
sVScreen Size
p28
V15.60 Inches
p29
sVProcessor Type
p30
VIntel i7-7700HQ
p31
sVCondition
p32
VNew
p33
ssS'title'
p34
VAlienware 15 R3 15.6" Notebook with Intel i7-7700HQ, 16GB 256GB SSD
p35
sb.