ccopy_reg
_reconstructor
p0
(c__main__
ProductRecord
p1
c__builtin__
object
p2
Ntp3
Rp4
(dp5
S'product_url'
p6
S'http://www.walmart.com/ip/Lenovo-IdeaPad-720S-14IKBR-Core-i5-256GB-SSD-M-2-Windows-10-4-cell-1920-x-1080-Laptop/476630476'
p7
sS'price'
p8
V$941.91
p9
sS'properties'
p10
(dp11
VRAM Memory
p12
V8.00 GB
p13
sVOperating System
p14
VWindows 10
p15
sVBrand
p16
VLenovo
p17
sVProcessor Speed
p18
V1.60 GHz
p19
sVManufacturer Part Number
p20
V81BD000TUS
p21
sVMaximum RAM Supported
p22
V16.00 GB
p23
sVHard Drive Capacity
p24
V256.00 GB
p25
sVBattery Life
p26
V8.00 h
p27
sVAssembled Product Dimensions (L x W x H)
p28
V20.80 x 13.00 x 2.80 Inches
p29
sVModel
p30
V81BD000TUS
p31
sVScreen Size
p32
V14.00 in
p33
sVProcessor Type
p34
VIntel Core i5
p35
sVCondition
p36
VNew
p37
ssS'title'
p38
VLenovo IdeaPad 720S-14IKBR Core i5 256GB SSD M.2 Windows 10 4-cell 1920 x 1080 Laptop
p39
sb.