ccopy_reg
_reconstructor
p0
(c__main__
ProductRecord
p1
c__builtin__
object
p2
Ntp3
Rp4
(dp5
S'product_url'
p6
S'http://www.walmart.com/ip/HP-Turbo-Silver-15-6-15-ac143wm-Laptop-PC-with-Intel-Core-i5-5200U-Processor-6GB-Memory-1TB-Hard-Drive-and-Windows-10-Home/46429964'
p7
sS'price'
p8
V$508.99
p9
sS'properties'
p10
(dp11
VRAM Memory
p12
V6 GB
p13
sVOperating System
p14
VWindows 10
p15
sVFeatures
p16
VEPEAT
p17
sVVideo Game Platform
p18
VPC
p19
sVBrand
p20
VHP
p21
sVProcessor Speed
p22
V2.20 GHz
p23
sVManufacturer Part Number
p24
VN5Z06UA#ABA
p25
sVHard Drive Capacity
p26
V1 TB
p27
sVBattery Life
p28
V4.5 hours
p29
sVAssembled Product Dimensions (L x W x H)
p30
V10.02 x 15.13 x 0.96 Inches
p31
sVModel
p32
V15-ac143wm
p33
sVScreen Size
p34
V15.6 in
p35
sVProcessor Type
p36
VIntel Core i5
p37
sVCondition
p38
VNew
p39
ssS'title'
p40
VHP Turbo Silver 15.6" 15-ac143wm Laptop PC with Intel Core i5-5200U Processor, 6GB Memory, 1TB Hard Drive and Windows 10 Home
p41
sb.