ccopy_reg
_reconstructor
p0
(c__main__
ProductRecord
p1
c__builtin__
object
p2
Ntp3
Rp4
(dp5
S'product_url'
p6
S'http://www.walmart.com/ip/Manufacturer-Refurbished-HP-Stream-11-Y010NR-11-6-Laptop-Intel-Celeron-N3060-1-6GHz-4GB-32GB-Windows-10/229300095'
p7
sS'price'
p8
V$154.99
p9
sS'properties'
p10
(dp11
VBrand
p12
VHP
p13
sVModel
p14
V11-Y010NR-RF
p15
sVManufacturer Part Number
p16
V11-Y010NR-RF
p17
ssS'title'
p18
VManufacturer Refurbished - HP Stream 11-Y010NR 11.6" Laptop Intel Celeron N3060 1.6GHz 4GB 32GB Windows 10
p19
sb.