ccopy_reg
_reconstructor
p0
(c__main__
ProductRecord
p1
c__builtin__
object
p2
Ntp3
Rp4
(dp5
S'product_url'
p6
S'http://www.walmart.com/ip/SMART-BUY-PROBOOK-X360-11-G1-EE-N3350-11-6IN-4GB-64GB/506747658'
p7
sS'price'
p8
S'N/A'
p9
sS'properties'
p10
(dp11
VRAM Memory
p12
V4 Gigabytes
p13
sVOperating System
p14
VUnknown
p15
sVBrand
p16
VHP
p17
sVProcessor Speed
p18
V1.1 Gigahertz
p19
sVManufacturer Part Number
p20
V1NM43UT#ABA
p21
sVHard Drive Capacity
p22
V64 Gigabytes
p23
sVBattery Life
p24
V11 Hours
p25
sVModel
p26
V1NM43UT#ABA
p27
sVScreen Size
p28
V11.60 Inches
p29
sVProcessor Type
p30
VIntel N3350
p31
sVCondition
p32
VNew
p33
ssS'title'
p34
VSMART BUY PROBOOK X360 11 G1 EE N3350 11.6IN 4GB 64GB
p35
sb.