ccopy_reg
_reconstructor
p0
(c__main__
ProductRecord
p1
c__builtin__
object
p2
Ntp3
Rp4
(dp5
S'product_url'
p6
S'http://www.walmart.com/ip/Huawei-MateBook-D-Signature-Edition-15-6-Laptop/751768823'
p7
sS'price'
p8
V$662.20
p9
sS'properties'
p10
(dp11
VRAM Memory
p12
V8 KB
p13
sVOperating System
p14
VWindows 10
p15
sVBrand
p16
VHuawei
p17
sVProcessor Speed
p18
V2.5 Hz
p19
sVManufacturer Part Number
p20
VPASCAL-W19C
p21
sVMaximum RAM Supported
p22
V16 KB
p23
sVHard Drive Capacity
p24
V1 KB
p25
sVAssembled Product Dimensions (L x W x H)
p26
V18.90 x 11.90 x 2.50 Inches
p27
sVModel
p28
VPASCALW19C
p29
sVScreen Size
p30
V15.6 in
p31
sVProcessor Type
p32
VIntel Core i5
p33
sVCondition
p34
VNew
p35
ssS'title'
p36
VHuawei MateBook D Signature Edition 15.6" Laptop
p37
sb.