ccopy_reg
_reconstructor
p0
(c__main__
ProductRecord
p1
c__builtin__
object
p2
Ntp3
Rp4
(dp5
S'product_url'
p6
S'http://www.walmart.com/ip/NX-SHWAA-003-N3710-1-6G-4GB-128GB-14IN-11AC-W10H/55395378'
p7
sS'price'
p8
V$351.47
p9
sS'properties'
p10
(dp11
VRAM Memory
p12
V4 Gigabytes
p13
sVOperating System
p14
VWindows 10
p15
sVFeatures
p16
V14" PN3710 4G 128SSD Win10
p17
sVVideo Game Platform
p18
VPC
p19
sVBrand
p20
VAcer
p21
sVProcessor Speed
p22
V1.6 Gigahertz
p23
sVManufacturer Part Number
p24
VNX.SHWAA.003
p25
sVHard Drive Capacity
p26
V128 Gigabytes
p27
sVBattery Life
p28
V12 Hours
p29
sVAssembled Product Dimensions (L x W x H)
p30
V18.80 x 12.10 x 2.60 Inches
p31
sVModel
p32
VNX.SHWAA.003
p33
sVScreen Size
p34
V14.00 Inches
p35
sVProcessor Type
p36
VIntel N3710
p37
sVCondition
p38
VNew
p39
ssS'title'
p40
VNX.SHWAA.003 N3710 1.6G 4GB 128GB 14IN 11AC W10H
p41
sb.