ccopy_reg
_reconstructor
p0
(c__main__
ProductRecord
p1
c__builtin__
object
p2
Ntp3
Rp4
(dp5
S'product_url'
p6
S'http://www.walmart.com/ip/ASUS-ROG-Zephyrus-GX501VS-XS71-Gaming-Laptop-w-FREE-BUNDLE-15-6-FHD-Intel-Core-i7-7700HQ-NVIDIA-GeForce-GTX1070-16GB-DDR4-1TB-PCIe-SSD-Win10/220155523'
p7
sS'price'
p8
V$2,419.00
p9
sS'properties'
p10
(dp11
VRAM Memory
p12
V16.00 GB
p13
sVOperating System
p14
VWindows 10
p15
sVBrand
p16
VASUS
p17
sVProcessor Speed
p18
V3.80 GHz
p19
sVManufacturer Part Number
p20
VGX501VS-XS71 VAR BUNDLE 1TB PCIE
p21
sVMaximum RAM Supported
p22
V24.00 GB
p23
sVHard Drive Capacity
p24
V1.00 TB
p25
sVModel
p26
VGX501VS-XS71
p27
sVScreen Size
p28
V15.60 in
p29
sVProcessor Type
p30
VIntel Core i7 7700HQ
p31
sVCondition
p32
VNew
p33
ssS'title'
p34
VASUS ROG Zephyrus GX501VS-XS71 Gaming Laptop w/ FREE BUNDLE! 15.6\u201d FHD Intel Core i7-7700HQ NVIDIA GeForce GTX1070 16GB DDR4 1TB PCIe SSD Win10
p35
sb.