ccopy_reg
_reconstructor
p0
(c__main__
ProductRecord
p1
c__builtin__
object
p2
Ntp3
Rp4
(dp5
S'product_url'
p6
S'http://www.walmart.com/ip/Lenovo-ThinkPad-T470-14-Core-i7-6500U-8-GB-RAM-256-GB-SSD/944799561'
p7
sS'price'
p8
V$1,443.95
p9
sS'properties'
p10
(dp11
VRAM Memory
p12
V8.00 GB
p13
sVOperating System
p14
VWindows 10
p15
sVBrand
p16
VLenovo
p17
sVProcessor Speed
p18
V2.50 GHz
p19
sVManufacturer Part Number
p20
V20JM000BUS
p21
sVHard Drive Capacity
p22
V256.00 GB
p23
sVAssembled Product Dimensions (L x W x H)
p24
V12.00 x 12.00 x 12.00 Inches
p25
sVModel
p26
V20JM000BUS
p27
sVScreen Size
p28
V14.00 in
p29
sVProcessor Type
p30
VCore i7-6500U
p31
sVCondition
p32
VNew
p33
ssS'title'
p34
VLenovo ThinkPad T470 - 14" - Core i7 6500U - 8 GB RAM - 256 GB SSD
p35
sb.