ccopy_reg
_reconstructor
p0
(c__main__
ProductRecord
p1
c__builtin__
object
p2
Ntp3
Rp4
(dp5
S'product_url'
p6
S'http://www.walmart.com/ip/Refurbished-Lenovo-T510-15-6-Laptop-Windows-10-Pro-Intel-Core-i5-520M-Processor-3GB-RAM-160GB-Hard-Drive/56218248'
p7
sS'price'
p8
V$223.71
p9
sS'properties'
p10
(dp11
VRAM Memory
p12
V3 GB
p13
sVOperating System
p14
VWindows 10
p15
sVVideo Game Platform
p16
VPC
p17
sVBrand
p18
VLenovo
p19
sVProcessor Speed
p20
V2.40 GHz
p21
sVManufacturer Part Number
p22
VWA5-30752
p23
sVMaximum RAM Supported
p24
V8 GB
p25
sVHard Drive Capacity
p26
V160 GB
p27
sVBattery Life
p28
V1 hour
p29
sVAssembled Product Dimensions (L x W x H)
p30
V14.70 x 1.40 x 9.70 Inches
p31
sVModel
p32
VT510
p33
sVScreen Size
p34
V15.6"
p35
sVProcessor Type
p36
VIntel Core i5
p37
ssS'title'
p38
VRefurbished Lenovo T510 15.6" Laptop, Windows 10 Pro, Intel Core i5-520M Processor, 3GB RAM, 160GB Hard Drive
p39
sb.