ccopy_reg
_reconstructor
p0
(c__main__
ProductRecord
p1
c__builtin__
object
p2
Ntp3
Rp4
(dp5
S'product_url'
p6
S'http://www.walmart.com/ip/Lenovo-Ideapad-310-15-6-Laptop-Black-AMD-A12-9700P-12GB-1TB-HDD-AMD-Radeon-R5-Graphics-Windows-10/55415726'
p7
sS'price'
p8
V$418.88
p9
sS'properties'
p10
(dp11
VRAM Memory
p12
V12.00 GB
p13
sVOperating System
p14
VWindows 10
p15
sVBrand
p16
VLenovo
p17
sVProcessor Speed
p18
V2.50 GHz
p19
sVManufacturer Part Number
p20
V80ST001NUS
p21
sVHard Drive Capacity
p22
V1.00 TB
p23
sVBattery Life
p24
V5.00 h
p25
sVAssembled Product Dimensions (L x W x H)
p26
V14.92 x 10.24 x 0.90 Inches
p27
sVModel
p28
V80ST001NUS
p29
sVScreen Size
p30
V15.60 in
p31
sVProcessor Type
p32
VAMD Radeon
p33
sVCondition
p34
VNew
p35
ssS'title'
p36
VLenovo Ideapad 310 15.6" Laptop, Black AMD A12-9700P, 12GB, 1TB HDD, AMD Radeon R5 Graphics, Windows 10
p37
sb.