ccopy_reg
_reconstructor
p0
(c__main__
ProductRecord
p1
c__builtin__
object
p2
Ntp3
Rp4
(dp5
S'product_url'
p6
S'http://www.walmart.com/ip/MSI-WE72-7RJ-Mobile-Workstation/201172552'
p7
sS'price'
p8
V$1,799.00
p9
sS'properties'
p10
(dp11
VRAM Memory
p12
V32 Gigabytes
p13
sVOperating System
p14
VWindows 10 Pro (Multi Language)
p15
sVFeatures
p16
VFACTORY DIRECT ONLY ITEM i7-7700HQ M2200 32GB 512GB M.2 SATA WIN10PRO
p17
sVBrand
p18
VMSI
p19
sVProcessor Speed
p20
V2.8 Gigahertz
p21
sVManufacturer Part Number
p22
VWE721032
p23
sVHard Drive Capacity
p24
V512 Gigabytes
p25
sVBattery Life
p26
V0 h
p27
sVAssembled Product Dimensions (L x W x H)
p28
V0.10 x 16.50 x 11.00 Inches
p29
sVModel
p30
VWE721032
p31
sVScreen Size
p32
V17.30 Inches
p33
sVProcessor Type
p34
VIntel i7-7700HQ
p35
sVCondition
p36
VNew
p37
ssS'title'
p38
VMSI WE72 7RJ Mobile Workstation
p39
sb.