ccopy_reg
_reconstructor
p0
(c__main__
ProductRecord
p1
c__builtin__
object
p2
Ntp3
Rp4
(dp5
S'product_url'
p6
S'http://www.walmart.com/ip/Acer-Aspire-V-Nitro-Notebook-with-Intel-i7-7700HQ-16GB-1TB-HDD/400915229'
p7
sS'price'
p8
V$1,516.13
p9
sS'properties'
p10
(dp11
VRAM Memory
p12
V16 Gigabytes
p13
sVOperating System
p14
VWindows 10
p15
sVBrand
p16
VAcer
p17
sVProcessor Speed
p18
V2.8 Gigahertz
p19
sVManufacturer Part Number
p20
VNH.Q26AA.002
p21
sVMaximum RAM Supported
p22
V32 Gigabytes
p23
sVHard Drive Capacity
p24
V1 Terabytes
p25
sVAssembled Product Dimensions (L x W x H)
p26
V16.00 x 16.70 x 1.10 Inches
p27
sVModel
p28
VNH.Q26AA.002
p29
sVScreen Size
p30
V17.30 Inches
p31
sVProcessor Type
p32
VIntel i7-7700HQ
p33
sVCondition
p34
VNew
p35
ssS'title'
p36
VAcer Aspire V Nitro Notebook with Intel i7-7700HQ, 16GB 1TB HDD
p37
sb.