ccopy_reg
_reconstructor
p0
(c__main__
ProductRecord
p1
c__builtin__
object
p2
Ntp3
Rp4
(dp5
S'product_url'
p6
S'http://www.walmart.com/ip/HP-17-X114DX-Laptop-Notebook-PC-Computer-17-3-HD-7th-Gen-i5-7200U-KABY-LAKE-6GB-1TB/725055321'
p7
sS'price'
p8
V$539.00
p9
sS'properties'
p10
(dp11
VRAM Memory
p12
V8.00 GB
p13
sVOperating System
p14
VWindows 10
p15
sVColor Category
p16
VBlack
p17
sVLaptop Computer Type
p18
VPC Laptops
p19
sVBrand
p20
VHP
p21
sVHard Drive Capacity
p22
V1000
p23
sVProcessor Type
p24
V7th Gen Intel?? Core??? i5-7200U
p25
sVManufacturer
p26
VHP INC.
p27
sVScreen Size
p28
V17.3
p29
sVModel
p30
V17-x114dx
p31
sVmanufacturer_part_number
p32
V17-X114DX
p33
ssS'title'
p34
VHP 17-X114DX Laptop Notebook PC Computer 17.3" HD+ 7th Gen i5-7200U KABY LAKE 6GB 1TB
p35
sb.