ccopy_reg
_reconstructor
p0
(c__main__
ProductRecord
p1
c__builtin__
object
p2
Ntp3
Rp4
(dp5
S'product_url'
p6
S'http://www.walmart.com/ip/HP-Envy-Notebook-15-As120Nr-15-6In/135999178'
p7
sS'price'
p8
V$924.99
p9
sS'properties'
p10
(dp11
VRAM Memory
p12
V12 Gigabytes
p13
sVOperating System
p14
VWindows 10
p15
sVBrand
p16
VHP
p17
sVProcessor Speed
p18
V2.7 Gigahertz
p19
sVManufacturer Part Number
p20
VX7V47UA#ABA
p21
sVHard Drive Capacity
p22
V256 Gigabytes
p23
sVBattery Life
p24
V11.50 Hour
p25
sVAssembled Product Dimensions (L x W x H)
p26
V10.04 x 14.96 x 0.71 Inches
p27
sVModel
p28
V15-As120Nr
p29
sVScreen Size
p30
V15.60 Inches
p31
sVProcessor Type
p32
VIntel i7-7500U
p33
sVCondition
p34
VNew
p35
ssS'title'
p36
VHP Envy Notebook 15-As120Nr, 15.6In
p37
sb.