ccopy_reg
_reconstructor
p0
(c__main__
ProductRecord
p1
c__builtin__
object
p2
Ntp3
Rp4
(dp5
S'product_url'
p6
S'http://www.walmart.com/ip/Manufacturer-Refurbished-HP-Stream-11-Y020WM-11-6-Laptop-Intel-Celeron-N3060-1-6GHz-4GB-32GB-eMMC-Win10/460833726'
p7
sS'price'
p8
V$149.99
p9
sS'properties'
p10
(dp11
VRAM Memory
p12
V4 Gigabytes
p13
sVOperating System
p14
VWindows 10
p15
sVColor Category
p16
VPurple
p17
sVLaptop Computer Type
p18
VPC Laptops
p19
sVBrand
p20
VHP
p21
sVManufacturer Part Number
p22
V11-Y020WM-RF
p23
sVWireless Technology
p24
VWLAN 802.11ac (2x2)
p25
sVHard Drive Capacity
p26
V32 Gigabytes
p27
sVProcessor Type
p28
VIntel Celeron
p29
sVScreen Size
p30
V11.6 Inches
p31
sVModel
p32
V11-Y020WM-RF
p33
sVManufacturer
p34
VHP
p35
ssS'title'
p36
VManufacturer Refurbished - HP Stream 11-Y020WM 11.6" Laptop Intel Celeron N3060 1.6GHz 4GB 32GB eMMC Win10
p37
sb.