ccopy_reg
_reconstructor
p0
(c__main__
ProductRecord
p1
c__builtin__
object
p2
Ntp3
Rp4
(dp5
S'product_url'
p6
S'http://www.walmart.com/ip/Refurbished-Dell-E7250-12-5-Laptop-Windows-10-Pro-Intel-Core-i5-5300U-Processor-16GB-RAM-Memory-256GB-Solid-State-Drive/56061045'
p7
sS'price'
p8
V$450.00
p9
sS'properties'
p10
(dp11
VRAM Memory
p12
V16 GB
p13
sVOperating System
p14
VWindows 10
p15
sVVideo Game Platform
p16
VPC
p17
sVBrand
p18
VLatitude
p19
sVProcessor Speed
p20
V2.30 GHz
p21
sVManufacturer Part Number
p22
VWA5-30568
p23
sVMaximum RAM Supported
p24
V16 GB
p25
sVHard Drive Capacity
p26
V256 GB
p27
sVBattery Life
p28
V1 hour
p29
sVAssembled Product Dimensions (L x W x H)
p30
V12.20 x 0.80 x 8.30 Inches
p31
sVModel
p32
VE7250
p33
sVScreen Size
p34
V12.5"
p35
sVProcessor Type
p36
VIntel Core i5
p37
ssS'title'
p38
VRefurbished Dell E7250 12.5" Laptop, Windows 10 Pro, Intel Core i5-5300U Processor, 16GB RAM Memory, 256GB Solid State Drive
p39
sb.