ccopy_reg
_reconstructor
p0
(c__main__
ProductRecord
p1
c__builtin__
object
p2
Ntp3
Rp4
(dp5
S'product_url'
p6
S'http://www.walmart.com/ip/Refurbished-Dell-Ultrabook-14-Latitude-E7440-WA5-0865-Laptop-PC-Intel-Core-i5-4310U-Processor-8GB-Memory-256GB-Solid-State-Drive-Windows-10-Pro/49924081'
p7
sS'price'
p8
V$368.00
p9
sS'properties'
p10
(dp11
VRAM Memory
p12
V8 GB
p13
sVOperating System
p14
VWindows 10
p15
sVVideo Game Platform
p16
VPC
p17
sVBrand
p18
VLatitude
p19
sVProcessor Speed
p20
V2.00 GHz
p21
sVManufacturer Part Number
p22
VWA5-0865
p23
sVMaximum RAM Supported
p24
V8 GB
p25
sVHard Drive Capacity
p26
V256 GB
p27
sVBattery Life
p28
V30 minutes
p29
sVAssembled Product Dimensions (L x W x H)
p30
V13.30 x 0.80 x 9.10 Inches
p31
sVModel
p32
VE7440
p33
sVScreen Size
p34
V14.0"
p35
sVProcessor Type
p36
VIntel Core i5
p37
sVCondition
p38
VRefurbished
p39
ssS'title'
p40
VRefurbished Dell Ultrabook 14" Latitude E7440 WA5-0865 Laptop PC with Intel Core i5-4310U Processor, 8GB Memory, 256GB Solid State Drive and Windows 10 Pro
p41
sb.