ccopy_reg
_reconstructor
p0
(c__main__
ProductRecord
p1
c__builtin__
object
p2
Ntp3
Rp4
(dp5
S'product_url'
p6
S'http://www.walmart.com/ip/CHUWI-LapBook-14-1-inch-Windows-10-FHD-Screen-Notebook-Intel-Apollo-Lake-Celeron-N3450-Quad-Core-1-1GHz-4GB-RAM-64GB-ROM/232151525'
p7
sS'price'
p8
V$305.99
p9
sS'properties'
p10
(dp11
VBrand
p12
VCHUWI
p13
sVCondition
p14
VNew
p15
ssS'title'
p16
VCHUWI LapBook 14.1 inch Windows 10 FHD Screen Notebook Intel Apollo Lake Celeron N3450 Quad Core 1.1GHz 4GB RAM 64GB ROM
p17
sb.