ccopy_reg
_reconstructor
p0
(c__main__
ProductRecord
p1
c__builtin__
object
p2
Ntp3
Rp4
(dp5
S'product_url'
p6
S'http://www.walmart.com/ip/DELL-Latitude-7285-VXVV4-Intel-Core-i7-7th-Gen-7Y75-1-30-GHz-16-GB-Memory-512-GB-SSD-Intel-HD-Graphics-615-12-3-Touchscreen-2880-x-1920-2-in-1-Laptop/108631770'
p7
sS'price'
p8
V$2,065.77
p9
sS'properties'
p10
(dp11
VRAM Memory
p12
V16.00 GB
p13
sVOperating System
p14
VWindows 10
p15
sVBrand
p16
VDell
p17
sVProcessor Speed
p18
V1.30 GHz
p19
sVManufacturer Part Number
p20
VVXVV4
p21
sVMaximum RAM Supported
p22
V16.00 GB
p23
sVHard Drive Capacity
p24
V512.00 GB
p25
sVBattery Life
p26
V0 h
p27
sVAssembled Product Dimensions (L x W x H)
p28
V17.00 x 10.80 x 0.30 Inches
p29
sVModel
p30
VLATI7285VXVV4
p31
sVScreen Size
p32
V12.30 in
p33
sVProcessor Type
p34
VIntel Core i7
p35
sVCondition
p36
VNew
p37
ssS'title'
p38
VDELL Latitude 7285 (VXVV4) Intel Core i7 7th Gen 7Y75 (1.30 GHz) 16 GB Memory 512 GB SSD Intel HD Graphics 615 12.3" Touchscreen 2880 x 1920 2-in-1 Laptop Windows 10 Pro 64-Bit
p39
sb.