ccopy_reg
_reconstructor
p0
(c__main__
ProductRecord
p1
c__builtin__
object
p2
Ntp3
Rp4
(dp5
S'product_url'
p6
S'http://www.walmart.com/ip/Original-HP-45W-AC-Charger-Power-Adapter-Cord-For-HP-ENVY-x360-Convertible-15-u310nr-15-u337cl-15-u363cl-15-u399nr-15-u410nr-15-u437cl-15-u473cl/992883124'
p7
sS'price'
p8
S'N/A'
p9
sS'properties'
p10
(dp11
VBrand
p12
VHP
p13
ssS'title'
p14
VOriginal HP 45W AC Charger Power Adapter Cord For HP ENVY x360 Convertible 15-u310nr 15-u337cl 15-u363cl 15-u399nr 15-u410nr 15-u437cl 15-u473cl
p15
sb.