ccopy_reg
_reconstructor
p0
(c__main__
ProductRecord
p1
c__builtin__
object
p2
Ntp3
Rp4
(dp5
S'product_url'
p6
S'http://www.walmart.com/ip/Refurbished-Dell-XPS-13-9360-i7-8550u-8th-Gen-16GB-512GB-PCIe-SSD-QHD-Touch-Fingerprint-Rdr/476942512'
p7
sS'price'
p8
V$1,209.00
p9
sS'properties'
p10
(dp11
VRAM Memory
p12
V16.00 GB
p13
sVOperating System
p14
VWindows 10
p15
sVBrand
p16
VDell
p17
sVHard Drive Capacity
p18
V512.00 GB
p19
sVModel
p20
VXPS 13 9360
p21
sVScreen Size
p22
V13.3 in
p23
sVProcessor Type
p24
VIntel Core i5
p25
ssS'title'
p26
VRefurbished Dell XPS 13 9360 i7-8550u 8th Gen 16GB 512GB PCIe SSD QHD+ Touch Fingerprint Rdr
p27
sb.