ccopy_reg
_reconstructor
p0
(c__main__
ProductRecord
p1
c__builtin__
object
p2
Ntp3
Rp4
(dp5
S'product_url'
p6
S'http://www.walmart.com/ip/ZenBook-3-12-5in-Notebook-Intel-i5-7200U-8GB-RAM-256GB-SSD-WIN10/55009821'
p7
sS'price'
p8
V$999.00
p9
sS'properties'
p10
(dp11
VRAM Memory
p12
V8 Gigabytes
p13
sVOperating System
p14
VWindows 10
p15
sVFeatures
p16
VASUS ZENBOOK UX390UA-DH51-GR 8GB RAM, 256GB SSD, 802.11AC WIFI, BLUETOOTH 4.0,US
p17
sVBrand
p18
VASUS
p19
sVProcessor Speed
p20
V2.5 Gigahertz
p21
sVManufacturer Part Number
p22
V90NB0CZ3-M03530
p23
sVHard Drive Capacity
p24
V256 Gigabytes
p25
sVBattery Life
p26
V9 Hours
p27
sVModel
p28
VUX390UA-DH51-GR
p29
sVScreen Size
p30
V12.50 in
p31
sVProcessor Type
p32
VIntel i5-7200U
p33
sVCondition
p34
VNew
p35
ssS'title'
p36
VZenBook 3 12.5in Notebook Intel i5 7200U 8GB RAM 256GB SSD WIN10
p37
sb.