ccopy_reg
_reconstructor
p0
(c__main__
ProductRecord
p1
c__builtin__
object
p2
Ntp3
Rp4
(dp5
S'product_url'
p6
S'http://www.walmart.com/ip/HP-15-6-HD-Notebook-AMD-A12-Quad-Core-Processor-8GB-Memory-1TB-Hard-Drive-Optical-Drive-HD-Webcam-Windows-10-Home/707536572'
p7
sS'price'
p8
V$449.00
p9
sS'properties'
p10
(dp11
sS'title'
p12
VHP 15.6" HD Notebook, AMD A12 Quad-Core Processor, 8GB Memory, 1TB Hard Drive, Optical Drive, HD Webcam, Windows 10 Home
p13
sb.