ccopy_reg
_reconstructor
p0
(c__main__
ProductRecord
p1
c__builtin__
object
p2
Ntp3
Rp4
(dp5
S'product_url'
p6
S'http://www.walmart.com/ip/Aspire-A515-51-50RR-Notebook/478086097'
p7
sS'price'
p8
V$525.04
p9
sS'properties'
p10
(dp11
VRAM Memory
p12
V8 GB
p13
sVOperating System
p14
VWindows 10
p15
sVBrand
p16
VAcer
p17
sVProcessor Speed
p18
V3.1 GHz
p19
sVManufacturer Part Number
p20
VA5155150RR
p21
sVMaximum RAM Supported
p22
V20 Gigabytes
p23
sVHard Drive Capacity
p24
V1 TB
p25
sVBattery Life
p26
V7 h
p27
sVAssembled Product Dimensions (L x W x H)
p28
V20.00 x 12.00 x 3.00 Inches
p29
sVModel
p30
VA5155150RR
p31
sVScreen Size
p32
V15.6 in
p33
sVProcessor Type
p34
VIntel Core i5
p35
sVCondition
p36
VNew
p37
ssS'title'
p38
VAspire A515-51-50RR Notebook
p39
sb.