ccopy_reg
_reconstructor
p0
(c__main__
ProductRecord
p1
c__builtin__
object
p2
Ntp3
Rp4
(dp5
S'product_url'
p6
S'http://www.walmart.com/ip/Lenovo-710S-Plus-13IKB-13-3-Core-i5-7200U-8-GB-RAM-256-GB-SSD/810216564'
p7
sS'price'
p8
V$903.74
p9
sS'properties'
p10
(dp11
VRAM Memory
p12
V8 Gigabytes
p13
sVOperating System
p14
VWindows 10
p15
sVBrand
p16
VLenovo
p17
sVProcessor Speed
p18
V2.5 Gigahertz
p19
sVManufacturer Part Number
p20
V80W3004MUS
p21
sVHard Drive Capacity
p22
V256 Gigabytes
p23
sVBattery Life
p24
V8 Hours
p25
sVAssembled Product Dimensions (L x W x H)
p26
V14.21 x 11.65 x 4.92 Inches
p27
sVModel
p28
V80W3004MUS
p29
sVScreen Size
p30
V13.30 Inches
p31
sVProcessor Type
p32
VIntel i5-7200U
p33
sVCondition
p34
VNew
p35
ssS'title'
p36
VLenovo 710S Plus-13IKB - 13.3" - Core i5 7200U - 8 GB RAM - 256 GB SSD
p37
sb.