ccopy_reg
_reconstructor
p0
(c__main__
ProductRecord
p1
c__builtin__
object
p2
Ntp3
Rp4
(dp5
S'product_url'
p6
S'http://www.walmart.com/ip/HP-Notebook-17-x010cy-17-3-Intel-Core-i3-6100U-2-3GHz-12GB-RAM-1TB-HDD-Intel-HD-Graphics-520-Windows-10-Home-Laptop-Certified-Refurbished/314942139'
p7
sS'price'
p8
V$459.85
p9
sS'properties'
p10
(dp11
VRAM Memory
p12
V12 GB
p13
sVOperating System
p14
VWindows 10
p15
sVColor Category
p16
VBlue
p17
sVLaptop Computer Type
p18
VPC Laptops
p19
sVBrand
p20
VHP
p21
sVManufacturer Part Number
p22
VX7W93UA#ABA.RB
p23
sVHard Drive Capacity
p24
V1000 GB
p25
sVModel
p26
V17-x010cy
p27
sVScreen Size
p28
V17.3\u005c"
p29
sVManufacturer
p30
VHP
p31
ssS'title'
p32
VHP Notebook 17-x010cy, 17.3", Intel Core i3-6100U @2.3GHz,  12GB RAM, 1TB HDD, Intel HD Graphics 520, Windows 10 Home Laptop (Certified Refurbished)
p33
sb.