ccopy_reg
_reconstructor
p0
(c__main__
ProductRecord
p1
c__builtin__
object
p2
Ntp3
Rp4
(dp5
S'product_url'
p6
S'http://www.walmart.com/ip/Manufacturer-Refurbished-ASUS-E205SA-EDU3-11-6-Laptop-Intel-Pentium-N3710-1-60GHz-4GB-64GB-eMMC-W10/281768604'
p7
sS'price'
p8
V$219.99
p9
sS'properties'
p10
(dp11
VBrand
p12
VASUS
p13
sVScreen Size
p14
V11.6
p15
sVModel
p16
VE205SA-EDU3-RF
p17
sVManufacturer Part Number
p18
VE205SA-EDU3-RF
p19
ssS'title'
p20
VManufacturer Refurbished - ASUS E205SA-EDU3 11.6" Laptop Intel Pentium N3710 1.60GHz 4GB 64GB eMMC W10
p21
sb.