ccopy_reg
_reconstructor
p0
(c__main__
ProductRecord
p1
c__builtin__
object
p2
Ntp3
Rp4
(dp5
S'product_url'
p6
S'http://www.walmart.com/ip/HP-Envy-X360-13-Y023Cl-Refurbished/718228784'
p7
sS'price'
p8
V$902.95
p9
sS'properties'
p10
(dp11
VRAM Memory
p12
V16 GB
p13
sVOperating System
p14
VWindows 10
p15
sVColor Category
p16
VSilver
p17
sVLaptop Computer Type
p18
VPC Laptops
p19
sVBrand
p20
VHP
p21
sVManufacturer Part Number
p22
VX7U86UAR#ABA
p23
sVProcessor Core Type
p24
VDual-core (2 Core)
p25
sVProcessor Type
p26
VIntel Core i7
p27
sVScreen Size
p28
V13.3"
p29
sVModel
p30
VX7U86UAR#ABA
p31
sVCondition
p32
VRefurbished
p33
sVManufacturer
p34
VHP
p35
ssS'title'
p36
VHP Envy X360 13 Y023Cl Refurbished
p37
sb.