ccopy_reg
_reconstructor
p0
(c__main__
ProductRecord
p1
c__builtin__
object
p2
Ntp3
Rp4
(dp5
S'product_url'
p6
S'http://www.walmart.com/ip/HP-Stream-Notebook-11-y012nr-11-6-HD-Screen-Celeron-N-1-6GHz-4GB-RAM-32GB-eMMC-in-White-Certified-Refurbished/767504088'
p7
sS'price'
p8
V$214.99
p9
sS'properties'
p10
(dp11
VOperating System
p12
VWindows 10
p13
sVColor Category
p14
VWhite
p15
sVLaptop Computer Type
p16
VPC Laptops
p17
sVBrand
p18
VHP
p19
sVManufacturer Part Number
p20
VX7V33UA#ABA
p21
sVHard Drive Capacity
p22
V32
p23
sVModel
p24
V11-y012nr
p25
sVScreen Size
p26
V11.6
p27
sVManufacturer
p28
VHP
p29
ssS'title'
p30
VHP Stream Notebook 11-y012nr 11.6" HD Screen, Celeron N @ 1.6GHz, 4GB RAM, 32GB eMMC, in White (Certified Refurbished)
p31
sb.