ccopy_reg
_reconstructor
p0
(c__main__
ProductRecord
p1
c__builtin__
object
p2
Ntp3
Rp4
(dp5
S'product_url'
p6
S'http://www.walmart.com/ip/Refurbished-Acer-15-6-Intel-Core-i7-2-8GHz-16-GB-Ram-1-TB-HDD-Windows-10-Home-VN7-593G-76SS/309207189'
p7
sS'price'
p8
V$997.49
p9
sS'properties'
p10
(dp11
VRAM Memory
p12
V16 GB
p13
sVOperating System
p14
VWindows 10
p15
sVBrand
p16
VAcer
p17
sVManufacturer Part Number
p18
VNH.Q23AA.001
p19
sVModel
p20
VVN7-593G-76SS
p21
sVScreen Size
p22
V15.6 in
p23
sVProcessor Speed
p24
V2.80 GHz
p25
sVCondition
p26
VNew
p27
ssS'title'
p28
VRefurbished Acer 15.6" Intel Core i7 2.8GHz 16 GB Ram 1 TB HDD Windows 10 Home|VN7-593G-76SS
p29
sb.