ccopy_reg
_reconstructor
p0
(c__main__
ProductRecord
p1
c__builtin__
object
p2
Ntp3
Rp4
(dp5
S'product_url'
p6
S'http://www.walmart.com/ip/MSI-GE63VR-Raider-075-15-6-Gaming-Laptop-i7-7700HQ-16GB-1TB-128GB-GTX1070-Win10/927226946'
p7
sS'price'
p8
V$1,798.98
p9
sS'properties'
p10
(dp11
VRAM Memory
p12
V16 Gigabytes
p13
sVOperating System
p14
VWindows 10
p15
sVBrand
p16
VMSI
p17
sVProcessor Speed
p18
V2.8 Gigahertz
p19
sVMaximum RAM Supported
p20
V32.00 GB
p21
sVHard Drive Capacity
p22
V1 Terabytes
p23
sVModel
p24
VGE63VR075
p25
sVScreen Size
p26
V15.60 Inches
p27
sVProcessor Type
p28
VIntel i7-7700HQ
p29
sVmanufacturer_part_number
p30
Vge63vr
p31
ssS'title'
p32
VMSI GE63VR Raider-075 15.6" Gaming Laptop i7-7700HQ 16GB 1TB 128GB GTX1070 Win10
p33
sb.