ccopy_reg
_reconstructor
p0
(c__main__
ProductRecord
p1
c__builtin__
object
p2
Ntp3
Rp4
(dp5
S'product_url'
p6
S'http://www.walmart.com/ip/HP-ProBook-440-G5-14-FHD-Laptop-i5-8250U-Quad-Core-8GB-256GB-SSD-Win10-Pro/346264321'
p7
sS'price'
p8
V$839.85
p9
sS'properties'
p10
(dp11
VRAM Memory
p12
V0 GB
p13
sVOperating System
p14
VMicrosoft Windows, Windows 10
p15
sVFeatures
p16
VI5-8250U 8GB 256GB SSD 14IN W10P
p17
sVBrand
p18
VHP
p19
sVProcessor Speed
p20
V0 GHz
p21
sVHard Drive Capacity
p22
V256 GB
p23
sVBattery Life
p24
V0 h
p25
sVModel
p26
V2SS98UT#ABA
p27
sVScreen Size
p28
V14"
p29
sVProcessor Type
p30
VIntel Core i5
p31
sVCondition
p32
VNew
p33
sVmanufacturer_part_number
p34
V2ss98ut-aba
p35
ssS'title'
p36
VHP ProBook 440 G5 14" FHD Laptop i5-8250U Quad-Core 8GB 256GB SSD Win10 Pro
p37
sb.