ccopy_reg
_reconstructor
p0
(c__main__
ProductRecord
p1
c__builtin__
object
p2
Ntp3
Rp4
(dp5
S'product_url'
p6
S'http://www.walmart.com/ip/Asus-Pro-P-Essential-P2540UA-XS71-15-6-Notebook-w-8GB-RAM-256GB-SSD/625144879'
p7
sS'price'
p8
V$897.65
p9
sS'properties'
p10
(dp11
VRAM Memory
p12
V8 Gigabytes
p13
sVOperating System
p14
VWindows 10
p15
sVBrand
p16
VASUS
p17
sVProcessor Speed
p18
V2.7 Gigahertz
p19
sVHard Drive Capacity
p20
V256 Gigabytes
p21
sVModel
p22
V90NX0141-M00160
p23
sVScreen Size
p24
V15.6"
p25
sVProcessor Type
p26
VIntel i7-7500U
p27
sVCondition
p28
VNew
p29
sVmanufacturer_part_number
p30
Vp2540ua-xs71
p31
ssS'title'
p32
VAsus Pro P Essential P2540UA-XS71 15.6" Notebook w/ 8GB RAM & 256GB SSD
p33
sb.