ccopy_reg
_reconstructor
p0
(c__main__
ProductRecord
p1
c__builtin__
object
p2
Ntp3
Rp4
(dp5
S'product_url'
p6
S'http://www.walmart.com/ip/Dell-Silver-13-3-XPS-FHD-Laptop-PC-with-Intel-Core-i5-6200U-Processor-4GB-Memory-128GB-Solid-State-Drive-and-Windows-10-Home/49455410'
p7
sS'price'
p8
V$899.98
p9
sS'properties'
p10
(dp11
VOperating System
p12
VWindows 10
p13
sVFeatures
p14
VBacklit Keyboard
p15
sVVideo Game Platform
p16
VPC
p17
sVBrand
p18
VDell
p19
sVProcessor Speed
p20
V2.80GHz
p21
sVManufacturer Part Number
p22
VDoes Not Apply, XPS9350-673SLV
p23
sVMaximum RAM Supported
p24
V16 GB
p25
sVHard Drive Capacity
p26
V128 GB
p27
sVAssembled Product Dimensions (L x W x H)
p28
V11.98 x 0.60 x 7.88 Inches
p29
sVModel
p30
VXPS9350-673SLV
p31
sVScreen Size
p32
V13"
p33
sVProcessor Type
p34
VIntel Core i5
p35
sVCondition
p36
VNew
p37
ssS'title'
p38
VDell Silver 13.3" XPS FHD Laptop PC with Intel Core i5-6200U Processor, 4GB Memory, 128GB Solid State Drive and Windows 10 Home
p39
sb.