ccopy_reg
_reconstructor
p0
(c__main__
ProductRecord
p1
c__builtin__
object
p2
Ntp3
Rp4
(dp5
S'product_url'
p6
S'http://www.walmart.com/ip/Refurbished-Lenovo-15-5-T510-Laptop-PC-with-Intel-Core-i5-Processor-4GB-Memory-128GB-Solid-State-Drive-and-Windows-10-Pro/39096537'
p7
sS'price'
p8
V$244.39
p9
sS'properties'
p10
(dp11
VRAM Memory
p12
V4 GB
p13
sVOperating System
p14
VWindows 10
p15
sVColor Category
p16
VBlack
p17
sVVideo Game Platform
p18
VPC
p19
sVBrand
p20
VLenovo
p21
sVManufacturer Part Number
p22
VT510 LT
p23
sVHard Drive Capacity
p24
V128 GB
p25
sVLaptop Computer Type
p26
VBusiness Laptops
p27
sVProcessor Type
p28
VIntel Core i5
p29
sVScreen Size
p30
V15.5"
p31
sVModel
p32
VT510 LT
p33
sVCondition
p34
VRefurbished
p35
sVManufacturer
p36
VLENOVO
p37
ssS'title'
p38
VRefurbished Lenovo 15.5" T510 Laptop PC with Intel Core i5 Processor, 4GB Memory, 128GB Solid State Drive and Windows 10 Pro
p39
sb.