ccopy_reg
_reconstructor
p0
(c__main__
ProductRecord
p1
c__builtin__
object
p2
Ntp3
Rp4
(dp5
S'product_url'
p6
S'http://www.walmart.com/ip/Manufacturer-Refurbished-HP-10-P010NR-10-1-Touch-Laptop-Intel-Atom-X5-Z8350-1-44GHz-2GB-32GB-Windows-10/451205131'
p7
sS'price'
p8
S'N/A'
p9
sS'properties'
p10
(dp11
VRAM Memory
p12
V2 Gigabytes
p13
sVOperating System
p14
VWindows 10
p15
sVColor Category
p16
VSilver
p17
sVLaptop Computer Type
p18
VTouchscreen
p19
sVBrand
p20
VHP
p21
sVManufacturer Part Number
p22
V10-P010NR-RF
p23
sVWireless Technology
p24
VWLAN 1x1 802.11ac
p25
sVHard Drive Capacity
p26
V32 Gigabytes
p27
sVProcessor Type
p28
VIntel Atom
p29
sVScreen Size
p30
V10 Inches
p31
sVModel
p32
V10-P010NR-RF
p33
sVManufacturer
p34
VHP
p35
ssS'title'
p36
VManufacturer Refurbished - HP 10-P010NR 10.1" Touch Laptop Intel Atom X5-Z8350 1.44GHz 2GB 32GB Windows 10
p37
sb.