ccopy_reg
_reconstructor
p0
(c__main__
ProductRecord
p1
c__builtin__
object
p2
Ntp3
Rp4
(dp5
S'product_url'
p6
S'http://www.walmart.com/ip/Manufacturer-Refurbished-Acer-Aspire-S5-371T-78TA-Ultrabook-13-3-Intel-Core-i7-7500U-2-7-GHz-8GB-Ram-256GB-SSD-Windows-10-Home/479153311'
p7
sS'price'
p8
V$799.00
p9
sS'properties'
p10
(dp11
VRAM Memory
p12
V8 GB
p13
sVOperating System
p14
VWindows 10
p15
sVBrand
p16
VAcer
p17
sVProcessor Speed
p18
V2.7 GHz
p19
sVManufacturer Part Number
p20
VNX.GM6AA.002
p21
sVHard Drive Capacity
p22
V256 GB
p23
sVAssembled Product Dimensions (L x W x H)
p24
V19.00 x 4.00 x 3.00 Inches
p25
sVModel
p26
VS5-371T-78TA
p27
sVScreen Size
p28
V13.3 in
p29
sVProcessor Type
p30
VIntel Core i7
p31
ssS'title'
p32
VManufacturer Refurbished Acer Aspire S5-371T-78TA Ultrabook 13.3" Intel Core i7-7500U 2.7 GHz 8GB Ram 256GB SSD Windows 10 Home
p33
sb.