ccopy_reg
_reconstructor
p0
(c__main__
ProductRecord
p1
c__builtin__
object
p2
Ntp3
Rp4
(dp5
S'product_url'
p6
S'http://www.walmart.com/ip/HP-ProBook-655-G2-15-6-AMD-A10-1-8GHz-8GB-RAM-256GB-SSD-Certified-Refurbished/995488145'
p7
sS'price'
p8
V$384.96
p9
sS'properties'
p10
(dp11
VRAM Memory
p12
V8 GB
p13
sVOperating System
p14
VWindows 10
p15
sVBrand
p16
VHP
p17
sVManufacturer Part Number
p18
VV1P87UA#ABA.RB
p19
sVHard Drive Capacity
p20
V256
p21
sVModel
p22
V655 G2
p23
sVScreen Size
p24
V15.6
p25
ssS'title'
p26
VHP ProBook 655 G2 - 15.6" - AMD A10 1.8GHz - 8GB RAM - 256GB SSD (Certified Refurbished)
p27
sb.