ccopy_reg
_reconstructor
p0
(c__main__
ProductRecord
p1
c__builtin__
object
p2
Ntp3
Rp4
(dp5
S'product_url'
p6
S'http://www.walmart.com/ip/Refurbished-Acer-17-3-Predator-Laptop-Intel-i7-2-80GHz-16GB-Ram-1TB-HDD-Windows-10-Home/580720691'
p7
sS'price'
p8
V$1,081.49
p9
sS'properties'
p10
(dp11
VRAM Memory
p12
V16 GB
p13
sVOperating System
p14
VWindows 10
p15
sVFeatures
p16
VCustom-engineered coolingRealized potential, Custom-engineered coolingUnlock the potential of Predator hardware with a custom-engineered dual-fan cooling with the all-metal AeroBlade 3D fan.Realized potentialPower through the competition with the excellent processor and rich graphics.
p17
sVBrand
p18
VAcer
p19
sVProcessor Speed
p20
V2.80 GHz
p21
sVManufacturer Part Number
p22
VNH.Q29AA.004
p23
sVHard Drive Capacity
p24
V1000 GB
p25
sVModel
p26
VPH317-51-70A1
p27
sVScreen Size
p28
V17.3 in
p29
sVProcessor Type
p30
VIntel Core i7
p31
sVCondition
p32
VNew
p33
ssS'title'
p34
VRefurbished Acer 17.3" Predator Laptop Intel i7 2.80GHz 16GB Ram 1TB HDD Windows 10 Home
p35
sb.