ccopy_reg
_reconstructor
p0
(c__main__
ProductRecord
p1
c__builtin__
object
p2
Ntp3
Rp4
(dp5
S'product_url'
p6
S'http://www.walmart.com/ip/Dell-Inspiron-I5567-5274-15-6-HD-I5-7100u-2-5GHz-8G-DDR4-256G-SSD-Win10/826433658'
p7
sS'price'
p8
V$609.00
p9
sS'properties'
p10
(dp11
VRAM Memory
p12
V256 GB
p13
sVOperating System
p14
VWindows 10
p15
sVBrand
p16
VDell
p17
sVHard Drive Capacity
p18
V8 GB
p19
sVProcessor Type
p20
V7th Generation Intel? Core? i5-7200U Processor
p21
sVScreen Size
p22
V15.6 in
p23
sVProcessor Speed
p24
V2.5 Hz
p25
sVCondition
p26
VNew
p27
ssS'title'
p28
VDell Inspiron I5567-5274 15.6" HD I5-7100u 2.5GHz 8G DDR4 256G SSD Win10
p29
sb.