ccopy_reg
_reconstructor
p0
(c__main__
ProductRecord
p1
c__builtin__
object
p2
Ntp3
Rp4
(dp5
S'product_url'
p6
S'http://www.walmart.com/ip/Acer-Aspire-F5-573G-74MV-15-6-Notebook-w-Intel-i7-7500U-8GB-RAM-256GB-SSD/678846273'
p7
sS'price'
p8
S'N/A'
p9
sS'properties'
p10
(dp11
VRAM Memory
p12
V8 Gigabytes
p13
sVOperating System
p14
VWindows 10
p15
sVFeatures
p16
V15.6" Ci76500 8G 256SSD W10
p17
sVVideo Game Platform
p18
VPC
p19
sVBrand
p20
VAcer
p21
sVProcessor Speed
p22
V2.7 Gigahertz
p23
sVMaximum RAM Supported
p24
V32 Gigabytes
p25
sVHard Drive Capacity
p26
V256 Gigabytes
p27
sVModel
p28
VNX.GD9AA.002
p29
sVScreen Size
p30
V15.60 Inches
p31
sVProcessor Type
p32
VIntel i7-7500U
p33
sVCondition
p34
VNew
p35
sVmanufacturer_part_number
p36
Vf5-573g-74mv
p37
ssS'title'
p38
VAcer Aspire F5-573G-74MV 15.6" Notebook w/ Intel i7-7500U, 8GB RAM & 256GB SSD
p39
sb.