ccopy_reg
_reconstructor
p0
(c__main__
ProductRecord
p1
c__builtin__
object
p2
Ntp3
Rp4
(dp5
S'product_url'
p6
S'http://www.walmart.com/ip/Acer-Nitro-5-515-51-5082-Core-i5-7300HQ-2-5-GHz-Win-10-Home-64-bit-8-GB-RAM-256-GB-SSD-15-6-IPS-1920-x-1080-Full-HD-NVIDIA-GeForce-GTX-1050-Wi-Fi-bla/457622688'
p7
sS'price'
p8
V$739.99
p9
sS'properties'
p10
(dp11
VRAM Memory
p12
V8 GB
p13
sVOperating System
p14
VMicrosoft Windows, Windows 10
p15
sVBrand
p16
VAcer
p17
sVProcessor Speed
p18
V2.50 GHz
p19
sVManufacturer Part Number
p20
VNH.Q2RAA.010
p21
sVMaximum RAM Supported
p22
V32 GB
p23
sVBattery Life
p24
V8.50 Hour
p25
sVModel
p26
V515-51-5082
p27
sVScreen Size
p28
V15.6"
p29
sVProcessor Type
p30
VIntel Core i5
p31
sVCondition
p32
VNew
p33
ssS'title'
p34
VAcer Nitro 5 515-51-5082 - Core i5 7300HQ / 2.5 GHz - Win 10 Home 64-bit - 8 GB RAM - 256 GB SSD - 15.6" IPS 1920 x 1080 (Full HD) - NVIDIA GeForce GTX 1050 - Wi-Fi - black - kbd: US International
p35
sb.