ccopy_reg
_reconstructor
p0
(c__main__
ProductRecord
p1
c__builtin__
object
p2
Ntp3
Rp4
(dp5
S'product_url'
p6
S'http://www.walmart.com/ip/Refurbished-Acer-10-1-Intel-Atom-x5-1-44-GHz-2-GB-Ram-64-GB-Flash-Windows-10-Professional/640659372'
p7
sS'price'
p8
S'N/A'
p9
sS'properties'
p10
(dp11
VRAM Memory
p12
V2 GB
p13
sVOperating System
p14
VWindows 10
p15
sVBrand
p16
VAcer
p17
sVManufacturer Part Number
p18
VNT.LAXAA.001
p19
sVHard Drive Capacity
p20
V64
p21
sVModel
p22
VSW5-014P-197D
p23
sVScreen Size
p24
V10.1 in
p25
sVProcessor Speed
p26
V1.44 GHz
p27
sVCondition
p28
VNew
p29
ssS'title'
p30
VRefurbished Acer 10.1" Intel Atom x5 1.44 GHz 2 GB Ram 64 GB Flash Windows 10 Professional
p31
sb.