ccopy_reg
_reconstructor
p0
(c__main__
ProductRecord
p1
c__builtin__
object
p2
Ntp3
Rp4
(dp5
S'product_url'
p6
S'http://www.walmart.com/ip/Dell-Latitude-5280-12-5-Core-i5-7200U-4-GB-RAM-500-GB-HDD/369085083'
p7
sS'price'
p8
V$877.70
p9
sS'properties'
p10
(dp11
VRAM Memory
p12
V4.00 GB
p13
sVOperating System
p14
VWindows 10
p15
sVBrand
p16
VDell
p17
sVProcessor Speed
p18
V2.50 GHz
p19
sVManufacturer Part Number
p20
VH2XKV
p21
sVHard Drive Capacity
p22
V500.00 GB
p23
sVAssembled Product Dimensions (L x W x H)
p24
V12.00 x 12.00 x 12.00 Inches
p25
sVModel
p26
VH2XKV
p27
sVScreen Size
p28
V12.50 in
p29
sVProcessor Type
p30
VIntel Core i5
p31
sVCondition
p32
VNew
p33
ssS'title'
p34
VDell Latitude 5280 - 12.5" - Core i5 7200U - 4 GB RAM - 500 GB HDD
p35
sb.