ccopy_reg
_reconstructor
p0
(c__main__
ProductRecord
p1
c__builtin__
object
p2
Ntp3
Rp4
(dp5
S'product_url'
p6
S'http://www.walmart.com/ip/Lenovo-Thinkpad-X240-i5-4300u-1-9Ghz-8GB-RAM-16GB-SSD-500GB-HDD-12-5-HD-Wireless-AC-7260-Backlit-Keyboard-Windows-10-Refurbished/519777300'
p7
sS'price'
p8
V$359.99
p9
sS'properties'
p10
(dp11
VRAM Memory
p12
V8 GB
p13
sVOperating System
p14
VMicrosoft Windows 10 Pro, Windows 10
p15
sVVideo Game Platform
p16
VPC
p17
sVBrand
p18
VLenovo
p19
sVProcessor Speed
p20
V1.9 GHz
p21
sVHard Drive Capacity
p22
V500 GB
p23
sVAssembled Product Dimensions (L x W x H)
p24
V8.15 x 12.01 x 0.79 Inches
p25
sVModel
p26
VX240
p27
sVScreen Size
p28
V12.5 in
p29
sVProcessor Type
p30
VIntel Core i5
p31
ssS'title'
p32
VLenovo Thinkpad X240 i5-4300u 1.9Ghz 8GB RAM 16GB SSD & 500GB HDD 12.5" HD Wireless-AC 7260 Backlit Keyboard Windows 10 (Refurbished)
p33
sb.