ccopy_reg
_reconstructor
p0
(c__main__
ProductRecord
p1
c__builtin__
object
p2
Ntp3
Rp4
(dp5
S'product_url'
p6
S'http://www.walmart.com/ip/Dell-Inspiron-11-3168-Intel-Pentium-N3710-X4-1-6GHz-4GB-500GB-11-6-Dark-Gray-Certified-Refurbished/116790910'
p7
sS'price'
p8
S'N/A'
p9
sS'properties'
p10
(dp11
VRAM Memory
p12
V4 Gigabytes
p13
sVOperating System
p14
VWindows 10
p15
sVFeatures
p16
V1 x USB 3.0, 1 x USB 2.0, 1 x HDMI, No Ethernet, 802.11ABGN and Bluetooth 4.0 + HS, 2-cellLithium-Ion Battery, 1MP Webcam and Integrated Microphone, This Certified Refurbished product is tested and certified to look and work like new. The refurbishing process includes functionality testing, basic cleaning, inspection, and repackaging. The product ships with all relevant accessories, a minimum 90-day warranty, and may arrive in a generic box., Intel Pentium N3710 Processor (Quad-Core, 1.6GHz, 2MB Cache), Standard Keyboard and Touchpad, 11.6-inch(1366 x 768)LCD Display, 500GB(5400RPM)SATA Hard Drive, IntegratedIntel HD Graphics, 0.78" x 11.5" x 7.72" (HxWxD);2.6lbs, Energy Star Compliant, Microsoft Windows 10 Home Operating System, 4GBDDR3 System Memory
p17
sVBrand
p18
VDell
p19
sVManufacturer Part Number
p20
V1472669482-RFB
p21
sVMaximum RAM Supported
p22
V4 Gigabytes
p23
sVHard Drive Capacity
p24
V500 Gigabytes
p25
sVBattery Life
p26
V10 Hours
p27
sVAssembled Product Dimensions (L x W x H)
p28
V11.50 x 7.70 x 0.80 Inches
p29
sVProcessor Type
p30
VIntel Pentium N3710
p31
sVScreen Size
p32
V11.6 Inches
p33
sVProcessor Speed
p34
V1.6 Gigahertz
p35
ssS'title'
p36
VDell Inspiron 11-3168 Intel Pentium N3710 X4 1.6GHz 4GB 500GB 11.6",Dark Gray (Certified Refurbished)
p37
sb.