ccopy_reg
_reconstructor
p0
(c__main__
ProductRecord
p1
c__builtin__
object
p2
Ntp3
Rp4
(dp5
S'product_url'
p6
S'http://www.walmart.com/ip/Refurbished-Dell-M6800-Gaming-Laptop-Core-i7-2-7GHz-Quad-Core-16GB-Memory-256GB-Solid-State-Nvidia-Graphics-Windows-10-Home/786547640'
p7
sS'price'
p8
V$311.94
p9
sS'properties'
p10
(dp11
VRAM Memory
p12
V8 GB
p13
sVOperating System
p14
VWindows 10
p15
sVBrand
p16
VDell
p17
sVHard Drive Capacity
p18
V1 TB
p19
sVProcessor Type
p20
VIntel Core i5
p21
sVScreen Size
p22
V14 in
p23
sVProcessor Speed
p24
V1900 MHz
p25
ssS'title'
p26
VRefurbished Dell Latitude E5440 Laptop PC Core i5 1.9GHz 8GB Memory 1TB Hard Drive Windows 10 Home
p27
sb.