ccopy_reg
_reconstructor
p0
(c__main__
ProductRecord
p1
c__builtin__
object
p2
Ntp3
Rp4
(dp5
S'product_url'
p6
S'http://www.walmart.com/ip/Refurbished-Acer-Aspire-A5-Intel-Core-i7-2-7GHz-12GB-Ram-256GB-SSD-Windows-10Home/585713551'
p7
sS'price'
p8
V$648.89
p9
sS'properties'
p10
(dp11
VRAM Memory
p12
V12 GB
p13
sVOperating System
p14
VWindows 10
p15
sVBrand
p16
VAcer
p17
sVManufacturer Part Number
p18
VNX.GP5AA.001
p19
sVHard Drive Capacity
p20
V256 GB
p21
sVModel
p22
VA515-51G-731M
p23
sVScreen Size
p24
V15.6 in
p25
sVProcessor Speed
p26
V2.70 GHz
p27
sVCondition
p28
VNew
p29
ssS'title'
p30
VRefurbished Acer Aspire A5 Intel Core i7 2.7GHz 12GB Ram 256GB SSD Windows 10Home
p31
sb.