ccopy_reg
_reconstructor
p0
(c__main__
ProductRecord
p1
c__builtin__
object
p2
Ntp3
Rp4
(dp5
S'product_url'
p6
S'http://www.walmart.com/ip/Lenovo-Black-15-6-Ideapad-100-Laptop-PC-with-Intel-Core-i3-5020U-Processor-8GB-Memory-500GB-Hard-Drive-and-Windows-10/47089095'
p7
sS'price'
p8
V$583.65
p9
sS'properties'
p10
(dp11
VRAM Memory
p12
V8 GB
p13
sVOperating System
p14
VWindows 10
p15
sVVideo Game Platform
p16
VPC
p17
sVBrand
p18
VLenovo
p19
sVProcessor Speed
p20
V2.20 GHz
p21
sVManufacturer Part Number
p22
V80QQ0060US
p23
sVMaximum RAM Supported
p24
V8 GB
p25
sVHard Drive Capacity
p26
V500 GB
p27
sVBattery Life
p28
V4 hours
p29
sVAssembled Product Dimensions (L x W x H)
p30
V20.47 x 13.27 x 2.64 Inches
p31
sVModel
p32
V80QQ0060US
p33
sVScreen Size
p34
V15.6 in
p35
sVProcessor Type
p36
VIntel Core i3
p37
sVCondition
p38
VNew
p39
ssS'title'
p40
VLenovo Black 15.6" Ideapad 100 Laptop PC with Intel Core i3-5020U Processor, 8GB Memory, 500GB Hard Drive and Windows 10
p41
sb.