ccopy_reg
_reconstructor
p0
(c__main__
ProductRecord
p1
c__builtin__
object
p2
Ntp3
Rp4
(dp5
S'product_url'
p6
S'http://www.walmart.com/ip/Refurbished-Dell-Latitude-E6430-14-1-Laptop-Windows-10-Pro-Intel-Core-i5-3320M-Processor-4GB-RAM-500GB-Hard-Drive/54392408'
p7
sS'price'
p8
V$270.00
p9
sS'properties'
p10
(dp11
VRAM Memory
p12
V4 GB
p13
sVOperating System
p14
VWindows 10
p15
sVFeatures
p16
VBacklit Keyboard
p17
sVVideo Game Platform
p18
VPC
p19
sVBrand
p20
VDell
p21
sVProcessor Speed
p22
V2.60 GHz
p23
sVManufacturer Part Number
p24
VRefurbished
p25
sVHard Drive Capacity
p26
V500 GB
p27
sVBattery Life
p28
V5 hours
p29
sVAssembled Product Dimensions (L x W x H)
p30
V19.00 x 14.00 x 3.00 Inches
p31
sVModel
p32
VLatitude E6430
p33
sVScreen Size
p34
V14.1"
p35
sVProcessor Type
p36
VIntel Core i5
p37
ssS'title'
p38
VRefurbished Dell Latitude E6430 14.1" Laptop, Windows 10 Pro, Intel Core i5-3320M Processor, 4GB RAM, 500GB Hard Drive
p39
sb.