ccopy_reg
_reconstructor
p0
(c__main__
ProductRecord
p1
c__builtin__
object
p2
Ntp3
Rp4
(dp5
S'product_url'
p6
S'http://www.walmart.com/ip/Refurbished-Dell-Latitude-E6440-Laptop-Intel-Core-i5-4300M-2-6Ghz-16GB-DDR3-500GB-Hard-Drive-HDMI-Windows-10-Pro-x64/954643358'
p7
sS'price'
p8
V$389.99
p9
sS'properties'
p10
(dp11
VRAM Memory
p12
V16.00 GB
p13
sVOperating System
p14
VWindows 10
p15
sVBrand
p16
VDell
p17
sVManufacturer Part Number
p18
VE6440-4300M-16-500-DW-BT-0P
p19
sVHard Drive Capacity
p20
V500.00 GB
p21
sVModel
p22
VE6440
p23
sVScreen Size
p24
V14.00 in
p25
sVProcessor Speed
p26
V2.60 GHz
p27
ssS'title'
p28
VRefurbished Dell Latitude E6440 Laptop, Intel Core i5 4300M 2.6Ghz, 16GB DDR3, 500GB Hard Drive, HDMI, Windows 10 Pro x64
p29
sb.