ccopy_reg
_reconstructor
p0
(c__main__
ProductRecord
p1
c__builtin__
object
p2
Ntp3
Rp4
(dp5
S'product_url'
p6
S'http://www.walmart.com/ip/REFURBISHED-Lenovo-ThinkPad-T410-i5-2-4GHz-8GB-320GB-CMB-Windows-10-Pro-64-Laptop-Computer/107331213'
p7
sS'price'
p8
V$214.00
p9
sS'properties'
p10
(dp11
VRAM Memory
p12
V8 Gigabytes
p13
sVOperating System
p14
VWindows 10
p15
sVBrand
p16
VLenovo
p17
sVProcessor Speed
p18
V2.4 Gigahertz
p19
sVManufacturer Part Number
p20
V9SIA9UW54A4396
p21
sVMaximum RAM Supported
p22
V8
p23
sVHard Drive Capacity
p24
V320 Gibibytes
p25
sVModel
p26
VT410
p27
sVProcessor Type
p28
VIntel Core i5
p29
ssS'title'
p30
VREFURBISHED Lenovo ThinkPad T410 i5 2.4GHz 8GB 320GB CMB Windows 10 Pro 64 Laptop Computer
p31
sb.