ccopy_reg
_reconstructor
p0
(c__main__
ProductRecord
p1
c__builtin__
object
p2
Ntp3
Rp4
(dp5
S'product_url'
p6
S'http://www.walmart.com/ip/Refurbished-Lenovo-ThinkPad-X240-2-1GHz-i7-8GB-320GB-Windows-10-Pro-64-12-Laptop-B/779256594'
p7
sS'price'
p8
V$295.50
p9
sS'properties'
p10
(dp11
VBrand
p12
VLenovo
p13
sVScreen Size
p14
V12\u005c"
p15
sVModel
p16
VThinkPad X240
p17
ssS'title'
p18
VRefurbished Lenovo ThinkPad X240 2.1GHz i7 8GB 320GB Windows 10 Pro 64 12" Laptop B
p19
sb.