ccopy_reg
_reconstructor
p0
(c__main__
ProductRecord
p1
c__builtin__
object
p2
Ntp3
Rp4
(dp5
S'product_url'
p6
S'http://www.walmart.com/ip/Refurbished-Lenovo-ThinkPad-T430-i7-2-9GHz-4GB-500GB-DRW-Windows-10-Pro-64-Laptop-CAM/112603399'
p7
sS'price'
p8
V$324.06
p9
sS'properties'
p10
(dp11
VRAM Memory
p12
V4 Gigabytes
p13
sVOperating System
p14
VWindows 10
p15
sVBrand
p16
VLenovo
p17
sVProcessor Speed
p18
V2.9 Gigahertz
p19
sVMaximum RAM Supported
p20
V16 Gigabytes
p21
sVHard Drive Capacity
p22
V500 Gigabytes
p23
sVModel
p24
VThinkpad T430
p25
sVProcessor Type
p26
VIntel Core i7
p27
ssS'title'
p28
VRefurbished Lenovo ThinkPad T430 i7 2.9GHz 4GB 500GB DRW Windows 10 Pro 64 Laptop CAM
p29
sb.