ccopy_reg
_reconstructor
p0
(c__main__
ProductRecord
p1
c__builtin__
object
p2
Ntp3
Rp4
(dp5
S'product_url'
p6
S'http://www.walmart.com/ip/Manufacturer-Refurbished-Acer-14-Intel-Pentium-1-90-GHz-4-GB-Ram-500-GB-HDD-Windows-10-Home-R3-431T-P3RD/412352863'
p7
sS'price'
p8
V$324.44
p9
sS'properties'
p10
(dp11
VRAM Memory
p12
V4.00 GB
p13
sVOperating System
p14
VWindows 10
p15
sVBrand
p16
VAcer
p17
sVProcessor Speed
p18
V1.90 GHz
p19
sVManufacturer Part Number
p20
VNX.MSSAA.008
p21
sVHard Drive Capacity
p22
V500.00 GB
p23
sVBattery Life
p24
V8.00 h
p25
sVAssembled Product Dimensions (L x W x H)
p26
V9.60 x 13.50 x 0.90 Inches
p27
sVModel
p28
VR3-431T-P3RD
p29
sVScreen Size
p30
V14.00 in
p31
sVProcessor Type
p32
VIntel Pentium 3805U
p33
sVCondition
p34
VNew
p35
ssS'title'
p36
VManufacturer Refurbished Acer 14" Intel Pentium 1.90 GHz 4 GB Ram 500 GB HDD Windows 10 Home|R3-431T-P3RD
p37
sb.