ccopy_reg
_reconstructor
p0
(c__main__
ProductRecord
p1
c__builtin__
object
p2
Ntp3
Rp4
(dp5
S'product_url'
p6
S'http://www.walmart.com/ip/Refurbished-HP-EliteBook-840-G1-1-9GHz-i5-4GB-180SSD-Windows-10-Pro-64-Laptop-with-Webcam-B/563429161'
p7
sS'price'
p8
V$253.30
p9
sS'properties'
p10
(dp11
VBrand
p12
VHP
p13
sVModel
p14
VEliteBook 840 G1
p15
ssS'title'
p16
VRefurbished HP EliteBook 840 G1 1.9GHz i5 4GB 180SSD Windows 10 Pro 64 Laptop with Webcam B
p17
sb.