ccopy_reg
_reconstructor
p0
(c__main__
ProductRecord
p1
c__builtin__
object
p2
Ntp3
Rp4
(dp5
S'product_url'
p6
S'http://www.walmart.com/ip/Refurbished-Dell-Latitude-E5440-Laptop-Intel-Core-i5-1-9GHz-8GB-Memory-320GB-Hard-Drive-DVD-ROM-Windows-10-Pro/859874251'
p7
sS'price'
p8
V$294.00
p9
sS'properties'
p10
(dp11
VRAM Memory
p12
V8 GB
p13
sVOperating System
p14
VWindows 10
p15
sVBrand
p16
VDell
p17
sVProcessor Speed
p18
V1900 MHz
p19
sVManufacturer Part Number
p20
VDell
p21
sVMaximum RAM Supported
p22
V16 GB
p23
sVHard Drive Capacity
p24
V320 KB
p25
sVModel
p26
VE5440
p27
sVScreen Size
p28
V14 in
p29
sVProcessor Type
p30
VIntel Core i5
p31
sVCondition
p32
VNew
p33
ssS'title'
p34
VRefurbished Dell Latitude E5440 Laptop Intel Core i5 1.9GHz 8GB Memory 320GB Hard Drive DVD-ROM Windows 10 Pro
p35
sb.