ccopy_reg
_reconstructor
p0
(c__main__
ProductRecord
p1
c__builtin__
object
p2
Ntp3
Rp4
(dp5
S'product_url'
p6
S'http://www.walmart.com/ip/Lenovo-ThinkPad-E470-14-Core-i3-7100U-4-GB-RAM-500-GB-HDD/973332179'
p7
sS'price'
p8
V$570.70
p9
sS'properties'
p10
(dp11
VRAM Memory
p12
V4 Gigabytes
p13
sVOperating System
p14
VWindows 10
p15
sVFeatures
p16
VTHINKPAD E470,INTEL CORE I3-7100U (2.40GHZ,3MB),14INCH HD 1366X768,WINDOWS 10 PR
p17
sVVideo Game Platform
p18
VPC
p19
sVBrand
p20
VLenovo
p21
sVProcessor Speed
p22
V2.4 Gigahertz
p23
sVManufacturer Part Number
p24
V20H10038US
p25
sVHard Drive Capacity
p26
V500 Gigabytes
p27
sVAssembled Product Dimensions (L x W x H)
p28
V18.50 x 3.00 x 12.00 Inches
p29
sVModel
p30
V20H10038US
p31
sVScreen Size
p32
V14 in
p33
sVProcessor Type
p34
VIntel i3-7100U
p35
sVCondition
p36
VNew
p37
ssS'title'
p38
VLenovo ThinkPad E470 - 14" - Core i3 7100U - 4 GB RAM - 500 GB HDD
p39
sb.