ccopy_reg
_reconstructor
p0
(c__main__
ProductRecord
p1
c__builtin__
object
p2
Ntp3
Rp4
(dp5
S'product_url'
p6
S'http://www.walmart.com/ip/Dell-Inspiron-i31790000GRY-11-6-Laptop-Touchscreen-Windows-10-Home-Intel-Core-m3-7Y30-Processor-4GB-RAM-500GB-Hard-Drive/54748218'
p7
sS'price'
p8
S'N/A'
p9
sS'properties'
p10
(dp11
VRAM Memory
p12
V4 GB
p13
sVOperating System
p14
VWindows 10
p15
sVColor Category
p16
VGray
p17
sVVideo Game Platform
p18
VPC
p19
sVBrand
p20
VDell
p21
sVHard Drive Capacity
p22
V500 GB
p23
sVLaptop Computer Type
p24
VTouchscreen
p25
sVProcessor Core Type
p26
VDual-core (2 Core)
p27
sVProcessor Type
p28
VIntel Core M3-7Y30 Processor
p29
sVmanufacturer_part_number
p30
Vi31790000gry
p31
sVScreen Size
p32
V11.6"
p33
sVModel
p34
VI31790000GRY
p35
sVCondition
p36
VNew
p37
sVManufacturer
p38
VDell
p39
ssS'title'
p40
VDell Inspiron i31790000GRY 11.6" Laptop, Touchscreen, Windows 10 Home, Intel Core m3-7Y30 Processor, 4GB RAM, 500GB Hard Drive
p41
sb.