ccopy_reg
_reconstructor
p0
(c__main__
ProductRecord
p1
c__builtin__
object
p2
Ntp3
Rp4
(dp5
S'product_url'
p6
S'http://www.walmart.com/ip/Refurbished-HP-EliteBook-8460P-14-Laptop-Windows-10-Pro-Intel-Core-i5-2520M-Processor-4GB-RAM-320GB-Hard-Drive/54392432'
p7
sS'price'
p8
V$235.00
p9
sS'properties'
p10
(dp11
VRAM Memory
p12
V4 GB
p13
sVOperating System
p14
VWindows 10
p15
sVVideo Game Platform
p16
VPC
p17
sVBrand
p18
VHP
p19
sVProcessor Speed
p20
V2.5 GHz
p21
sVManufacturer Part Number
p22
VRefurbished
p23
sVHard Drive Capacity
p24
V320 GB
p25
sVBattery Life
p26
V5 hours
p27
sVAssembled Product Dimensions (L x W x H)
p28
V19.00 x 14.00 x 3.00 Inches
p29
sVModel
p30
VELITEBOOK 8460P
p31
sVScreen Size
p32
V14.0"
p33
sVProcessor Type
p34
VIntel Core i5
p35
ssS'title'
p36
VRefurbished HP EliteBook 8460P 14" Laptop, Windows 10 Pro, Intel Core i5-2520M Processor, 4GB RAM, 320GB Hard Drive
p37
sb.