ccopy_reg
_reconstructor
p0
(c__main__
ProductRecord
p1
c__builtin__
object
p2
Ntp3
Rp4
(dp5
S'product_url'
p6
S'http://www.walmart.com/ip/Dell-Latitude-E7440-14-Ultrabook-Intel-Core-i5-4GB-500GB-WIFI-Windows-7-Pro/228341196'
p7
sS'price'
p8
V$424.99
p9
sS'properties'
p10
(dp11
VRAM Memory
p12
V4 GB
p13
sVOperating System
p14
VMicrosoft Windows
p15
sVLaptop Computer Type
p16
VUltrabooks
p17
sVBrand
p18
VDell
p19
sVHard Drive Capacity
p20
V500
p21
sVScreen Size
p22
V14
p23
ssS'title'
p24
VDell Latitude E7440 14" Ultrabook - Intel Core i5, 4GB, 500GB, WIFI, Windows 7 Pro
p25
sb.