ccopy_reg
_reconstructor
p0
(c__main__
ProductRecord
p1
c__builtin__
object
p2
Ntp3
Rp4
(dp5
S'product_url'
p6
S'http://www.walmart.com/ip/Dell-Latitude-E7440-FHD-1920x1080-Intel-Core-i5-4310U-2-0GHz-3-0GHz-8GB-Memory-180GB-SSD-Webcam-Backlit-Keyboard-Windows-7-Professional-Ultrabook-14-/112401210'
p7
sS'price'
p8
V$449.95
p9
sS'properties'
p10
(dp11
VRAM Memory
p12
V8 GB
p13
sVOperating System
p14
VMicrosoft Windows
p15
sVVideo Game Platform
p16
VPC
p17
sVBrand
p18
VDell
p19
sVWireless Technology
p20
VBluetooth
p21
sVHard Drive Capacity
p22
V180 GB
p23
sVLaptop Computer Type
p24
VPC Laptops
p25
sVProcessor Type
p26
VIntel Core i5
p27
sVScreen Size
p28
V14 in
p29
sVModel
p30
VE7440
p31
sVManufacturer
p32
VDell
p33
ssS'title'
p34
VDell Latitude E7440 FHD 1920x1080 Intel Core i5 4310U (2.0GHz-3.0GHz) 8GB Memory 180GB SSD Webcam Backlit Keyboard Windows 7 Professional Ultrabook 14" Laptop (Refurbished)
p35
sb.