ccopy_reg
_reconstructor
p0
(c__main__
ProductRecord
p1
c__builtin__
object
p2
Ntp3
Rp4
(dp5
S'product_url'
p6
S'http://www.walmart.com/ip/Refurbished-HP-Elitebook-Folio-9470M-LT-14-Inch-Notebook-Notebook/544585413'
p7
sS'price'
p8
V$289.95
p9
sS'properties'
p10
(dp11
VBrand
p12
VHP
p13
sVCondition
p14
VRefurbished
p15
sVmanufacturer_part_number
p16
V9470m
p17
ssS'title'
p18
VRefurbished "HP Elitebook Folio 9470M LT 14 Inch Notebook Notebook"
p19
sb.