ccopy_reg
_reconstructor
p0
(c__main__
ProductRecord
p1
c__builtin__
object
p2
Ntp3
Rp4
(dp5
S'product_url'
p6
S'http://www.walmart.com/ip/Refurbished-HP-840-G1-14-Inch-Ultrabook-Ultrabook/760751477'
p7
sS'price'
p8
V$297.95
p9
sS'properties'
p10
(dp11
VBrand
p12
VHP
p13
ssS'title'
p14
VRefurbished "HP 840 G1 14 Inch Ultrabook Ultrabook"
p15
sb.