ccopy_reg
_reconstructor
p0
(c__main__
ProductRecord
p1
c__builtin__
object
p2
Ntp3
Rp4
(dp5
S'product_url'
p6
S'http://www.walmart.com/ip/Acer-Aspire-S5-371-3164-13-3-Led-in-plane-Switching-ips-Technology-Comfyview-Ultrabook-Intel-Core-I3-I3-6100u-Dual-core-2-Core-2-30-Ghz-4-Gb-Lpddr3-R/52509839'
p7
sS'price'
p8
V$503.42
p9
sS'properties'
p10
(dp11
VRAM Memory
p12
V4 GB
p13
sVOperating System
p14
VMicrosoft Windows
p15
sVBrand
p16
VAcer
p17
sVProcessor Speed
p18
V2.30 GHz
p19
sVManufacturer Part Number
p20
VNX.GCHAA.002
p21
sVHard Drive Capacity
p22
V128 GB
p23
sVModel
p24
VNX.GCHAA.002
p25
sVScreen Size
p26
V13.3"
p27
sVProcessor Type
p28
VIntel Core i3
p29
sVCondition
p30
VNew
p31
ssS'title'
p32
VAcer Aspire S5-371-3164 13.3" Led [in-plane Switching [ips] Technology, Comfyview] Ultrabook - Intel Core I3 I3-6100u Dual-core [2 Core] 2.30 Ghz - 4 Gb Lpddr3 Ram - 128 Gb Ssd - Intel (nx-gchaa-002)
p33
sb.