ccopy_reg
_reconstructor
p0
(c__main__
ProductRecord
p1
c__builtin__
object
p2
Ntp3
Rp4
(dp5
S'product_url'
p6
S'http://www.walmart.com/ip/Acer-Swift-3-14-0-FullHD-Laptop-i5-8250U-Quad-Core-8GB-256GB-SSD-Win10/473142581'
p7
sS'price'
p8
V$642.11
p9
sS'properties'
p10
(dp11
VRAM Memory
p12
V8 Gigabytes
p13
sVOperating System
p14
VWindows 10
p15
sVBrand
p16
VAcer
p17
sVProcessor Speed
p18
V1.6 Gigahertz
p19
sVManufacturer Part Number
p20
VNX.GQLAA.001
p21
sVHard Drive Capacity
p22
V256 Gigabytes
p23
sVBattery Life
p24
V10 Hours
p25
sVModel
p26
VNX.GQLAA.001
p27
sVScreen Size
p28
V14.00 Inches
p29
sVProcessor Type
p30
VIntel i5-8250U
p31
sVCondition
p32
VNew
p33
ssS'title'
p34
VAcer Swift 3 14.0" FullHD Laptop i5-8250U Quad-Core 8GB 256GB SSD Win10
p35
sb.