ccopy_reg
_reconstructor
p0
(c__main__
ProductRecord
p1
c__builtin__
object
p2
Ntp3
Rp4
(dp5
S'product_url'
p6
S'http://www.walmart.com/ip/HP-ZBook-Studio-G3-Mobile-Workstation-15-6-Xeon-E3-1505MV5-16-GB-RAM-512-GB-SSD/177101958'
p7
sS'price'
p8
V$2,467.87
p9
sS'properties'
p10
(dp11
VRAM Memory
p12
V16.00 GB
p13
sVOperating System
p14
VWindows 10 Pro (English)
p15
sVVideo Game Platform
p16
VSee Description
p17
sVBrand
p18
VHP
p19
sVProcessor Speed
p20
V2.80 GHz
p21
sVManufacturer Part Number
p22
VT6E86UT#ABA
p23
sVMaximum RAM Supported
p24
V32 GB
p25
sVHard Drive Capacity
p26
V512.00 GB
p27
sVBattery Life
p28
V0 h
p29
sVAssembled Product Dimensions (L x W x H)
p30
V5.00 x 5.00 x 5.00 Inches
p31
sVModel
p32
VT6E86UT
p33
sVScreen Size
p34
V15.60 in
p35
sVProcessor Type
p36
VXeon
p37
sVCondition
p38
VNew
p39
ssS'title'
p40
VHP ZBook Studio G3 Mobile Workstation - 15.6" - Xeon E3-1505MV5 - 16 GB RAM - 512 GB SSD
p41
sb.