ccopy_reg
_reconstructor
p0
(c__main__
ProductRecord
p1
c__builtin__
object
p2
Ntp3
Rp4
(dp5
S'product_url'
p6
S'http://www.walmart.com/ip/Refurbished-Dell-Latitude-E7240-Intel-i7-4600U-8GB-12-5-Inch-Touchscreen-Laptop-Black/173393431'
p7
sS'price'
p8
V$469.95
p9
sS'properties'
p10
(dp11
VRAM Memory
p12
V8 GB
p13
sVOperating System
p14
VMicrosoft Windows
p15
sVColor Category
p16
VBlack
p17
sVLaptop Computer Type
p18
VPC Laptops
p19
sVBrand
p20
VDell
p21
sVManufacturer Part Number
p22
VE7240-I721-FB-3R
p23
sVProcessor Type
p24
VIntel Core i7
p25
sVScreen Size
p26
V12.5
p27
sVModel
p28
VLatitude E7240
p29
sVManufacturer
p30
VDell
p31
ssS'title'
p32
VRefurbished Dell Latitude E7240 Intel i7-4600U 8GB 12.5-Inch Touchscreen Laptop - Black
p33
sb.