ccopy_reg
_reconstructor
p0
(c__main__
ProductRecord
p1
c__builtin__
object
p2
Ntp3
Rp4
(dp5
S'product_url'
p6
S'http://www.walmart.com/ip/HP-EliteBook-1040-G3-14-Core-i7-6600U-8-GB-RAM-256-GB-SSD/102140721'
p7
sS'price'
p8
V$1,546.03
p9
sS'properties'
p10
(dp11
VRAM Memory
p12
V8.00 GB
p13
sVOperating System
p14
VWindows 7
p15
sVBrand
p16
VHP
p17
sVProcessor Speed
p18
V0 GHz
p19
sVManufacturer Part Number
p20
VV2W21UT#ABA
p21
sVMaximum RAM Supported
p22
V16 GB
p23
sVHard Drive Capacity
p24
V256.00 GB
p25
sVBattery Life
p26
V0 h
p27
sVAssembled Product Dimensions (L x W x H)
p28
V9.20 x 13.30 x 0.60 Inches
p29
sVModel
p30
VV2W21UT#ABA
p31
sVScreen Size
p32
V14"
p33
sVProcessor Type
p34
VIntel Core i7
p35
sVCondition
p36
VNew
p37
ssS'title'
p38
VHP EliteBook 1040 G3 - 14" - Core i7 6600U - 8 GB RAM - 256 GB SSD
p39
sb.