ccopy_reg
_reconstructor
p0
(c__main__
ProductRecord
p1
c__builtin__
object
p2
Ntp3
Rp4
(dp5
S'product_url'
p6
S'http://www.walmart.com/ip/HP-ZBook-15-G3-Mobile-Workstation-15-6-Core-i7-6700HQ-8-GB-RAM-500-GB-HDD/55253120'
p7
sS'price'
p8
V$1,628.92
p9
sS'properties'
p10
(dp11
VRAM Memory
p12
V8 GB
p13
sVOperating System
p14
VWindows 7
p15
sVFeatures
p16
VROHS Compliant
p17
sVVideo Game Platform
p18
VPC
p19
sVBrand
p20
VHP
p21
sVProcessor Speed
p22
V2.60 GHz
p23
sVManufacturer Part Number
p24
VX9V53UT#ABA
p25
sVHard Drive Capacity
p26
V500 GB
p27
sVAssembled Product Dimensions (L x W x H)
p28
V10.40 x 15.20 x 1.00 Inches
p29
sVModel
p30
VX9V53UT#ABA
p31
sVScreen Size
p32
V15.6"
p33
sVProcessor Type
p34
VIntel Core i7
p35
ssS'title'
p36
VHP ZBook 15 G3 Mobile Workstation - 15.6" - Core i7 6700HQ - 8 GB RAM - 500 GB HDD
p37
sb.