ccopy_reg
_reconstructor
p0
(c__main__
ProductRecord
p1
c__builtin__
object
p2
Ntp3
Rp4
(dp5
S'product_url'
p6
S'http://www.walmart.com/ip/HP-ZBook-Studio-G3-Mobile-Workstation-15-6-Core-i7-6700HQ-16-GB-RAM-512-GB-SSD/104231859'
p7
sS'price'
p8
V$2,058.16
p9
sS'properties'
p10
(dp11
VRAM Memory
p12
V16.00 GB
p13
sVOperating System
p14
VWindows 7
p15
sVVideo Game Platform
p16
VPC
p17
sVBrand
p18
VHP
p19
sVProcessor Speed
p20
V2.60 GHz
p21
sVManufacturer Part Number
p22
VT6E16UT#ABA
p23
sVMaximum RAM Supported
p24
V32 GB
p25
sVHard Drive Capacity
p26
V512.00 GB
p27
sVBattery Life
p28
V0 h
p29
sVModel
p30
VT6E16UT
p31
sVScreen Size
p32
V15.60 in
p33
sVProcessor Type
p34
VIntel Core i7
p35
sVCondition
p36
VNew
p37
ssS'title'
p38
VHP ZBook Studio G3 Mobile Workstation - 15.6" - Core i7 6700HQ - 16 GB RAM - 512 GB SSD
p39
sb.