ccopy_reg
_reconstructor
p0
(c__main__
ProductRecord
p1
c__builtin__
object
p2
Ntp3
Rp4
(dp5
S'product_url'
p6
S'http://www.walmart.com/ip/REFURBISHED-HP-Folio-13-1029WM-13-3-Ultrabook-1-4-GHz-Intel-Core-i3-2367M-Pr/252907240'
p7
sS'price'
p8
V$449.95
p9
sS'properties'
p10
(dp11
VOperating System
p12
VMicrosoft Windows
p13
sVBrand
p14
VSony
p15
sVScreen Size
p16
V13.3
p17
sVCondition
p18
VRefurbished
p19
sVmanufacturer_part_number
p20
V13-1029wm
p21
ssS'title'
p22
VREFURBISHED - HP Folio 13-1029WM 13.3" Ultrabook (1.4 GHz Intel Core i3-2367M Pr
p23
sb.