ccopy_reg
_reconstructor
p0
(c__main__
ProductRecord
p1
c__builtin__
object
p2
Ntp3
Rp4
(dp5
S'product_url'
p6
S'http://www.walmart.com/ip/REFURBISHED-2QU8066-HP-ElitePad-900-G1-D3H86UT-10-1quot-64GB-Slate-Net-tabl/814438071'
p7
sS'price'
p8
S'N/A'
p9
sS'properties'
p10
(dp11
VBrand
p12
Vintel
p13
sVCondition
p14
VRefurbished
p15
ssS'title'
p16
VREFURBISHED - 2QU8066 - HP ElitePad 900 G1 D3H86UT 10.1quot; 64GB Slate Net-tabl
p17
sb.