ccopy_reg
_reconstructor
p0
(c__main__
ProductRecord
p1
c__builtin__
object
p2
Ntp3
Rp4
(dp5
S'product_url'
p6
S'http://www.walmart.com/ip/Dell-Latitude-7480-14-Core-i5-7300U-8-GB-RAM-128-GB-SSD/866535012'
p7
sS'price'
p8
V$1,189.59
p9
sS'properties'
p10
(dp11
VRAM Memory
p12
V8 Gigabytes
p13
sVOperating System
p14
VWindows 10 Pro (English/French/Spanish)
p15
sVFeatures
p16
VDELL LATITUDE 7480 ,CORE_I5_7-7300U,8GB (1DIMMS),128GB X_SATASS,WWAN,NON-TOUCH,1
p17
sVBrand
p18
VDell
p19
sVProcessor Speed
p20
V2.6 Gigahertz
p21
sVManufacturer Part Number
p22
V7DTN9
p23
sVHard Drive Capacity
p24
V128 Gigabytes
p25
sVBattery Life
p26
V0 h
p27
sVAssembled Product Dimensions (L x W x H)
p28
V18.50 x 11.50 x 3.00 Inches
p29
sVModel
p30
V7DTN9
p31
sVScreen Size
p32
V14.00 Inches
p33
sVProcessor Type
p34
VIntel i5-7300U
p35
sVCondition
p36
VNew
p37
ssS'title'
p38
VDell Latitude 7480 - 14" - Core i5 7300U - 8 GB RAM - 128 GB SSD
p39
sb.