ccopy_reg
_reconstructor
p0
(c__main__
ProductRecord
p1
c__builtin__
object
p2
Ntp3
Rp4
(dp5
S'product_url'
p6
S'http://www.walmart.com/ip/ASUS-ZenBook-UX303UB-Core-i7-2-5GHz-12GB-512GB-SSD-13-3-QHD-Ultrabook-W10H-Factory-Refurbished/839593623'
p7
sS'price'
p8
V$1,019.99
p9
sS'properties'
p10
(dp11
VOperating System
p12
VMicrosoft Windows
p13
sVBrand
p14
VASUS
p15
sVRAM Memory
p16
V12 GB
p17
sVScreen Size
p18
V13.3\u005c"
p19
sVHard Drive Capacity
p20
V512 GB
p21
ssS'title'
p22
VASUS ZenBook UX303UB Core i7 2.5GHz 12GB 512GB SSD 13.3" QHD+ Ultrabook W10H - Factory Refurbished
p23
sb.