ccopy_reg
_reconstructor
p0
(c__main__
ProductRecord
p1
c__builtin__
object
p2
Ntp3
Rp4
(dp5
S'product_url'
p6
S'http://www.walmart.com/ip/ThinkPad-S1-Yoga-20CDS05S00-2-in-1-Ultrabook/46396865'
p7
sS'price'
p8
V$899.99
p9
sS'properties'
p10
(dp11
VRAM Memory
p12
V4 GB
p13
sVOperating System
p14
VMicrosoft Windows, Windows 8 Pro Upgradable to Windows 8.1 Pro
p15
sVFeatures
p16
VYes, Power-on PasswordHard Disk PasswordSupervisor PasswordSecurity KeyholeTrusted Platform Module, TCG 1.2-compliant
p17
sVBrand
p18
VLenovo
p19
sVProcessor Speed
p20
V1.70 GHz
p21
sVManufacturer Part Number
p22
V20CDS05S00
p23
sVHard Drive Capacity
p24
V500 GB
p25
sVBattery Life
p26
V7 Hour
p27
sVModel
p28
V20CDS05S00, HD Graphics 4400, S1 Yoga
p29
sVScreen Size
p30
V12.5"
p31
sVProcessor Type
p32
VIntel Core i3
p33
sVCondition
p34
VNew
p35
ssS'title'
p36
VThinkPad S1 Yoga 20CDS05S00 2 in 1 Ultrabook
p37
sb.