ccopy_reg
_reconstructor
p0
(c__main__
ProductRecord
p1
c__builtin__
object
p2
Ntp3
Rp4
(dp5
S'product_url'
p6
S'http://www.walmart.com/ip/Dell-Latitude-E7450-HD-14-Intel-Core-i5-5300U-2-3GHz-2-9GHz-8GB-Memory-500GB-Hard-Drive-Webcam-Backlit-Keyboard-Bluetooth-Windows-10-Professional-Lap/128102372'
p7
sS'price'
p8
V$449.99
p9
sS'properties'
p10
(dp11
sS'title'
p12
VDell Latitude E7450 HD 14" Intel Core i5 5300U (2.3GHz-2.9GHz) 8GB Memory 500GB Hard Drive Webcam Backlit Keyboard Bluetooth Windows 10 Professional Laptop (Refurbished)
p13
sb.