ccopy_reg
_reconstructor
p0
(c__main__
ProductRecord
p1
c__builtin__
object
p2
Ntp3
Rp4
(dp5
S'product_url'
p6
S'http://www.walmart.com/ip/Refurbished-14-inch-HP-EliteBook-Folio-9470m-Ultrabook-i5-Processor-8GB-500GB-Windows-10-Pro/811171178'
p7
sS'price'
p8
V$275.59
p9
sS'properties'
p10
(dp11
VRAM Memory
p12
V8 GB
p13
sVOperating System
p14
VWindows 10
p15
sVBrand
p16
VHP
p17
sVProcessor Speed
p18
V1.8 GHz
p19
sVHard Drive Capacity
p20
V500 GB
p21
sVModel
p22
V9470M
p23
sVScreen Size
p24
V14 in
p25
sVProcessor Type
p26
VIntel Core i5
p27
sVCondition
p28
VRefurbished
p29
ssS'title'
p30
VRefurbished 14-inch HP EliteBook Folio 9470m Ultrabook, i5 Processor, 8GB, 500GB, Windows 10 Pro
p31
sb.