ccopy_reg
_reconstructor
p0
(c__main__
ProductRecord
p1
c__builtin__
object
p2
Ntp3
Rp4
(dp5
S'product_url'
p6
S'http://www.walmart.com/ip/ASUS-UX305-13-Inch-Laptop-2015-model/44787843'
p7
sS'price'
p8
V$1,291.04
p9
sS'properties'
p10
(dp11
VRAM Memory
p12
V8 Gigabytes
p13
sVOperating System
p14
VWindows 8
p15
sVFeatures
p16
VSDXC Card Reader, Bluetooth 4.0, Microsoft Windows 8.1 64-bit, 13.3" Full HD IPS Display, Wireless, 256GB Solid State Drive, 8GB LPDDR3-1600 Onboard RAM, Intel Core M-5Y10 Processor 0.8GHz, Intel HD
p17
sVVideo Game Platform
p18
VLaptop PC
p19
sVBrand
p20
VASUS
p21
sVProcessor Speed
p22
V0.8 Gigahertz
p23
sVManufacturer Part Number
p24
V90NB06X1-M02240
p25
sVMaximum RAM Supported
p26
V8 Gigabytes
p27
sVHard Drive Capacity
p28
V256 Gigabytes
p29
sVBattery Life
p30
V10 hours
p31
sVModel
p32
VUX305FA-ASM1-RF
p33
sVScreen Size
p34
V13.3"
p35
sVProcessor Type
p36
VIntel Core M
p37
sVCondition
p38
VNew
p39
ssS'title'
p40
VASUS UX305 13-Inch Laptop [2015 model]
p41
sb.