ccopy_reg
_reconstructor
p0
(c__main__
ProductRecord
p1
c__builtin__
object
p2
Ntp3
Rp4
(dp5
S'product_url'
p6
S'http://www.walmart.com/ip/Dell-Latitude-E7240-Core-i7-4600U-2-1GHz-8GB-256GB-SSD-12-5-LED-Ultrabook-Refurbished/836507308'
p7
sS'price'
p8
V$569.99
p9
sS'properties'
p10
(dp11
VRAM Memory
p12
V8 GB
p13
sVOperating System
p14
VMicrosoft Windows
p15
sVBrand
p16
VDell
p17
sVHard Drive Capacity
p18
V256 GB
p19
sVScreen Size
p20
V12.5\u005c"
p21
sVCondition
p22
VRefurbished
p23
ssS'title'
p24
VDell Latitude E7240 Core i7-4600U 2.1GHz 8GB 256GB SSD 12.5" LED Ultrabook - Refurbished
p25
sb.