ccopy_reg
_reconstructor
p0
(c__main__
ProductRecord
p1
c__builtin__
object
p2
Ntp3
Rp4
(dp5
S'product_url'
p6
S'http://www.walmart.com/ip/Refurbished-Lenovo-ThinkPad-X1-Carbon-Touch-3460-14-Ultrabook-Core-i7-3667U-2-GHz-8-GB-RAM-128-GB-SSD/150027623'
p7
sS'price'
p8
V$499.00
p9
sS'properties'
p10
(dp11
VBrand
p12
VLenovo
p13
ssS'title'
p14
VRefurbished Lenovo ThinkPad X1 Carbon Touch 3460 14 Ultrabook - Core i7 3667U 2 GHz - 8 GB RAM - 128 GB SSD
p15
sb.