ccopy_reg
_reconstructor
p0
(c__main__
ProductRecord
p1
c__builtin__
object
p2
Ntp3
Rp4
(dp5
S'product_url'
p6
S'http://www.walmart.com/ip/Toshiba-PT261U-05D019-Portege-Z30-Ultrabook-PC-Intel-Skylake-Refurbished/568494283'
p7
sS'price'
p8
V$1,298.97
p9
sS'properties'
p10
(dp11
VRAM Memory
p12
V16 GB
p13
sVOperating System
p14
VWindows 7
p15
sVBrand
p16
VToshiba
p17
sVProcessor Speed
p18
V2.6 GHz
p19
sVHard Drive Capacity
p20
V16 GB
p21
sVModel
p22
VPT261U-05D019
p23
sVScreen Size
p24
V13.3 in
p25
sVProcessor Type
p26
VIntel Core i7
p27
sVCondition
p28
VRefurbished
p29
sVmanufacturer_part_number
p30
Vpt261u-05d019
p31
ssS'title'
p32
VToshiba PT261U-05D019 Portege Z30 Ultrabook PC - Intel Skylake (Refurbished)
p33
sb.