ccopy_reg
_reconstructor
p0
(c__main__
ProductRecord
p1
c__builtin__
object
p2
Ntp3
Rp4
(dp5
S'product_url'
p6
S'http://www.walmart.com/ip/Lenovo-ThinkPad-T450-14-Core-i5-5300U-8-GB-RAM-256-GB-SSD/199653857'
p7
sS'price'
p8
V$1,458.19
p9
sS'properties'
p10
(dp11
VRAM Memory
p12
V8 Gigabytes
p13
sVOperating System
p14
VWindows 7
p15
sVBrand
p16
VLenovo
p17
sVProcessor Speed
p18
V2.3 Gigahertz
p19
sVManufacturer Part Number
p20
V20BV0065US
p21
sVMaximum RAM Supported
p22
V16 GB
p23
sVHard Drive Capacity
p24
V256 Gigabytes
p25
sVBattery Life
p26
V10 Hours
p27
sVAssembled Product Dimensions (L x W x H)
p28
V12.00 x 6.00 x 12.00 Inches
p29
sVModel
p30
VHD Graphics 5500
p31
sVScreen Size
p32
V14.00 Inches
p33
sVProcessor Type
p34
VIntel i5-5300U
p35
sVCondition
p36
VNew
p37
ssS'title'
p38
VLenovo ThinkPad T450 - 14" - Core i5 5300U - 8 GB RAM - 256 GB SSD
p39
sb.