ccopy_reg
_reconstructor
p0
(c__main__
ProductRecord
p1
c__builtin__
object
p2
Ntp3
Rp4
(dp5
S'product_url'
p6
S'http://www.walmart.com/ip/Asus-ROG-GL502VM-DS74-15-6-inch-Intel-Core-i7-7700HQ-2-8GHz-16GB-DDR4-1TB-HDD-128GB-SSD-GTX-1060-USB3-1-Windows-10-Ultrabook-ROG-Metallic-Copper/315872938'
p7
sS'price'
p8
V$1,579.99
p9
sS'properties'
p10
(dp11
VBrand
p12
VASUS
p13
sVHard Drive Capacity
p14
V1000
p15
sVmanufacturer_part_number
p16
Vgl502vm-ds74
p17
ssS'title'
p18
VAsus ROG GL502VM-DS74 15.6 inch Intel Core i7-7700HQ 2.8GHz/ 16GB DDR4/ 1TB HDD + 128GB SSD/ GTX 1060/ USB3.1/ Windows 10 Ultrabook (ROG Metallic Copper)
p19
sb.