ccopy_reg
_reconstructor
p0
(c__main__
ProductRecord
p1
c__builtin__
object
p2
Ntp3
Rp4
(dp5
S'product_url'
p6
S'http://www.walmart.com/ip/Refurbished-Dell-XPS13-9343-13-3-Inch-Ultrabook-5th-Gen-Intel-Core-i5-5200U-Processor-2-2GHz-8GB-DDR3-256GB-SSD-Windows-8-1-Certified/458598072'
p7
sS'price'
p8
V$749.00
p9
sS'properties'
p10
(dp11
VRAM Memory
p12
V8 GB
p13
sVOperating System
p14
VMicrosoft Windows
p15
sVBrand
p16
VDell
p17
sVHard Drive Capacity
p18
V256 GB
p19
sVScreen Size
p20
V13.3\u005c"
p21
sVmanufacturer_part_number
p22
Vxps13-9343
p23
ssS'title'
p24
VRefurbished Dell XPS13-9343 13.3-Inch Ultrabook (5th Gen Intel Core i5-5200U Processor 2.2GHz, 8GB DDR3, 256GB SSD, Windows 8.1) (Certified
p25
sb.