ccopy_reg
_reconstructor
p0
(c__main__
ProductRecord
p1
c__builtin__
object
p2
Ntp3
Rp4
(dp5
S'product_url'
p6
S'http://www.walmart.com/ip/Superb-Choice-65W-Acer-Aspire-Ultrabook-S7-191-6447-Laptop-AC-Adapter/42439310'
p7
sS'price'
p8
V$18.99
p9
sS'properties'
p10
(dp11
VModel
p12
VDF-AC06507-20
p13
sVmanufacturer_part_number
p14
VS7-191-6447
p15
sVAssembled Product Dimensions (L x W x H)
p16
V8.00 x 2.00 x 1.00 Inches
p17
sVBrand
p18
VSuperb Choice
p19
sVCompatible Devices
p20
VLaptop Computers
p21
ssS'title'
p22
VSuperb Choice 65W Acer Aspire Ultrabook S7-191-6447 Laptop AC Adapter
p23
sb.