ccopy_reg
_reconstructor
p0
(c__main__
ProductRecord
p1
c__builtin__
object
p2
Ntp3
Rp4
(dp5
S'product_url'
p6
S'http://www.walmart.com/ip/CWK-Long-Life-Replacement-Laptop-Notebook-Battery-HP-Pavilion-15-b123nr-15-b140us-15-b150eb-Ultrabook-15-b151sg-15-b152sg-15-b156er-Ultrabook-15-b156/909879996'
p7
sS'price'
p8
V$20.99
p9
sS'properties'
p10
(dp11
VBrand
p12
VCWK
p13
ssS'title'
p14
VCWK Long Life Replacement Laptop Notebook Battery for HP Pavilion 15-b123nr 15-b140us 15-b150eb Ultrabook 15-b151sg 15-b152sg 15-b156er Ultrabook 15-b156sr Ultrabook 15-b157sr
p15
sb.