ccopy_reg
_reconstructor
p0
(c__main__
ProductRecord
p1
c__builtin__
object
p2
Ntp3
Rp4
(dp5
S'product_url'
p6
S'http://www.walmart.com/ip/Lenovo-ThinkPad-Yoga-11e-11-6-Celeron-N3450-4-GB-RAM-128-GB-SSD/958407700'
p7
sS'price'
p8
S'N/A'
p9
sS'properties'
p10
(dp11
VRAM Memory
p12
V4 Gigabytes
p13
sVOperating System
p14
VWindows 10 Pro (English)
p15
sVBrand
p16
VLenovo
p17
sVProcessor Speed
p18
V1.1 Gigahertz
p19
sVManufacturer Part Number
p20
V20HU0003US
p21
sVHard Drive Capacity
p22
V128 Gigabytes
p23
sVAssembled Product Dimensions (L x W x H)
p24
V12.00 x 12.00 x 12.00 Inches
p25
sVModel
p26
V20HU0003US
p27
sVScreen Size
p28
V11.60 Inches
p29
sVProcessor Type
p30
VIntel N3450
p31
sVCondition
p32
VNew
p33
ssS'title'
p34
VLenovo ThinkPad Yoga 11e - 11.6" - Celeron N3450 - 4 GB RAM - 128 GB SSD
p35
sb.