ccopy_reg
_reconstructor
p0
(c__main__
ProductRecord
p1
c__builtin__
object
p2
Ntp3
Rp4
(dp5
S'product_url'
p6
S'http://www.walmart.com/ip/C22-UX31-Laptop-Computer-Battery-for-Asus-ZenBook-UX31-UX31A-UX31E-Ultrabook-Laptop-C23-UX31/492225405'
p7
sS'price'
p8
V$43.89
p9
sS'properties'
p10
(dp11
VBrand
p12
VEBK TRADING INC.
p13
ssS'title'
p14
VC22-UX31 Laptop Computer Battery for Asus ZenBook UX31 UX31A UX31E Ultrabook Laptop C23-UX31
p15
sb.