ccopy_reg
_reconstructor
p0
(c__main__
ProductRecord
p1
c__builtin__
object
p2
Ntp3
Rp4
(dp5
S'product_url'
p6
S'http://www.walmart.com/ip/Refurbished-Dell-UltraBook-XPS-12-KTJW6-Intel-Core-i5-1-8GHz-DDR3L-SDRAM-Laptop-Motherboard/846691593'
p7
sS'price'
p8
V$118.74
p9
sS'properties'
p10
(dp11
VBrand
p12
VDell
p13
sVOperating System
p14
VMicrosoft Windows
p15
sVFeatures
p16
VRefurbished, Pre-owned, Tested
p17
sVProcessor Type
p18
VIntel Core i5
p19
sVManufacturer Part Number
p20
VKTJW6TR
p21
ssS'title'
p22
VRefurbished Dell UltraBook XPS 12 KTJW6   Intel Core i5 1.8GHz DDR3L SDRAM  Laptop Motherboard
p23
sb.