ccopy_reg
_reconstructor
p0
(c__main__
ProductRecord
p1
c__builtin__
object
p2
Ntp3
Rp4
(dp5
S'product_url'
p6
S'http://www.walmart.com/ip/Refurbished-HP-EliteBook-Folio-9470m-1-9GHz-i5-8GB-180SSD-Windows-10-Pro-64-Laptop-Camera-B/108510681'
p7
sS'price'
p8
V$208.32
p9
sS'properties'
p10
(dp11
VBrand
p12
VHP
p13
sVModel
p14
VEliteBook Folio 9470m
p15
ssS'title'
p16
VRefurbished HP EliteBook Folio 9470m 1.9GHz i5 8GB 180SSD Windows 10 Pro 64 Laptop Camera B
p17
sb.