ccopy_reg
_reconstructor
p0
(c__main__
ProductRecord
p1
c__builtin__
object
p2
Ntp3
Rp4
(dp5
S'product_url'
p6
S'http://www.walmart.com/ip/HP75V-Dell-XPS-13-9333-Ultrabook-Laptop-Motherboard-8GB-w-Intel-i7-4500U-1-8/152147076'
p7
sS'price'
p8
V$215.00
p9
sS'properties'
p10
(dp11
VBrand
p12
VDell
p13
sVRAM Memory
p14
V8 GB
p15
sVFeatures
p16
VReplacement Part Only. No accessories, cables or manuals are included unless otherwise noted
p17
sVCondition
p18
VGrade A Used Like New. 100% Tested and Working
p19
sVManufacturer Part Number
p20
VHP75V
p21
ssS'title'
p22
VHP75V Dell XPS 13 9333 Ultrabook Laptop Motherboard 8GB w/ Intel i7-4500U 1.8...
p23
sb.