ccopy_reg
_reconstructor
p0
(c__main__
ProductRecord
p1
c__builtin__
object
p2
Ntp3
Rp4
(dp5
S'product_url'
p6
S'http://www.walmart.com/ip/Refurbished-HP-ELITEBOOK-2170P-BUSINESS-ULTRABOOK-I5-3427U-4GB-128GB-SSD-WLAN-802-11A-G-N-BT-WEBCAM-WINDOWS-7P-64-11-6-HD-3-Year-Manufacturers-Warran/773894289'
p7
sS'price'
p8
V$319.97
p9
sS'properties'
p10
(dp11
VOperating System
p12
VMicrosoft Windows
p13
sVBrand
p14
VHP
p15
sVRAM Memory
p16
V4 GB
p17
sVScreen Size
p18
V11.6\u005c"
p19
ssS'title'
p20
VRefurbished HP ELITEBOOK 2170P BUSINESS ULTRABOOK I5-3427U 4GB 128GB/SSD WLAN: 802.11A/G/N+BT WEBCAM WINDOWS 7P-64 11.6" HD 3 Year Manufacturers Warranty
p21
sb.