ccopy_reg
_reconstructor
p0
(c__main__
ProductRecord
p1
c__builtin__
object
p2
Ntp3
Rp4
(dp5
S'product_url'
p6
S'http://www.walmart.com/ip/REFURBISHED-HP-ELITEBOOK-2170P-BUSINESS-ULTRABOOK-I5-3427U-4GB-128GB-SSD-WLAN/153917335'
p7
sS'price'
p8
V$399.21
p9
sS'properties'
p10
(dp11
VBrand
p12
VSony
p13
sVCondition
p14
VRefurbished
p15
ssS'title'
p16
VREFURBISHED - HP ELITEBOOK 2170P BUSINESS ULTRABOOK I5-3427U 4GB 128GB/SSD WLAN:
p17
sb.