ccopy_reg
_reconstructor
p0
(c__main__
ProductRecord
p1
c__builtin__
object
p2
Ntp3
Rp4
(dp5
S'product_url'
p6
S'http://www.walmart.com/ip/Refurbished-14-inch-HP-EliteBook-Folio-9470m-Ultrabook-i5-Processor-16GB-240GB-SSD-Windows-10-Pro/212793295'
p7
sS'price'
p8
V$399.95
p9
sS'properties'
p10
(dp11
VBrand
p12
VDell
p13
ssS'title'
p14
VRefurbished 9D0GY - DELL 9D0GY System Board Core i5 2.3GHz (i5-4300Y) W/CPU XPS 11 Ultrabook
p15
sb.