ccopy_reg
_reconstructor
p0
(c__main__
ProductRecord
p1
c__builtin__
object
p2
Ntp3
Rp4
(dp5
S'product_url'
p6
S'http://www.walmart.com/ip/Refurbished-Panasonic-Toughbook-19-CF-19ADUAG1M-4-GB-Convertible-Notebook-10-inch-Semi-Rugged-Laptop/912539196'
p7
sS'price'
p8
S'N/A'
p9
sS'properties'
p10
(dp11
VOperating System
p12
VMicrosoft Windows
p13
sVBrand
p14
VPanasonic
p15
sVScreen Size
p16
V10
p17
ssS'title'
p18
VRefurbished "Panasonic Toughbook 19 CF-19ADUAG1M 4 GB Convertible Notebook 10-inch Semi-Rugged Laptop"
p19
sb.