ccopy_reg
_reconstructor
p0
(c__main__
ProductRecord
p1
c__builtin__
object
p2
Ntp3
Rp4
(dp5
S'product_url'
p6
S'http://www.walmart.com/ip/Refurbished-Dell-Latitude-E7440-14-1-Full-HD-Touch-Inter-Core-I5-8GB-Ram-256GB-SSD-Windows-10-Silver/718050265'
p7
sS'price'
p8
V$429.00
p9
sS'properties'
p10
(dp11
VRAM Memory
p12
V8 GB
p13
sVOperating System
p14
VWindows 10
p15
sVBrand
p16
VDell
p17
sVHard Drive Capacity
p18
V256 GB
p19
sVProcessor Type
p20
VInter Core, I5
p21
sVScreen Size
p22
V14.1 in
p23
ssS'title'
p24
VRefurbished Dell Latitude E7440 14.1" Full HD Touch Inter Core I5 8GB Ram 256GB SSD Windows 10 Silver
p25
sb.