ccopy_reg
_reconstructor
p0
(c__main__
ProductRecord
p1
c__builtin__
object
p2
Ntp3
Rp4
(dp5
S'product_url'
p6
S'http://www.walmart.com/ip/Refurbished-Toshiba-Portege-Z20t-B2110-12-5-Touchscreen-LCD-2-1-Ultrabook-Intel-Core-M-5Y51-Dual-core-2-Core-1-10-GHz-4-GB-DDR3L-SDRAM-128-GB-SSD-Win/448529757'
p7
sS'price'
p8
V$445.47
p9
sS'properties'
p10
(dp11
sS'title'
p12
VRefurbished Toshiba Portege Z20t-B2110 12.5" Touchscreen LCD 2 in 1 Ultrabook - Intel Core M 5Y51 Dual-core (2 Core) 1.10 GHz - 4 GB DDR3L SDRAM - 128 GB SSD - Windows 7 Professional 64-bit
p13
sb.