ccopy_reg
_reconstructor
p0
(c__main__
ProductRecord
p1
c__builtin__
object
p2
Ntp3
Rp4
(dp5
S'product_url'
p6
S'http://www.walmart.com/ip/REFURBISHED-HP-Folio-13-1020US-13-3-Inch-Ultrabook-Steel-Gray/646022392'
p7
sS'price'
p8
V$449.00
p9
sS'properties'
p10
(dp11
VBrand
p12
VHP
p13
ssS'title'
p14
VRefurbished HP Folio 13-1020US 13.3-Inch Ultrabook (Steel Gray)
p15
sb.