ccopy_reg
_reconstructor
p0
(c__main__
ProductRecord
p1
c__builtin__
object
p2
Ntp3
Rp4
(dp5
S'product_url'
p6
S'http://www.walmart.com/ip/Refurbished-HP-Folio-13-1029WM-13-3-Ultrabook-1-4-GHz-Intel-Core-i3-2367M-Processor-4GB-RAM-128GB-Solid-State-Drive-Windows-7-Home-Premium-64-bit/570995563'
p7
sS'price'
p8
V$469.00
p9
sS'properties'
p10
(dp11
VOperating System
p12
VMicrosoft Windows
p13
sVBrand
p14
VHP
p15
sVRAM Memory
p16
V4 GB
p17
sVScreen Size
p18
V13.3
p19
sVHard Drive Capacity
p20
V128
p21
ssS'title'
p22
VRefurbished HP Folio 13-1029WM 13.3" Ultrabook (1.4 GHz Intel Core i3-2367M Processor, 4GB RAM, 128GB Solid State Drive, Windows 7 Home Premium 64-bit)
p23
sb.