ccopy_reg
_reconstructor
p0
(c__main__
ProductRecord
p1
c__builtin__
object
p2
Ntp3
Rp4
(dp5
S'product_url'
p6
S'http://www.walmart.com/ip/Refurbished-HP-EliteBook-Folio-9470m-E1Y62UT-14-LED-Ultrabook-Intel-Core-i5-3437U-1-9-GHz-4GB-DDR3-256GB-SSD-Intel-HD-Graphics-4000-Windows-7-Profess/862580639'
p7
sS'price'
p8
V$479.97
p9
sS'properties'
p10
(dp11
VBrand
p12
VHP
p13
sVRAM Memory
p14
V4 GB
p15
sVOperating System
p16
VMicrosoft Windows
p17
sVHard Drive Capacity
p18
V256 GB
p19
ssS'title'
p20
VRefurbished HP EliteBook Folio 9470m E1Y62UT 14 LED Ultrabook Intel Core i5-3437U 1.9 GHz 4GB DDR3 256GB SSD Intel HD Graphics 4000 Windows 7 Professional 64-bit Platinum
p21
sb.