ccopy_reg
_reconstructor
p0
(c__main__
ProductRecord
p1
c__builtin__
object
p2
Ntp3
Rp4
(dp5
S'product_url'
p6
S'http://www.walmart.com/ip/Lenovo-ThinkPad-Yoga-11e-11-6-Celeron-N3160-4-GB-RAM-128-GB-SSD/292529030'
p7
sS'price'
p8
S'N/A'
p9
sS'properties'
p10
(dp11
VRAM Memory
p12
V4 Gigabytes
p13
sVOperating System
p14
VWindows 10 Pro (English)
p15
sVBrand
p16
VLenovo
p17
sVProcessor Speed
p18
V0 Gigahertz
p19
sVManufacturer Part Number
p20
V20GAS00T00
p21
sVHard Drive Capacity
p22
V128 Gigabytes
p23
sVBattery Life
p24
V12 Hours
p25
sVAssembled Product Dimensions (L x W x H)
p26
V5.00 x 5.00 x 5.00 Inches
p27
sVModel
p28
V20GAS00T00
p29
sVScreen Size
p30
V11.60 Inches
p31
sVProcessor Type
p32
VIntel Celeron
p33
sVCondition
p34
VNew
p35
ssS'title'
p36
VLenovo ThinkPad Yoga 11e - 11.6" - Celeron N3160 - 4 GB RAM - 128 GB SSD
p37
sb.