ccopy_reg
_reconstructor
p0
(c__main__
ProductRecord
p1
c__builtin__
object
p2
Ntp3
Rp4
(dp5
S'product_url'
p6
S'http://www.walmart.com/ip/Refurbished-HP-EliteBook-Folio-9470m-14-LED-Ultrabook-Intel-Core-i7-i7-3687U-2-1GHz-Platinum-4-GB-RAM-500-GB-HDD-Intel-HD-4000-Windows-7-Professional/778592781'
p7
sS'price'
p8
V$519.21
p9
sS'properties'
p10
(dp11
VOperating System
p12
VMicrosoft Windows
p13
sVBrand
p14
VHP
p15
sVRAM Memory
p16
V4 GB
p17
sVScreen Size
p18
V14
p19
sVHard Drive Capacity
p20
V500
p21
ssS'title'
p22
VRefurbished HP EliteBook Folio 9470m 14" LED Ultrabook - Intel - Core i7 i7-3687U 2.1GHz - Platinum - 4 GB RAM - 500 GB HDD - Intel HD 4000 - Windows 7 Professional 64-bit
p23
sb.