ccopy_reg
_reconstructor
p0
(c__main__
ProductRecord
p1
c__builtin__
object
p2
Ntp3
Rp4
(dp5
S'product_url'
p6
S'http://www.walmart.com/ip/Refurbished-12-inch-Dell-Latitude-E7240-Ultrabook-i7-Processor-8GB-240GB-SSD-Windows-10-Pro/558561732'
p7
sS'price'
p8
V$522.59
p9
sS'properties'
p10
(dp11
VRAM Memory
p12
V8 GB
p13
sVOperating System
p14
VWindows 10
p15
sVBrand
p16
VDell
p17
sVProcessor Speed
p18
V2.6 GHz
p19
sVHard Drive Capacity
p20
V240 GB
p21
sVModel
p22
VE7240
p23
sVScreen Size
p24
V12 in
p25
sVProcessor Type
p26
VIntel Core i7
p27
ssS'title'
p28
VRefurbished 12-inch Dell Latitude E7240 Ultrabook, i7 Processor, 8GB, 240GB SSD, Windows 10 Pro
p29
sb.