ccopy_reg
_reconstructor
p0
(c__main__
ProductRecord
p1
c__builtin__
object
p2
Ntp3
Rp4
(dp5
S'product_url'
p6
S'http://www.walmart.com/ip/Refurbished-HP-Folio-13-2000-13-Inch-LED-Ultrabook-Core-i5-i5-2467M-4G-RAM-128G-SSD-Windows-7-Professional/951970562'
p7
sS'price'
p8
V$549.00
p9
sS'properties'
p10
(dp11
VOperating System
p12
VMicrosoft Windows
p13
sVBrand
p14
VHP
p15
sVScreen Size
p16
V13\u005c"
p17
ssS'title'
p18
VRefurbished HP Folio 13-2000 13-Inch LED Ultrabook - Core i5 i5-2467M 4G RAM 128G SSD Windows 7 Professional
p19
sb.