ccopy_reg
_reconstructor
p0
(c__main__
ProductRecord
p1
c__builtin__
object
p2
Ntp3
Rp4
(dp5
S'product_url'
p6
S'http://www.walmart.com/ip/REFURBISHED-HP-ProBook-440-G2-14-Business-Ultrabook-Intel-Core-i3-4005U-50/903947265'
p7
sS'price'
p8
V$549.95
p9
sS'properties'
p10
(dp11
VBrand
p12
VLenovo
p13
sVScreen Size
p14
V14
p15
sVCondition
p16
VRefurbished
p17
ssS'title'
p18
VREFURBISHED - HP ProBook 440 G2 14" Business Ultrabook: Intel Core i3-4005U | 50
p19
sb.