ccopy_reg
_reconstructor
p0
(c__main__
ProductRecord
p1
c__builtin__
object
p2
Ntp3
Rp4
(dp5
S'product_url'
p6
S'http://www.walmart.com/ip/Dell-Latitude-E7450-26JPN32-Notebook-PC-Intel-Core-i5-5300U-2-3-Refurbished/916102005'
p7
sS'price'
p8
V$555.97
p9
sS'properties'
p10
(dp11
VRAM Memory
p12
V4 GB
p13
sVOperating System
p14
VWindows 8
p15
sVBrand
p16
VDell
p17
sVProcessor Speed
p18
V2.3 GHz
p19
sVHard Drive Capacity
p20
V128 GB
p21
sVModel
p22
VE7450-26JPN32
p23
sVScreen Size
p24
V14 in
p25
sVProcessor Type
p26
VIntel Core i5
p27
ssS'title'
p28
VDell Latitude E7450-26JPN32 Notebook PC - Intel Core i5-5300U 2.3 (Refurbished)
p29
sb.