ccopy_reg
_reconstructor
p0
(c__main__
ProductRecord
p1
c__builtin__
object
p2
Ntp3
Rp4
(dp5
S'product_url'
p6
S'http://www.walmart.com/ip/REFURBISHED-HP-EliteBook-840-G1-14-inch-Ultrabook-1-90GHz-Intel-Core-i5-4300/582018376'
p7
sS'price'
p8
V$649.95
p9
sS'properties'
p10
(dp11
VBrand
p12
VHP
p13
sVScreen Size
p14
V14
p15
sVCondition
p16
VRefurbished
p17
ssS'title'
p18
VREFURBISHED - HP EliteBook 840 G1 14-inch Ultrabook (1.90GHz, Intel Core i5 4300
p19
sb.