ccopy_reg
_reconstructor
p0
(c__main__
ProductRecord
p1
c__builtin__
object
p2
Ntp3
Rp4
(dp5
S'product_url'
p6
S'http://www.walmart.com/ip/REFURBISHED-HP-N4K19US-EliteBook-840-G2-Ultrabook-Core-i3-5010U-2-1-GHz/200372879'
p7
sS'price'
p8
V$649.95
p9
sS'properties'
p10
(dp11
VBrand
p12
Vintel
p13
sVCondition
p14
VRefurbished
p15
ssS'title'
p16
VREFURBISHED - HP N4K19US EliteBook 840 G2 - Ultrabook - Core i3 5010U / 2.1 GHz
p17
sb.