ccopy_reg
_reconstructor
p0
(c__main__
ProductRecord
p1
c__builtin__
object
p2
Ntp3
Rp4
(dp5
S'product_url'
p6
S'http://www.walmart.com/ip/Refurbished-Panasonic-Toughbook-C2-CF-C2CCAZXCM-Convertible-Notebook-12-5-inch-Semi-Rugged-Laptop-with-8-GB-RAM/203194758'
p7
sS'price'
p8
S'N/A'
p9
sS'properties'
p10
(dp11
VOperating System
p12
VMicrosoft Windows
p13
sVBrand
p14
VPanasonic
p15
sVRAM Memory
p16
V8 GB
p17
sVScreen Size
p18
V12.5
p19
sVmanufacturer_part_number
p20
Vcf-c2ccazxcm
p21
ssS'title'
p22
VRefurbished "Panasonic Toughbook C2 CF-C2CCAZXCM Convertible Notebook 12.5-inch Semi-Rugged Laptop with 8 GB RAM"
p23
sb.