ccopy_reg
_reconstructor
p0
(c__main__
ProductRecord
p1
c__builtin__
object
p2
Ntp3
Rp4
(dp5
S'product_url'
p6
S'http://www.walmart.com/ip/Lenovo-Thinkpad-13-13-3-Core-i3-7100U-4-GB-RAM-128-GB-SSD/913121239'
p7
sS'price'
p8
V$658.99
p9
sS'properties'
p10
(dp11
VRAM Memory
p12
V4 Gigabytes
p13
sVOperating System
p14
VWindows 10 Pro (English)
p15
sVVideo Game Platform
p16
VPC
p17
sVBrand
p18
VLenovo
p19
sVProcessor Speed
p20
V2.4 Gigahertz
p21
sVManufacturer Part Number
p22
V20J10006US
p23
sVHard Drive Capacity
p24
V128 Gigabytes
p25
sVAssembled Product Dimensions (L x W x H)
p26
V19.00 x 12.00 x 3.00 Inches
p27
sVModel
p28
V20J10006US
p29
sVScreen Size
p30
V13.30 Inches
p31
sVProcessor Type
p32
VIntel i3-7100U
p33
sVCondition
p34
VNew
p35
ssS'title'
p36
VLenovo Thinkpad 13 - 13.3" - Core i3 7100U - 4 GB RAM - 128 GB SSD
p37
sb.