ccopy_reg
_reconstructor
p0
(c__main__
ProductRecord
p1
c__builtin__
object
p2
Ntp3
Rp4
(dp5
S'product_url'
p6
S'http://www.walmart.com/ip/REFURBISHED-DELL-XPS-13-9333-TOUCH-ULTRABOOK-i7-4500U-8GB-256GB-SSD-13-3-LCD/531583517'
p7
sS'price'
p8
V$699.95
p9
sS'properties'
p10
(dp11
VBrand
p12
VHP
p13
sVHard Drive Capacity
p14
V256
p15
sVCondition
p16
VRefurbished
p17
ssS'title'
p18
VREFURBISHED - DELL XPS 13 9333 TOUCH ULTRABOOK i7-4500U 8GB 256GB SSD 13.3" LCD
p19
sb.