ccopy_reg
_reconstructor
p0
(c__main__
ProductRecord
p1
c__builtin__
object
p2
Ntp3
Rp4
(dp5
S'product_url'
p6
S'http://www.walmart.com/ip/Refurbished-HP-EliteBook-Folio-1040-G1-F2R69UT-14-Ultrabook-Intel-Core-i5-4300U-1-9-GHz-4GB-DDR3-180GB-SSD-Intel-HD-Graphics-4400/751133927'
p7
sS'price'
p8
V$749.00
p9
sS'properties'
p10
(dp11
VBrand
p12
VHP
p13
sVHard Drive Capacity
p14
V180
p15
sVmanufacturer_part_number
p16
Vf2r69ut
p17
ssS'title'
p18
VRefurbished HP EliteBook Folio 1040 G1 F2R69UT 14 Ultrabook Intel Core i5-4300U 1.9 GHz 4GB DDR3 180GB SSD Intel HD Graphics 4400
p19
sb.