ccopy_reg
_reconstructor
p0
(c__main__
ProductRecord
p1
c__builtin__
object
p2
Ntp3
Rp4
(dp5
S'product_url'
p6
S'http://www.walmart.com/ip/REFURBISHED-HP-Spectre-XT-Pro-B8U92UT-13-3-LED-Ultrabook-Intel-Core-i5-i5/546466380'
p7
sS'price'
p8
V$749.00
p9
sS'properties'
p10
(dp11
VBrand
p12
VHP
p13
sVCondition
p14
VRefurbished
p15
sVmanufacturer_part_number
p16
Vb8u92ut
p17
ssS'title'
p18
VREFURBISHED - HP Spectre XT Pro B8U92UT 13.3 LED Ultrabook - Intel - Core i5 i5-
p19
sb.