ccopy_reg
_reconstructor
p0
(c__main__
ProductRecord
p1
c__builtin__
object
p2
Ntp3
Rp4
(dp5
S'product_url'
p6
S'http://www.walmart.com/ip/Refurbished-HP-ENVY-Pro-B8U90UT-14-LED-Ultrabook-Core-i5-i5-3317U-1-7GHz-B8U90UT-ABA/525931849'
p7
sS'price'
p8
V$749.00
p9
sS'properties'
p10
(dp11
VBrand
p12
VHP
p13
sVScreen Size
p14
V14
p15
ssS'title'
p16
VRefurbished HP ENVY Pro B8U90UT 14" LED Ultrabook - Core i5 i5-3317U 1.7GHz (B8U90UT#ABA) -
p17
sb.