ccopy_reg
_reconstructor
p0
(c__main__
ProductRecord
p1
c__builtin__
object
p2
Ntp3
Rp4
(dp5
S'product_url'
p6
S'http://www.walmart.com/ip/Refurbished-HP-J4Q71US-EliteBook-Folio-1040-G1-14-inch-LED-Ultrabook-Intel-Core-i7-i7-4/508805444'
p7
sS'price'
p8
V$749.00
p9
sS'properties'
p10
(dp11
VBrand
p12
VHP
p13
sVCondition
p14
VRefurbished
p15
ssS'title'
p16
VRefurbished HP J4Q71US EliteBook Folio 1040 G1 14 inch LED Ultrabook - Intel Core i7 i7-4...
p17
sb.