ccopy_reg
_reconstructor
p0
(c__main__
ProductRecord
p1
c__builtin__
object
p2
Ntp3
Rp4
(dp5
S'product_url'
p6
S'http://www.walmart.com/ip/Refurbished-HP-EliteBook-Folio-1040-G1-Ultrabook-Core-i5-4300U-1-9-GHz-Windows-8-1-Pro-64-bit-8-GB-RAM-180-GB-SSD/302467965'
p7
sS'price'
p8
V$749.00
p9
sS'properties'
p10
(dp11
VBrand
p12
VHP
p13
ssS'title'
p14
VRefurbished HP EliteBook Folio 1040 G1 - Ultrabook - Core i5 4300U / 1.9 GHz - Windows 8.1 Pro 64-bit - 8 GB RAM - 180 GB SSD
p15
sb.