ccopy_reg
_reconstructor
p0
(c__main__
ProductRecord
p1
c__builtin__
object
p2
Ntp3
Rp4
(dp5
S'product_url'
p6
S'http://www.walmart.com/ip/REFURBISHED-HP-EliteBook-Folio-9470m-Ultrabook-Intel-Core-i5-3427U-1-80-GHz/250158375'
p7
sS'price'
p8
V$749.00
p9
sS'properties'
p10
(dp11
VBrand
p12
VLenovo
p13
ssS'title'
p14
VREFURBISHED - HP EliteBook Folio 9470m Ultrabook Intel Core i5 3427U (1.80 GHz)
p15
sb.