ccopy_reg
_reconstructor
p0
(c__main__
ProductRecord
p1
c__builtin__
object
p2
Ntp3
Rp4
(dp5
S'product_url'
p6
S'http://www.walmart.com/ip/Refurbished-Acer-Aspire-R-14-15-6-Touch-Convertible-Laptop-Intel-i7-Dual-Core-8GB-512GB/978261832'
p7
sS'price'
p8
S'N/A'
p9
sS'properties'
p10
(dp11
VHard Drive Capacity
p12
V512 GB
p13
sVBrand
p14
VAcer
p15
sVRAM Memory
p16
V8 GB
p17
sVModel
p18
VR5-471T-79YN
p19
sVManufacturer Part Number
p20
VR5-471T-79YN-FB-R
p21
ssS'title'
p22
VRefurbished Acer Aspire R 14 15.6" Touch Convertible Laptop Intel i7 Dual Core 8GB 512GB
p23
sb.