ccopy_reg
_reconstructor
p0
(c__main__
ProductRecord
p1
c__builtin__
object
p2
Ntp3
Rp4
(dp5
S'product_url'
p6
S'http://www.walmart.com/ip/REFURBISHED-HP-EliteBook-Folio-9470m-Ultrabook-Intel-Core-i7-3687U-2-10-GHz/883951064'
p7
sS'price'
p8
V$749.95
p9
sS'properties'
p10
(dp11
VBrand
p12
Vintel
p13
sVCondition
p14
VRefurbished
p15
ssS'title'
p16
VREFURBISHED - HP EliteBook Folio 9470m Ultrabook Intel Core i7 3687U (2.10 GHz)
p17
sb.