ccopy_reg
_reconstructor
p0
(c__main__
ProductRecord
p1
c__builtin__
object
p2
Ntp3
Rp4
(dp5
S'product_url'
p6
S'http://www.walmart.com/ip/Fujitsu-LIFEBOOK-T904-13-3-Touchscreen-LCD-2-in-1-Ultrabook-Refurbished/349177364'
p7
sS'price'
p8
V$749.97
p9
sS'properties'
p10
(dp11
VRAM Memory
p12
V8192 Megabyte
p13
sVOperating System
p14
VWindows 7
p15
sVVideo Game Platform
p16
VUnknown
p17
sVBrand
p18
VFujitsu
p19
sVHard Drive Capacity
p20
V500 Gigabytes
p21
sVProcessor Type
p22
VIntel Core i5
p23
sVScreen Size
p24
V13.3 Inches
p25
sVProcessor Speed
p26
V1.6 Gigahertz
p27
ssS'title'
p28
VFujitsu LIFEBOOK T904 13.3" Touchscreen LCD 2 in 1 Ultrabook - (Refurbished)
p29
sb.