ccopy_reg
_reconstructor
p0
(c__main__
ProductRecord
p1
c__builtin__
object
p2
Ntp3
Rp4
(dp5
S'product_url'
p6
S'http://www.walmart.com/ip/Lenovo-ThinkPad-Yoga-11e-11-6-Celeron-N3450-8-GB-RAM-128-GB-SSD/659223915'
p7
sS'price'
p8
S'N/A'
p9
sS'properties'
p10
(dp11
VRAM Memory
p12
V8 GB
p13
sVOperating System
p14
VMicrosoft Windows, Windows 10 Pro (English)
p15
sVBrand
p16
VLenovo
p17
sVProcessor Speed
p18
V1.10 GHz
p19
sVManufacturer Part Number
p20
V20HU0004US
p21
sVAssembled Product Dimensions (L x W x H)
p22
V12.00 x 11.80 x 0.90 Inches
p23
sVModel
p24
V20HU0004US
p25
sVScreen Size
p26
V11.6"
p27
sVProcessor Type
p28
VIntel Celeron
p29
sVCondition
p30
VNew
p31
ssS'title'
p32
VLenovo ThinkPad Yoga 11e - 11.6" - Celeron N3450 - 8 GB RAM - 128 GB SSD
p33
sb.