ccopy_reg
_reconstructor
p0
(c__main__
ProductRecord
p1
c__builtin__
object
p2
Ntp3
Rp4
(dp5
S'product_url'
p6
S'http://www.walmart.com/ip/Lenovo-ThinkPad-T560-20FH001QUS-15-6-Twisted-nematic-TN-Notebook-Intel-Core-i5-6200U-Dual-core-2-Core-2-30-GHz-Black-4-GB-DDR3L-SDRAM-RAM-500-GB-HDD-/196137708'
p7
sS'price'
p8
V$849.99
p9
sS'properties'
p10
(dp11
VRAM Memory
p12
V4 GB
p13
sVOperating System
p14
VMicrosoft Windows
p15
sVBrand
p16
VLenovo
p17
sVHard Drive Capacity
p18
V500
p19
sVModel
p20
V20FH001QUS
p21
sVScreen Size
p22
V15.6
p23
sVCondition
p24
VNew
p25
sVmanufacturer_part_number
p26
V20FH001QUS
p27
ssS'title'
p28
VLenovo ThinkPad T560 20FH001QUS 15.6" (Twisted nematic (TN)) Notebook - Intel Core i5-6200U Dual-core (2 Core) 2.30 GHz - Black - 4 GB DDR3L SDRAM RAM - 500 GB HDD - Intel HD Graphics 520 DDR3L SDRAM
p29
sb.