ccopy_reg
_reconstructor
p0
(c__main__
ProductRecord
p1
c__builtin__
object
p2
Ntp3
Rp4
(dp5
S'product_url'
p6
S'http://www.walmart.com/ip/Lenovo-Thinkpad-13-Chromebook-13-3-Core-i5-6300U-8-GB-RAM-32-GB-SSD/963596976'
p7
sS'price'
p8
V$856.77
p9
sS'properties'
p10
(dp11
VRAM Memory
p12
V8 GB
p13
sVOperating System
p14
VChrome OS
p15
sVBrand
p16
VLenovo
p17
sVProcessor Speed
p18
V2.40 GHz
p19
sVManufacturer Part Number
p20
V20GL0005US
p21
sVAssembled Product Dimensions (L x W x H)
p22
V12.00 x 19.00 x 3.00 Inches
p23
sVModel
p24
V13
p25
sVScreen Size
p26
V13.3"
p27
sVProcessor Type
p28
VIntel Core i5
p29
sVCondition
p30
VNew
p31
ssS'title'
p32
VLenovo Thinkpad 13 Chromebook - 13.3" - Core i5 6300U - 8 GB RAM - 32 GB SSD
p33
sb.