ccopy_reg
_reconstructor
p0
(c__main__
ProductRecord
p1
c__builtin__
object
p2
Ntp3
Rp4
(dp5
S'product_url'
p6
S'http://www.walmart.com/ip/Acer-TravelMate-P645-S-59AG-14-Core-i5-5300U-8-GB-RAM-256-GB-SSD/45750501'
p7
sS'price'
p8
V$876.98
p9
sS'properties'
p10
(dp11
VRAM Memory
p12
V8 GB
p13
sVOperating System
p14
VMicrosoft Windows
p15
sVVideo Game Platform
p16
VPC
p17
sVBrand
p18
VAcer
p19
sVManufacturer Part Number
p20
VNX.VATAA.005
p21
sVHard Drive Capacity
p22
V256 Gigabytes
p23
sVAssembled Product Dimensions (L x W x H)
p24
V19.00 x 12.90 x 0.80 Inches
p25
sVModel
p26
VNX.VATAA.005
p27
sVScreen Size
p28
V14.00 in
p29
sVCondition
p30
VNew
p31
ssS'title'
p32
VAcer TravelMate P645-S-59AG - 14" - Core i5 5300U - 8 GB RAM - 256 GB SSD
p33
sb.