ccopy_reg
_reconstructor
p0
(c__main__
ProductRecord
p1
c__builtin__
object
p2
Ntp3
Rp4
(dp5
S'product_url'
p6
S'http://www.walmart.com/ip/REFURBISHED-HP-K4Q46US-EliteBook-Folio-9480m-14-inch-LED-Ultrabook-Intel-Cor/627839336'
p7
sS'price'
p8
V$899.00
p9
sS'properties'
p10
(dp11
VBrand
p12
VLenovo
p13
sVCondition
p14
VRefurbished
p15
ssS'title'
p16
VREFURBISHED - HP K4Q46US EliteBook Folio 9480m 14 inch LED Ultrabook - Intel Cor
p17
sb.