ccopy_reg
_reconstructor
p0
(c__main__
ProductRecord
p1
c__builtin__
object
p2
Ntp3
Rp4
(dp5
S'product_url'
p6
S'http://www.walmart.com/ip/Refurbished-NEW-HP-EliteBook-850-Premium-Ultrabook-Core-i7-4600U-Processor-15-6-Full-HD-Display/405547220'
p7
sS'price'
p8
V$899.00
p9
sS'properties'
p10
(dp11
VBrand
p12
VHP
p13
sVScreen Size
p14
V15.6
p15
ssS'title'
p16
VRefurbished NEW! HP EliteBook 850 Premium Ultrabook - Core i7-4600U Processor, 15.6" Full HD Display
p17
sb.