ccopy_reg
_reconstructor
p0
(c__main__
ProductRecord
p1
c__builtin__
object
p2
Ntp3
Rp4
(dp5
S'product_url'
p6
S'http://www.walmart.com/ip/REFURBISHED-HP-K4Q46US-EliteBook-Folio-9480m-14-inch-LED-Ultrabook-Intel-Core-i5-i5-4310U-2-GHz-Platinum-8-GB-RAM-256-GB-SSD/399332047'
p7
sS'price'
p8
V$899.00
p9
sS'properties'
p10
(dp11
VBrand
p12
VHP
p13
sVRAM Memory
p14
V8 GB
p15
sVOperating System
p16
VMicrosoft Windows
p17
ssS'title'
p18
VREFURBISHED HP K4Q46US EliteBook Folio 9480m 14 inch LED Ultrabook - Intel Core i5 i5-4310U 2 GHz - Platinum - 8 GB RAM - 256 GB SSD
p19
sb.