ccopy_reg
_reconstructor
p0
(c__main__
ProductRecord
p1
c__builtin__
object
p2
Ntp3
Rp4
(dp5
S'product_url'
p6
S'http://www.walmart.com/ip/REFURBISHED-HP-EliteBook-Folio-1040-G1-F2R72UT-14-Ultrabook-Intel-Core-i7-4650U-1-7-GHz-8GB-DDR3-256GB-SSD-Windows-7-Professional-64-bit/256570291'
p7
sS'price'
p8
V$899.00
p9
sS'properties'
p10
(dp11
VBrand
p12
VHP
p13
sVRAM Memory
p14
V8 GB
p15
sVOperating System
p16
VMicrosoft Windows
p17
sVHard Drive Capacity
p18
V256 GB
p19
ssS'title'
p20
VREFURBISHED HP EliteBook Folio 1040 G1 F2R72UT 14 Ultrabook Intel Core i7-4650U 1.7 GHz 8GB DDR3 256GB SSD Windows 7 Professional 64-bit
p21
sb.