ccopy_reg
_reconstructor
p0
(c__main__
ProductRecord
p1
c__builtin__
object
p2
Ntp3
Rp4
(dp5
S'product_url'
p6
S'http://www.walmart.com/ip/REFURBISHED-HP-EliteBook-Folio-9480m-14-LED-Ultrabook-Intel-Core-i5-4310U-2GHz-Platinum-J5P79UT-ABA/608258999'
p7
sS'price'
p8
V$899.95
p9
sS'properties'
p10
(dp11
VOperating System
p12
VMicrosoft Windows
p13
sVBrand
p14
VHP
p15
sVScreen Size
p16
V14
p17
ssS'title'
p18
VREFURBISHED HP EliteBook Folio 9480m 14" LED Ultrabook Intel Core i5-4310U 2GHz Platinum J5P79UT#ABA
p19
sb.