ccopy_reg
_reconstructor
p0
(c__main__
ProductRecord
p1
c__builtin__
object
p2
Ntp3
Rp4
(dp5
S'product_url'
p6
S'http://www.walmart.com/ip/Refurbished-HP-EliteBook-Folio-G1-W0S06UT-35-ABA-Ultrabook-Intel-Core-M5-6Y54-1-10-GHz-256-GB-SSD-Intel-HD-Graphics-515/521738575'
p7
sS'price'
p8
V$899.95
p9
sS'properties'
p10
(dp11
VBrand
p12
VHP
p13
ssS'title'
p14
VRefurbished HP EliteBook Folio G1 (W0S06UT#35;ABA) Ultrabook Intel Core M5 6Y54 (1.10 GHz) 256 GB SSD Intel HD Graphics 515
p15
sb.