ccopy_reg
_reconstructor
p0
(c__main__
ProductRecord
p1
c__builtin__
object
p2
Ntp3
Rp4
(dp5
S'product_url'
p6
S'http://www.walmart.com/ip/Dell-Latitude-E7470-Intel-Core-i5-6300U-X2-2-4GHz-8GB-256GB-SSD-14-Black-Certified-Refurbished/134352877'
p7
sS'price'
p8
V$949.77
p9
sS'properties'
p10
(dp11
VRAM Memory
p12
V8 Gigabytes
p13
sVOperating System
p14
VMicrosoft Windows 10Professional
p15
sVFeatures
p16
V4-cell Lithium-Ion Battery, 10/100/1000 Gigabit Ethernet, 802.11AACBGN and Bluetooth 4.1, Microsoft Windows 10 Professional Operating System, 1MP Webcam and Integrated Microphone, This Certified Refurbished product is tested and certified to look and work like new. The refurbishing process includes functionality testing, basic cleaning, inspection, and repackaging. The product ships with all relevant accessories, a minimum 90-day warranty, and may arrive in a generic box., 14-inch (2560 x 1440) LCD Display, Energy Star Compliant, Silver EPEAT, Standard Keyboard and Touchpad, 3 x USB 3.0, 1 x HDMI, 0.8" x 13.3" x 9.1" (HxWxD); 3.4lbs, 8GB DDR3 System Memory, Intel Core i5-6300U Processor (Dual-Core, 2.4GHz, 3MB Cache), Integrated Intel HD Graphics, 256GB Solid State Drive (SSD)
p17
sVBrand
p18
VDell
p19
sVManufacturer Part Number
p20
V1468890646-RFB
p21
sVMaximum RAM Supported
p22
V16 Gigabytes
p23
sVHard Drive Capacity
p24
V256 Gigabytes
p25
sVBattery Life
p26
V8 Hours
p27
sVAssembled Product Dimensions (L x W x H)
p28
V13.30 x 9.10 x 0.80 Inches
p29
sVProcessor Type
p30
VIntel Core i5
p31
sVScreen Size
p32
V14 Inches
p33
sVProcessor Speed
p34
V2.4 Gigahertz
p35
ssS'title'
p36
VDell Latitude E7470 Intel Core i5-6300U X2 2.4GHz 8GB 256GB SSD 14", Black (Certified Refurbished)
p37
sb.