ccopy_reg
_reconstructor
p0
(c__main__
ProductRecord
p1
c__builtin__
object
p2
Ntp3
Rp4
(dp5
S'product_url'
p6
S'http://www.walmart.com/ip/Refurbished-Hp-Elitebook-850-G1-Ultrabook-Core-I5-4210U-1-7-Ghz-Windows-7-Pro-64/576426757'
p7
sS'price'
p8
V$999.00
p9
sS'properties'
p10
(dp11
VBrand
p12
VHP
p13
sVProcessor Speed
p14
V1
p15
ssS'title'
p16
VRefurbished Hp Elitebook 850 G1 - Ultrabook - Core I5 4210U / 1.7 Ghz - Windows 7 Pro 64-...
p17
sb.