ccopy_reg
_reconstructor
p0
(c__main__
ProductRecord
p1
c__builtin__
object
p2
Ntp3
Rp4
(dp5
S'product_url'
p6
S'http://www.walmart.com/ip/Refurbished-HP-EliteBook-Folio-G1-W0R84UT-35-ABA-Ultrabook-Intel-Core-M7-6Y75-1-20-GHz-256-GB-SSD/490423250'
p7
sS'price'
p8
S'N/A'
p9
sS'properties'
p10
(dp11
sS'title'
p12
S'Missing'
p13
sb.