ccopy_reg
_reconstructor
p0
(c__main__
ProductRecord
p1
c__builtin__
object
p2
Ntp3
Rp4
(dp5
S'product_url'
p6
S'http://www.walmart.com/ip/Lenovo-ThinkPad-X260-20F6005GUS-Notebook-PC-Intel-Core-i5-6300U-Refurbished/102181367'
p7
sS'price'
p8
V$1,023.97
p9
sS'properties'
p10
(dp11
VRAM Memory
p12
V8 GB
p13
sVOperating System
p14
VWindows 7
p15
sVBrand
p16
VLenovo
p17
sVProcessor Speed
p18
V2.4 GHz
p19
sVHard Drive Capacity
p20
V256 GB
p21
sVModel
p22
V20F6005GUS
p23
sVScreen Size
p24
V12.5 in
p25
sVProcessor Type
p26
VIntel Core i5
p27
sVmanufacturer_part_number
p28
V20f6005gus
p29
ssS'title'
p30
VLenovo ThinkPad X260 20F6005GUS Notebook PC - Intel Core i5-6300U (Refurbished)
p31
sb.