ccopy_reg
_reconstructor
p0
(c__main__
ProductRecord
p1
c__builtin__
object
p2
Ntp3
Rp4
(dp5
S'product_url'
p6
S'http://www.walmart.com/ip/Dell-Latitude-12-7000-7280-12-5-LCD-Ultrabook-Intel-Core-i7-Refurbished/228308531'
p7
sS'price'
p8
V$1,119.97
p9
sS'properties'
p10
(dp11
VRAM Memory
p12
V8 GB
p13
sVOperating System
p14
VWindows 10 Professional 64-bit Edition
p15
sVBrand
p16
VDell
p17
sVProcessor Speed
p18
V2.8 GHz
p19
sVHard Drive Capacity
p20
V256 GB
p21
sVModel
p22
V8HRPD
p23
sVScreen Size
p24
V12.5 in
p25
sVProcessor Type
p26
VIntel Core i7
p27
ssS'title'
p28
VDell Latitude 12 7000 7280 12.5" LCD Ultrabook - Intel Core i7 (Refurbished)
p29
sb.