ccopy_reg
_reconstructor
p0
(c__main__
ProductRecord
p1
c__builtin__
object
p2
Ntp3
Rp4
(dp5
S'product_url'
p6
S'http://www.walmart.com/ip/Refurbished-HP-EliteBook-Folio-G1-12-5-Touchscreen-Ultrabook-Intel-Core-M-6th-Gen-m7-6Y75-Dual-core-2-Core-1-20-GHz-8-GB-LPDDR3-240-GB-SSD-Windows-10/440215226'
p7
sS'price'
p8
V$1,166.19
p9
sS'properties'
p10
(dp11
sS'title'
p12
VRefurbished HP EliteBook Folio G1 12.5" Touchscreen Ultrabook - Intel Core M (6th Gen) m7-6Y75 Dual-core (2 Core) 1.20 GHz - 8 GB LPDDR3 - 240 GB SSD - Windows 10 Pro 64-bit - 1920 x 1080 - Intel
p13
sb.