ccopy_reg
_reconstructor
p0
(c__main__
ProductRecord
p1
c__builtin__
object
p2
Ntp3
Rp4
(dp5
S'product_url'
p6
S'http://www.walmart.com/ip/Refurbished-Dell-Latitude-12-E7270-Business-Ultrabook-12-5-1366x768-Intel-Core-i5-6300U-256GB-SSD-8GB-DDR4-Windows-10-Pro/251965331'
p7
sS'price'
p8
V$1,179.93
p9
sS'properties'
p10
(dp11
VRAM Memory
p12
V16 GB
p13
sVOperating System
p14
VMicrosoft Windows
p15
sVBrand
p16
VDell
p17
sVMaximum RAM Supported
p18
V32 MB
p19
sVHard Drive Capacity
p20
V256 GB
p21
sVScreen Size
p22
V12.5\u005c"
p23
ssS'title'
p24
VRefurbished Dell Latitude 12 E7270 Business Ultrabook: 12.5" (1366x768), Intel Core i5-6300U, 256GB SSD, 8GB DDR4, Windows 10 Pro
p25
sb.