ccopy_reg
_reconstructor
p0
(c__main__
ProductRecord
p1
c__builtin__
object
p2
Ntp3
Rp4
(dp5
S'product_url'
p6
S'http://www.walmart.com/ip/Lenovo-ThinkPad-X250-20CM0033US-12-5-LED-Ultrabook-Intel-Core-i5-i5-5300U-2-30-GHz-Black/44803268'
p7
sS'price'
p8
V$1,189.88
p9
sS'properties'
p10
(dp11
VRAM Memory
p12
V8
p13
sVOperating System
p14
VWindows 7
p15
sVBrand
p16
VLenovo
p17
sVProcessor Speed
p18
V2.3
p19
sVMaximum RAM Supported
p20
V8
p21
sVHard Drive Capacity
p22
V180
p23
sVAssembled Product Dimensions (L x W x H)
p24
V40.64 x 31.50 x 9.40 Centimeters
p25
sVModel
p26
VTemp Model
p27
sVScreen Size
p28
V12.50
p29
sVProcessor Type
p30
VIntel Core i5
p31
sVCondition
p32
VNew
p33
sVmanufacturer_part_number
p34
V20CM0033US
p35
ssS'title'
p36
VLenovo ThinkPad X250 20CM0033US 12.5" LED Ultrabook - Intel Core i5 i5-5300U 2.30 GHz - Black
p37
sb.