ccopy_reg
_reconstructor
p0
(c__main__
ProductRecord
p1
c__builtin__
object
p2
Ntp3
Rp4
(dp5
S'product_url'
p6
S'http://www.walmart.com/ip/Refurbished-HP-F1T14US-EliteBook-Revolve-810-G1-Tablet-PC-11-6-inch-Wireless-LAN-Intel-Core-i7-i7-3687U-2-10-GHz-12-GB-RAM/128698791'
p7
sS'price'
p8
S'N/A'
p9
sS'properties'
p10
(dp11
VBrand
p12
VHP
p13
sVmanufacturer_part_number
p14
Vf1t14us
p15
ssS'title'
p16
VRefurbished HP F1T14US EliteBook Revolve 810 G1 Tablet PC - 11.6 inch - Wireless LAN - Intel Core i7 i7-3687U 2.10 GHz - 12 GB RAM -
p17
sb.