ccopy_reg
_reconstructor
p0
(c__main__
ProductRecord
p1
c__builtin__
object
p2
Ntp3
Rp4
(dp5
S'product_url'
p6
S'http://www.walmart.com/ip/Refurbished-Lenovo-ThinkPad-X1-Carbon-5th-Gen-20HR000WUS-14-LCD-Ultrabook-Intel-Core-i5-7th-Gen-i5-7200U-Dual-core-2-Core-2-50-GHz-8-GB-LPDDR3-256-GB/710654759'
p7
sS'price'
p8
V$1,023.63
p9
sS'properties'
p10
(dp11
sS'title'
p12
VRefurbished Lenovo ThinkPad X1 Carbon 5th Gen 20HR000WUS 14" LCD Ultrabook - Intel Core i5 (7th Gen) i5-7200U Dual-core (2 Core) 2.50 GHz - 8 GB LPDDR3 - 256 GB SSD - Windows 10 Pro 64-bit
p13
sb.