ccopy_reg
_reconstructor
p0
(c__main__
ProductRecord
p1
c__builtin__
object
p2
Ntp3
Rp4
(dp5
S'product_url'
p6
S'http://www.walmart.com/ip/Refurbished-Lenovo-ThinkPad-T460s-20FAS0V000-Ultrabook-PC-Intel-Core-i5-6500U-2-3-GHz-Dual-Core-Processor-8-GB-DDR4-SDRAM-512-GB-Solid-State-Drive-14/393020595'
p7
sS'price'
p8
V$1,246.38
p9
sS'properties'
p10
(dp11
sS'title'
p12
VRefurbished Lenovo ThinkPad T460s 20FAS0V000 Ultrabook PC - Intel Core i5-6500U 2.3 GHz Dual-Core Processor - 8 GB DDR4 SDRAM - 512 GB Solid State Drive - 14-inch Display - Windows 10 Professional
p13
sb.