ccopy_reg
_reconstructor
p0
(c__main__
ProductRecord
p1
c__builtin__
object
p2
Ntp3
Rp4
(dp5
S'product_url'
p6
S'http://www.walmart.com/ip/ASUS-ZenBook-UX430UA-DH74-Thin-light-Ultrabook-14-FHD-Laptop-PC-Intel-8th-Gen-i7-Quad-Core-16GB-RAM-512GB-SSD-14-inch-Full-HD-1920-x-1080-Display-WiF/552222134'
p7
sS'price'
p8
V$1,249.00
p9
sS'properties'
p10
(dp11
VRAM Memory
p12
V16 GB
p13
sVOperating System
p14
VMicrosoft Windows
p15
sVBrand
p16
VMichaelElectronics2
p17
sVManufacturer Part Number
p18
VASU-14-07054-FHD-ME3
p19
sVHard Drive Capacity
p20
V512 GB
p21
sVProcessor Type
p22
V8th-Generation Intel Core i7-8550U
p23
sVScreen Size
p24
V14 in
p25
sVProcessor Speed
p26
V1.8 GHz
p27
sVCondition
p28
VNew
p29
ssS'title'
p30
VASUS ZenBook UX430UA-DH74 Thin and light Ultrabook 14" FHD Laptop PC (Intel 8th Gen i7 Quad Core, 16GB RAM, 512GB SSD, 14 inch Full HD 1920 x 1080 Display, WiFi, Bluetooth, Win 10 Pro) Quartz Grey
p31
sb.