ccopy_reg
_reconstructor
p0
(c__main__
ProductRecord
p1
c__builtin__
object
p2
Ntp3
Rp4
(dp5
S'product_url'
p6
S'http://www.walmart.com/ip/Lenovo-ThinkPad-X1-Yoga-Multimode-Ultrabook-Windows-10-Pro-Intel-i5-6200U-128GB-SSD-8GB-RAM-14-FHD-IPS-1920x1080-Touchscreen-Pen-Input-Fingerprint-Re/768214233'
p7
sS'price'
p8
V$1,299.33
p9
sS'properties'
p10
(dp11
VRAM Memory
p12
V8 Gigabytes
p13
sVOperating System
p14
VWindows 10
p15
sVBrand
p16
VLenovo
p17
sVProcessor Speed
p18
V2.8 Gigahertz
p19
sVHard Drive Capacity
p20
V128 Gigabytes
p21
sVModel
p22
V20FQ
p23
sVScreen Size
p24
V14 Inches
p25
sVProcessor Type
p26
Vcore_i5
p27
sVCondition
p28
VNew
p29
ssS'title'
p30
VLenovo ThinkPad X1 Yoga Multimode Ultrabook - Windows 10 Pro - Intel i5-6200U, 128GB SSD, 8GB RAM, 14" FHD IPS (1920x1080) Touchscreen, Pen Input, Fingerprint Reader, Thin & Light
p31
sb.