ccopy_reg
_reconstructor
p0
(c__main__
ProductRecord
p1
c__builtin__
object
p2
Ntp3
Rp4
(dp5
S'product_url'
p6
S'http://www.walmart.com/ip/Lenovo-NoteBook-20HB001RUS-ThinkPad-P51s-15-6-inch-Core-i5-7300U-8GB-500GB-SSD-Windows-10-Pro-64-Retail/921868357'
p7
sS'price'
p8
V$1,307.94
p9
sS'properties'
p10
(dp11
VRAM Memory
p12
V8 Gigabytes
p13
sVOperating System
p14
VWindows 10 Pro (English)
p15
sVVideo Game Platform
p16
VPC
p17
sVBrand
p18
VLenovo
p19
sVProcessor Speed
p20
V2.6 Gigahertz
p21
sVManufacturer Part Number
p22
V20HB001RUS
p23
sVHard Drive Capacity
p24
V500 Gigabytes
p25
sVModel
p26
V20HB001RUS
p27
sVScreen Size
p28
V15.60 Inches
p29
sVProcessor Type
p30
VIntel i5-7300U
p31
sVCondition
p32
VNew
p33
ssS'title'
p34
VLenovo NoteBook 20HB001RUS ThinkPad P51s 15.6 inch Core i5-7300U 8GB 500GB SSD Windows 10 Pro 64 Retail
p35
sb.