ccopy_reg
_reconstructor
p0
(c__main__
ProductRecord
p1
c__builtin__
object
p2
Ntp3
Rp4
(dp5
S'product_url'
p6
S'http://www.walmart.com/ip/Asus-ASUSPRO-B9440UA-XS51-14-0-inch-Intel-Core-i5-7200U-2-5GHz-8GB-LPDDR3-512GB-SSD-USB3-1-Windows-10-Professional-Ultrabook-Gray/523971606'
p7
sS'price'
p8
V$1,310.88
p9
sS'properties'
p10
(dp11
VBrand
p12
VASUS
p13
sVRAM Memory
p14
V8 GB
p15
sVOperating System
p16
VMicrosoft Windows
p17
sVCondition
p18
VNew
p19
ssS'title'
p20
VAsus ASUSPRO B9440UA-XS51 14.0 inch Intel Core i5-7200U 2.5GHz/ 8GB LPDDR3/ 512GB SSD/ USB3.1/ Windows 10 Professional Ultrabook (Gray)
p21
sb.