ccopy_reg
_reconstructor
p0
(c__main__
ProductRecord
p1
c__builtin__
object
p2
Ntp3
Rp4
(dp5
S'product_url'
p6
S'http://www.walmart.com/ip/REFURBISHED-Hp-Elitebook-Revolve-810-G2-Tablet-Convertible-Core-I5-4310U-1-9-Ghz-Windows-7-Pro-64-Bit/442162670'
p7
sS'price'
p8
S'N/A'
p9
sS'properties'
p10
(dp11
VBrand
p12
VHP
p13
sVOperating System
p14
VMicrosoft Windows
p15
sVProcessor Speed
p16
V1 Ghz
p17
ssS'title'
p18
VREFURBISHED Hp, Elitebook Revolve 810 G2 Tablet Convertible Core I5 4310U / 1.9 Ghz Windows 7 Pro 64-Bit /
p19
sb.