ccopy_reg
_reconstructor
p0
(c__main__
ProductRecord
p1
c__builtin__
object
p2
Ntp3
Rp4
(dp5
S'product_url'
p6
S'http://www.walmart.com/ip/ASUS-ZenBook-UX430UA-DH74-Thin-light-Ultrabook-14-FHD-Laptop-PC-Intel-8th-Gen-i7-Quad-Core-16GB-RAM-1TB-SSD-14-inch-Full-HD-1920-x-1080-Display-WiFi-/770909284'
p7
sS'price'
p8
V$1,418.00
p9
sS'properties'
p10
(dp11
VBrand
p12
VASUS
p13
sVOperating System
p14
VMicrosoft Windows
p15
sVHard Drive Capacity
p16
V1000 GB
p17
sVmanufacturer_part_number
p18
Vgl503vd-db71
p19
ssS'title'
p20
VAsus ROG GL503VD-DB71 15.6 inch Intel Core i7-7700HQ 2.8GHz/ 16GB DDR4/ 1TB HDD/ GTX 1050/ USB3.1/ Windows 10 Ultrabook (ROG Metallic Black)
p21
sb.