ccopy_reg
_reconstructor
p0
(c__main__
ProductRecord
p1
c__builtin__
object
p2
Ntp3
Rp4
(dp5
S'product_url'
p6
S'http://www.walmart.com/ip/Dell-Latitude-E7270-12-5-Core-i7-6600U-8-GB-RAM-256-GB-SSD-English/158439521'
p7
sS'price'
p8
V$1,472.75
p9
sS'properties'
p10
(dp11
VRAM Memory
p12
V8 Gigabytes
p13
sVOperating System
p14
VWindows 7
p15
sVVideo Game Platform
p16
VPC
p17
sVBrand
p18
VDell
p19
sVProcessor Speed
p20
V2.6
p21
sVManufacturer Part Number
p22
VNY4PC
p23
sVMaximum RAM Supported
p24
V16 GB
p25
sVHard Drive Capacity
p26
V256
p27
sVAssembled Product Dimensions (L x W x H)
p28
V5.00 x 5.00 x 5.00 Inches
p29
sVModel
p30
VNY4PC
p31
sVScreen Size
p32
V12.50
p33
sVProcessor Type
p34
VIntel i7-6600U
p35
sVCondition
p36
VNew
p37
ssS'title'
p38
VDell Latitude E7270 - 12.5" - Core i7 6600U - 8 GB RAM - 256 GB SSD - English
p39
sb.