ccopy_reg
_reconstructor
p0
(c__main__
ProductRecord
p1
c__builtin__
object
p2
Ntp3
Rp4
(dp5
S'product_url'
p6
S'http://www.walmart.com/ip/Lenovo-ThinkPad-X260-12-5-Core-i5-6300U-8-GB-RAM-256-GB-SSD/156005739'
p7
sS'price'
p8
V$1,691.77
p9
sS'properties'
p10
(dp11
VRAM Memory
p12
V8 GB
p13
sVOperating System
p14
VMicrosoft Windows
p15
sVBrand
p16
VLenovo
p17
sVProcessor Speed
p18
V2.40 GHz
p19
sVManufacturer Part Number
p20
V20F6009BUS
p21
sVHard Drive Capacity
p22
V256 GB
p23
sVAssembled Product Dimensions (L x W x H)
p24
V5.00 x 5.00 x 5.00 Inches
p25
sVModel
p26
V20F6009BUS
p27
sVScreen Size
p28
V12.5"
p29
sVProcessor Type
p30
VIntel Core i5
p31
sVCondition
p32
VNew
p33
ssS'title'
p34
VLenovo ThinkPad X260 - 12.5" - Core i5 6300U - 8 GB RAM - 256 GB SSD
p35
sb.