ccopy_reg
_reconstructor
p0
(c__main__
ProductRecord
p1
c__builtin__
object
p2
Ntp3
Rp4
(dp5
S'product_url'
p6
S'http://www.walmart.com/ip/HP-EliteBook-1040-G3-14-Core-i7-6500U-8-GB-RAM-256-GB-SSD-with-HP-Dock-Connector-to-Ethernet-VGA-Adapter/166137558'
p7
sS'price'
p8
V$1,509.15
p9
sS'properties'
p10
(dp11
VRAM Memory
p12
V8 Gigabytes
p13
sVOperating System
p14
VWindows 10
p15
sVFeatures
p16
VI7-6500U 2.5G 8GB 256GB SSD W10P
p17
sVVideo Game Platform
p18
VPC
p19
sVBrand
p20
VHP
p21
sVProcessor Speed
p22
V2.5 Gigahertz
p23
sVManufacturer Part Number
p24
VZ2A38UT#ABA
p25
sVHard Drive Capacity
p26
V256 Gigabytes
p27
sVBattery Life
p28
V12 Hours
p29
sVAssembled Product Dimensions (L x W x H)
p30
V5.00 x 5.00 x 5.00 Inches
p31
sVModel
p32
VZ2A38UT#ABA
p33
sVScreen Size
p34
V14.00 in
p35
sVProcessor Type
p36
VIntel i7-6500U
p37
sVCondition
p38
VNew
p39
ssS'title'
p40
VHP EliteBook 1040 G3 - 14" - Core i7 6500U - 8 GB RAM - 256 GB SSD - with HP Dock Connector to Ethernet/VGA Adapter
p41
sb.