ccopy_reg
_reconstructor
p0
(c__main__
ProductRecord
p1
c__builtin__
object
p2
Ntp3
Rp4
(dp5
S'product_url'
p6
S'http://www.walmart.com/ip/HP-ZBook-15U-G4-Premium-Ultrabook-Mobile-WorkStation-15-6-inch-Full-HD-Touchscreen-Intel-i7-Processor-15-6-inch-FHD-1920x1080-Touch-8GB-RAM-500GB-HDD/470131328'
p7
sS'price'
p8
V$1,521.45
p9
sS'properties'
p10
(dp11
VRAM Memory
p12
V8 GB
p13
sVOperating System
p14
VMicrosoft Windows
p15
sVBrand
p16
VMichaelElectronics2
p17
sVManufacturer Part Number
p18
VHP-15-02354-G4-ME1
p19
sVHard Drive Capacity
p20
V500 GB
p21
sVProcessor Type
p22
VIntel Core i7
p23
sVScreen Size
p24
V15.6 in
p25
sVProcessor Speed
p26
V2.7 GHz
p27
ssS'title'
p28
VHP ZBook 15U G4 Premium Ultrabook Mobile WorkStation with 15.6 inch Full HD Touchscreen (Intel i7 Processor, 15.6 inch FHD (1920x1080) Touch, 8GB RAM, 500GB HDD, Win 10 Pro)
p29
sb.