ccopy_reg
_reconstructor
p0
(c__main__
ProductRecord
p1
c__builtin__
object
p2
Ntp3
Rp4
(dp5
S'product_url'
p6
S'http://www.walmart.com/ip/Lenovo-ThinkPad-P51s-15-6-FHD-Touchscreen-Laptop-i7-7500U-16GB-500GB-Win10-Pro/805829766'
p7
sS'price'
p8
V$1,526.99
p9
sS'properties'
p10
(dp11
VRAM Memory
p12
V16 Gigabytes
p13
sVOperating System
p14
VWindows 10 Pro (English)
p15
sVFeatures
p16
VVivid visualsBuilt for businessConnect with speed, Vivid visualsWith its sophisticated architecture and plenty of VRAM, the GPU has the perfect balance of power and battery life - enabling you to be in the field and still get your work done. Get premium visual experience with sharp, crisp visuals and extra-bright display with anti-glare technology and in-plane switching for almost 180 wide-angle viewing.Built for businessThinkPad P51s comes with a number of security, manageability, and productivity-enhancing features. It boasts a fingerprint reader and renowned ergonomic ThinkPad keyboard. Use the backlight for working in low-light conditions. And with its epic battery life, you've eliminated the worry of having to plug in at every stop on your business trip.Connect with speedMove data between the P51s and your other devices quickly with USB 3.1 Intel Thunderbolt 3 - simultaneously supporting high-resolution displays and high-performance data devices through a single, compact port., Lenovo ThinkPad P51s 20HBPower adapter
p17
sVBrand
p18
VLenovo
p19
sVProcessor Speed
p20
V2.7 Gigahertz
p21
sVHard Drive Capacity
p22
V500 Gigabytes
p23
sVBattery Life
p24
V0 h
p25
sVModel
p26
V20HB001PUS
p27
sVScreen Size
p28
V15.60 Inches
p29
sVProcessor Type
p30
VIntel i7-7500U
p31
sVCondition
p32
VNew
p33
sVmanufacturer_part_number
p34
V20hb001pus
p35
ssS'title'
p36
VLenovo ThinkPad P51s 15.6" FHD Touchscreen Laptop i7-7500U 16GB 500GB Win10 Pro
p37
sb.