ccopy_reg
_reconstructor
p0
(c__main__
ProductRecord
p1
c__builtin__
object
p2
Ntp3
Rp4
(dp5
S'product_url'
p6
S'http://www.walmart.com/ip/Refurbished-Dell-Latitude-L7280-8PLY5H2Ultrabook-PC-Intel-Core-i7-7600U-2-8-GHz-Dual-Core-Processor-16-GB-DDR4-SDRAM-512-GB-Solid-State-Drive-12-5-in/674721952'
p7
sS'price'
p8
V$1,538.43
p9
sS'properties'
p10
(dp11
sS'title'
p12
VRefurbished Dell Latitude L7280-8PLY5H2Ultrabook PC - Intel Core i7-7600U 2.8 GHz Dual-Core Processor - 16 GB DDR4 SDRAM - 512 GB Solid State Drive - 12.5-inch Display - Windows 10 Professional
p13
sb.