ccopy_reg
_reconstructor
p0
(c__main__
ProductRecord
p1
c__builtin__
object
p2
Ntp3
Rp4
(dp5
S'product_url'
p6
S'http://www.walmart.com/ip/Dell-Inspiron-13-5000-2-in-1-Touch-13-3-Intel-Pent-4415U-4GB-Memory-1TB-5400-RPM-HD-Intel-HD-graphics-610/721920855'
p7
sS'price'
p8
S'N/A'
p9
sS'properties'
p10
(dp11
VRAM Memory
p12
V4 KB
p13
sVOperating System
p14
VWindows 10 Home 64-bit English
p15
sVColor Category
p16
VGray
p17
sVLaptop Computer Type
p18
V2-in-1s
p19
sVBrand
p20
VDell
p21
sVHard Drive Capacity
p22
V1000 KB
p23
sVProcessor Type
p24
VIntel?? Pent?? 4415U
p25
sVScreen Size
p26
V13.3 in
p27
sVModel
p28
Vi5378-P503GRY-PUS
p29
sVManufacturer
p30
VDell
p31
ssS'title'
p32
VDell - Inspiron 13 5000 2-in-1 Touch 13.3" - Intel Pent 4415U - 4GB Memory - 1TB 5400 RPM HD - Intel HD graphics 610
p33
sb.