ccopy_reg
_reconstructor
p0
(c__main__
ProductRecord
p1
c__builtin__
object
p2
Ntp3
Rp4
(dp5
S'product_url'
p6
S'http://www.walmart.com/ip/TOPSELLER-X1-CARBON-I5-6200U-2-3G-8GB-256GB-SSD-14IN-W10P-DG/155238863'
p7
sS'price'
p8
V$1,566.94
p9
sS'properties'
p10
(dp11
VRAM Memory
p12
V8
p13
sVOperating System
p14
VWindows 7
p15
sVBrand
p16
VLenovo
p17
sVProcessor Speed
p18
V2.3
p19
sVManufacturer Part Number
p20
V20FB002RUS
p21
sVMaximum RAM Supported
p22
V8 GB
p23
sVHard Drive Capacity
p24
V256
p25
sVBattery Life
p26
V11 hours
p27
sVAssembled Product Dimensions (L x W x H)
p28
V3.20 x 18.10 x 11.50 Inches
p29
sVModel
p30
V20FB002RUS
p31
sVScreen Size
p32
V14.00 in
p33
sVProcessor Type
p34
VIntel i5-6200U
p35
sVCondition
p36
VNew
p37
ssS'title'
p38
VTOPSELLER X1 CARBON I5-6200U 2.3G 8GB 256GB SSD 14IN W10P DG
p39
sb.