ccopy_reg
_reconstructor
p0
(c__main__
ProductRecord
p1
c__builtin__
object
p2
Ntp3
Rp4
(dp5
S'product_url'
p6
S'http://www.walmart.com/ip/Panasonic-Toughbook-19-CF-19ADUAG1M-8-GB-Convertible-Notebook-10-1-inch-Semi-Rugged-Laptop-with-8GB-RAM/130409480'
p7
sS'price'
p8
S'N/A'
p9
sS'properties'
p10
(dp11
VRAM Memory
p12
V8 GB
p13
sVOperating System
p14
VMicrosoft Windows
p15
sVBrand
p16
VPanasonic
p17
sVScreen Size
p18
V10.1
p19
sVCondition
p20
VNew
p21
sVmanufacturer_part_number
p22
Vcf-19aduag1m
p23
ssS'title'
p24
V"Panasonic Toughbook 19 CF-19ADUAG1M 8 GB Convertible Notebook 10.1-inch Semi-Rugged Laptop with 8GB RAM"
p25
sb.