ccopy_reg
_reconstructor
p0
(c__main__
ProductRecord
p1
c__builtin__
object
p2
Ntp3
Rp4
(dp5
S'product_url'
p6
S'http://www.walmart.com/ip/Refurbished-Lenovo-ThinkPad-X1-Yoga-20JF000CUS-14-Touchscreen-LCD-2-1-Ultrabook-Intel-Core-i5-7th-Gen-i5-7300U-Dual-core-2-Core-2-60-GHz-16-GB-LPDDR3/661173045'
p7
sS'price'
p8
V$1,613.67
p9
sS'properties'
p10
(dp11
sS'title'
p12
VRefurbished Lenovo ThinkPad X1 Yoga 20JF000CUS 14" Touchscreen LCD 2 in 1 Ultrabook - Intel Core i5 (7th Gen) i5-7300U Dual-core (2 Core) 2.60 GHz - 16 GB LPDDR3 - 256 GB SSD - Windows 10 Pro
p13
sb.