ccopy_reg
_reconstructor
p0
(c__main__
ProductRecord
p1
c__builtin__
object
p2
Ntp3
Rp4
(dp5
S'product_url'
p6
S'http://www.walmart.com/ip/HP-INC-SB-NOTEBOOKS-V1P91UT-ABA-SMART-BUY-1040-I5-6300U-2-4G/52438206'
p7
sS'price'
p8
V$1,645.19
p9
sS'properties'
p10
(dp11
VVideo Game Platform
p12
VPC
p13
sVBrand
p14
VHP
p15
sVOperating System
p16
VMicrosoft Windows
p17
sVManufacturer Part Number
p18
VV1P91UT#ABA
p19
sVCondition
p20
VNew
p21
ssS'title'
p22
VHP INC. - SB NOTEBOOKS V1P91UT#ABA SMART BUY 1040 I5-6300U 2.4G
p23
sb.