ccopy_reg
_reconstructor
p0
(c__main__
ProductRecord
p1
c__builtin__
object
p2
Ntp3
Rp4
(dp5
S'product_url'
p6
S'http://www.walmart.com/ip/HP-ZBook-Studio-G3-Mobile-Workstation-15-6-Core-i7-6700HQ-8-GB-RAM-256-GB-SSD/192024899'
p7
sS'price'
p8
V$1,722.38
p9
sS'properties'
p10
(dp11
VRAM Memory
p12
V8.00 GB
p13
sVOperating System
p14
VWindows 7
p15
sVFeatures
p16
V2.6G 8GB 256GB SSD 15.6IN W10P DGW7
p17
sVBrand
p18
VHP
p19
sVProcessor Speed
p20
V2.60 GHz
p21
sVManufacturer Part Number
p22
VT6E14UT#ABA
p23
sVMaximum RAM Supported
p24
V32 GB
p25
sVHard Drive Capacity
p26
V256.00 GB
p27
sVBattery Life
p28
V0 h
p29
sVAssembled Product Dimensions (L x W x H)
p30
V5.00 x 5.00 x 5.00 Inches
p31
sVModel
p32
VT6E14UT
p33
sVScreen Size
p34
V15.60 in
p35
sVProcessor Type
p36
VIntel Core i7
p37
sVCondition
p38
VNew
p39
ssS'title'
p40
VHP ZBook Studio G3 Mobile Workstation - 15.6" - Core i7 6700HQ - 8 GB RAM - 256 GB SSD
p41
sb.