ccopy_reg
_reconstructor
p0
(c__main__
ProductRecord
p1
c__builtin__
object
p2
Ntp3
Rp4
(dp5
S'product_url'
p6
S'http://www.walmart.com/ip/Lenovo-ThinkPad-X1-Carbon-14-FHD-Laptop-i5-7200U-8GB-256GB-SSD-Win10-Pro/901232076'
p7
sS'price'
p8
V$1,741.68
p9
sS'properties'
p10
(dp11
VRAM Memory
p12
V8 Gigabytes
p13
sVOperating System
p14
VWindows 10 Pro (English)
p15
sVBrand
p16
VLenovo
p17
sVProcessor Speed
p18
V2.5 Gigahertz
p19
sVManufacturer Part Number
p20
V20HR000GUS
p21
sVHard Drive Capacity
p22
V256 Gigabytes
p23
sVAssembled Product Dimensions (L x W x H)
p24
V19.00 x 3.00 x 12.00 Inches
p25
sVModel
p26
V20HR000GUS
p27
sVScreen Size
p28
V14.00 Inches
p29
sVProcessor Type
p30
VIntel i5-7200U
p31
ssS'title'
p32
VLenovo ThinkPad X1 Carbon 14" FHD Laptop i5-7200U 8GB 256GB SSD Win10 Pro
p33
sb.