ccopy_reg
_reconstructor
p0
(c__main__
ProductRecord
p1
c__builtin__
object
p2
Ntp3
Rp4
(dp5
S'product_url'
p6
S'http://www.walmart.com/ip/Lenovo-ThinkPad-X1Carbon-20KH002MUS-14-Ultrabook-i7-8550U-8GB-256GB-SSD-W10P/875570020'
p7
sS'price'
p8
V$1,820.98
p9
sS'properties'
p10
(dp11
VRAM Memory
p12
V8 Gigabytes
p13
sVOperating System
p14
VWindows 10 Pro (English/French)
p15
sVFeatures
p16
VTHINKPAD X1 CARBON 6TH GEN, INTEL CORE I7-8550U (1.80GHZ, 6MB) 14.0 1920X1080 MU
p17
sVBrand
p18
VLenovo
p19
sVProcessor Speed
p20
V1.8 Gigahertz
p21
sVManufacturer Part Number
p22
V20KH002MUS
p23
sVHard Drive Capacity
p24
V256 Gigabytes
p25
sVBattery Life
p26
V0 h
p27
sVAssembled Product Dimensions (L x W x H)
p28
V8.00 x 4.00 x 2.00 Inches
p29
sVModel
p30
V20KH002MUS
p31
sVScreen Size
p32
V14.00 Inches
p33
sVProcessor Type
p34
VIntel i7-8550U
p35
sVCondition
p36
VNew
p37
ssS'title'
p38
VLenovo ThinkPad X1Carbon 20KH002MUS 14" Ultrabook i7-8550U 8GB 256GB SSD W10P
p39
sb.