ccopy_reg
_reconstructor
p0
(c__main__
ProductRecord
p1
c__builtin__
object
p2
Ntp3
Rp4
(dp5
S'product_url'
p6
S'http://www.walmart.com/ip/HP-Pavilion-x360-Convertible-Premium-15-6-Yoga-Style-2-in-1-Laptop-PC-Intel-i5-Processor-8GB-RAM-512GB-SSD-128GB-SSD-15-6-inch-FHD-1920x1080-Touch-Di/607822824'
p7
sS'price'
p8
S'N/A'
p9
sS'properties'
p10
(dp11
VRAM Memory
p12
V8 GB
p13
sVOperating System
p14
VMicrosoft Windows
p15
sVBrand
p16
VMichaelElectronics2
p17
sVManufacturer Part Number
p18
VHP-15-02403-AMD-ME7
p19
sVHard Drive Capacity
p20
V640 GB
p21
sVProcessor Type
p22
V7th Generation Intel Core i5-7200U (2.50 GHz with Turbo Boost Technology up to 3.10 GHz, 3 MB Cache, 2 Cores) Processor
p23
sVScreen Size
p24
V15.6 in
p25
sVProcessor Speed
p26
V2.5 GHz
p27
ssS'title'
p28
VHP Pavilion x360 Convertible Premium 15.6" Yoga Style 2-in-1 Laptop PC (Intel i5 Processor, 8GB RAM, 512GB SSD + 128GB SSD, 15.6 inch FHD 1920x1080 Touch Display, AMD Radeon 530, Stylus, Win 10 Home)
p29
sb.