ccopy_reg
_reconstructor
p0
(c__main__
ProductRecord
p1
c__builtin__
object
p2
Ntp3
Rp4
(dp5
S'product_url'
p6
S'http://www.walmart.com/ip/Lenovo-ThinkPad-P51s-15-6-Core-i7-7600U-16-GB-RAM-512-GB-SSD/488622424'
p7
sS'price'
p8
V$1,830.81
p9
sS'properties'
p10
(dp11
VRAM Memory
p12
V16 Gigabytes
p13
sVOperating System
p14
VWindows 10 Pro (English)
p15
sVFeatures
p16
VVivid visualsBuilt for businessConnect with speed, Vivid visualsWith its sophisticated architecture and plenty of VRAM, the GPU has the perfect balance of power and battery life - enabling you to be in the field and still get your work done. Get premium visual experience with sharp, crisp visuals and extra-bright display with anti-glare technology and in-plane switching for almost 180 wide-angle viewing.Built for businessThinkPad P51s comes with a number of security, manageability, and productivity-enhancing features. It boasts a fingerprint reader and renowned ergonomic ThinkPad keyboard. Use the backlight for working in low-light conditions. And with its epic battery life, you've eliminated the worry of having to plug in at every stop on your business trip.Connect with speedMove data between the P51s and your other devices quickly with USB 3.1 Intel Thunderbolt 3 - simultaneously supporting high-resolution displays and high-performance data devices through a single, compact port., Lenovo ThinkPad P51s 20HBUSB-C power adapter
p17
sVVideo Game Platform
p18
VSee Description
p19
sVBrand
p20
VLenovo
p21
sVProcessor Speed
p22
V2.8 Gigahertz
p23
sVManufacturer Part Number
p24
V20HB0012US
p25
sVHard Drive Capacity
p26
V512 Gigabytes
p27
sVBattery Life
p28
V0 h
p29
sVAssembled Product Dimensions (L x W x H)
p30
V12.00 x 12.00 x 12.00 Inches
p31
sVModel
p32
V20HB0012US
p33
sVScreen Size
p34
V15.60 Inches
p35
sVProcessor Type
p36
VIntel i7-7600U
p37
sVCondition
p38
VNew
p39
ssS'title'
p40
VLenovo ThinkPad P51s - 15.6" - Core i7 7600U - 16 GB RAM - 512 GB SSD
p41
sb.