ccopy_reg
_reconstructor
p0
(c__main__
ProductRecord
p1
c__builtin__
object
p2
Ntp3
Rp4
(dp5
S'product_url'
p6
S'http://www.walmart.com/ip/PCIe-Lenovo-ThinkPad-T460s-Business-Windows-10-Pro-Laptop-Intel-Core-i7-6600U-8GB-RAM-256GB-PCIe-NVMe-SSD-14-IPS-FHD-1920x1080-Matte-Display-Fingerpr/354207330'
p7
sS'price'
p8
V$1,849.24
p9
sS'properties'
p10
(dp11
VRAM Memory
p12
V8 Gigabytes
p13
sVOperating System
p14
VWindows 10
p15
sVBrand
p16
VLenovo
p17
sVProcessor Speed
p18
V3.4 Gigahertz
p19
sVHard Drive Capacity
p20
V256 Gigabytes
p21
sVModel
p22
V20F9
p23
sVScreen Size
p24
V14 Inches
p25
sVProcessor Type
p26
Vcore_i7
p27
ssS'title'
p28
VPCIe Lenovo ThinkPad T460s Business Windows 10 Pro Laptop - Intel Core i7-6600U, 8GB RAM, 256GB PCIe-NVMe SSD, 14" IPS FHD (1920x1080) Matte Display, Fingerprint Reader, Backlit Keyboard
p29
sb.