ccopy_reg
_reconstructor
p0
(c__main__
ProductRecord
p1
c__builtin__
object
p2
Ntp3
Rp4
(dp5
S'product_url'
p6
S'http://www.walmart.com/ip/REFURBISHED-Hp-Elitebook-Revolve-810-G2-Tablet-Pc-11-6-Wireless-Lan-Intel-Core-I7-I7-4600U-2-10-Ghz-8-Gb-Ram-256-Gb-Ssd/382931715'
p7
sS'price'
p8
S'N/A'
p9
sS'properties'
p10
(dp11
VOperating System
p12
VMicrosoft Windows
p13
sVBrand
p14
VHP
p15
sVRAM Memory
p16
V8 GB
p17
sVScreen Size
p18
V11.6\u005c"
p19
sVProcessor Speed
p20
V2 Ghz
p21
ssS'title'
p22
VREFURBISHED Hp Elitebook Revolve 810 G2 Tablet Pc . 11.6" . Wireless Lan . Intel Core I7 I7. 4600U 2.10 Ghz . 8 Gb Ram . 256 Gb Ssd .
p23
sb.