ccopy_reg
_reconstructor
p0
(c__main__
ProductRecord
p1
c__builtin__
object
p2
Ntp3
Rp4
(dp5
S'product_url'
p6
S'http://www.walmart.com/ip/Lenovo-ThinkPad-X1-Yoga-14-Core-i5-6300U-8-GB-RAM-256-GB-SSD/167168802'
p7
sS'price'
p8
V$1,886.99
p9
sS'properties'
p10
(dp11
VRAM Memory
p12
V8 GB
p13
sVOperating System
p14
VMicrosoft Windows, Windows 10 Pro (English)
p15
sVVideo Game Platform
p16
VPC
p17
sVBrand
p18
VLenovo
p19
sVProcessor Speed
p20
V2.40 GHz
p21
sVManufacturer Part Number
p22
V20FQ005AUS
p23
sVHard Drive Capacity
p24
V256 Gigabytes
p25
sVAssembled Product Dimensions (L x W x H)
p26
V5.00 x 13.10 x 0.70 Inches
p27
sVModel
p28
VX1 Yoga, 20FQ005AUS, HD Graphics 520
p29
sVScreen Size
p30
V14"
p31
sVProcessor Type
p32
VIntel Core i5
p33
sVCondition
p34
VNew
p35
ssS'title'
p36
VLenovo ThinkPad X1 Yoga - 14" - Core i5 6300U - 8 GB RAM - 256 GB SSD
p37
sb.