ccopy_reg
_reconstructor
p0
(c__main__
ProductRecord
p1
c__builtin__
object
p2
Ntp3
Rp4
(dp5
S'product_url'
p6
S'http://www.walmart.com/ip/REFURBISHED-HP-EliteBook-2760p-C7L81UP-12-1-LED-Convertible-Tablet-PC-Wi-Fi-Intel-Core-i5-i5-2520M-2-5GHz/350607452'
p7
sS'price'
p8
S'N/A'
p9
sS'properties'
p10
(dp11
VOperating System
p12
VMicrosoft Windows
p13
sVBrand
p14
VHP
p15
sVScreen Size
p16
V12.1
p17
ssS'title'
p18
VREFURBISHED HP EliteBook 2760p C7L81UP 12.1" LED Convertible Tablet PC - Wi-Fi - Intel - Core i5 i5-2520M 2.5GHz
p19
sb.