ccopy_reg
_reconstructor
p0
(c__main__
ProductRecord
p1
c__builtin__
object
p2
Ntp3
Rp4
(dp5
S'product_url'
p6
S'http://www.walmart.com/ip/Lenovo-ThinkPad-X1-Carbon-14-Core-i7-7600U-16-GB-RAM-512-GB-SSD/618377026'
p7
sS'price'
p8
V$1,919.99
p9
sS'properties'
p10
(dp11
VRAM Memory
p12
V16 Gigabytes
p13
sVOperating System
p14
VWindows 10 Pro (English)
p15
sVBrand
p16
VLenovo
p17
sVProcessor Speed
p18
V2.8 Gigahertz
p19
sVManufacturer Part Number
p20
V20HR000FUS
p21
sVHard Drive Capacity
p22
V512 Gigabytes
p23
sVBattery Life
p24
V0 h
p25
sVAssembled Product Dimensions (L x W x H)
p26
V5.00 x 5.00 x 5.00 Inches
p27
sVModel
p28
V20HR000FUS
p29
sVScreen Size
p30
V14.00 Inches
p31
sVProcessor Type
p32
VIntel i7-7600U
p33
sVCondition
p34
VNew
p35
ssS'title'
p36
VLenovo ThinkPad X1 Carbon - 14" - Core i7 7600U - 16 GB RAM - 512 GB SSD
p37
sb.