ccopy_reg
_reconstructor
p0
(c__main__
ProductRecord
p1
c__builtin__
object
p2
Ntp3
Rp4
(dp5
S'product_url'
p6
S'http://www.walmart.com/ip/Lenovo-ThinkPad-X1-Carbon-14-Core-i7-7500U-8-GB-RAM-512-GB-SSD/746820340'
p7
sS'price'
p8
V$1,929.99
p9
sS'properties'
p10
(dp11
VRAM Memory
p12
V8 Gigabytes
p13
sVOperating System
p14
VWindows 10 Pro (English)
p15
sVBrand
p16
VLenovo
p17
sVProcessor Speed
p18
V2.7 Gigahertz
p19
sVManufacturer Part Number
p20
V20HR0058US
p21
sVHard Drive Capacity
p22
V512 Gigabytes
p23
sVAssembled Product Dimensions (L x W x H)
p24
V18.00 x 12.00 x 4.00 Inches
p25
sVModel
p26
VThinkPad X1 Carbon 20HR0058US Ultrabook
p27
sVScreen Size
p28
V14.00 Inches
p29
sVProcessor Type
p30
VIntel i7-7500U
p31
sVCondition
p32
VNew
p33
ssS'title'
p34
VLenovo ThinkPad X1 Carbon - 14" - Core i7 7500U - 8 GB RAM - 512 GB SSD
p35
sb.