ccopy_reg
_reconstructor
p0
(c__main__
ProductRecord
p1
c__builtin__
object
p2
Ntp3
Rp4
(dp5
S'product_url'
p6
S'http://www.walmart.com/ip/SMART-BUY-ELITEBOOK-1040-G3-I5-6300U-8GB-256GB-SSD-14IN-BT-W10P/714038272'
p7
sS'price'
p8
V$1,939.11
p9
sS'properties'
p10
(dp11
VAssembled Product Dimensions (L x W x H)
p12
V19.10 x 12.10 x 2.70 Inches
p13
sVBrand
p14
VHP
p15
sVScreen Size
p16
V14
p17
sVHard Drive Capacity
p18
V256
p19
sVCondition
p20
VNew
p21
ssS'title'
p22
VSMART BUY ELITEBOOK 1040 G3 I5-6300U 8GB 256GB SSD 14IN BT W10P
p23
sb.