ccopy_reg
_reconstructor
p0
(c__main__
ProductRecord
p1
c__builtin__
object
p2
Ntp3
Rp4
(dp5
S'product_url'
p6
S'http://www.walmart.com/ip/HP-EliteBook-1040-G3-14-34-16-9-Notebook-1920-x-1080-Intel-Core-i5-6th-Gen-i5-6200U-Dual-core-2-Core-2-30-GHz-8-GB-DDR4-SDRAM-256-GB-SSD-Windows-7-Pr/172421726'
p7
sS'price'
p8
V$1,952.71
p9
sS'properties'
p10
(dp11
VAssembled Product Dimensions (L x W x H)
p12
V18.50 x 11.75 x 3.00 Inches
p13
sVBrand
p14
VHP
p15
sVScreen Size
p16
V14
p17
sVHard Drive Capacity
p18
V256
p19
ssS'title'
p20
VHP EliteBook 1040 G3 14" 16:9 Notebook - 1920 x 1080 - Intel Core i5 (6th Gen) i5-6200U Dual-core (2 Core) 2.30 GHz - 8 GB DDR4 SDRAM - 256 GB SSD - Windows 7 Professional 64-bit (English) up
p21
sb.