ccopy_reg
_reconstructor
p0
(c__main__
ProductRecord
p1
c__builtin__
object
p2
Ntp3
Rp4
(dp5
S'product_url'
p6
S'http://www.walmart.com/ip/Lenovo-ThinkPad-X1-Carbon-4th-Gen-20FCS56400-14-LCD-Ultrabook-Intel-Core-i7-6th-Gen-i7-6600U-Dual-core-2-Core-2-60-GHz-8-GB-LPDDR3-512-GB-SSD-Windows/791509429'
p7
sS'price'
p8
V$1,955.98
p9
sS'properties'
p10
(dp11
VRAM Memory
p12
V8 Gigabytes
p13
sVOperating System
p14
VWindows 10 Pro (English)
p15
sVBrand
p16
VLenovo
p17
sVProcessor Speed
p18
V2.6 Gigahertz
p19
sVManufacturer Part Number
p20
V20FCS56400
p21
sVHard Drive Capacity
p22
V512 Gigabytes
p23
sVAssembled Product Dimensions (L x W x H)
p24
V19.00 x 12.00 x 1.00 Inches
p25
sVModel
p26
V20FCS56400
p27
sVScreen Size
p28
V14.00 Inches
p29
sVProcessor Type
p30
VIntel i7-6600U
p31
sVCondition
p32
VNew
p33
ssS'title'
p34
VLenovo ThinkPad X1 Carbon 4th Gen 20FCS56400 14" LCD Ultrabook - Intel Core i7 (6th Gen) i7-6600U Dual-core (2 Core) 2.60 GHz - 8 GB LPDDR3 - 512 GB SSD - Windows 10 Pro 64-bit (English) - 1920 x
p35
sb.