ccopy_reg
_reconstructor
p0
(c__main__
ProductRecord
p1
c__builtin__
object
p2
Ntp3
Rp4
(dp5
S'product_url'
p6
S'http://www.walmart.com/ip/Refurbished-HP-EliteBook-2760p-SP200UP-12-1-LED-Convertible-Tablet-PC-HSPA-Intel-Core-i5-i5-2540M-2-6GHz/444646877'
p7
sS'price'
p8
S'N/A'
p9
sS'properties'
p10
(dp11
VBrand
p12
VHP
p13
sVScreen Size
p14
V12.1
p15
sVmanufacturer_part_number
p16
Vsp200up
p17
ssS'title'
p18
VRefurbished HP EliteBook 2760p SP200UP 12.1" LED Convertible Tablet PC HSPA - Intel - Core i5 i5-2540M 2.6GHz
p19
sb.