ccopy_reg
_reconstructor
p0
(c__main__
ProductRecord
p1
c__builtin__
object
p2
Ntp3
Rp4
(dp5
S'product_url'
p6
S'http://www.walmart.com/ip/HP-Envy-x360-2-in-1-15-6-IPS-FHD-Touch-Screen-Notebook-AMD-Quad-Core-FX-9800P-Upto-3-6GHz-16GB-DDR4-512GB-SSD-AMD-Radeon-R7-Backlit-Keyboard-HDMI-Car/584480671'
p7
sS'price'
p8
S'N/A'
p9
sS'properties'
p10
(dp11
VRAM Memory
p12
V16 GB
p13
sVOperating System
p14
VMicrosoft Windows
p15
sVBrand
p16
VHP
p17
sVManufacturer Part Number
p18
VHPEnvy360AFXt-16512P
p19
sVModel
p20
VHPEnvy360AFXt-16512P
p21
sVScreen Size
p22
V15.6\u005c"
p23
ssS'title'
p24
VHP Envy x360 2-in-1 15.6" IPS FHD Touch-Screen Notebook, AMD Quad-Core FX-9800P Upto 3.6GHz, 16GB DDR4, 512GB SSD, AMD Radeon R7, Backlit Keyboard, HDMI, Card Reader, Wifi, BT, Windows 10 Pro 64Bit
p25
sb.