ccopy_reg
_reconstructor
p0
(c__main__
ProductRecord
p1
c__builtin__
object
p2
Ntp3
Rp4
(dp5
S'product_url'
p6
S'http://www.walmart.com/ip/Refurbished-Panasonic-Toughbook-19-CF-195DYAALM-8-GB-Convertible-Notebook-10-inch-Semi-Rugged-Laptop-With-8GB-RAM/599313514'
p7
sS'price'
p8
S'N/A'
p9
sS'properties'
p10
(dp11
VOperating System
p12
VMicrosoft Windows
p13
sVBrand
p14
VPanasonic
p15
sVRAM Memory
p16
V8 GB
p17
sVScreen Size
p18
V10
p19
sVmanufacturer_part_number
p20
Vcf-195dyaalm
p21
ssS'title'
p22
VRefurbished "Panasonic Toughbook 19 CF-195DYAALM 8 GB Convertible Notebook 10-inch Semi-Rugged Laptop With 8GB RAM"
p23
sb.