ccopy_reg
_reconstructor
p0
(c__main__
ProductRecord
p1
c__builtin__
object
p2
Ntp3
Rp4
(dp5
S'product_url'
p6
S'http://www.walmart.com/ip/ASUS-ZenBook-3-Deluxe-UX490UA-XH74-BL-Premium-14-Ultrabook-Intel-8th-Gen-i7-Quad-Core-16GB-RAM-1TB-SSD-14-1920-x-1080-Glossy-Display-WiFi-Bluetooth-T/367395713'
p7
sS'price'
p8
V$2,098.95
p9
sS'properties'
p10
(dp11
VRAM Memory
p12
V16 GB
p13
sVOperating System
p14
VMicrosoft Windows
p15
sVBrand
p16
VMichaelElectronics2
p17
sVManufacturer Part Number
p18
VASU-14-07059-FHD-ME2
p19
sVHard Drive Capacity
p20
V1 TB
p21
sVProcessor Type
p22
V8th-Generation Intel Core i7-8550U Quad-Core
p23
sVScreen Size
p24
V14 in
p25
sVProcessor Speed
p26
V1.8 GHz
p27
ssS'title'
p28
VASUS ZenBook 3 Deluxe UX490UA-XH74-BL Premium 14" Ultrabook (Intel 8th Gen i7 Quad Core, 16GB RAM, 1TB SSD, 14" 1920 x 1080 Glossy Display, WiFi, Bluetooth, Thunderbolt, Win 10 Pro)
p29
sb.