ccopy_reg
_reconstructor
p0
(c__main__
ProductRecord
p1
c__builtin__
object
p2
Ntp3
Rp4
(dp5
S'product_url'
p6
S'http://www.walmart.com/ip/HP-EliteBook-Folio-G1-12-5-34-16-9-Ultrabook-1920-x-1080-Touchscreen-Intel-Core-M-6th-Gen-m5-6Y57-Dual-core-2-Core-1-10-GHz-8-GB-LPDDR3-256-GB-SSD-Wi/162821335'
p7
sS'price'
p8
V$2,116.04
p9
sS'properties'
p10
(dp11
VAssembled Product Dimensions (L x W x H)
p12
V14.30 x 11.50 x 5.10 Inches
p13
sVBrand
p14
VHP
p15
sVScreen Size
p16
V12.5
p17
ssS'title'
p18
VHP EliteBook Folio G1 12.5" 16:9 Ultrabook - 1920 x 1080 Touchscreen - Intel Core M (6th Gen) m5-6Y57 Dual-core (2 Core) 1.10 GHz - 8 GB LPDDR3 - 256 GB SSD - Windows 10 Pro 64-bit (English)
p19
sb.