ccopy_reg
_reconstructor
p0
(c__main__
ProductRecord
p1
c__builtin__
object
p2
Ntp3
Rp4
(dp5
S'product_url'
p6
S'http://www.walmart.com/ip/Refurbished-Lenovo-ThinkPad-X1-Yoga-20JF000HUS-14-Touchscreen-LCD-2-1-Ultrabook-Intel-Core-i7-7th-Gen-i7-7600U-Dual-core-2-Core-2-80-GHz-16-GB-LPDDR3/707317688'
p7
sS'price'
p8
V$2,073.55
p9
sS'properties'
p10
(dp11
sS'title'
p12
VRefurbished Lenovo ThinkPad X1 Yoga 20JF000HUS 14" Touchscreen LCD 2 in 1 Ultrabook - Intel Core i7 (7th Gen) i7-7600U Dual-core (2 Core) 2.80 GHz - 16 GB LPDDR3 - 512 GB SSD - Windows 10 Pro
p13
sb.