ccopy_reg
_reconstructor
p0
(c__main__
ProductRecord
p1
c__builtin__
object
p2
Ntp3
Rp4
(dp5
S'product_url'
p6
S'http://www.walmart.com/ip/Dell-XPS-12-9250-Intel-Core-M5-6Y54-X2-1-1GHz-8GB-256GB-SSD-12-5-Win10-Black-Certified-Refurbished/197879213'
p7
sS'price'
p8
S'N/A'
p9
sS'properties'
p10
(dp11
VRAM Memory
p12
V8 Gigabytes
p13
sVOperating System
p14
VWindows 10
p15
sVFeatures
p16
VNo Ethernet, 802.11AACBGN and Bluetooth 4.1, 1MP Webcam and Integrated Microphone, 12.5-inch(3840 x 2160)LCD Display, This Certified Refurbished product is tested and certified to look and work like new. The refurbishing process includes functionality testing, basic cleaning, inspection, and repackaging. The product ships with all relevant accessories, a minimum 90-day warranty, and may arrive in a generic box., Intel Core M5-6Y54 Processor (Dual-Core, 1.1GHz, 4MB Cache), 3-cellLithium-Ion Battery, Energy Star Compliant, Gold EPEAT, IntegratedIntel HD Graphics, 8GBDDR3 System Memory, 0.99" x 11.46" x 7.8" (HxWxD);2.8lbs, Microsoft Windows 10 Home Operating System, Backlit Standard Keyboard, 256GBSSD
p17
sVBrand
p18
VDell
p19
sVManufacturer Part Number
p20
VX92504128-2SA-RFB
p21
sVMaximum RAM Supported
p22
V8 Gigabytes
p23
sVHard Drive Capacity
p24
V256 Gigabytes
p25
sVBattery Life
p26
V10 Hours
p27
sVAssembled Product Dimensions (L x W x H)
p28
V11.50 x 7.80 x 1.00 Inches
p29
sVProcessor Type
p30
VIntel Core M5-6Y54
p31
sVScreen Size
p32
V12.5 Inches
p33
sVProcessor Speed
p34
V1.1 Gigahertz
p35
ssS'title'
p36
VDell XPS 12-9250 Intel Core M5-6Y54 X2 1.1GHz 8GB 256GB SSD 12.5" Win10,Black (Certified Refurbished)
p37
sb.