ccopy_reg
_reconstructor
p0
(c__main__
ProductRecord
p1
c__builtin__
object
p2
Ntp3
Rp4
(dp5
S'product_url'
p6
S'http://www.walmart.com/ip/Dell-XPS-12-9250-Intel-Core-M5-6Y54-X2-1-1GHz-8GB-256GB-SSD-12-5-Win10-Black-Certified-Refurbished/144075767'
p7
sS'price'
p8
S'N/A'
p9
sS'properties'
p10
(dp11
VAssembled Product Dimensions (L x W x H)
p12
V11.50 x 7.80 x 1.00 Inches
p13
sVFeatures
p14
VEnergy Star Compliant, Gold EPEAT
p15
sVBrand
p16
VDell
p17
sVHard Drive Capacity
p18
V256
p19
sVScreen Size
p20
V12.5
p21
sVAssembled Product Weight
p22
V2.80 Pounds
p23
ssS'title'
p24
VDell XPS 12-9250 Intel Core M5-6Y54 X2 1.1GHz 8GB 256GB SSD 12.5" Win10,Black (Certified Refurbished)
p25
sb.