ccopy_reg
_reconstructor
p0
(c__main__
ProductRecord
p1
c__builtin__
object
p2
Ntp3
Rp4
(dp5
S'product_url'
p6
S'http://www.walmart.com/ip/Hp-Zbook-Studio-G3-15-6-in-plane-Switching-ips-Technology-Mobile-Workstation-Ultrabook-Intel-Core-I7-I7-6820hq-Quad-core-4-Core-2-70-Ghz-Space-Silver/49577199'
p7
sS'price'
p8
V$2,226.23
p9
sS'properties'
p10
(dp11
VOperating System
p12
VMicrosoft Windows
p13
sVBrand
p14
VHP
p15
sVManufacturer Part Number
p16
VT6E15UT#ABA
p17
sVModel
p18
VT6E15UT#ABA
p19
sVScreen Size
p20
V15.6
p21
sVProcessor Speed
p22
V2
p23
ssS'title'
p24
VHp Zbook Studio G3 15.6" [in-plane Switching [ips] Technology] Mobile Workstation Ultrabook - Intel Core I7 I7-6820hq Quad-core [4 Core] 2.70 Ghz - Space Silver - 8 Gb Ddr4 Sdram Ram - (t6e15ut-aba)
p25
sb.