ccopy_reg
_reconstructor
p0
(c__main__
ProductRecord
p1
c__builtin__
object
p2
Ntp3
Rp4
(dp5
S'product_url'
p6
S'http://www.walmart.com/ip/Lenovo-ThinkPad-X1-Carbon-5th-Gen-Core-i7-7600U-16GB-14-WQHD-2560x1440-IPS-512GB-SSD-M-2-PCIe-Laptop/673697149'
p7
sS'price'
p8
V$2,235.10
p9
sS'properties'
p10
(dp11
VRAM Memory
p12
V16.00 GB
p13
sVOperating System
p14
VWindows 10
p15
sVFeatures
p16
VI7-7600U 2.8G 16GB 512GB 14IN W10P
p17
sVBrand
p18
VLenovo
p19
sVProcessor Speed
p20
V2.80 GHz
p21
sVManufacturer Part Number
p22
V20HR006JUS
p23
sVHard Drive Capacity
p24
V512.00 GB
p25
sVBattery Life
p26
V15.50 h
p27
sVAssembled Product Dimensions (L x W x H)
p28
V21.00 x 13.00 x 3.00 Inches
p29
sVModel
p30
V20HR006JUS
p31
sVScreen Size
p32
V14.00 in
p33
sVProcessor Type
p34
VIntel Core i7
p35
sVCondition
p36
VNew
p37
ssS'title'
p38
VLenovo ThinkPad X1 Carbon (5th Gen) Core i7-7600U 16GB 14" WQHD (2560x1440) IPS 512GB SSD M.2 PCIe Laptop
p39
sb.