ccopy_reg
_reconstructor
p0
(c__main__
ProductRecord
p1
c__builtin__
object
p2
Ntp3
Rp4
(dp5
S'product_url'
p6
S'http://www.walmart.com/ip/HP-Envy-X360-15t-2-in-1-Convertible-Laptop-PC-AMD-7th-Gen-Quad-Core-FX-9800P-APU-AMD-Radeon-R7-Graphics-16GB-RAM-1TB-HDD-128GB-SSD-15-6inch-FHD-1920x/977659201'
p7
sS'price'
p8
S'N/A'
p9
sS'properties'
p10
(dp11
VRAM Memory
p12
V16 GB
p13
sVOperating System
p14
VMicrosoft Windows
p15
sVBrand
p16
VMichaelElectronics2
p17
sVManufacturer Part Number
p18
VHP-15-02336-X360-FHD-ME15
p19
sVHard Drive Capacity
p20
V1128 GB
p21
sVProcessor Type
p22
VAMD 7th Gen Quad-Core FX 9800P APU
p23
sVScreen Size
p24
V15.60 in
p25
sVProcessor Speed
p26
V2.70 GHz
p27
ssS'title'
p28
VHP Envy X360 15t 2-in-1 Convertible Laptop PC (AMD 7th Gen Quad-Core FX 9800P APU, AMD Radeon R7 Graphics, 16GB RAM, 1TB HDD+128GB SSD, 15.6inch FHD (1920x1080) Touchscreen, Win10 Pro) Dark Ash Silver
p29
sb.