ccopy_reg
_reconstructor
p0
(c__main__
ProductRecord
p1
c__builtin__
object
p2
Ntp3
Rp4
(dp5
S'product_url'
p6
S'http://www.walmart.com/ip/Lenovo-ThinkPad-X1-Yoga-14-FHD-Touchscreen-Laptop-i5-7300U-16GB-256GB-SSD/328910056'
p7
sS'price'
p8
V$2,254.36
p9
sS'properties'
p10
(dp11
VRAM Memory
p12
V16 Gigabytes
p13
sVOperating System
p14
VWindows 10 Pro (English)
p15
sVBrand
p16
VLenovo
p17
sVProcessor Speed
p18
V2.6 Gigahertz
p19
sVManufacturer Part Number
p20
V20JF000FUS
p21
sVHard Drive Capacity
p22
V256 Gigabytes
p23
sVModel
p24
V20JF000FUS
p25
sVScreen Size
p26
V14.00 Inches
p27
sVProcessor Type
p28
VIntel i5-7300U
p29
sVCondition
p30
VNew
p31
ssS'title'
p32
VLenovo ThinkPad X1 Yoga 14" FHD Touchscreen Laptop i5-7300U 16GB 256GB SSD
p33
sb.