ccopy_reg
_reconstructor
p0
(c__main__
ProductRecord
p1
c__builtin__
object
p2
Ntp3
Rp4
(dp5
S'product_url'
p6
S'http://www.walmart.com/ip/HP-Zbook-Studio-G3-15-6-Mobile-Workstation-Ultrabook-Intel-Xeon-E3-1505M-v5-Quad-core-2-8-GHz-8-GB-DDR4-SDRAM-256-GB-SSD/166150729'
p7
sS'price'
p8
V$2,277.77
p9
sS'properties'
p10
(dp11
VRAM Memory
p12
V8.00 GB
p13
sVOperating System
p14
VWindows 7
p15
sVBrand
p16
VHP
p17
sVProcessor Speed
p18
V2.80 GHz
p19
sVManufacturer Part Number
p20
VT6E84UT#ABA
p21
sVMaximum RAM Supported
p22
V32 GB
p23
sVHard Drive Capacity
p24
V256.00 GB
p25
sVAssembled Product Dimensions (L x W x H)
p26
V5.00 x 5.00 x 5.00 Inches
p27
sVModel
p28
VT6E84UT
p29
sVScreen Size
p30
V15.60 in
p31
sVProcessor Type
p32
VXeon
p33
sVCondition
p34
VNew
p35
ssS'title'
p36
VHP Zbook Studio G3 15.6" Mobile Workstation Ultrabook - Intel Xeon E3-1505M v5 Quad-core 2.8 GHz - 8 GB DDR4 SDRAM - 256 GB SSD
p37
sb.