ccopy_reg
_reconstructor
p0
(c__main__
ProductRecord
p1
c__builtin__
object
p2
Ntp3
Rp4
(dp5
S'product_url'
p6
S'http://www.walmart.com/ip/Lenovo-ThinkPad-X1-Carbon-14-FHD-Laptop-i7-6600U-8GB-512GB-SSD-Win7-Pro/331627270'
p7
sS'price'
p8
V$2,287.69
p9
sS'properties'
p10
(dp11
VRAM Memory
p12
V8 GB
p13
sVOperating System
p14
VMicrosoft Windows
p15
sVBrand
p16
VLenovo
p17
sVProcessor Speed
p18
V2.60 GHz
p19
sVManufacturer Part Number
p20
V20K40020US
p21
sVHard Drive Capacity
p22
V512 GB
p23
sVModel
p24
VLenovo
p25
sVScreen Size
p26
V14"
p27
sVProcessor Type
p28
VIntel Core i7
p29
sVCondition
p30
VNew
p31
ssS'title'
p32
VLenovo ThinkPad X1 Carbon 14" FHD Laptop i7-6600U 8GB 512GB SSD Win7 Pro
p33
sb.