ccopy_reg
_reconstructor
p0
(c__main__
ProductRecord
p1
c__builtin__
object
p2
Ntp3
Rp4
(dp5
S'product_url'
p6
S'http://www.walmart.com/ip/Lenovo-20FQ002YUS-Thinkpad-Ultrabook-14-WQHD-Multitouch-intel-core-i7-6600U/236242188'
p7
sS'price'
p8
S'N/A'
p9
sS'properties'
p10
(dp11
VOperating System
p12
VMicrosoft Windows
p13
sVBrand
p14
VLenovo
p15
sVScreen Size
p16
V14\u005c"
p17
sVCondition
p18
VNew
p19
sVmanufacturer_part_number
p20
V20fq002yus
p21
ssS'title'
p22
VLenovo 20FQ002YUS Thinkpad Ultrabook 14" WQHD Multitouch intel core i7-6600U
p23
sb.