ccopy_reg
_reconstructor
p0
(c__main__
ProductRecord
p1
c__builtin__
object
p2
Ntp3
Rp4
(dp5
S'product_url'
p6
S'http://www.walmart.com/ip/Lenovo-X1-Carbon-5th-Gen-14-inch-QHD-Preimum-Ultrabook-Laptop-PC-Intel-i7-Processor-16GB-RAM-2TB-SSD-14-0-WQHD-2560x1440-Display-vPro-Figerprint-WiFi/375866745'
p7
sS'price'
p8
V$3,673.95
p9
sS'properties'
p10
(dp11
VRAM Memory
p12
V16 GB
p13
sVOperating System
p14
VMicrosoft Windows
p15
sVBrand
p16
VMichaelElectronics2
p17
sVManufacturer Part Number
p18
VLEN-14-01221-WQHD-ME4
p19
sVHard Drive Capacity
p20
V2 TB
p21
sVProcessor Type
p22
VIntel Core i7-7600U
p23
sVScreen Size
p24
V14 in
p25
sVProcessor Speed
p26
V2.8 GHz
p27
ssS'title'
p28
VLenovo X1 Carbon (5th Gen) 14 inch QHD Preimum Ultrabook Laptop PC Intel i7 Processor, 16GB RAM, 2TB SSD, 14.0" WQHD (2560x1440) Display, vPro, Figerprint, WiFi, Bluetooth, Thunderbolt 3, Win 10 Pro
p29
sb.