ccopy_reg
_reconstructor
p0
(c__main__
ProductRecord
p1
c__builtin__
object
p2
Ntp3
Rp4
(dp5
S'product_url'
p6
S'http://www.walmart.com/ip/HP-Pavilion-x360-Intel-Pentium-6GB-15-6-Full-HD-Touch-Screen-Convertible-Laptop-Refurbished/828890753'
p7
sS'price'
p8
S'N/A'
p9
sS'properties'
p10
(dp11
VRAM Memory
p12
V6 GB
p13
sVOperating System
p14
VMicrosoft Windows
p15
sVBrand
p16
VHP
p17
sVManufacturer Part Number
p18
V1KT74UAR#ABA
p19
sVAssembled Product Dimensions (L x W x H)
p20
V12.50 x 20.90 x 3.30 Inches
p21
sVModel
p22
V1KT74UAR#ABA
p23
sVScreen Size
p24
V15.6\u005c"
p25
ssS'title'
p26
VHP Pavilion x360 Intel Pentium 6GB 15.6\u201d Full HD Touch Screen Convertible Laptop (Refurbished)
p27
sb.