ccopy_reg
_reconstructor
p0
(c__main__
ProductRecord
p1
c__builtin__
object
p2
Ntp3
Rp4
(dp5
S'product_url'
p6
S'http://www.walmart.com/ip/Lenovo-Ultrabook-Black-12-5-ThinkPad-Twist-S230u-Laptop-PC-with-Intel-Core-i5-3337U-Processor-4GB-Memory-500GB-Hard-Drive-and-Windows-8/27159479'
p7
sS'price'
p8
S'N/A'
p9
sS'properties'
p10
(dp11
VRAM Memory
p12
V4 GB
p13
sVOperating System
p14
VMicrosoft Windows
p15
sVFeatures
p16
V720p HD webcam, Touchscreen
p17
sVVideo Game Platform
p18
VPC
p19
sVBrand
p20
VLenovo
p21
sVProcessor Speed
p22
V2.40 GHz, with a Max Turbo Speed of 3.40 GHz
p23
sVManufacturer Part Number
p24
V33476UU
p25
sVMaximum RAM Supported
p26
V8 GB
p27
sVHard Drive Capacity
p28
V500 GB
p29
sVBattery Life
p30
V7 hours
p31
sVAssembled Product Dimensions (L x W x H)
p32
V15.40 x 13.50 x 4.50 Inches
p33
sVModel
p34
V33476UU
p35
sVScreen Size
p36
V12.5"
p37
sVProcessor Type
p38
VIntel Core i5
p39
ssS'title'
p40
VLenovo Ultrabook Black 12.5" ThinkPad Twist S230u Laptop PC with Intel Core i5-3337U Processor, 4GB Memory, 500GB Hard Drive and Windows 8
p41
sb.