ccopy_reg
_reconstructor
p0
(c__main__
ProductRecord
p1
c__builtin__
object
p2
Ntp3
Rp4
(dp5
S'product_url'
p6
S'http://www.walmart.com/ip/Acer-Champagne-13-3-Aspire-S3-391-6448-Ultrabook-PC-with-Intel-Core-i3-2377M-Processor-and-Windows-8/21777788'
p7
sS'price'
p8
S'N/A'
p9
sS'properties'
p10
(dp11
VRAM Memory
p12
V4 GB
p13
sVOperating System
p14
VWindows 8
p15
sVColor Category
p16
VBeige
p17
sVVideo Game Platform
p18
VPC
p19
sVBrand
p20
VAcer
p21
sVManufacturer Part Number
p22
VNX.M1FAA.013
p23
sVHard Drive Capacity
p24
V500 GB
p25
sVLaptop Computer Type
p26
VUltrabooks
p27
sVProcessor Type
p28
V2nd Generation Intel Core i3-2377M Processor2nd Generation Intel Core i3-2377M Processor
p29
sVScreen Size
p30
V13.3"
p31
sVModel
p32
VS3-391-6448
p33
sVManufacturer
p34
VAcer America
p35
ssS'title'
p36
VAcer Champagne 13.3" Aspire S3-391-6448 Ultrabook PC with Intel Core i3-2377M Processor and Windows 8
p37
sb.