ccopy_reg
_reconstructor
p0
(c__main__
ProductRecord
p1
c__builtin__
object
p2
Ntp3
Rp4
(dp5
S'product_url'
p6
S'http://www.walmart.com/ip/Sony-Ultrabook-Touch-Silver-Mist-13-3-VAIO-T-Series-SVT13128CXS-with-Intel-Core-i7-3517U-Processor-and-Windows-8-Operating-System/21842989'
p7
sS'price'
p8
S'N/A'
p9
sS'properties'
p10
(dp11
VRAM Memory
p12
V8 GB
p13
sVOperating System
p14
VWindows 8
p15
sVColor Category
p16
VSilver
p17
sVVideo Game Platform
p18
VPC
p19
sVBrand
p20
VSony
p21
sVManufacturer Part Number
p22
VSVT13128CXS
p23
sVHard Drive Capacity
p24
V256 GB
p25
sVLaptop Computer Type
p26
VTouchscreen
p27
sVProcessor Type
p28
VIntel Core i7
p29
sVScreen Size
p30
V13.3" Touchscreen
p31
sVModel
p32
VSVT13128CXS
p33
sVManufacturer
p34
VSony Electronics
p35
ssS'title'
p36
VSony Ultrabook Touch Silver Mist 13.3" VAIO T Series SVT13128CXS with Intel Core i7-3517U Processor and Windows 8 Operating System
p37
sb.