ccopy_reg
_reconstructor
p0
(c__main__
ProductRecord
p1
c__builtin__
object
p2
Ntp3
Rp4
(dp5
S'product_url'
p6
S'http://www.walmart.com/ip/Sony-Ultrabook-Touch-Silver-Mist-13-3-VAIO-T-Series-SVT13126CXS-with-Intel-Core-i5-3317U-Processor-and-Windows-8-Operating-System/21842987'
p7
sS'price'
p8
S'N/A'
p9
sS'properties'
p10
(dp11
VRAM Memory
p12
V6 GB
p13
sVOperating System
p14
VWindows 8
p15
sVFeatures
p16
VTouchscreen
p17
sVVideo Game Platform
p18
VPC
p19
sVBrand
p20
VSony
p21
sVProcessor Speed
p22
V1.70 GHz
p23
sVManufacturer Part Number
p24
VSVT13126CXS
p25
sVMaximum RAM Supported
p26
V8GB RAM
p27
sVHard Drive Capacity
p28
V32 GB, 500 GB
p29
sVBattery Life
p30
V5 hours 30 minutes
p31
sVAssembled Product Dimensions (L x W x H)
p32
V8.90 x 12.72 x 1.00 Inches
p33
sVModel
p34
VSVT13126CXS
p35
sVScreen Size
p36
V13.3"
p37
sVProcessor Type
p38
VIntel Core i5
p39
ssS'title'
p40
VSony Ultrabook Touch Silver Mist 13.3" VAIO T Series SVT13126CXS  with Intel Core i5-3317U Processor and Windows 8 Operating System
p41
sb.