ccopy_reg
_reconstructor
p0
(c__main__
ProductRecord
p1
c__builtin__
object
p2
Ntp3
Rp4
(dp5
S'product_url'
p6
S'http://www.walmart.com/ip/Acer-Acer-S3-951-6826-13-3-Ultrabook/167487848'
p7
sS'price'
p8
S'N/A'
p9
sS'properties'
p10
(dp11
VRAM Memory
p12
V4 GB
p13
sVOperating System
p14
VMicrosoft Windows
p15
sVLaptop Computer Type
p16
VUltrabooks
p17
sVBrand
p18
VAcer
p19
sVManufacturer Part Number
p20
VLX.RSF02.222
p21
sVWireless Technology
p22
VBluetooth 4.0 + LE
p23
sVHard Drive Capacity
p24
V500 GB
p25
sVProcessor Core Type
p26
VDual-core
p27
sVProcessor Type
p28
VIntel Core i5
p29
sVScreen Size
p30
V13.3"
p31
sVModel
p32
VHD 3000
p33
sVCondition
p34
VNew
p35
sVManufacturer
p36
VAcer, Inc
p37
ssS'title'
p38
VAcer - Acer S3-951-6826 13.3" Ultrabook
p39
sb.