ccopy_reg
_reconstructor
p0
(c__main__
ProductRecord
p1
c__builtin__
object
p2
Ntp3
Rp4
(dp5
S'product_url'
p6
S'http://www.walmart.com/ip/Hp-Elitebook-Folio-1040-G2-14-Touchscreen-Led-Ultrabook-Intel-Core-I5-I5-5200u-2-20-Ghz-4-Gb-Ram-128-Gb-Ssd-Intel-Hd-Graphics-5500-Windows-8-1-Pro-64/44787825'
p7
sS'price'
p8
S'N/A'
p9
sS'properties'
p10
(dp11
VRAM Memory
p12
V4 Gigabytes
p13
sVOperating System
p14
VMicrosoft Windows 8.1Professional
p15
sVFeatures
p16
VEnergy Star Compliant
p17
sVVideo Game Platform
p18
VPlaystation
p19
sVBrand
p20
VHP
p21
sVProcessor Speed
p22
V2.2 Gigahertz
p23
sVManufacturer Part Number
p24
VL8E66UT#ABA
p25
sVMaximum RAM Supported
p26
V16 Gigabytes
p27
sVHard Drive Capacity
p28
V128 Gigabytes
p29
sVBattery Life
p30
V9 Hours
p31
sVModel
p32
VL8E66UT#ABA
p33
sVScreen Size
p34
V14
p35
sVProcessor Type
p36
VIntel Core i5
p37
sVCondition
p38
VNew
p39
ssS'title'
p40
VHp Elitebook Folio 1040 G2 14" Touchscreen Led Ultrabook - Intel Core I5 I5-5200u 2.20 Ghz - 4 Gb Ram - 128 Gb Ssd - Intel Hd Graphics 5500 - Windows 8.1 Pro 64-bit - 1920 X 1080 Display (l8e66ut-aba)
p41
sb.