ccopy_reg
_reconstructor
p0
(c__main__
ProductRecord
p1
c__builtin__
object
p2
Ntp3
Rp4
(dp5
S'product_url'
p6
S'http://www.walmart.com/ip/Sony-Silver-Mist-13-3-Touchscreen-VAIO-T-Series-SVT13134CXS-Ultrabook-PC-with-Intel-Core-i3-3227U-Processor-and-Windows-8-Operating-System/23091395'
p7
sS'price'
p8
S'N/A'
p9
sS'properties'
p10
(dp11
VRAM Memory
p12
V4 GB
p13
sVOperating System
p14
VWindows 8
p15
sVColor Category
p16
VSilver
p17
sVVideo Game Platform
p18
VPC
p19
sVBrand
p20
VSony
p21
sVManufacturer Part Number
p22
VSVT13134CXS
p23
sVWireless Technology
p24
VBluetooth 4.0 HS
p25
sVHard Drive Capacity
p26
V24 GB
p27
sVLaptop Computer Type
p28
VTouchscreen
p29
sVProcessor Type
p30
VIntel Core i3
p31
sVScreen Size
p32
V13.3 inch Touchscreen
p33
sVModel
p34
VSVT13134CXS
p35
sVManufacturer
p36
VSony Electronics
p37
ssS'title'
p38
VSony Silver Mist 13.3" Touchscreen VAIO T Series SVT13134CXS Ultrabook PC with Intel Core i3-3227U Processor and Windows 8 Operating System
p39
sb.