ccopy_reg
_reconstructor
p0
(c__main__
ProductRecord
p1
c__builtin__
object
p2
Ntp3
Rp4
(dp5
S'product_url'
p6
S'http://www.walmart.com/ip/Asus-Gray-13-3-UX31A-DH71-Ultrabook-PC-with-Intel-Core-i7-3517U-Processor-and-Windows-8-Operating-System/22356580'
p7
sS'price'
p8
S'N/A'
p9
sS'properties'
p10
(dp11
VWarranty
p12
V1 Yr International Warranty
p13
sVCoverage (registration required)
p14
V1 Yr Accidental Damage Protection2 1 Yr Accidental Damage Protection2
p15
sVWeight
p16
V2.86 lbs
p17
sVScreen
p18
V13.3 FHD IPS Panel (1920 x 1080)
p19
sVMemory
p20
V4GB DDR3
p21
sVTexture
p22
VSpun Metal Aluminum
p23
sVCPU
p24
VIntel Core i7-3517U
p25
sVWireless
p26
V802.11 a/g/n
p27
sVPixel Policy
p28
V30-day Zero Bright Dot Guarantee
p29
sVHDD
p30
VN/A
p31
sVGraphics
p32
VIntel GMA HD
p33
sVSSD
p34
V256GB
p35
sVBluetooth
p36
VBluetooth 4.0
p37
sVDimension
p38
V12.9" x 8.9" x 0.3~0.78"
p39
sVCloud
p40
V32GB ASUS WebStorage3
p41
ssS'title'
p42
VAsus Gray 13.3" UX31A-DH71 Ultrabook PC with Intel Core i7-3517U Processor and Windows 8 Operating System
p43
sb.