ccopy_reg
_reconstructor
p0
(c__main__
ProductRecord
p1
c__builtin__
object
p2
Ntp3
Rp4
(dp5
S'product_url'
p6
S'http://www.walmart.com/ip/Lenovo-Red-14-IdeaPad-U410-59351636-Ultrabook-PC-with-Intel-Core-i5-3317U-Processor-and-Windows-8-Operating-System/22081827'
p7
sS'price'
p8
S'N/A'
p9
sS'properties'
p10
(dp11
VRAM Memory
p12
V6 GB
p13
sVOperating System
p14
VMicrosoft Windows
p15
sVColor Category
p16
VRed
p17
sVVideo Game Platform
p18
VPC
p19
sVBrand
p20
VLenovo
p21
sVManufacturer Part Number
p22
V59351636
p23
sVHard Drive Capacity
p24
V24 GB
p25
sVLaptop Computer Type
p26
VUltrabooks
p27
sVProcessor Core Type
p28
VDual-core (2 Core)
p29
sVProcessor Type
p30
VIntel Core i5
p31
sVScreen Size
p32
V14.0"
p33
sVModel
p34
VLenovo U410
p35
sVManufacturer
p36
VLENOVO
p37
ssS'title'
p38
VLenovo Red 14" IdeaPad U410 59351636 Ultrabook PC with Intel Core i5-3317U Processor and Windows 8 Operating System
p39
sb.