ccopy_reg
_reconstructor
p0
(c__main__
ProductRecord
p1
c__builtin__
object
p2
Ntp3
Rp4
(dp5
S'product_url'
p6
S'http://www.walmart.com/ip/Acer-Ultrabook-Aluminum-11-6-Aspire-S7-S7-191-6640-PC-with-Intel-Core-i5-3317U-Processor-and-Window-8-Operating-System/21998682'
p7
sS'price'
p8
S'N/A'
p9
sS'properties'
p10
(dp11
VRAM Memory
p12
V4 GB
p13
sVOperating System
p14
VWindows 8
p15
sVFeatures
p16
VWindows 8, Up to 9.5 Hours Battery Life (with included 2nd Battery)
p17
sVVideo Game Platform
p18
VPC
p19
sVBrand
p20
VAcer
p21
sVProcessor Speed
p22
V1.70 GHz, with a Max Turbo Speed of 2.60 GHz
p23
sVManufacturer Part Number
p24
VNX.M42AA.001
p25
sVMaximum RAM Supported
p26
V4 GB
p27
sVHard Drive Capacity
p28
V128 GB
p29
sVBattery Life
p30
V5 hours
p31
sVAssembled Product Dimensions (L x W x H)
p32
V11.17 x 7.70 x 0.48 Inches
p33
sVModel
p34
VS7-191-6640
p35
sVScreen Size
p36
V11.6"
p37
sVProcessor Type
p38
VIntel Core i5
p39
sVCondition
p40
VNew
p41
ssS'title'
p42
VAcer Ultrabook Aluminum 11.6" Aspire S7 S7-191-6640  PC with Intel Core i5-3317U Processor and Window 8 Operating System
p43
sb.