ccopy_reg
_reconstructor
p0
(c__main__
ProductRecord
p1
c__builtin__
object
p2
Ntp3
Rp4
(dp5
S'product_url'
p6
S'http://www.walmart.com/ip/Apple-MacBook-Air-11-6-1-3GHz-Dual-core-i5-4GB-RAM-128GB-SSD-Silver-Refurbished-Grade-A/51053629'
p7
sS'price'
p8
V$399.00
p9
sS'properties'
p10
(dp11
VRAM Memory
p12
V4 KB
p13
sVOperating System
p14
VMac OS X 10.10.5
p15
sVFeatures
p16
VEPEAT
p17
sVVideo Game Platform
p18
VMac
p19
sVBrand
p20
VApple
p21
sVProcessor Speed
p22
V1.3 Hz
p23
sVManufacturer Part Number
p24
VMD711LL/A-Refurb A
p25
sVMaximum RAM Supported
p26
V8 KB
p27
sVHard Drive Capacity
p28
V128 KB
p29
sVBattery Life
p30
V9 h
p31
sVAssembled Product Dimensions (L x W x H)
p32
V7.50 x 11.80 x 0.60 Inches
p33
sVModel
p34
VMD711LL/A-Refurb A
p35
sVScreen Size
p36
V11.6 in
p37
sVProcessor Type
p38
VIntel Core i5
p39
sVCondition
p40
VRefurbished
p41
ssS'title'
p42
VApple MacBook Air 11.6" 1.3GHz Dual core i5 4GB RAM 128GB SSD, Silver (Refurbished Grade A)
p43
sb.