ccopy_reg
_reconstructor
p0
(c__main__
ProductRecord
p1
c__builtin__
object
p2
Ntp3
Rp4
(dp5
S'product_url'
p6
S'http://www.walmart.com/ip/Apple-MacBook-Air-Core-i5-1-6GHz-2GB-64GB-11-6-MC968LL-A-Grade-C-Refurbished/418840165'
p7
sS'price'
p8
V$319.95
p9
sS'properties'
p10
(dp11
VRAM Memory
p12
V2 GB
p13
sVOperating System
p14
VMicrosoft Windows
p15
sVLaptop Computer Type
p16
VMacBooks
p17
sVBrand
p18
VApple
p19
sVManufacturer Part Number
p20
VW-MC968-C2
p21
sVHard Drive Capacity
p22
V64 GB
p23
sVProcessor Type
p24
VIntel Core i5
p25
sVScreen Size
p26
V11.6 in
p27
sVModel
p28
VW-MC968-C2
p29
sVCondition
p30
VRefurbished
p31
sVManufacturer
p32
VApple
p33
ssS'title'
p34
VApple MacBook Air Core i5 1.6GHz 2GB 64GB 11.6" MC968LL/A - Grade C Refurbished
p35
sb.