ccopy_reg
_reconstructor
p0
(c__main__
ProductRecord
p1
c__builtin__
object
p2
Ntp3
Rp4
(dp5
S'product_url'
p6
S'http://www.walmart.com/ip/Apple-MacBook-Pro-13-3-Intel-Core-2-Duo-2-4GHz-4GB-250GB-Laptop-MC374LL-A-Certified-Refurbished/168509367'
p7
sS'price'
p8
V$369.97
p9
sS'properties'
p10
(dp11
VRAM Memory
p12
V4 GB
p13
sVOperating System
p14
VMay Come Standard with Mac OSX 10.6.3 or higherMay Come Standard with Mac OSX 10.6.3 or higher
p15
sVColor Category
p16
VSilver
p17
sVVideo Game Platform
p18
VMac OS
p19
sVBrand
p20
VApple
p21
sVManufacturer Part Number
p22
VMC374LLA-PB-RC
p23
sVHard Drive Capacity
p24
V250 GB
p25
sVLaptop Computer Type
p26
VMacBooks
p27
sVProcessor Type
p28
VIntel Core 2 Duo
p29
sVScreen Size
p30
V13.3 in
p31
sVModel
p32
VMC374LL/A
p33
sVCondition
p34
VRefurbished
p35
sVManufacturer
p36
VApple
p37
ssS'title'
p38
VApple MacBook Pro 13.3 Intel Core 2 Duo 2.4GHz 4GB 250GB Laptop MC374LL/A (Certified Refurbished)
p39
sb.