ccopy_reg
_reconstructor
p0
(c__main__
ProductRecord
p1
c__builtin__
object
p2
Ntp3
Rp4
(dp5
S'product_url'
p6
S'http://www.walmart.com/ip/Apple-MacBook-A1342-13-3-Laptop-Intel-Core-2-Duo-2-26Ghz-250GB-Hard-Drive-2gb-RAM-DVDRW-Drive-OS-X-10-6-1/778486954'
p7
sS'price'
p8
V$194.99
p9
sS'properties'
p10
(dp11
VHard Drive Capacity
p12
V250 GB
p13
sVOperating System
p14
VMicrosoft Windows
p15
sVBrand
p16
VApple
p17
sVScreen Size
p18
V13.3 in
p19
sVModel
p20
Va1342
p21
ssS'title'
p22
VApple MacBook A1342 13.3" Laptop (Intel Core 2 Duo 2.26Ghz, 250GB Hard Drive,2gb RAM, DVDRW Drive, OS X 10.6.1
p23
sb.