ccopy_reg
_reconstructor
p0
(c__main__
ProductRecord
p1
c__builtin__
object
p2
Ntp3
Rp4
(dp5
S'product_url'
p6
S'http://www.walmart.com/ip/Hp-Elite-X2-1012-G1-12-in-plane-Switching-ips-Technology-Brightview-2-1-Notebook-Intel-Core-M-6th-Gen-M3-6y30-Dual-core-2-Core-900-Mhz-Hybrid-4-Gb-Lp/109957875'
p7
sS'price'
p8
S'N/A'
p9
sS'properties'
p10
(dp11
VRAM Memory
p12
V4 GB
p13
sVOperating System
p14
VWindows 10
p15
sVColor Category
p16
VMulticolor
p17
sVVideo Game Platform
p18
VPC
p19
sVBrand
p20
VHP
p21
sVManufacturer Part Number
p22
VW0S20UT#ABA
p23
sVHard Drive Capacity
p24
V128 GB
p25
sVLaptop Computer Type
p26
VPC Laptops
p27
sVProcessor Core Type
p28
VDual-core (2 Core)
p29
sVProcessor Type
p30
VCore M
p31
sVScreen Size
p32
V12"
p33
sVModel
p34
VW0S20UT#ABA
p35
sVCondition
p36
VNew
p37
sVManufacturer
p38
VHewlett Packard
p39
ssS'title'
p40
VHp Elite X2 1012 G1 12" [in-plane Switching [ips] Technology, Brightview] 2 In 1 Notebook - Intel Core M [6th Gen] M3-6y30 Dual-core [2 Core] 900 Mhz - Hybrid - 4 Gb Lpddr3 Ram - 128 Gb (w0s20ut-aba)
p41
sb.