ccopy_reg
_reconstructor
p0
(c__main__
ProductRecord
p1
c__builtin__
object
p2
Ntp3
Rp4
(dp5
S'product_url'
p6
S'http://www.walmart.com/ip/Apple-MacBook-Pro-13-3-Intel-Dual-Core-i5-2-5GHz-4GB-500GB-Laptop-MD101LLA/53146907'
p7
sS'price'
p8
V$449.89
p9
sS'properties'
p10
(dp11
VRAM Memory
p12
V4096 GB
p13
sVOperating System
p14
VApple OS X 10.9 Mavericks
p15
sVFeatures
p16
VOS X Maverick (*update) operating system
p17
sVVideo Game Platform
p18
VUnknown
p19
sVBrand
p20
VApple
p21
sVProcessor Speed
p22
V2.5 GHz
p23
sVManufacturer Part Number
p24
Vmd101ll/a
p25
sVMaximum RAM Supported
p26
V16 KB
p27
sVHard Drive Capacity
p28
V500 GB
p29
sVBattery Life
p30
V6 h
p31
sVAssembled Product Dimensions (L x W x H)
p32
V18.00 x 5.00 x 24.00 Inches
p33
sVModel
p34
VMD101LL/A
p35
sVScreen Size
p36
V13.3 in
p37
sVProcessor Type
p38
VIntel Core i5
p39
sVCondition
p40
VNew
p41
ssS'title'
p42
VApple MacBook Pro 13.3" Intel Dual Core i5 2.5GHz 4GB 500GB Laptop - MD101LLA
p43
sb.