ccopy_reg
_reconstructor
p0
(c__main__
ProductRecord
p1
c__builtin__
object
p2
Ntp3
Rp4
(dp5
S'product_url'
p6
S'http://www.walmart.com/ip/Apple-MacBook-Air-MC505LL-A-11-6-Inch-Laptop-Dual-Core-1-4GHz-2GB-64GB-SSD-Refurbished/116226477'
p7
sS'price'
p8
V$389.99
p9
sS'properties'
p10
(dp11
VRAM Memory
p12
V2 GB
p13
sVOperating System
p14
VMac OS
p15
sVFeatures
p16
VShips in Certified Frustration-Free Packaging
p17
sVBrand
p18
VApple
p19
sVProcessor Speed
p20
V1.4 GHz
p21
sVManufacturer Part Number
p22
VMC505LL/A
p23
sVMaximum RAM Supported
p24
V4 KB
p25
sVHard Drive Capacity
p26
V64 GB
p27
sVBattery Life
p28
V5 h
p29
sVAssembled Product Dimensions (L x W x H)
p30
V11.80 x 0.68 x 7.56 Inches
p31
sVModel
p32
VMC505LL/A
p33
sVScreen Size
p34
V11.6 in
p35
sVProcessor Type
p36
VIntel Core Duo SU9400
p37
sVCondition
p38
VNew
p39
ssS'title'
p40
VApple MacBook Air MC505LL/A 11.6-Inch Laptop Dual-Core 1.4GHz 2GB 64GB SSD - Refurbished
p41
sb.