ccopy_reg
_reconstructor
p0
(c__main__
ProductRecord
p1
c__builtin__
object
p2
Ntp3
Rp4
(dp5
S'product_url'
p6
S'http://www.walmart.com/ip/Apple-MacBook-Pro-15-4-Inch-Laptop-Intel-QuadCore-i7-2-4GHz-High-Resolution-Display-16GB-DDR3-Memory-1TB-SSHD-Solid-State-Hybrid-Drive-Refurbished/882097354'
p7
sS'price'
p8
V$1,149.00
p9
sS'properties'
p10
(dp11
VRAM Memory
p12
V16 Gigabytes
p13
sVOperating System
p14
VMac OS
p15
sVBrand
p16
VApple
p17
sVHard Drive Capacity
p18
V1 TB
p19
sVProcessor Type
p20
V32 nm "Sandy Bridge" 2.4 GHz Intel "Core i7" processor32 nm "Sandy Bridge" 2.4 GHz Intel "Core i7" processor
p21
sVScreen Size
p22
V15.4 Inches
p23
sVModel
p24
VMD322LL/A
p25
sVCondition
p26
VRefurbished
p27
sVManufacturer
p28
VApple
p29
ssS'title'
p30
VApple MacBook Pro 15.4-Inch Laptop Intel QuadCore i7 2.4GHz / High-Resolution Display/ 16GB DDR3 Memory / 1TB SSHD (Solid State Hybrid) Drive - Refurbished
p31
sb.