ccopy_reg
_reconstructor
p0
(c__main__
ProductRecord
p1
c__builtin__
object
p2
Ntp3
Rp4
(dp5
S'product_url'
p6
S'http://www.walmart.com/ip/Apple-MacBook-Air-13-1-4-GHz-Intel-Core-i5-128GB-SSD-4GB-RAM-MD760LL-B-Refurbished-Grade-C/39460369'
p7
sS'price'
p8
V$479.85
p9
sS'properties'
p10
(dp11
VRAM Memory
p12
V4 GB
p13
sVOperating System
p14
VMac OS
p15
sVFeatures
p16
VApple MacBook AirPower adapter
p17
sVBrand
p18
VApple
p19
sVProcessor Speed
p20
V1.4 GHz
p21
sVManufacturer Part Number
p22
Vmd760ll/b
p23
sVMaximum RAM Supported
p24
V8 KB
p25
sVHard Drive Capacity
p26
V128 GB
p27
sVBattery Life
p28
V12 h
p29
sVAssembled Product Dimensions (L x W x H)
p30
V8.90 x 12.80 x 0.70 Inches
p31
sVModel
p32
VHD 5000
p33
sVScreen Size
p34
V13.3 in
p35
sVProcessor Type
p36
VIntel Core i5
p37
sVCondition
p38
VNew
p39
ssS'title'
p40
VApple MacBook Air 13" 1.4 GHz Intel Core i5, 128GB SSD, 4GB RAM - MD760LL/B - (Refurbished Grade C)
p41
sb.