ccopy_reg
_reconstructor
p0
(c__main__
ProductRecord
p1
c__builtin__
object
p2
Ntp3
Rp4
(dp5
S'product_url'
p6
S'http://www.walmart.com/ip/Refurbished-Apple-MacBook-Air-11-6-Laptop-Intel-Core-i5-2467M-1-6GHz-2GB-64GB-SSD-MC968LL-A/121919614'
p7
sS'price'
p8
V$349.46
p9
sS'properties'
p10
(dp11
VRAM Memory
p12
V2 GB
p13
sVOperating System
p14
VApple iOS
p15
sVBrand
p16
VApple
p17
sVProcessor Speed
p18
V1.6 GHz
p19
sVManufacturer Part Number
p20
VMC968LLA-PB-RCB
p21
sVHard Drive Capacity
p22
V64 GB
p23
sVAssembled Product Dimensions (L x W x H)
p24
V17.00 x 15.75 x 5.00 Inches
p25
sVModel
p26
VMC968LL/A
p27
sVScreen Size
p28
V11.6 in
p29
sVProcessor Type
p30
VIntel Core i5
p31
ssS'title'
p32
VRefurbished Apple MacBook Air 11.6" Laptop Intel Core i5-2467M 1.6GHz 2GB 64GB SSD MC968LL/A
p33
sb.