ccopy_reg
_reconstructor
p0
(c__main__
ProductRecord
p1
c__builtin__
object
p2
Ntp3
Rp4
(dp5
S'product_url'
p6
S'http://www.walmart.com/ip/Refurbished-Grade-A-Apple-MacBook-Air-13-3-Intel-Core-i5-3427U-Processor-4GB-Memory-128GB-SSD-Mac-OS-X-Silver/51053624'
p7
sS'price'
p8
V$629.00
p9
sS'properties'
p10
(dp11
VRAM Memory
p12
V8 KB
p13
sVOperating System
p14
VMac OS X 10.10.5
p15
sVColor Category
p16
VSilver
p17
sVVideo Game Platform
p18
VMac
p19
sVBrand
p20
VApple
p21
sVManufacturer Part Number
p22
VMD231LL/A-Refurb A
p23
sVHard Drive Capacity
p24
V128 KB
p25
sVLaptop Computer Type
p26
VMacBooks
p27
sVProcessor Type
p28
VIntel Core i5
p29
sVScreen Size
p30
V13.3 in
p31
sVModel
p32
VMD231LL/A-Refurb A
p33
sVCondition
p34
VRefurbished
p35
sVManufacturer
p36
VDiamond Assets
p37
ssS'title'
p38
VRefurbished Grade A Apple MacBook Air 13.3" Intel Core i5 3427U Processor 4GB Memory 128GB SSD Mac OS X Silver
p39
sb.