ccopy_reg
_reconstructor
p0
(c__main__
ProductRecord
p1
c__builtin__
object
p2
Ntp3
Rp4
(dp5
S'product_url'
p6
S'http://www.walmart.com/ip/Refurbished-Apple-Silver-13-3-MacBook-Pro-with-Intel-Core-i5-2415M-Processor-4GB-Memory-320GB-Hard-Drive-and-Mac-OS-X-10-10-5/51053623'
p7
sS'price'
p8
V$499.00
p9
sS'properties'
p10
(dp11
VRAM Memory
p12
V4 GB
p13
sVOperating System
p14
VMac OS X 10.10.5
p15
sVColor Category
p16
VSilver
p17
sVLaptop Computer Type
p18
VMacBooks
p19
sVBrand
p20
VApple
p21
sVManufacturer Part Number
p22
VMC700LL/A-Refurb A
p23
sVHard Drive Capacity
p24
V320 GB
p25
sVProcessor Type
p26
VIntel Core i5
p27
sVScreen Size
p28
V13.3"
p29
sVModel
p30
VMC700LL/A-Refurb A
p31
sVCondition
p32
VRefurbished
p33
sVManufacturer
p34
VDiamond Assets
p35
ssS'title'
p36
VRefurbished Apple Silver 13.3" MacBook Pro with Intel Core i5-2415M Processor, 4GB Memory, 320GB Hard Drive and Mac OS X 10.10.5
p37
sb.