ccopy_reg
_reconstructor
p0
(c__main__
ProductRecord
p1
c__builtin__
object
p2
Ntp3
Rp4
(dp5
S'product_url'
p6
S'http://www.walmart.com/ip/Refurbished-Apple-MacBook-Air-11-6-MD711LL-A-i5-4250U-Dual-Core-1-3GHz-4GB-128GB-SSD-Laptop/134042787'
p7
sS'price'
p8
V$389.99
p9
sS'properties'
p10
(dp11
VRAM Memory
p12
V4 GB
p13
sVOperating System
p14
VMac OS X
p15
sVBrand
p16
VApple
p17
sVProcessor Speed
p18
V1.3 GHz
p19
sVManufacturer Part Number
p20
Vmd711ll/a
p21
sVMaximum RAM Supported
p22
V8 KB
p23
sVHard Drive Capacity
p24
V128 GB
p25
sVBattery Life
p26
V9 h
p27
sVAssembled Product Dimensions (L x W x H)
p28
V7.60 x 11.80 x 0.70 Inches
p29
sVModel
p30
VMD711LL/A
p31
sVScreen Size
p32
V11.6 in
p33
sVProcessor Type
p34
VIntel Core i5
p35
sVCondition
p36
VRefurbished
p37
ssS'title'
p38
VRefurbished Apple MacBook Air 11.6" MD711LL/A i5-4250U Dual-Core 1.3GHz 4GB 128GB SSD Laptop
p39
sb.