ccopy_reg
_reconstructor
p0
(c__main__
ProductRecord
p1
c__builtin__
object
p2
Ntp3
Rp4
(dp5
S'product_url'
p6
S'http://www.walmart.com/ip/Refurbished-Apple-MacBook-Air-11-6-1-4-GHz-Intel-Core-128GB-SSD-4GB-RAM-MC505LL-A/674332652'
p7
sS'price'
p8
V$369.99
p9
sS'properties'
p10
(dp11
VRAM Memory
p12
V4 GB
p13
sVBrand
p14
VApple
p15
sVManufacturer Part Number
p16
VMC505LL/A
p17
sVHard Drive Capacity
p18
V128 GB
p19
sVModel
p20
VMC505LL/A
p21
sVScreen Size
p22
V11.6\u005c"
p23
sVCondition
p24
VRefurbished
p25
ssS'title'
p26
VRefurbished Apple MacBook Air 11.6" 1.4 GHz Intel Core, 128GB SSD, 4GB RAM (MC505LL/A)
p27
sb.