ccopy_reg
_reconstructor
p0
(c__main__
ProductRecord
p1
c__builtin__
object
p2
Ntp3
Rp4
(dp5
S'product_url'
p6
S'http://www.walmart.com/ip/Refurbished-Grade-A-Apple-MacBook-Air-13-3-1-4GHz-Core-i5-4GB-RAM-128GB-SSD-Silver/51053631'
p7
sS'price'
p8
V$669.00
p9
sS'properties'
p10
(dp11
VRAM Memory
p12
V4 KB
p13
sVOperating System
p14
VMac OS X
p15
sVFeatures
p16
VEPEAT
p17
sVVideo Game Platform
p18
VMac
p19
sVBrand
p20
VApple
p21
sVProcessor Speed
p22
V1.4 Hz
p23
sVManufacturer Part Number
p24
VMD760LL/B-Refurb A
p25
sVMaximum RAM Supported
p26
V4 KB
p27
sVHard Drive Capacity
p28
V128 KB
p29
sVBattery Life
p30
V12 hours
p31
sVAssembled Product Dimensions (L x W x H)
p32
V8.94 x 12.80 x 0.60 Inches
p33
sVModel
p34
VMD760LL/B-Refurb A
p35
sVScreen Size
p36
V13.3"
p37
sVProcessor Type
p38
VIntel Core i5
p39
sVCondition
p40
VRefurbished
p41
ssS'title'
p42
VRefurbished Grade A Apple MacBook Air 13.3" 1.4GHz Core i5 4GB RAM 128GB SSD Silver
p43
sb.