ccopy_reg
_reconstructor
p0
(c__main__
ProductRecord
p1
c__builtin__
object
p2
Ntp3
Rp4
(dp5
S'product_url'
p6
S'http://www.walmart.com/ip/Refurbished-Grade-A-Apple-MacBook-Air-11-6-1-6GHz-Core-i5-4GB-RAM-128GB-SSD-Silver/54427781'
p7
sS'price'
p8
V$629.00
p9
sS'properties'
p10
(dp11
VRAM Memory
p12
V4 GB
p13
sVOperating System
p14
VMac OS X 10.10.2
p15
sVColor Category
p16
VSilver
p17
sVLaptop Computer Type
p18
VMacBooks
p19
sVBrand
p20
VApple
p21
sVManufacturer Part Number
p22
VMJVM2LL/A-Refurb A
p23
sVHard Drive Capacity
p24
V128 GB
p25
sVProcessor Type
p26
VIntel Core i5
p27
sVScreen Size
p28
V11.6 in
p29
sVModel
p30
VMJVM2LL/A-Refurb A
p31
sVCondition
p32
VNew
p33
sVManufacturer
p34
VApple
p35
ssS'title'
p36
VRefurbished Grade A Apple MacBook Air 11.6" 1.6GHz Core i5 4GB RAM 128GB SSD Silver
p37
sb.