ccopy_reg
_reconstructor
p0
(c__main__
ProductRecord
p1
c__builtin__
object
p2
Ntp3
Rp4
(dp5
S'product_url'
p6
S'http://www.walmart.com/ip/Apple-MMGG2LLA-MacBook-Air-13-3-Inch-Laptop-1-6GHz-Dual-Core-Intel-Core-i5-256GB/52174610'
p7
sS'price'
p8
V$950.99
p9
sS'properties'
p10
(dp11
VOperating System
p12
VApple iOS
p13
sVVideo Game Platform
p14
VPC
p15
sVBrand
p16
VApple
p17
sVHard Drive Capacity
p18
V256
p19
sVModel
p20
VMacBook Air
p21
sVScreen Size
p22
V5.0 in
p23
sVProcessor Type
p24
VIntel Core i5
p25
sVCondition
p26
VNew
p27
sVmanufacturer_part_number
p28
Vmmgg2lla
p29
ssS'title'
p30
VApple MMGG2LLA MacBook Air 13.3-Inch Laptop 1.6GHz Dual-Core Intel Core i5 256GB
p31
sb.