ccopy_reg
_reconstructor
p0
(c__main__
ProductRecord
p1
c__builtin__
object
p2
Ntp3
Rp4
(dp5
S'product_url'
p6
S'http://www.walmart.com/ip/Apple-MacBook-Pro-13-Inch-Laptop-2-4Ghz-Core-i5-4GB-RAM-500GB-MD313LL-A-Certified-Refurbished-Grade-B/979165706'
p7
sS'price'
p8
V$424.50
p9
sS'properties'
p10
(dp11
VRAM Memory
p12
V4 MB
p13
sVOperating System
p14
VMac OS X
p15
sVVideo Game Platform
p16
VMac
p17
sVBrand
p18
VApple
p19
sVProcessor Speed
p20
V2.4 GHz
p21
sVManufacturer Part Number
p22
VMD313LL/A
p23
sVHard Drive Capacity
p24
V500 MB
p25
sVAssembled Product Dimensions (L x W x H)
p26
V17.50 x 15.50 x 5.00 Inches
p27
sVModel
p28
VW-MD313-MBPRO-B
p29
sVScreen Size
p30
V13.3 in
p31
sVProcessor Type
p32
VIntel Core i5
p33
ssS'title'
p34
VApple MacBook Pro 13-Inch Laptop - 2.4Ghz Core i5 / 4GB RAM / 500GB MD313LL/A (Certified Refurbished - Grade B)
p35
sb.