ccopy_reg
_reconstructor
p0
(c__main__
ProductRecord
p1
c__builtin__
object
p2
Ntp3
Rp4
(dp5
S'product_url'
p6
S'http://www.walmart.com/ip/Apple-MacBook-Air-13-3-Inch-Laptop-MD508LL-A-Certified-Refurbished/149233357'
p7
sS'price'
p8
V$499.99
p9
sS'properties'
p10
(dp11
VColor Category
p12
VSilver
p13
sVLaptop Computer Type
p14
VMacBooks
p15
sVBrand
p16
VApple
p17
sVManufacturer Part Number
p18
VMBA-MD508LLA-B2
p19
sVModel
p20
VMD508LL/A
p21
sVCondition
p22
VRefurbished
p23
sVManufacturer
p24
VApple
p25
ssS'title'
p26
VApple MacBook Air 13.3 Inch Laptop MD508LL/A (Certified Refurbished)
p27
sb.