ccopy_reg
_reconstructor
p0
(c__main__
ProductRecord
p1
c__builtin__
object
p2
Ntp3
Rp4
(dp5
S'product_url'
p6
S'http://www.walmart.com/ip/Refurbished-Apple-Macbook-Air-13-3-LED-Laptop-Intel-i5-4260U-Dual-Core-1-4GHz-8Gb-128GB-SSD/684473158'
p7
sS'price'
p8
V$499.95
p9
sS'properties'
p10
(dp11
VRAM Memory
p12
V8 GB
p13
sVOperating System
p14
VMicrosoft Windows
p15
sVColor Category
p16
VSilver
p17
sVBrand
p18
VApple
p19
sVManufacturer Part Number
p20
VMD760LLB-PB-3RCC
p21
sVHard Drive Capacity
p22
V128 GB
p23
sVModel
p24
VA1466
p25
sVScreen Size
p26
V13.3\u005c"
p27
sVManufacturer
p28
VApple
p29
ssS'title'
p30
VRefurbished Apple Macbook Air 13.3" LED Laptop Intel i5-4260U Dual Core 1.4GHz 8Gb 128GB SSD
p31
sb.