ccopy_reg
_reconstructor
p0
(c__main__
ProductRecord
p1
c__builtin__
object
p2
Ntp3
Rp4
(dp5
S'product_url'
p6
S'http://www.walmart.com/ip/Apple-MacBook-Air-13-3-Core-i5-8-GB-RAM-256-GB-flash-storage-English/159185607'
p7
sS'price'
p8
V$949.85
p9
sS'properties'
p10
(dp11
VRAM Memory
p12
V8 Gigabytes
p13
sVOperating System
p14
VMac OS X 10.11 El Capitan
p15
sVFeatures
p16
VMacbook Air does not have a Retina display on any model.
p17
sVBrand
p18
VApple
p19
sVProcessor Speed
p20
V1.6 Gigahertz
p21
sVManufacturer Part Number
p22
VMMGG2LL/A
p23
sVMaximum RAM Supported
p24
V4.00 GB
p25
sVHard Drive Capacity
p26
V256 Gigabytes
p27
sVBattery Life
p28
V12 Hours
p29
sVAssembled Product Dimensions (L x W x H)
p30
V10.47 x 2.20 x 14.25 Inches
p31
sVModel
p32
VMMGG2LL/A
p33
sVScreen Size
p34
V13.30 Inches
p35
sVProcessor Type
p36
VIntel
p37
sVCondition
p38
VNew
p39
ssS'title'
p40
VApple MacBook Air - 13.3" - Core i5 - 8 GB RAM - 256 GB flash storage - English
p41
sb.