ccopy_reg
_reconstructor
p0
(c__main__
ProductRecord
p1
c__builtin__
object
p2
Ntp3
Rp4
(dp5
S'product_url'
p6
S'http://www.walmart.com/ip/Refurbished-Apple-MacBook-Pro-13-3-2-4GHz-Dual-Core-Intel-i5-4GB-500GB-HDD-Laptop-MD313LLA/137967506'
p7
sS'price'
p8
V$444.69
p9
sS'properties'
p10
(dp11
VRAM Memory
p12
V4 GB
p13
sVOperating System
p14
VMay Come Standard with Mac OSX 10.7.2 or higher
p15
sVVideo Game Platform
p16
VMac OS
p17
sVBrand
p18
VApple
p19
sVProcessor Speed
p20
V2.4 GHz
p21
sVManufacturer Part Number
p22
VMD313LLA-PB-RCC-WAL2
p23
sVMaximum RAM Supported
p24
V4 KB
p25
sVHard Drive Capacity
p26
V500 GB
p27
sVAssembled Product Dimensions (L x W x H)
p28
V11.35 x 9.10 x 0.66 Inches
p29
sVModel
p30
VMacBook
p31
sVScreen Size
p32
V13.3 in
p33
sVProcessor Type
p34
VIntel Core i5
p35
ssS'title'
p36
VRefurbished Apple MacBook Pro 13.3" 2.4GHz Dual-Core Intel i5 4GB 500GB HDD Laptop MD313LLA
p37
sb.