ccopy_reg
_reconstructor
p0
(c__main__
ProductRecord
p1
c__builtin__
object
p2
Ntp3
Rp4
(dp5
S'product_url'
p6
S'http://www.walmart.com/ip/Apple-MacBook-Pro-15-4-Inch-Laptop-Intel-QuadCore-i7-2-2GHz-1TB-SSHD-16GB-DDR3-Memory-Refurbished/231881811'
p7
sS'price'
p8
V$899.00
p9
sS'properties'
p10
(dp11
VRAM Memory
p12
V16.00 GB
p13
sVOperating System
p14
VMac OS Sierra, Mac OS
p15
sVBrand
p16
VApple
p17
sVProcessor Speed
p18
V2.20 GHz
p19
sVManufacturer Part Number
p20
VMD318LL/A
p21
sVMaximum RAM Supported
p22
V16.00 GB
p23
sVHard Drive Capacity
p24
V1.00 TB
p25
sVModel
p26
VMD318LL/A
p27
sVScreen Size
p28
V15.4 in
p29
sVProcessor Type
p30
VIntel Core i7, Intel "Core i7" 32 nm "Sandy Bridge" 2.2GHz
p31
ssS'title'
p32
VApple MacBook Pro 15.4-Inch Laptop Intel QuadCore i7 2.2GHz 1TB SSHD / 16GB DDR3 Memory - Refurbished
p33
sb.