ccopy_reg
_reconstructor
p0
(c__main__
ProductRecord
p1
c__builtin__
object
p2
Ntp3
Rp4
(dp5
S'product_url'
p6
S'http://www.walmart.com/ip/Certified-Refurbished-Apple-Macbook-Pro-15-core-2-duo-2009-2-53-250GB-4GB-MC118LL-A/498875472'
p7
sS'price'
p8
V$428.46
p9
sS'properties'
p10
(dp11
VRAM Memory
p12
V4 GB
p13
sVOperating System
p14
VMac OS
p15
sVColor Category
p16
VSilver
p17
sVBrand
p18
VApple
p19
sVManufacturer Part Number
p20
VW-MC118-B1
p21
sVWireless Technology
p22
V802.11a/b/g/n
p23
sVHard Drive Capacity
p24
V250 GB
p25
sVProcessor Type
p26
VIntel Core 2 Duo
p27
sVScreen Size
p28
V15 in
p29
sVModel
p30
VMC118LL/A
p31
sVCondition
p32
VRefurbished
p33
sVManufacturer
p34
VApple
p35
ssS'title'
p36
VCertified Refurbished - Apple Macbook Pro 15" core 2 duo 2009 [2.53] [250GB] [4GB] MC118LL/A
p37
sb.