ccopy_reg
_reconstructor
p0
(c__main__
ProductRecord
p1
c__builtin__
object
p2
Ntp3
Rp4
(dp5
S'product_url'
p6
S'http://www.walmart.com/ip/HP-ENVY-x360-Convertible-15t-FHD-Touch-2-in-1-Premium-Laptop-Tablet-Intel-i7-Processor-16GB-RAM-1TB-HDD-128GB-SSD-15-6-inch-FHD-1920-x-1080-Touchscre/144147071'
p7
sS'price'
p8
S'N/A'
p9
sS'properties'
p10
(dp11
VBrand
p12
VMichaelElectronics2
p13
sVOperating System
p14
VMicrosoft Windows
p15
sVHard Drive Capacity
p16
V128
p17
sVManufacturer Part Number
p18
VHP Envy x360 -15t FHD Touch Laptop
p19
ssS'title'
p20
VHP ENVY x360 Convertible 15t FHD Touch 2-in-1 Premium Laptop / Tablet (Intel i7 Processor, 16GB RAM, 1TB HDD + 128GB SSD, 15.6 inch FHD (1920 x 1080) Touchscreen, Win 10 Pro)
p21
sb.