ccopy_reg
_reconstructor
p0
(c__main__
ProductRecord
p1
c__builtin__
object
p2
Ntp3
Rp4
(dp5
S'product_url'
p6
S'http://www.walmart.com/ip/Apple-MacBook-Pro-13-3-Laptop-MB991LL-A-Intel-Core-2-Duo-2-53GHz-4GB-250GB-Certified-Refurbished/152136300'
p7
sS'price'
p8
V$419.62
p9
sS'properties'
p10
(dp11
VRAM Memory
p12
V4 KB
p13
sVOperating System
p14
VMay Come Standard with Mac OSX 10.5.7 or higher
p15
sVVideo Game Platform
p16
VMac OS
p17
sVBrand
p18
VApple
p19
sVProcessor Speed
p20
V2.53 Hz
p21
sVManufacturer Part Number
p22
VMB991LL
p23
sVMaximum RAM Supported
p24
V4 KB
p25
sVHard Drive Capacity
p26
V250 KB
p27
sVAssembled Product Dimensions (L x W x H)
p28
V20.00 x 4.00 x 14.00 Inches
p29
sVModel
p30
VMB991LL/A
p31
sVScreen Size
p32
V13.3 in
p33
sVProcessor Type
p34
VIntel Core 2 Duo
p35
ssS'title'
p36
VApple MacBook Pro 13.3 Laptop MB991LL/A Intel Core 2 Duo 2.53GHz 4GB 250GB (Certified Refurbished)
p37
sb.