ccopy_reg
_reconstructor
p0
(c__main__
ProductRecord
p1
c__builtin__
object
p2
Ntp3
Rp4
(dp5
S'product_url'
p6
S'http://www.walmart.com/ip/Refurbished-Apple-Macbook-Pro-15-4-Intel-Core-2-Duo-2-53GHz-4GB-250GB-Laptop-MC118LL-A-Scratch-and-Dent/165234909'
p7
sS'price'
p8
V$564.52
p9
sS'properties'
p10
(dp11
VRAM Memory
p12
V4 GB
p13
sVOperating System
p14
VMac OS
p15
sVVideo Game Platform
p16
VMac OS
p17
sVBrand
p18
VApple
p19
sVProcessor Speed
p20
V2.53 GHz
p21
sVManufacturer Part Number
p22
VW-MC118-C2
p23
sVMaximum RAM Supported
p24
V4 KB
p25
sVHard Drive Capacity
p26
V250 GB
p27
sVAssembled Product Dimensions (L x W x H)
p28
V11.68 x 9.50 x 0.68 Inches
p29
sVModel
p30
VMC118LL/A
p31
sVScreen Size
p32
V15.4 in
p33
sVProcessor Type
p34
VIntel Core 2 Duo
p35
ssS'title'
p36
VRefurbished Apple Macbook Pro 15.4 Intel Core 2 Duo 2.53GHz 4GB 250GB Laptop MC118LL/A (Scratch and Dent)
p37
sb.