ccopy_reg
_reconstructor
p0
(c__main__
ProductRecord
p1
c__builtin__
object
p2
Ntp3
Rp4
(dp5
S'product_url'
p6
S'http://www.walmart.com/ip/Refurbished-Apple-MacBook-Pro-15-4-Retina-Laptop-Intel-i7-3635QM-Quad-Core-8GB-256GB-SSD/320314104'
p7
sS'price'
p8
V$859.95
p9
sS'properties'
p10
(dp11
VRAM Memory
p12
V8 GB
p13
sVOperating System
p14
VMac OS X, Mac OS
p15
sVVideo Game Platform
p16
VMac
p17
sVBrand
p18
VApple
p19
sVProcessor Speed
p20
V2.4 GHz
p21
sVManufacturer Part Number
p22
VME664LLA-PB-2RCC-WAL1
p23
sVHard Drive Capacity
p24
V256 GB
p25
sVModel
p26
VMacBook Pro Retina A1398
p27
sVScreen Size
p28
V15.4 in
p29
sVProcessor Type
p30
VIntel Core i7
p31
ssS'title'
p32
VRefurbished Apple MacBook Pro 15.4" Retina Laptop Intel i7-3635QM Quad Core 8GB 256GB SSD
p33
sb.