ccopy_reg
_reconstructor
p0
(c__main__
ProductRecord
p1
c__builtin__
object
p2
Ntp3
Rp4
(dp5
S'product_url'
p6
S'http://www.walmart.com/ip/Refurbished-Apple-MacBook-Pro-13-3-Laptop-Intel-Core-i5-3210M-2-5GHz-4GB-500GB-MD101LL-A/189829253'
p7
sS'price'
p8
V$489.95
p9
sS'properties'
p10
(dp11
VRAM Memory
p12
V4 GB
p13
sVOperating System
p14
VApple iOS
p15
sVColor Category
p16
VGray
p17
sVLaptop Computer Type
p18
VMacbooks
p19
sVBrand
p20
VApple
p21
sVManufacturer Part Number
p22
VMD101LLA-PB-RCC
p23
sVProcessor Type
p24
VIntel Core i5
p25
sVScreen Size
p26
V13.3
p27
sVModel
p28
VMacBook
p29
sVManufacturer
p30
VApple
p31
ssS'title'
p32
VRefurbished Apple MacBook Pro 13.3" Laptop Intel Core i5-3210M 2.5GHz 4GB 500GB MD101LL/A
p33
sb.