ccopy_reg
_reconstructor
p0
(c__main__
ProductRecord
p1
c__builtin__
object
p2
Ntp3
Rp4
(dp5
S'product_url'
p6
S'http://www.walmart.com/ip/Apple-MacBook-Pro-13-inch-Laptop-Touch-Bar-2-9GHz-dual-core-Intel-Core-i5-256GB-Retina-Display-Space-Gray-MLH12LL-A-New-Non-Retail-Packaging/238965458'
p7
sS'price'
p8
V$1,449.99
p9
sS'properties'
p10
(dp11
VBrand
p12
VApple
p13
sVAssembled Product Dimensions (L x W x H)
p14
V0.36 x 11.97 x 0.59 Inches
p15
sVModel
p16
VMLH12LL/A
p17
sVCondition
p18
VNew
p19
sVManufacturer Part Number
p20
VMLH12LL/A
p21
ssS'title'
p22
VApple MacBook Pro 13-inch Laptop with Touch Bar, 2.9GHz dual-core Intel Core i5, 256GB, Retina Display, Space Gray - MLH12LL/A (New in Non-Retail Packaging)
p23
sb.