ccopy_reg
_reconstructor
p0
(c__main__
ProductRecord
p1
c__builtin__
object
p2
Ntp3
Rp4
(dp5
S'product_url'
p6
S'http://www.walmart.com/ip/Lenovo-Flex-5-2-in-1-Laptop-Core-i5-8250U-8GB-RAM-128GB-SSD-14-inch-Full-HD-Touch-Display-Windows-10/410562396'
p7
sS'price'
p8
S'N/A'
p9
sS'properties'
p10
(dp11
VRAM Memory
p12
V8 GB
p13
sVOperating System
p14
VMicrosoft Windows
p15
sVFeatures
p16
VBacklit Keyboard / Fingerprint Reader / 802.11ac WiFi / Bluetooth, 14-inch Full HD IPS Touch Display (1920x1080), Windows 10, 128GB Solid State Drive / 8GB RAM, 8th Generation Intel Core i5-8250U Processor
p17
sVBrand
p18
VLenovo
p19
sVManufacturer Part Number
p20
V81C9000CUS
p21
sVHard Drive Capacity
p22
V128 GB
p23
sVAssembled Product Dimensions (L x W x H)
p24
V1.00 x 1.00 x 1.00 Inches
p25
sVScreen Size
p26
V14\u005c"
p27
ssS'title'
p28
VLenovo Flex 5 2-in-1 Laptop: Core i5-8250U, 8GB RAM, 128GB SSD, 14-inch Full HD Touch Display, Windows 10
p29
sb.