ccopy_reg
_reconstructor
p0
(c__main__
ProductRecord
p1
c__builtin__
object
p2
Ntp3
Rp4
(dp5
S'product_url'
p6
S'http://www.walmart.com/ip/Apple-MacBook-Air-13-3-Inch-Laptop-MD508LL-A-Scratch-and-Dent-Refurbished/960471670'
p7
sS'price'
p8
V$449.99
p9
sS'properties'
p10
(dp11
VBrand
p12
VApple
p13
sVManufacturer
p14
VApple
p15
ssS'title'
p16
VApple MacBook Air 13.3 Inch Laptop MD508LL/A (Scratch and Dent Refurbished)
p17
sb.