ccopy_reg
_reconstructor
p0
(c__main__
ProductRecord
p1
c__builtin__
object
p2
Ntp3
Rp4
(dp5
S'product_url'
p6
S'http://www.walmart.com/ip/Refurbished-Apple-MacBook-Air-11-6-LED-Laptop-1-6GHz-Intel-i5-4GB-128GB-SSD-MJVM2LLA/498514192'
p7
sS'price'
p8
V$499.99
p9
sS'properties'
p10
(dp11
VRAM Memory
p12
V4 GB
p13
sVOperating System
p14
VApple iOS
p15
sVColor Category
p16
VSilver
p17
sVBrand
p18
VApple
p19
sVManufacturer Part Number
p20
VMJVM2LLA-PB-RCB-WAL2
p21
sVHard Drive Capacity
p22
V128 GB
p23
sVModel
p24
VMJVM2LLA
p25
sVScreen Size
p26
V11.6 in
p27
sVManufacturer
p28
VApple
p29
ssS'title'
p30
VRefurbished - Apple MacBook Air 11.6" LED Laptop 1.6GHz Intel i5 4GB 128GB SSD MJVM2LLA
p31
sb.