ccopy_reg
_reconstructor
p0
(c__main__
ProductRecord
p1
c__builtin__
object
p2
Ntp3
Rp4
(dp5
S'product_url'
p6
S'http://www.walmart.com/ip/Refurbished-Apple-MacBook-Pro-13-Retina-Display-i5-2-5-128GB-8GB-MD212LL-A-2012/183518261'
p7
sS'price'
p8
V$699.97
p9
sS'properties'
p10
(dp11
VAssembled Product Dimensions (L x W x H)
p12
V8.60 x 12.40 x 0.70 Inches
p13
sVBrand
p14
VApple
p15
sVProcessor Speed
p16
V2.5 Gigahertz
p17
sVManufacturer Part Number
p18
VMD212LL/A
p19
sVHard Drive Capacity
p20
V128 Gigabytes
p21
sVBattery Life
p22
V7 hours
p23
sVModel
p24
VMD212LL/ARFB
p25
sVScreen Size
p26
V13 Inches
p27
sVProcessor Type
p28
VIntel Core i5
p29
ssS'title'
p30
VRefurbished Apple MacBook Pro 13" Retina Display i5 [2.5] [128GB] [8GB] MD212LL/A(2012)
p31
sb.