ccopy_reg
_reconstructor
p0
(c__main__
ProductRecord
p1
c__builtin__
object
p2
Ntp3
Rp4
(dp5
S'product_url'
p6
S'http://www.walmart.com/ip/Apple-MacBook-Pro-15-4-Inch-Laptop-Intel-QuadCore-i7-2-3GHz-16GB-DDR3-Memory-1TB-SSHD-Solid-State-Hybrid-Drive-Refurbished/237421591'
p7
sS'price'
p8
V$999.00
p9
sS'properties'
p10
(dp11
VRAM Memory
p12
V16 Gigabytes
p13
sVOperating System
p14
VMac OS Sierra
p15
sVLaptop Computer Type
p16
VMacbooks
p17
sVBrand
p18
VApple
p19
sVHard Drive Capacity
p20
V1 TB
p21
sVProcessor Type
p22
V32 nm "Sandy Bridge" 2.3 GHz Intel "Core i7" processor32 nm "Sandy Bridge" 2.3 GHz Intel "Core i7" processor
p23
sVScreen Size
p24
V15.4 Inches
p25
sVModel
p26
VMD035LL/A
p27
sVManufacturer
p28
VApple
p29
ssS'title'
p30
VApple MacBook Pro 15.4-Inch Laptop Intel QuadCore i7 2.3GHz / 16GB DDR3 Memory / 1TB SSHD (Solid State Hybrid) Drive - Refurbished
p31
sb.