ccopy_reg
_reconstructor
p0
(c__main__
ProductRecord
p1
c__builtin__
object
p2
Ntp3
Rp4
(dp5
S'product_url'
p6
S'http://www.walmart.com/ip/Apple-13-inch-MacBook-Pro-MLL42LL-A-MacBook/628506460'
p7
sS'price'
p8
V$1,399.99
p9
sS'properties'
p10
(dp11
VRAM Memory
p12
V8 GB
p13
sVOperating System
p14
VMac OS X 10.12 Sierra
p15
sVLaptop Computer Type
p16
VMacbooks
p17
sVBrand
p18
VApple
p19
sVManufacturer Part Number
p20
VMLL42LL/A
p21
sVProcessor Core Type
p22
VDual-core (2 Core)
p23
sVProcessor Type
p24
VIntel Core i5
p25
sVScreen Size
p26
V13.3 in
p27
sVModel
p28
VMLL42LL/A
p29
sVCondition
p30
VNew
p31
sVManufacturer
p32
VApple
p33
ssS'title'
p34
VApple 13-inch MacBook Pro MLL42LL/A MacBook
p35
sb.