ccopy_reg
_reconstructor
p0
(c__main__
ProductRecord
p1
c__builtin__
object
p2
Ntp3
Rp4
(dp5
S'product_url'
p6
S'http://www.walmart.com/ip/Apple-MacBook-Pro-13-Core-i5-Retina-2-7GHz-MF840LL-A-8GB-Memory-256GB-Solid-State-Drive/627457341'
p7
sS'price'
p8
V$1,199.00
p9
sS'properties'
p10
(dp11
VRAM Memory
p12
V8 GB
p13
sVOperating System
p14
VMac OS 10.12 Sierra
p15
sVBrand
p16
VApple
p17
sVProcessor Speed
p18
V2.7 GHz
p19
sVManufacturer Part Number
p20
VMF840LL/A
p21
sVHard Drive Capacity
p22
V256 GB
p23
sVModel
p24
VMF840LL/A
p25
sVScreen Size
p26
V13.3 in
p27
sVProcessor Type
p28
VIntel Core i5
p29
ssS'title'
p30
VApple MacBook Pro 13" Core i5 Retina 2.7GHz (MF840LL/A), 8GB Memory, 256GB Solid State Drive
p31
sb.