ccopy_reg
_reconstructor
p0
(c__main__
ProductRecord
p1
c__builtin__
object
p2
Ntp3
Rp4
(dp5
S'product_url'
p6
S'http://www.walmart.com/ip/Apple-MacBook-Pro-MNQF2LL-A-13-inch-Laptop-Touch-Bar-2-9GHz-dual-core-Intel-Core-i5-512GB-Retina-Display-Space-Gray-Padded-Case-Macbook-MicroFiber-Cl/202955851'
p7
sS'price'
p8
V$1,678.39
p9
sS'properties'
p10
(dp11
VBrand
p12
VApple
p13
ssS'title'
p14
VApple MacBook Pro MNQF2LL/A 13-inch Laptop with Touch Bar (2.9GHz dual-core Intel Core i5, 512GB Retina Display), Space Gray + Padded Case For Macbook + MicroFiber Cloth Bundle
p15
sb.