ccopy_reg
_reconstructor
p0
(c__main__
ProductRecord
p1
c__builtin__
object
p2
Ntp3
Rp4
(dp5
S'product_url'
p6
S'http://www.walmart.com/ip/Upgraded-Apple-MacBook-Pro-MD101ll-a-13-3-Inch-Laptop-Intel-Core-i5-2-5GHz-16GB-DDR3-Memory-1TB-SSHD-Solid-State-Hybrid-Drive-Refurbished/846759570'
p7
sS'price'
p8
V$799.00
p9
sS'properties'
p10
(dp11
VRAM Memory
p12
V16 GB
p13
sVOperating System
p14
VMac OS Sierra
p15
sVBrand
p16
VApple
p17
sVProcessor Speed
p18
V2.5 GHz
p19
sVManufacturer Part Number
p20
VW-MD101-TbSSD-B
p21
sVMaximum RAM Supported
p22
V16 KB
p23
sVHard Drive Capacity
p24
V1 GB
p25
sVAssembled Product Dimensions (L x W x H)
p26
V11.50 x 9.50 x 0.55 Inches
p27
sVModel
p28
VMD101LL/A
p29
sVScreen Size
p30
V13.3 in
p31
sVProcessor Type
p32
VIntel "Core i5" 64-Bit
p33
ssS'title'
p34
VUpgraded Apple MacBook Pro MD101ll/a 13.3-Inch Laptop Intel Core i5 2.5GHz / 16GB DDR3 Memory / 1TB SSHD (Solid State Hybrid) Drive - Refurbished
p35
sb.