ccopy_reg
_reconstructor
p0
(c__main__
ProductRecord
p1
c__builtin__
object
p2
Ntp3
Rp4
(dp5
S'product_url'
p6
S'http://www.walmart.com/ip/Apple-Macbook-Pro-MC118LL-A/650136755'
p7
sS'price'
p8
V$599.00
p9
sS'properties'
p10
(dp11
VRAM Memory
p12
V4 GB
p13
sVOperating System
p14
VOSX 10.7 or Newer
p15
sVBrand
p16
VApple
p17
sVProcessor Speed
p18
V2 GHz
p19
sVManufacturer Part Number
p20
VMC118LL/A
p21
sVMaximum RAM Supported
p22
V8 GB
p23
sVHard Drive Capacity
p24
V500 GB
p25
sVBattery Life
p26
V7 hours
p27
sVAssembled Product Dimensions (L x W x H)
p28
V9.80 x 14.30 x 0.90 Inches
p29
sVModel
p30
VGeForce 9400M, AirPort Extreme
p31
sVScreen Size
p32
V15.4 in
p33
sVProcessor Type
p34
VIntel Core 2 Duo 2.53ghz
p35
ssS'title'
p36
VApple Macbook Pro MC118LL/A
p37
sb.