ccopy_reg
_reconstructor
p0
(c__main__
ProductRecord
p1
c__builtin__
object
p2
Ntp3
Rp4
(dp5
S'product_url'
p6
S'http://www.walmart.com/ip/Apple-Certified-Refurbished-Grade-Macbook-Pro-15-4-inch-Laptop-Glossy-2-66Ghz-Dual-Core-i7-Mid-2010-MC373LL-A-320-GB-HD-4-GB-Memory-1440x900-Display-/519188085'
p7
sS'price'
p8
V$529.99
p9
sS'properties'
p10
(dp11
VRAM Memory
p12
V4.00 GB
p13
sVOperating System
p14
VMac OS
p15
sVFeatures
p16
VCondition: Refurbished
p17
sVBrand
p18
VApple
p19
sVManufacturer Part Number
p20
VMC373LL/A-GS-EX
p21
sVMaximum RAM Supported
p22
V8.00 GB
p23
sVHard Drive Capacity
p24
V320.00 GB
p25
sVProcessor Type
p26
VIntel Core i7
p27
sVScreen Size
p28
V15.40 in
p29
sVProcessor Speed
p30
V2.66 GHz
p31
sVCondition
p32
VRefurbished
p33
ssS'title'
p34
VApple Certified Refurbished A Grade Macbook Pro 15.4-inch Laptop (Glossy) 2.66Ghz Dual Core i7 (Mid 2010) MC373LL/A 320 GB HD 4 GB Memory 1440x900 Display macOS Sierra Power Adapter
p35
sb.