ccopy_reg
_reconstructor
p0
(c__main__
ProductRecord
p1
c__builtin__
object
p2
Ntp3
Rp4
(dp5
S'product_url'
p6
S'http://www.walmart.com/ip/Refurbished-Apple-Macbook-Air-13-3-LED-Laptop-Intel-i5-4260U-Dual-Core-1-4GHz-8Gb-128GB-SSD/194439757'
p7
sS'price'
p8
V$524.95
p9
sS'properties'
p10
(dp11
VRAM Memory
p12
V4 Gigabytes
p13
sVOperating System
p14
VApple Mac OS X 10.9
p15
sVFeatures
p16
V4GB DDR3 System Memory, 2 x USB 3.0, 6-cell Lithium-Ion Battery, 1MP Webcam and Integrated Microphone, Intel Core i5-4260U Processor (Dual-Core, 1.4GHz, 3MB Cache), 128GB SATA Solid State Drive (SSD), No Ethernet, 802.11AC and Bluetooth 4.0 + HS, Apple Mac OS X 10.9 Operating System, Energy Star Compliant, Integrated *[Intel HD Graphics 5000]*, 13.3-inch (1440x900) LED Display, Backlit Standard Keyboard and Touchpad, 0.68" x 12.8" x 8.94" (HxWxD); 3lbs
p17
sVBrand
p18
VApple
p19
sVProcessor Speed
p20
V1.4 Gigahertz
p21
sVManufacturer Part Number
p22
VMD760LLB-PB-3RCC-WAL5
p23
sVMaximum RAM Supported
p24
V4 Gigabytes
p25
sVHard Drive Capacity
p26
V128 Gigabytes
p27
sVBattery Life
p28
V12 Hours
p29
sVAssembled Product Dimensions (L x W x H)
p30
V0.80 x 8.90 x 0.70 Inches
p31
sVModel
p32
VA1466
p33
sVScreen Size
p34
V13.3 Inches
p35
sVProcessor Type
p36
VIntel Core i5
p37
ssS'title'
p38
VRefurbished Apple Macbook Air 13.3" LED Laptop Intel i5-4260U Dual Core 1.4GHz 8Gb 128GB SSD
p39
sb.