ccopy_reg
_reconstructor
p0
(c__main__
ProductRecord
p1
c__builtin__
object
p2
Ntp3
Rp4
(dp5
S'product_url'
p6
S'http://www.walmart.com/ip/Lenovo-ThinkPad-Yoga-260-12-5-Convertible-Notebook-w-Intel-i3-128GB-SSD/106931126'
p7
sS'price'
p8
S'N/A'
p9
sS'properties'
p10
(dp11
VRAM Memory
p12
V4 Gigabytes
p13
sVOperating System
p14
VWindows 10
p15
sVVideo Game Platform
p16
VPC
p17
sVBrand
p18
VLenovo
p19
sVProcessor Speed
p20
V2.3 Gigahertz
p21
sVManufacturer Part Number
p22
V20FD0001US
p23
sVMaximum RAM Supported
p24
V16 GB
p25
sVHard Drive Capacity
p26
V128 Gigabytes
p27
sVBattery Life
p28
V10 hours
p29
sVModel
p30
V20FD0001US
p31
sVScreen Size
p32
V12.50 Inches
p33
sVProcessor Type
p34
VIntel i3-6100U
p35
sVCondition
p36
VNew
p37
ssS'title'
p38
VLenovo ThinkPad Yoga 260 12.5" Convertible Notebook w/ Intel i3 & 128GB SSD
p39
sb.