ccopy_reg
_reconstructor
p0
(c__main__
ProductRecord
p1
c__builtin__
object
p2
Ntp3
Rp4
(dp5
S'product_url'
p6
S'http://www.walmart.com/ip/Apple-MacBook-Pro-15-Inch-Laptop-Quad-i7-2-0GHz-16GB-DDR3-Ram-1000GB-SSHD-AMD-Radeon-6490M-Graphics-OS-X-10-12-DVD-RW-Thunderbolt-Wifi-Refurbished/508652365'
p7
sS'price'
p8
V$999.95
p9
sS'properties'
p10
(dp11
VRAM Memory
p12
V16.00 GB
p13
sVOperating System
p14
VMac OSX 10.12, Sierra, Mac OS
p15
sVFeatures
p16
VNew 1 TB SSHD Hard Drive
p17
sVBrand
p18
VApple
p19
sVProcessor Speed
p20
V2.00 GHz
p21
sVManufacturer Part Number
p22
VMC721LL/A
p23
sVMaximum RAM Supported
p24
V16.00 GB
p25
sVHard Drive Capacity
p26
V1000 GB
p27
sVBattery Life
p28
V5 h
p29
sVModel
p30
VA1286
p31
sVScreen Size
p32
V15.4 in
p33
sVProcessor Type
p34
VIntel Core i7
p35
ssS'title'
p36
VApple MacBook Pro 15-Inch Laptop Quad i7 2.0GHz / 16GB DDR3 Ram / 1000GB SSHD / AMD Radeon 6490M Graphics / OS X 10.12 / DVD-RW / Thunderbolt / Wifi / (Refurbished)
p37
sb.