ccopy_reg
_reconstructor
p0
(c__main__
ProductRecord
p1
c__builtin__
object
p2
Ntp3
Rp4
(dp5
S'product_url'
p6
S'http://www.walmart.com/ip/Apple-MacBook-Air-MJVM2LL-A-Intel-Core-i5-5250U-X2-1-6GHz-4GB-128GB-SSD-11-6-Silver-Refurbished/519181104'
p7
sS'price'
p8
V$614.99
p9
sS'properties'
p10
(dp11
VRAM Memory
p12
V4 KB
p13
sVOperating System
p14
VApple Mac OS X 10.10??
p15
sVColor Category
p16
VSilver
p17
sVBrand
p18
VApple
p19
sVManufacturer Part Number
p20
VMJVM2LLA-PB-RCB-WAL6
p21
sVHard Drive Capacity
p22
V128 KB
p23
sVProcessor Type
p24
VIntel Core i5
p25
sVScreen Size
p26
V11.6 in
p27
sVModel
p28
VMJVM2LLA
p29
sVManufacturer
p30
VApple
p31
ssS'title'
p32
VApple MacBook Air MJVM2LL/A Intel Core i5-5250U X2 1.6GHz 4GB 128GB SSD 11.6",Silver (Refurbished)
p33
sb.