ccopy_reg
_reconstructor
p0
(c__main__
ProductRecord
p1
c__builtin__
object
p2
Ntp3
Rp4
(dp5
S'product_url'
p6
S'http://www.walmart.com/ip/Apple-MacBook-13-3-Refurbished-A1181-Notebook-Intel-Core-2-Duo-2-GB-RAM-120-gb-HDD-DVD-Writer-Nvidia-GeForce-9400M-Wifi-Webcam-Mac-OS-10-75-Lion/116442615'
p7
sS'price'
p8
V$122.95
p9
sS'properties'
p10
(dp11
VOperating System
p12
VMac OS X 10.7 Lion
p13
sVBrand
p14
VApple
p15
sVRAM Memory
p16
V2 GB
p17
sVScreen Size
p18
V13.3 in
p19
sVHard Drive Capacity
p20
V120 KB
p21
ssS'title'
p22
VApple MacBook 13.3" Refurbished - A1181 Notebook - Intel Core 2 Duo - 2 GB RAM - 120 gb HDD - DVD-Writer - Nvidia GeForce 9400M - Wifi - Webcam - Mac OS 10.75 Lion
p23
sb.