ccopy_reg
_reconstructor
p0
(c__main__
ProductRecord
p1
c__builtin__
object
p2
Ntp3
Rp4
(dp5
S'product_url'
p6
S'http://www.walmart.com/ip/Refurbished-MC905ll-A-Apple-MacBook-Air-13-inch-Laptop-SL9600-2-13GHz-Intel-C2D-4GB-RAM-OSX-Yosemite-10-10/157633976'
p7
sS'price'
p8
V$599.00
p9
sS'properties'
p10
(dp11
VBrand
p12
VApple
p13
sVRAM Memory
p14
V4 GB
p15
sVScreen Size
p16
V13
p17
sVManufacturer
p18
VApple Computer
p19
ssS'title'
p20
VRefurbished  MC905ll/A Apple MacBook Air - 13" inch Laptop SL9600 - 2.13GHz Intel C2D 4GB RAM - OSX Yosemite 10.10
p21
sb.