ccopy_reg
_reconstructor
p0
(c__main__
ProductRecord
p1
c__builtin__
object
p2
Ntp3
Rp4
(dp5
S'product_url'
p6
S'http://www.walmart.com/ip/Refurbished-Grade-A-Apple-MacBook-Air-11-6-1-6GHz-Core-i5-2GB-RAM-64GB-SSD-Silver/54066630'
p7
sS'price'
p8
V$469.00
p9
sS'properties'
p10
(dp11
VRAM Memory
p12
V2 GB
p13
sVOperating System
p14
VMac OS X 10.7
p15
sVFeatures
p16
VWhite Box Packaging
p17
sVVideo Game Platform
p18
VMac
p19
sVBrand
p20
VApple
p21
sVProcessor Speed
p22
V1.6 GHz
p23
sVManufacturer Part Number
p24
VMC968LL/A-Refurb A
p25
sVHard Drive Capacity
p26
V64 GB
p27
sVBattery Life
p28
V5 h
p29
sVAssembled Product Dimensions (L x W x H)
p30
V7.60 x 11.80 x 0.70 Inches
p31
sVModel
p32
VMC968LL/A-Refurb A
p33
sVScreen Size
p34
V11.6 in
p35
sVProcessor Type
p36
VIntel Core i5
p37
sVCondition
p38
VRefurbished
p39
ssS'title'
p40
VRefurbished Grade A Apple MacBook Air 11.6" 1.6GHz Core i5 2GB RAM 64GB SSD Silver
p41
sb.