ccopy_reg
_reconstructor
p0
(c__main__
ProductRecord
p1
c__builtin__
object
p2
Ntp3
Rp4
(dp5
S'product_url'
p6
S'http://www.walmart.com/ip/Refurbished-Apple-MacBook-Air-11-Core-i5-1-4-128GB-4GB-MD711LL-A-2013/152258171'
p7
sS'price'
p8
V$449.95
p9
sS'properties'
p10
(dp11
VRAM Memory
p12
V4 GB
p13
sVBrand
p14
VApple
p15
sVManufacturer Part Number
p16
VMD711LLA-PB-2RCC
p17
sVHard Drive Capacity
p18
V128 Gigabytes
p19
sVModel
p20
VMD711LL/ARFB
p21
sVScreen Size
p22
V11 Inches
p23
sVProcessor Speed
p24
V1.4 Gigahertz
p25
ssS'title'
p26
VRefurbished Apple MacBook Air 11" Core i5 [1.4] [128GB] [4GB] MD711LL/A(2013)
p27
sb.