ccopy_reg
_reconstructor
p0
(c__main__
ProductRecord
p1
c__builtin__
object
p2
Ntp3
Rp4
(dp5
S'product_url'
p6
S'http://www.walmart.com/ip/Refurbished-Apple-Macbook-Air-13-3-LED-Laptop-Intel-i5-4260U-Dual-Core-1-4GHz-8Gb-128GB-SSD/853029316'
p7
sS'price'
p8
V$524.95
p9
sS'properties'
p10
(dp11
VColor Category
p12
VSilver
p13
sVBrand
p14
VApple
p15
sVWireless Technology
p16
VIEEE 802.11g
p17
sVProcessor Type
p18
VIntel Core i5
p19
sVManufacturer
p20
VApple
p21
sVScreen Size
p22
V13.3 in
p23
sVmanufacturer_part_number
p24
Vmd760ll/b
p25
ssS'title'
p26
VRefurbished Apple Macbook Air 13.3" LED Laptop Intel i5-4260U Dual Core 1.4GHz 8Gb 128GB SSD
p27
sb.