ccopy_reg
_reconstructor
p0
(c__main__
ProductRecord
p1
c__builtin__
object
p2
Ntp3
Rp4
(dp5
S'product_url'
p6
S'http://www.walmart.com/ip/Apple-MacBook-Pro-Core-i7-2-8GHz-4GB-750GB-13-3-MD314LL-A-Refurbished/885634046'
p7
sS'price'
p8
V$499.97
p9
sS'properties'
p10
(dp11
VRAM Memory
p12
V4 GB
p13
sVAssembled Product Dimensions (L x W x H)
p14
V17.50 x 15.75 x 5.00 Inches
p15
sVBrand
p16
VApple
p17
sVManufacturer Part Number
p18
VMD314LLA-PB-RC
p19
sVHard Drive Capacity
p20
V750 GB
p21
sVProcessor Type
p22
VIntel Core i7
p23
sVScreen Size
p24
V13.3 in
p25
sVProcessor Speed
p26
V2.80 GHz
p27
ssS'title'
p28
VApple MacBook Pro Core i7 2.8GHz 4GB 750GB 13.3" MD314LL/A - Refurbished
p29
sb.