ccopy_reg
_reconstructor
p0
(c__main__
ProductRecord
p1
c__builtin__
object
p2
Ntp3
Rp4
(dp5
S'product_url'
p6
S'http://www.walmart.com/ip/Apple-MacBook-Pro-15-Late-2011/537571613'
p7
sS'price'
p8
V$839.99
p9
sS'properties'
p10
(dp11
VLaptop Computer Type
p12
VMacBooks
p13
sVBrand
p14
VApple
p15
sVScreen Size
p16
V15\u005c"
p17
sVManufacturer Part Number
p18
V9SIA9UW3J91867
p19
sVManufacturer
p20
VApple
p21
ssS'title'
p22
VApple MacBook Pro 15" (Late 2011)
p23
sb.