ccopy_reg
_reconstructor
p0
(c__main__
ProductRecord
p1
c__builtin__
object
p2
Ntp3
Rp4
(dp5
S'product_url'
p6
S'http://www.walmart.com/ip/Refurbished-Apple-MacBook-13-3-2010-A1342-Laptop-Core-2-Duo-2-40GHz-4GB-DDR3-128GB-SSD-OS-X-10-9-X-Mavericks/913469061'
p7
sS'price'
p8
V$349.99
p9
sS'properties'
p10
(dp11
VRAM Memory
p12
V4 Gigabytes
p13
sVOperating System
p14
VOS X 10.9 Mavericks
p15
sVVideo Game Platform
p16
VMac
p17
sVBrand
p18
VApple
p19
sVHard Drive Capacity
p20
V128 Gigabytes
p21
sVProcessor Type
p22
VIntel Core 2 Duo
p23
sVScreen Size
p24
V13.3 Inches
p25
sVProcessor Speed
p26
V2.4 Gigahertz
p27
ssS'title'
p28
VRefurbished Apple MacBook 13.3\u201d 2010 A1342 Laptop, Core 2 Duo 2.40GHz, 4GB DDR3, 128GB SSD, OS X 10.9.X Mavericks
p29
sb.