ccopy_reg
_reconstructor
p0
(c__main__
ProductRecord
p1
c__builtin__
object
p2
Ntp3
Rp4
(dp5
S'product_url'
p6
S'http://www.walmart.com/ip/Apple-MacBook-Pro-13-3-Inch-Laptop-Intel-Core-i5-2-4-GHz-500-GB-HDD-MD313LL-A-Silver-Certified-Refurbished/644184327'
p7
sS'price'
p8
V$449.99
p9
sS'properties'
p10
(dp11
VRAM Memory
p12
V4 GB
p13
sVOperating System
p14
VMac OS
p15
sVBrand
p16
VApple
p17
sVManufacturer Part Number
p18
VW-MD313-B3
p19
sVHard Drive Capacity
p20
V500 GB
p21
sVAssembled Product Dimensions (L x W x H)
p22
V12.50 x 9.50 x 0.65 Inches
p23
sVModel
p24
VW-MD313-B3
p25
sVScreen Size
p26
V13.3 in
p27
ssS'title'
p28
VApple MacBook Pro 13.3 Inch Laptop (Intel Core i5 2.4 GHz, 500 GB HDD) MD313LL/A (Silver) (Certified Refurbished)
p29
sb.