ccopy_reg
_reconstructor
p0
(c__main__
ProductRecord
p1
c__builtin__
object
p2
Ntp3
Rp4
(dp5
S'product_url'
p6
S'http://www.walmart.com/ip/Refurbished-Apple-Silver-13-3-MB990LL-A-MacBook-Pro-with-Intel-Core-2-Duo-Processor-2GB-Memory-160GB-Hard-Drive-and-Mac-OS-X-10-5-7/51471997'
p7
sS'price'
p8
V$344.99
p9
sS'properties'
p10
(dp11
VRAM Memory
p12
V2 GB
p13
sVOperating System
p14
VMac OS
p15
sVFeatures
p16
VEPEAT
p17
sVVideo Game Platform
p18
VMac
p19
sVBrand
p20
VApple
p21
sVProcessor Speed
p22
V2.26 GHz
p23
sVManufacturer Part Number
p24
VMB990LL/A-Refurb A
p25
sVMaximum RAM Supported
p26
V8 KB
p27
sVHard Drive Capacity
p28
V160 GB
p29
sVBattery Life
p30
V7 h
p31
sVAssembled Product Dimensions (L x W x H)
p32
V8.94 x 12.78 x 0.95 Inches
p33
sVModel
p34
VMB990LL/A-Refurb A
p35
sVScreen Size
p36
V13.3 in
p37
sVProcessor Type
p38
VIntel Core 2 Duo
p39
sVCondition
p40
VRefurbished
p41
ssS'title'
p42
VRefurbished Apple Silver 13.3" MB990LL/A MacBook Pro with Intel Core 2 Duo Processor, 2GB Memory, 160GB Hard Drive and Mac OS X 10.5.7
p43
sb.