ccopy_reg
_reconstructor
p0
(c__main__
ProductRecord
p1
c__builtin__
object
p2
Ntp3
Rp4
(dp5
S'product_url'
p6
S'http://www.walmart.com/ip/EBK-A1321-A1286-Apple-MacBook-Pro-15-4-15-inch-Mid-2010-MacBookPro6-2-Laptop-battery/396682699'
p7
sS'price'
p8
V$49.89
p9
sS'properties'
p10
(dp11
VBrand
p12
VEBK TRADING INC.
p13
sVScreen Size
p14
V15
p15
sVCondition
p16
VNew
p17
sVmanufacturer_part_number
p18
Va1321
p19
ssS'title'
p20
VEBK A1321 A1286 Apple MacBook Pro 15.4" 15-inch Mid 2010 MacBookPro6,2 Laptop battery
p21
sb.