ccopy_reg
_reconstructor
p0
(c__main__
ProductRecord
p1
c__builtin__
object
p2
Ntp3
Rp4
(dp5
S'product_url'
p6
S'http://www.walmart.com/ip/Apple-MacBook-Air-13-3-Core-i5-8-GB-RAM-128-GB-flash-storage-English/192689693'
p7
sS'price'
p8
V$914.98
p9
sS'properties'
p10
(dp11
VRAM Memory
p12
V8.00 GB
p13
sVOperating System
p14
VApple iOS
p15
sVColor Category
p16
VSilver
p17
sVVideo Game Platform
p18
VMac
p19
sVBrand
p20
VApple
p21
sVManufacturer Part Number
p22
VMMGF2LL/A
p23
sVWireless Technology
p24
VIEEE 802.11n
p25
sVLaptop Computer Type
p26
VMacBooks
p27
sVProcessor Core Type
p28
VDual-core (2 Core)
p29
sVProcessor Type
p30
VIntel Core i5
p31
sVScreen Size
p32
V12.0 in
p33
sVModel
p34
VMacBook Air
p35
sVCondition
p36
VNew
p37
sVManufacturer
p38
VApple
p39
ssS'title'
p40
VApple MacBook Air - 13.3" - Core i5 - 8 GB RAM - 128 GB flash storage - English
p41
sb.