ccopy_reg
_reconstructor
p0
(c__main__
ProductRecord
p1
c__builtin__
object
p2
Ntp3
Rp4
(dp5
S'product_url'
p6
S'http://www.walmart.com/ip/Apple-MacBook-Air-13-3-Laptop-Core-i5-1-6GHz-4GB-RAM-128GB-SSD-MJVE2LLA-Refurbished/895174414'
p7
sS'price'
p8
V$689.99
p9
sS'properties'
p10
(dp11
VRAM Memory
p12
V4 GB
p13
sVOperating System
p14
VMicrosoft Windows
p15
sVBrand
p16
VApple
p17
sVManufacturer Part Number
p18
VMJVE2LLA
p19
sVHard Drive Capacity
p20
V128
p21
sVScreen Size
p22
V13.3 in
p23
ssS'title'
p24
VApple MacBook Air 13.3" Laptop (Core i5 1.6GHz, 4GB RAM, 128GB SSD) MJVE2LLA (Refurbished)
p25
sb.