ccopy_reg
_reconstructor
p0
(c__main__
ProductRecord
p1
c__builtin__
object
p2
Ntp3
Rp4
(dp5
S'product_url'
p6
S'http://www.walmart.com/ip/Refurbished-Apple-MacBook-Pro-15-4-Intel-Core-2-Duo-2-53-4GB-320GB-Laptop-MB471LL-A-Scratch-and-Dent/153093351'
p7
sS'price'
p8
V$420.59
p9
sS'properties'
p10
(dp11
VOperating System
p12
VMay Come Standard with Mac OSX  10.5.5 or higher
p13
sVVideo Game Platform
p14
VMac OS
p15
sVBrand
p16
VApple
p17
sVProcessor Speed
p18
V2.5299999999999998 Gigahertz
p19
sVMaximum RAM Supported
p20
V4 Gigabytes
p21
sVHard Drive Capacity
p22
V320 Gigabytes
p23
sVModel
p24
VMB471LL/A
p25
sVScreen Size
p26
V15.4 Inches
p27
sVProcessor Type
p28
VIntel Core 2 Duo
p29
ssS'title'
p30
VRefurbished Apple MacBook Pro 15.4 Intel Core 2 Duo 2.53 4GB 320GB Laptop MB471LL/A (Scratch and Dent)
p31
sb.