ccopy_reg
_reconstructor
p0
(c__main__
ProductRecord
p1
c__builtin__
object
p2
Ntp3
Rp4
(dp5
S'product_url'
p6
S'http://www.walmart.com/ip/Refurbished-Apple-MacBook-11-6-Air-Intel-Core-i5-4250U-1-3GHz-8GB-128GB-SSD-MD711LLA-Laptop/198750949'
p7
sS'price'
p8
V$449.95
p9
sS'properties'
p10
(dp11
VRAM Memory
p12
V8 GB
p13
sVOperating System
p14
VMicrosoft Windows
p15
sVBrand
p16
VApple
p17
sVManufacturer Part Number
p18
VMD711LL/A-681-RB
p19
sVHard Drive Capacity
p20
V128 GB
p21
sVModel
p22
VMD711LLA
p23
sVScreen Size
p24
V11.6\u005c"
p25
ssS'title'
p26
VRefurbished - Apple MacBook 11.6" Air Intel Core i5-4250U 1.3GHz 8GB 128GB SSD MD711LLA Laptop
p27
sb.