ccopy_reg
_reconstructor
p0
(c__main__
ProductRecord
p1
c__builtin__
object
p2
Ntp3
Rp4
(dp5
S'product_url'
p6
S'http://www.walmart.com/ip/Apple-17-iMac-1-83GHz-Intel-Core-2-Duo-2GB-RAM-160GB-HD-MA710LL-A-Manufacturer-Refurbished/264380604'
p7
sS'price'
p8
V$179.99
p9
sS'properties'
p10
(dp11
VRAM Memory
p12
V2 GB
p13
sVOperating System
p14
VMicrosoft Windows
p15
sVBrand
p16
VApple
p17
sVManufacturer Part Number
p18
VMA710LL/A
p19
sVHard Drive Capacity
p20
V160 GB
p21
sVModel
p22
VMA710LL/A
p23
sVScreen Size
p24
V17\u005c"
p25
ssS'title'
p26
VApple 17" iMac 1.83GHz Intel Core 2 Duo 2GB RAM 160GB HD - MA710LL/A (Manufacturer Refurbished)
p27
sb.