ccopy_reg
_reconstructor
p0
(c__main__
ProductRecord
p1
c__builtin__
object
p2
Ntp3
Rp4
(dp5
S'product_url'
p6
S'http://www.walmart.com/ip/Refurbished-Apple-MacBook-Pro-MGXA2LL-A-2-2GHz-i7-16GB-240GB-SSD-Yosemite-15-LCD-Webcam-B/153442227'
p7
sS'price'
p8
V$839.20
p9
sS'properties'
p10
(dp11
VBrand
p12
VApple
p13
sVRAM Memory
p14
V16 GB
p15
sVScreen Size
p16
V15\u005c"
p17
sVModel
p18
VMacBook Pro A1398
p19
sVmanufacturer_part_number
p20
Vmgxa2ll/a
p21
ssS'title'
p22
VRefurbished Apple MacBook Pro MGXA2LL/A 2.2GHz i7 16GB 240GB SSD Yosemite 15" LCD Webcam B
p23
sb.