ccopy_reg
_reconstructor
p0
(c__main__
ProductRecord
p1
c__builtin__
object
p2
Ntp3
Rp4
(dp5
S'product_url'
p6
S'http://www.walmart.com/ip/Refurbished-Apple-MacBook-Pro-15-i5-2-4-320GB-4GB-MC371LL-A-2010/135120705'
p7
sS'price'
p8
V$465.19
p9
sS'properties'
p10
(dp11
VBrand
p12
VApple
p13
sVHard Drive Capacity
p14
V320 Gigabytes
p15
sVModel
p16
VMC371LL/ARFB
p17
sVScreen Size
p18
V15 Inches
p19
sVProcessor Speed
p20
V2.4 Gigahertz
p21
sVCondition
p22
VRefurbished
p23
ssS'title'
p24
VRefurbished Apple MacBook Pro 15" i5 [2.4] [320GB] [4GB] MC371LL/A(2010)
p25
sb.