ccopy_reg
_reconstructor
p0
(c__main__
ProductRecord
p1
c__builtin__
object
p2
Ntp3
Rp4
(dp5
S'product_url'
p6
S'http://www.walmart.com/ip/Off-Lease-REFURBISHED-Apple-MacBook-Pro-2-3GHz-Quad-Core-i7-4GB-500GB-DRW-15-LAPTOP-MD103LL-A-B-Grade/128586594'
p7
sS'price'
p8
V$729.99
p9
sS'properties'
p10
(dp11
VRAM Memory
p12
V4 Gigabytes
p13
sVOperating System
p14
VSnow Leopard (10.6)
p15
sVLaptop Computer Type
p16
VMacBooks
p17
sVBrand
p18
VApple
p19
sVManufacturer Part Number
p20
VMD103LL/A
p21
sVHard Drive Capacity
p22
V500 Gibibytes
p23
sVProcessor Type
p24
VIntel Core i7
p25
sVScreen Size
p26
V15 Inches
p27
sVModel
p28
V15" MacBook Pro MD103LL/A
p29
sVManufacturer
p30
VApple
p31
ssS'title'
p32
VOff Lease REFURBISHED Apple MacBook Pro 2.3GHz Quad Core i7 4GB 500GB DRW 15" LAPTOP MD103LL/A B Grade
p33
sb.