ccopy_reg
_reconstructor
p0
(c__main__
ProductRecord
p1
c__builtin__
object
p2
Ntp3
Rp4
(dp5
S'product_url'
p6
S'http://www.walmart.com/ip/Refurbished-Apple-MacBook-Pro-13-3-Intel-Core-2-Duo-2-26GHz-2GB-160GB-Laptop-MB990LL-A-Scratch-and-Dent/171915999'
p7
sS'price'
p8
V$348.86
p9
sS'properties'
p10
(dp11
VRAM Memory
p12
V2 GB
p13
sVOperating System
p14
VMay Come Standard with Mac OSX  10.5.7 or higher
p15
sVVideo Game Platform
p16
VMac OS
p17
sVBrand
p18
VApple
p19
sVProcessor Speed
p20
V2.2599999999999998 Gigahertz
p21
sVManufacturer Part Number
p22
VWM-MB990-PRO-C
p23
sVMaximum RAM Supported
p24
V2 Gigabytes
p25
sVHard Drive Capacity
p26
V160 Gigabytes
p27
sVAssembled Product Dimensions (L x W x H)
p28
V12.78 x 9.00 x 0.95 Inches
p29
sVModel
p30
VMB990LL/A
p31
sVScreen Size
p32
V13.3 Inches
p33
sVProcessor Type
p34
VIntel Core 2 Duo
p35
ssS'title'
p36
VRefurbished Apple MacBook Pro 13.3 Intel Core 2 Duo 2.26GHz 2GB 160GB Laptop MB990LL/A (Scratch and Dent)
p37
sb.