ccopy_reg
_reconstructor
p0
(c__main__
ProductRecord
p1
c__builtin__
object
p2
Ntp3
Rp4
(dp5
S'product_url'
p6
S'http://www.walmart.com/ip/Refurbished-Apple-MacBook-Pro-15-4-Retina-i7-3635QM-2-4GHz-16GB-256GB-SSD-Laptop-ME664LL-A/190428008'
p7
sS'price'
p8
V$1,299.98
p9
sS'properties'
p10
(dp11
VRAM Memory
p12
V16 GB
p13
sVOperating System
p14
VApple iOS
p15
sVVideo Game Platform
p16
VMac
p17
sVBrand
p18
VApple
p19
sVManufacturer Part Number
p20
VME664LLA-PB-RCB
p21
sVModel
p22
VME664LL/A
p23
sVScreen Size
p24
V15.4
p25
sVProcessor Type
p26
VIntel Core i7
p27
ssS'title'
p28
VRefurbished Apple MacBook Pro 15.4" Retina i7-3635QM 2.4GHz 16GB 256GB SSD Laptop ME664LL/A
p29
sb.