ccopy_reg
_reconstructor
p0
(c__main__
ProductRecord
p1
c__builtin__
object
p2
Ntp3
Rp4
(dp5
S'product_url'
p6
S'http://www.walmart.com/ip/Apple-Grade-Macbook-12-inch-Retina-Gold-1-1GHz-Core-m3-Early-2016-MLHE2LL-A-256-GB-SSD-8-GB-Memory-2304x1440-Display-Mac-OS-X-v10-12-Sierra-Power-Ada/332417573'
p7
sS'price'
p8
V$889.00
p9
sS'properties'
p10
(dp11
VRAM Memory
p12
V8.00 GB
p13
sVOperating System
p14
VMac OS
p15
sVFeatures
p16
VCondition: Refurbished
p17
sVBrand
p18
VApple
p19
sVManufacturer Part Number
p20
VMLHE2LL/A-GS
p21
sVMaximum RAM Supported
p22
V8.00 GB
p23
sVHard Drive Capacity
p24
V256.00 GB
p25
sVBattery Life
p26
V11 hours
p27
sVAssembled Product Dimensions (L x W x H)
p28
V7.70 x 11.00 x 0.50 Inches
p29
sVProcessor Type
p30
VIntel Core M3
p31
sVScreen Size
p32
V12.00 in
p33
sVProcessor Speed
p34
V1.10 GHz
p35
ssS'title'
p36
VApple A Grade Macbook 12-inch (Retina, Gold) 1.1GHz Core m3 (Early 2016) MLHE2LL/A 256 GB SSD 8 GB Memory 2304x1440 Display Mac OS X v10.12 Sierra Power Adapter Included
p37
sb.