ccopy_reg
_reconstructor
p0
(c__main__
ProductRecord
p1
c__builtin__
object
p2
Ntp3
Rp4
(dp5
S'product_url'
p6
S'http://www.walmart.com/ip/Apple-Certified-Refurbished-Grade-MacBook-Air-11-6-inch-Laptop-1-6GHz-Dual-Core-i5-Early-2015-MJVM2LL-A-128-GB-SSD-4-GB-Memory-1366-x-768-Display-Mac/642141979'
p7
sS'price'
p8
V$628.95
p9
sS'properties'
p10
(dp11
VRAM Memory
p12
V4 GB
p13
sVOperating System
p14
VMac OS
p15
sVFeatures
p16
VCondition: Refurbished
p17
sVBrand
p18
VApple
p19
sVProcessor Speed
p20
V1.6 GHz
p21
sVManufacturer Part Number
p22
VMJVM2LL/A-GS-EX
p23
sVMaximum RAM Supported
p24
V4 KB
p25
sVHard Drive Capacity
p26
V128 GB
p27
sVAssembled Product Dimensions (L x W x H)
p28
V11.68 x 7.56 x 0.68 Inches
p29
sVModel
p30
VW-MJVM2-A4
p31
sVScreen Size
p32
V11.6 in
p33
sVProcessor Type
p34
VIntel Core i5
p35
ssS'title'
p36
VApple Certified Refurbished A Grade MacBook Air 11.6-inch Laptop 1.6GHz Dual Core i5 (Early 2015) MJVM2LL/A 128 GB SSD 4 GB Memory 1366 x 768 Display Mac OS X v10.12 Sierra Power Adapter
p37
sb.