ccopy_reg
_reconstructor
p0
(c__main__
ProductRecord
p1
c__builtin__
object
p2
Ntp3
Rp4
(dp5
S'product_url'
p6
S'http://www.walmart.com/ip/Refurbished-Apple-MacBook-Air-13-3-LED-Laptop-Intel-i5-3317U-Dual-Core-1-7GHz-4GB-64GB-SSD/784871582'
p7
sS'price'
p8
V$449.95
p9
sS'properties'
p10
(dp11
VBrand
p12
VApple
p13
sVModel
p14
VMD628LLA
p15
sVManufacturer Part Number
p16
VMD628LLA-PB-RCC
p17
ssS'title'
p18
VRefurbished Apple MacBook Air 13.3" LED Laptop Intel i5-3317U Dual Core 1.7GHz 4GB 64GB SSD
p19
sb.