ccopy_reg
_reconstructor
p0
(c__main__
ProductRecord
p1
c__builtin__
object
p2
Ntp3
Rp4
(dp5
S'product_url'
p6
S'http://www.walmart.com/ip/Refurbished-Apple-Macbook-12-Core-m3-2016-1-1-256GB-8GB-Rose-Gold/487286204'
p7
sS'price'
p8
V$829.00
p9
sS'properties'
p10
(dp11
VRAM Memory
p12
V8.00 GB
p13
sVOperating System
p14
VMac OS X 10.10
p15
sVBrand
p16
VApple
p17
sVProcessor Speed
p18
V1.10 GHz
p19
sVManufacturer Part Number
p20
VMMGL2LL/A
p21
sVHard Drive Capacity
p22
V256.00 GB
p23
sVBattery Life
p24
V9.00 h
p25
sVModel
p26
VMMGL2LL/A
p27
sVScreen Size
p28
V12.00 in
p29
sVProcessor Type
p30
VCore m3
p31
sVCondition
p32
VRefurbished
p33
ssS'title'
p34
VRefurbished Apple Macbook 12" Core m3 2016 [1.1] [256GB] [8GB] - Rose Gold
p35
sb.