ccopy_reg
_reconstructor
p0
(c__main__
ProductRecord
p1
c__builtin__
object
p2
Ntp3
Rp4
(dp5
S'product_url'
p6
S'http://www.walmart.com/ip/Apple-MacBook-MC516LL-A-13-3-Inch-Laptop-OLD-VERSION/181623169'
p7
sS'price'
p8
V$429.99
p9
sS'properties'
p10
(dp11
sS'title'
p12
VApple MacBook MC516LL/A 13.3-Inch Laptop (OLD VERSION)
p13
sb.