ccopy_reg
_reconstructor
p0
(c__main__
ProductRecord
p1
c__builtin__
object
p2
Ntp3
Rp4
(dp5
S'product_url'
p6
S'http://www.walmart.com/ip/Refurbished-Apple-MacBook-Pro-Retina-Display-13-i5-2-4-128GB-4GB-ME864LL-A-2013/128139962'
p7
sS'price'
p8
V$831.49
p9
sS'properties'
p10
(dp11
VHard Drive Capacity
p12
V128 Gigabytes
p13
sVBrand
p14
VApple
p15
sVScreen Size
p16
V13 Inches
p17
sVModel
p18
VME864LL/ARFB
p19
sVProcessor Speed
p20
V2.4 Gigahertz
p21
ssS'title'
p22
VRefurbished Apple MacBook Pro Retina Display 13" i5 [2.4] [128GB] [4GB] ME864LL/A(2013)
p23
sb.