ccopy_reg
_reconstructor
p0
(c__main__
ProductRecord
p1
c__builtin__
object
p2
Ntp3
Rp4
(dp5
S'product_url'
p6
S'http://www.walmart.com/ip/Apple-MacBook-Air-13-3-Inch-Laptop-MD508LL-A-Grade-C-Scratch-and-Dent-Refurbished/807836541'
p7
sS'price'
p8
V$449.99
p9
sS'properties'
p10
(dp11
VBrand
p12
VApple
p13
ssS'title'
p14
VApple MacBook Air 13.3 Inch Laptop MD508LL/A Grade C (Scratch and Dent Refurbished)
p15
sb.