ccopy_reg
_reconstructor
p0
(c__main__
ProductRecord
p1
c__builtin__
object
p2
Ntp3
Rp4
(dp5
S'product_url'
p6
S'http://www.walmart.com/ip/Apple-MacBook-Pro-15-4-Inch-Laptop-Intel-QuadCore-i7-2-6GHz-16GB-DDR3-Memory-1TB-SSHD-Solid-State-Hybrid-Drive-Refurbished/137614797'
p7
sS'price'
p8
V$1,249.00
p9
sS'properties'
p10
(dp11
VRAM Memory
p12
V16 Gigabytes, 16 GB
p13
sVOperating System
p14
VMac OS
p15
sVBrand
p16
VApple
p17
sVProcessor Speed
p18
V2.6 Gigahertz
p19
sVMaximum RAM Supported
p20
V16 Gigabytes
p21
sVHard Drive Capacity
p22
V1 Terabytes, 1 TB
p23
sVAssembled Product Dimensions (L x W x H)
p24
V14.30 x 9.80 x 0.90 Inches
p25
sVModel
p26
VMD104LL/A
p27
sVScreen Size
p28
V15.4 Inches
p29
sVProcessor Type
p30
V22 nm "Ivy Bridge" 2.6 GHz Intel "Core i7"
p31
ssS'title'
p32
VApple MacBook Pro 15.4-Inch Laptop Intel QuadCore i7 2.6GHz / 16GB DDR3 Memory / 1TB SSHD  (Solid State Hybrid) Drive - Refurbished
p33
sb.