ccopy_reg
_reconstructor
p0
(c__main__
ProductRecord
p1
c__builtin__
object
p2
Ntp3
Rp4
(dp5
S'product_url'
p6
S'http://www.walmart.com/ip/Certified-Refurbished-Apple-Macbook-Pro-retina-13-3-i5-2015-2-7-128GB-8GB-MF839LL-A-90-Day-Warranty/510053063'
p7
sS'price'
p8
V$1,024.32
p9
sS'properties'
p10
(dp11
VRAM Memory
p12
V8 GB
p13
sVOperating System
p14
VOS X 10.10 Yosemite or higher(Upgrades to current OS)
p15
sVBrand
p16
VApple
p17
sVProcessor Speed
p18
V2.7 GHz
p19
sVManufacturer Part Number
p20
VMF839LLA-PB-RCC
p21
sVHard Drive Capacity
p22
V128 GB
p23
sVBattery Life
p24
V10 h
p25
sVModel
p26
VMF839LL/A
p27
sVScreen Size
p28
V13 in
p29
sVProcessor Type
p30
VIntel Core i5
p31
sVCondition
p32
VRefurbished
p33
ssS'title'
p34
VCertified Refurbished Apple Macbook Pro retina 13.3" i5 2015 [2.7] [128GB] [8GB] MF839LL/A - 90 Day Warranty
p35
sb.