ccopy_reg
_reconstructor
p0
(c__main__
ProductRecord
p1
c__builtin__
object
p2
Ntp3
Rp4
(dp5
S'product_url'
p6
S'http://www.walmart.com/ip/Apple-MacBook-Air-MD223LL-A-11-6-Inch-Laptop-1-3GHz-Intel-Core-i5-3317U-Dual-Core-4GB-RAM-64GB-SSD-Wi-Fi-Bluetooth-4-0-Certified-Refurbished/109155462'
p7
sS'price'
p8
V$449.99
p9
sS'properties'
p10
(dp11
VRAM Memory
p12
V4 Gigabytes
p13
sVOperating System
p14
VMac OS X
p15
sVLaptop Computer Type
p16
VMacBooks
p17
sVBrand
p18
VApple
p19
sVProcessor Type
p20
Vcore_i5
p21
sVScreen Size
p22
V11.6
p23
sVManufacturer
p24
VApple
p25
ssS'title'
p26
VApple MacBook Air MD223LL/A 11.6-Inch Laptop (1.3GHz Intel Core i5-3317U Dual-Core, 4GB RAM, 64GB SSD, Wi-Fi, Bluetooth 4.0) (Certified Refurbished)
p27
sb.