ccopy_reg
_reconstructor
p0
(c__main__
ProductRecord
p1
c__builtin__
object
p2
Ntp3
Rp4
(dp5
S'product_url'
p6
S'http://www.walmart.com/ip/Certified-Refurbished-Apple-MacBook-Pro-13-Inch-Laptop-2-26Ghz-Core-2-Duo-4GB-RAM-250GB-and-Up-HDD-MB990LL-A-Grade-B/651220770'
p7
sS'price'
p8
V$448.85
p9
sS'properties'
p10
(dp11
VRAM Memory
p12
V4 KB
p13
sVOperating System
p14
VMac OS X
p15
sVVideo Game Platform
p16
VMac
p17
sVBrand
p18
VApple
p19
sVProcessor Speed
p20
V2.26 Hz
p21
sVManufacturer Part Number
p22
VMB990LL/A
p23
sVHard Drive Capacity
p24
V250 KB
p25
sVAssembled Product Dimensions (L x W x H)
p26
V11.68 x 9.50 x 0.68 Inches
p27
sVModel
p28
VW-MB990-3204-B2
p29
sVScreen Size
p30
V13.3 in
p31
sVProcessor Type
p32
VIntel Core 2 Duo
p33
ssS'title'
p34
VCertified Refurbished - Apple MacBook Pro 13-Inch Laptop - 2.26Ghz Core 2 Duo / 4GB RAM / 250GB and Up HDD MB990LL/A (Grade B)
p35
sb.