ccopy_reg
_reconstructor
p0
(c__main__
ProductRecord
p1
c__builtin__
object
p2
Ntp3
Rp4
(dp5
S'product_url'
p6
S'http://www.walmart.com/ip/Apple-MacBook-Air-11-6-Inch-Laptop-MD711LL-A-Certified-Refurbished/135744297'
p7
sS'price'
p8
V$500.00
p9
sS'properties'
p10
(dp11
VLaptop Computer Type
p12
VMacBooks
p13
sVColor Category
p14
VSilver
p15
sVBrand
p16
VApple
p17
sVManufacturer Part Number
p18
VMBA-MD711LLA-B2
p19
sVManufacturer
p20
VApple
p21
ssS'title'
p22
VApple MacBook Air 11.6 Inch Laptop MD711LL/A (Certified Refurbished)
p23
sb.