ccopy_reg
_reconstructor
p0
(c__main__
ProductRecord
p1
c__builtin__
object
p2
Ntp3
Rp4
(dp5
S'product_url'
p6
S'http://www.walmart.com/ip/Apple-MacBook-Pro-Retina-Core-i5-Dual-Core-2-4GHz-4GB-128GB-SSD-13-3-Notebook-OS-X-w-Webcam-BT-Late-2013/336114838'
p7
sS'price'
p8
V$729.99
p9
sS'properties'
p10
(dp11
VBrand
p12
VApple
p13
sVRAM Memory
p14
V4 GB
p15
sVScreen Size
p16
V13.3 in
p17
sVHard Drive Capacity
p18
V128 GB
p19
ssS'title'
p20
VApple MacBook Pro Retina Core i5 Dual-Core 2.4GHz 4GB 128GB SSD 13.3" Notebook OS X w/Webcam & BT (Late 2013)
p21
sb.