ccopy_reg
_reconstructor
p0
(c__main__
ProductRecord
p1
c__builtin__
object
p2
Ntp3
Rp4
(dp5
S'product_url'
p6
S'http://www.walmart.com/ip/Apple-MacBook-Pro-MC721LL-A-Intel-Core-i7-2635QM-X4-2-0GHz-4GB-500GB-15-4-Silver-Scratch-And-Dent-Refurbished/133836590'
p7
sS'price'
p8
V$579.27
p9
sS'properties'
p10
(dp11
VRAM Memory
p12
V4 Gigabytes
p13
sVOperating System
p14
VApple Mac OS X 10.7
p15
sVFeatures
p16
V10/100/1000 Gigabit Ethernet, 802.11ABGN and Bluetooth 2.1 + EDR, SuperMulti-DVD Burner, 1MP Webcam and Integrated Microphone, Apple Mac OS X 10.7 Operating System, 9-cellLithium-Polymer Battery, Energy Star Compliant, Gold EPEAT, 500GB(5400RPM)SATA Hard Drive, 15.4-inch(1440 x 900)LED Display, Intel Core i7-2635QM Processor (Quad-Core, 2.0GHz, 6MB Cache), 2 x USB 2.0, Backlit Standard Keyboard and Touchpad, DedicatedAMD Radeon HD 6490M Graphics(0.3MB Dedicated Video Memory), 0.95" x 14.35" x 9.82" (HxWxD);5.6lbs, 4GBDDR3 System Memory
p17
sVBrand
p18
VApple
p19
sVManufacturer Part Number
p20
VMC721LL/A-C-RFB
p21
sVMaximum RAM Supported
p22
V16 Gigabytes
p23
sVHard Drive Capacity
p24
V500 Gigabytes
p25
sVBattery Life
p26
V7 Hours
p27
sVAssembled Product Dimensions (L x W x H)
p28
V14.40 x 9.80 x 1.00 Inches
p29
sVProcessor Type
p30
VIntel Core i7-2635QM
p31
sVScreen Size
p32
V15.4 Inches
p33
sVProcessor Speed
p34
V2.0 Gigahertz
p35
ssS'title'
p36
VApple MacBook Pro MC721LL/A Intel Core i7-2635QM X4 2.0GHz 4GB 500GB 15.4",Silver (Scratch And Dent Refurbished)
p37
sb.