ccopy_reg
_reconstructor
p0
(c__main__
ProductRecord
p1
c__builtin__
object
p2
Ntp3
Rp4
(dp5
S'product_url'
p6
S'http://www.walmart.com/ip/Refurbished-Apple-MacBook-Pro-13-3-LED-Intel-i5-3210M-Core-2-5GHz-4GB-500GB-Laptop-MD101LLA/497428849'
p7
sS'price'
p8
V$494.87
p9
sS'properties'
p10
(dp11
VRAM Memory
p12
V4 GB
p13
sVOperating System
p14
VMicrosoft Windows
p15
sVColor Category
p16
VSilver
p17
sVLaptop Computer Type
p18
VMacBooks
p19
sVBrand
p20
VApple
p21
sVManufacturer Part Number
p22
VMD101LLA-PB-RCB
p23
sVHard Drive Capacity
p24
V500 GB
p25
sVModel
p26
VMD101LL/A
p27
sVScreen Size
p28
V13.3 in
p29
sVManufacturer
p30
VApple
p31
ssS'title'
p32
VRefurbished Apple MacBook Pro 13.3" LED Intel i5-3210M Core 2.5GHz 4GB 500GB Laptop MD101LLA
p33
sb.