ccopy_reg
_reconstructor
p0
(c__main__
ProductRecord
p1
c__builtin__
object
p2
Ntp3
Rp4
(dp5
S'product_url'
p6
S'http://www.walmart.com/ip/Apple-MacBook-Pro-15-Inch-Retina-Laptop-Quad-i7-2-6GHz-16GB-DDR3-Memory-1TB-SSD-Geforce-GT-650M-1GB-Video-Thunderbolt-HDMI-Refurbished/726759052'
p7
sS'price'
p8
V$1,699.95
p9
sS'properties'
p10
(dp11
VRAM Memory
p12
V16 GB
p13
sVOperating System
p14
VMac OS
p15
sVBrand
p16
VApple
p17
sVProcessor Speed
p18
V2.6 GHz
p19
sVManufacturer Part Number
p20
VMC976LL/A
p21
sVMaximum RAM Supported
p22
V16 GB
p23
sVHard Drive Capacity
p24
V1 TB
p25
sVBattery Life
p26
V7 h
p27
sVAssembled Product Dimensions (L x W x H)
p28
V11.68 x 9.50 x 0.68 Inches
p29
sVModel
p30
VMC976LL/A
p31
sVScreen Size
p32
V15.4 in
p33
sVProcessor Type
p34
VIntel Core i7
p35
ssS'title'
p36
VApple MacBook Pro 15-Inch Retina Laptop Quad i7 2.6GHz / 16GB DDR3 Memory / 1TB SSD / Geforce GT 650M 1GB Video / Thunderbolt / HDMI (Refurbished)
p37
sb.