ccopy_reg
_reconstructor
p0
(c__main__
ProductRecord
p1
c__builtin__
object
p2
Ntp3
Rp4
(dp5
S'product_url'
p6
S'http://www.walmart.com/ip/Apple-MacBook-12-Core-m5-8-GB-RAM-512-GB-flash-storage-English/167287854'
p7
sS'price'
p8
V$1,368.99
p9
sS'properties'
p10
(dp11
VRAM Memory
p12
V8 GB
p13
sVOperating System
p14
VMac OS
p15
sVColor Category
p16
VGold
p17
sVVideo Game Platform
p18
VXbox One
p19
sVBrand
p20
VApple
p21
sVManufacturer Part Number
p22
VMLHF2LL/A
p23
sVWireless Technology
p24
VIEEE 802.11n
p25
sVLaptop Computer Type
p26
VMacBooks
p27
sVProcessor Core Type
p28
VDual-core (2 Core)
p29
sVProcessor Type
p30
VCore m5
p31
sVScreen Size
p32
V12 in
p33
sVModel
p34
VMLHF2LL/A
p35
sVCondition
p36
VNew
p37
sVManufacturer
p38
VApple
p39
ssS'title'
p40
VApple MacBook - 12" - Core m5 - 8 GB RAM - 512 GB flash storage - English
p41
sb.