ccopy_reg
_reconstructor
p0
(c__main__
ProductRecord
p1
c__builtin__
object
p2
Ntp3
Rp4
(dp5
S'product_url'
p6
S'http://www.walmart.com/ip/Refurbished-Macbook-Pro-15-4-Laptop-Core-i7-4GB-500GB-Glossy-MD318LL-A/204675378'
p7
sS'price'
p8
V$634.99
p9
sS'properties'
p10
(dp11
VRAM Memory
p12
V4 GB
p13
sVOperating System
p14
VMicrosoft Windows
p15
sVBrand
p16
VApple
p17
sVManufacturer Part Number
p18
VMD318LL-A
p19
sVHard Drive Capacity
p20
V500 GB
p21
sVScreen Size
p22
V15.4\u005c"
p23
sVCondition
p24
VRefurbished
p25
ssS'title'
p26
VRefurbished Macbook Pro 15.4" Laptop, Core i7, 4GB, 500GB, Glossy, MD318LL/A
p27
sb.