ccopy_reg
_reconstructor
p0
(c__main__
ProductRecord
p1
c__builtin__
object
p2
Ntp3
Rp4
(dp5
S'product_url'
p6
S'http://www.walmart.com/ip/Apple-MacBook-Pro-Core-i7-2635QM-Quad-Core-2-0GHz-4GB-500GB-DVD-RW-Radeon-HD-6490M-15-4-OS-X-w-Webcam-Early-2011-Refurbished/882123204'
p7
sS'price'
p8
V$749.99
p9
sS'properties'
p10
(dp11
VRAM Memory
p12
V4 GB
p13
sVOperating System
p14
VMicrosoft Windows
p15
sVLaptop Computer Type
p16
VMacBooks
p17
sVBrand
p18
VApple
p19
sVHard Drive Capacity
p20
V500
p21
sVScreen Size
p22
V15.4
p23
sVCondition
p24
VNew
p25
ssS'title'
p26
VApple MacBook Pro Core i7-2635QM Quad-Core 2.0GHz 4GB 500GB DVD?RW Radeon HD 6490M 15.4" OS X w/Webcam (Early 2011) - Refurbished
p27
sb.