ccopy_reg
_reconstructor
p0
(c__main__
ProductRecord
p1
c__builtin__
object
p2
Ntp3
Rp4
(dp5
S'product_url'
p6
S'http://www.walmart.com/ip/Certified-Refurbished-Apple-MacBook-Pro-13-Inch-Laptop-2-4Ghz-Core-2-Duo-4GB-RAM-250GB-MC374LL-A-Grade-A/185928981'
p7
sS'price'
p8
V$429.99
p9
sS'properties'
p10
(dp11
VRAM Memory
p12
V4 GB
p13
sVOperating System
p14
VMac OS
p15
sVBrand
p16
VApple
p17
sVManufacturer Part Number
p18
VMC374
p19
sVHard Drive Capacity
p20
V250 GB
p21
sVProcessor Type
p22
VIntel Core 2 Duo
p23
sVScreen Size
p24
V13.3 in
p25
sVModel
p26
VW-MC374-B3
p27
sVManufacturer
p28
VApple
p29
ssS'title'
p30
VCertified Refurbished - Apple MacBook Pro 13-Inch Laptop - 2.4Ghz Core 2 Duo / 4GB RAM / 250GB MC374LL/A (Grade A)
p31
sb.