ccopy_reg
_reconstructor
p0
(c__main__
ProductRecord
p1
c__builtin__
object
p2
Ntp3
Rp4
(dp5
S'product_url'
p6
S'http://www.walmart.com/ip/Apple-MacBook-Air-MC968LL-A-11-6-Inch-Laptop-OLD-VERSION/145927574'
p7
sS'price'
p8
V$399.99
p9
sS'properties'
p10
(dp11
VRAM Memory
p12
V2 GB
p13
sVOperating System
p14
VMac OS X 10.7 Lion
p15
sVLaptop Computer Type
p16
VMacBooks
p17
sVBrand
p18
VApple
p19
sVManufacturer Part Number
p20
VMC968LL/A
p21
sVWireless Technology
p22
VBluetooth 4.0
p23
sVProcessor Core Type
p24
VDual-core (2 Core)
p25
sVProcessor Type
p26
VIntel Core i5
p27
sVScreen Size
p28
V11.6"
p29
sVModel
p30
VMC968LL/A
p31
sVCondition
p32
VNew
p33
sVManufacturer
p34
VApple Computer
p35
ssS'title'
p36
VApple MacBook Air MC968LL/A 11.6-Inch Laptop (OLD VERSION)
p37
sb.