ccopy_reg
_reconstructor
p0
(c__main__
ProductRecord
p1
c__builtin__
object
p2
Ntp3
Rp4
(dp5
S'product_url'
p6
S'http://www.walmart.com/ip/Apple-Laptop-MacBook-Pro-17-0-Intel-Core-i7-620M-2-66-GHz-Turbo-3-33GHz-8GB-Ram-320GB-HDD-Refurbished/952063092'
p7
sS'price'
p8
V$899.99
p9
sS'properties'
p10
(dp11
VOperating System
p12
VMicrosoft Windows
p13
sVBrand
p14
VApple
p15
sVScreen Size
p16
V17 in
p17
sVHard Drive Capacity
p18
V320 KB
p19
ssS'title'
p20
VApple Laptop MacBook Pro 17.0" Intel Core i7 620M 2.66 GHz (Turbo 3.33GHz), 8GB Ram, 320GB HDD Refurbished
p21
sb.