ccopy_reg
_reconstructor
p0
(c__main__
ProductRecord
p1
c__builtin__
object
p2
Ntp3
Rp4
(dp5
S'product_url'
p6
S'http://www.walmart.com/ip/Apple-MacBook-Pro-Retina-display-Core-i5-2-4-GHz-OS-X-10-9-Mavericks-4-GB-RAM-128-GB-flash-storage-13-3-IPS-2560-x-1600-WQXGA-Iris-Graphics-Wi-Fi-kbd/761092677'
p7
sS'price'
p8
V$831.49
p9
sS'properties'
p10
(dp11
VRAM Memory
p12
V4.00 GB
p13
sVOperating System
p14
VMac OS
p15
sVLaptop Computer Type
p16
VMacBooks
p17
sVBrand
p18
VApple
p19
sVManufacturer Part Number
p20
VME864LL/A-GS
p21
sVHard Drive Capacity
p22
V128.00 GB
p23
sVProcessor Type
p24
VIntel Core i5
p25
sVScreen Size
p26
V13.30 in
p27
sVManufacturer
p28
VApple
p29
ssS'title'
p30
VApple MacBook Pro with Retina display - Core i5 2.4 GHz - OS X 10.9 Mavericks - 4 GB RAM - 128 GB flash storage - 13.3" IPS 2560 x 1600 (WQXGA) - Iris Graphics - Wi-Fi - kbd: English
p31
sb.