ccopy_reg
_reconstructor
p0
(c__main__
ProductRecord
p1
c__builtin__
object
p2
Ntp3
Rp4
(dp5
S'product_url'
p6
S'http://www.walmart.com/ip/Apple-MacBook-Pro-13-3-Inch-Laptop-2-26GHz-240GB-SSD-8GB-Memory-Refurbished/686526910'
p7
sS'price'
p8
V$549.00
p9
sS'properties'
p10
(dp11
VRAM Memory
p12
V8.00 GB
p13
sVOperating System
p14
VMac OS 10.10 Yosemite
p15
sVBrand
p16
VApple
p17
sVProcessor Speed
p18
V2.26 GHz
p19
sVMaximum RAM Supported
p20
V8.00 GB
p21
sVHard Drive Capacity
p22
V240.00 GB
p23
sVModel
p24
VMB990LL/A
p25
sVScreen Size
p26
V13.30 in
p27
sVProcessor Type
p28
V45 nm "Penryn" 2.26 GHz Intel "Core 2 Duo"
p29
ssS'title'
p30
VApple MacBook Pro 13.3-Inch Laptop 2.26GHz 240GB SSD / 8GB Memory - Refurbished
p31
sb.