ccopy_reg
_reconstructor
p0
(c__main__
ProductRecord
p1
c__builtin__
object
p2
Ntp3
Rp4
(dp5
S'product_url'
p6
S'http://www.walmart.com/ip/HP-EliteBook-x360-1030-G2-13-3-Core-i5-7200U-8-GB-RAM-128-GB-SSD-US/588137462'
p7
sS'price'
p8
S'N/A'
p9
sS'properties'
p10
(dp11
VRAM Memory
p12
V8 Gigabytes
p13
sVOperating System
p14
VWindows 10
p15
sVBrand
p16
VHP
p17
sVProcessor Speed
p18
V2.5 Gigahertz
p19
sVManufacturer Part Number
p20
V1NM36UT#ABA
p21
sVHard Drive Capacity
p22
V128 Gigabytes
p23
sVBattery Life
p24
V16 Hours
p25
sVAssembled Product Dimensions (L x W x H)
p26
V5.00 x 5.00 x 5.00 Inches
p27
sVModel
p28
V1NM36UT#ABA
p29
sVScreen Size
p30
V13.30 Inches
p31
sVProcessor Type
p32
VIntel i5-7200U
p33
ssS'title'
p34
VHP EliteBook x360 1030 G2 - 13.3" - Core i5 7200U - 8 GB RAM - 128 GB SSD - US
p35
sb.