ccopy_reg
_reconstructor
p0
(c__main__
ProductRecord
p1
c__builtin__
object
p2
Ntp3
Rp4
(dp5
S'product_url'
p6
S'http://www.walmart.com/ip/Apple-MacBook-Pro-ME665LL-A-Intel-Core-i7-3740QM-X4-2-7GHz-16GB-512GB-SSD-15-4-Scratch-Dent-Scratch-And-Dent-Refurbished/175325408'
p7
sS'price'
p8
V$1,461.33
p9
sS'properties'
p10
(dp11
VRAM Memory
p12
V16 Gigabytes
p13
sVOperating System
p14
VApple Mac OS X 10.8
p15
sVFeatures
p16
V0.71" x 14.13" x 9.73" (HxWxD);4.5lbs, 6-cellLithium-Polymer Battery, 15.4-inch(2880x1800)LED Display, No Ethernet, 802.11ABGN and Bluetooth 4.0 + HS, Intel Core i7-3740QM Processor (Quad-Core, 2.7GHz, 6MB Cache), 1MP Webcam and Integrated Microphone, 2 x USB 3.0, 1 x HDMI, 512GBSSD, Apple Mac OS X 10.8 Operating System, Energy Star Compliant, 16GBDDR3 System Memory, Backlit Standard Keyboard and Touchpad, DedicatedNVIDIA GeForce GT 650M(1.0GB Dedicated Video Memory)
p17
sVBrand
p18
VApple
p19
sVManufacturer Part Number
p20
VME665LL/A-C-RFB
p21
sVMaximum RAM Supported
p22
V16 Gigabytes
p23
sVHard Drive Capacity
p24
V512 Gigabytes
p25
sVBattery Life
p26
V7 Hours
p27
sVAssembled Product Dimensions (L x W x H)
p28
V14.10 x 9.70 x 0.70 Inches
p29
sVProcessor Type
p30
VIntel Core i7-3740QM
p31
sVScreen Size
p32
V15.4 Inches
p33
sVProcessor Speed
p34
V2.7 Gigahertz
p35
ssS'title'
p36
VApple MacBook Pro ME665LL/A Intel Core i7-3740QM X4 2.7GHz 16GB 512GB SSD 15.4"(Scratch & Dent) (Scratch And Dent Refurbished)
p37
sb.