ccopy_reg
_reconstructor
p0
(c__main__
ProductRecord
p1
c__builtin__
object
p2
Ntp3
Rp4
(dp5
S'product_url'
p6
S'http://www.walmart.com/ip/Apple-13-3-MacBook-Air-128GB-SSD-MQD32LL-A-White-Wired-Earbuds-Headphones-Padded-Case-For-Macbook-Fibercloth-Bundle/646272929'
p7
sS'price'
p8
V$894.99
p9
sS'properties'
p10
(dp11
VLaptop Computer Type
p12
VMacBooks
p13
sVBrand
p14
VApple
p15
sVHard Drive Capacity
p16
V128
p17
sVScreen Size
p18
V13.3
p19
sVCondition
p20
VNew
p21
sVManufacturer
p22
VApple
p23
ssS'title'
p24
VApple 13.3" MacBook Air 128GB SSD #MQD32LL/A + White Wired Earbuds Headphones + Padded Case For Macbook + Fibercloth Bundle
p25
sb.