ccopy_reg
_reconstructor
p0
(c__main__
ProductRecord
p1
c__builtin__
object
p2
Ntp3
Rp4
(dp5
S'product_url'
p6
S'http://www.walmart.com/ip/Apple-MacBook-Air-13-3-Inch-Laptop-MJVE2LL-A-Intel-Core-i5-1-6GHz-4GB-RAM-128GB-SSD-Certified-Refurbished/991356648'
p7
sS'price'
p8
V$689.99
p9
sS'properties'
p10
(dp11
VRAM Memory
p12
V4 GB
p13
sVOperating System
p14
VMicrosoft Windows
p15
sVBrand
p16
VApple
p17
sVManufacturer Part Number
p18
VWM-MJVE2-MBA-B
p19
sVHard Drive Capacity
p20
V128
p21
sVAssembled Product Dimensions (L x W x H)
p22
V1.80 x 8.94 x 0.68 Inches
p23
sVModel
p24
VWM-MJVE2-MBA-B
p25
sVScreen Size
p26
V13.3 in
p27
ssS'title'
p28
VApple MacBook Air 13.3 Inch Laptop MJVE2LL/A Intel Core i5 1.6GHz, 4GB RAM, 128GB SSD (Certified Refurbished)
p29
sb.