ccopy_reg
_reconstructor
p0
(c__main__
ProductRecord
p1
c__builtin__
object
p2
Ntp3
Rp4
(dp5
S'product_url'
p6
S'http://www.walmart.com/ip/Apple-Refurbished-MacBook-Pro-MD103LL-A-Intel-Core-i7-3615QM-X4-2-1GHz-4GB-500GB-Scratch-And-Dent-Refurbished/122736240'
p7
sS'price'
p8
V$677.82
p9
sS'properties'
p10
(dp11
VRAM Memory
p12
V4 Gigabytes
p13
sVOperating System
p14
VApple Mac OS X 10.7
p15
sVFeatures
p16
V10/100/1000 Gigabit Ethernet, 802.11ABGN and Bluetooth 2.1 + EDR, SuperMulti-DVD Burner, 2 x USB 3.0, 6-cell Lithium-Ion Battery, 15.4-inch (1440 x 900) LED Display, Intel Core i7-3615QM Processor (Quad-Core, 2.1GHz, 6MB Cache), Apple Mac OS X 10.7 Operating System, 500GB (5400RPM) SATA Hard Drive, Energy Star Compliant, Hybrid NVIDIA GeForce GT 650M (0.5MB Dedicated Video Memory), 0.95" x 14.35" x 9.82" (HxWxD); 5.6lbs, 4GB DDR3 Memory, Scratch and Dent computers will not have scratches or pits on the screen, missing or illegible letters on the keyboard, or damage to the touchpad or palm rest., Backlit Standard Keyboard and Touchpad, 2MP Webcam and Integrated Microphone
p17
sVBrand
p18
VApple
p19
sVManufacturer Part Number
p20
VMD103LL/A-RFB
p21
sVMaximum RAM Supported
p22
V16 Gigabytes
p23
sVHard Drive Capacity
p24
V500 Gigabytes
p25
sVBattery Life
p26
V6 Hours
p27
sVAssembled Product Dimensions (L x W x H)
p28
V14.40 x 9.80 x 1.00 Inches
p29
sVProcessor Type
p30
VIntel Core i7-3615QM
p31
sVScreen Size
p32
V15.4 Inches
p33
sVProcessor Speed
p34
V2.1 Gigahertz
p35
ssS'title'
p36
VApple Refurbished MacBook Pro MD103LL/A Intel Core i7-3615QM X4 2.1GHz 4GB 500GB (Scratch And Dent Refurbished)
p37
sb.