ccopy_reg
_reconstructor
p0
(c__main__
ProductRecord
p1
c__builtin__
object
p2
Ntp3
Rp4
(dp5
S'product_url'
p6
S'http://www.walmart.com/ip/Certified-Refurbished-Apple-Macbook-Pro-15-i7-2012-2-3-256GB-8GB-MC975LL-A/291928689'
p7
sS'price'
p8
V$1,004.27
p9
sS'properties'
p10
(dp11
VRAM Memory
p12
V8 GB
p13
sVOperating System
p14
VOS x 10.7 Lion
p15
sVBrand
p16
VApple
p17
sVProcessor Speed
p18
V2.3 GHz
p19
sVManufacturer Part Number
p20
VW-MC975-A1
p21
sVHard Drive Capacity
p22
V256 GB
p23
sVBattery Life
p24
V7 h
p25
sVAssembled Product Dimensions (L x W x H)
p26
V11.68 x 8.75 x 0.68 Inches
p27
sVModel
p28
VMC975LL/A
p29
sVScreen Size
p30
V15 in
p31
sVProcessor Type
p32
VIntel Core i7
p33
sVCondition
p34
VRefurbished
p35
ssS'title'
p36
VCertified Refurbished Apple Macbook Pro 15" i7 2012 [2.3] [256GB] [8GB] MC975LL/A
p37
sb.