ccopy_reg
_reconstructor
p0
(c__main__
ProductRecord
p1
c__builtin__
object
p2
Ntp3
Rp4
(dp5
S'product_url'
p6
S'http://www.walmart.com/ip/Certified-Refurbished-Apple-Macbook-Pro-13-core-i5-2011-2-4-500GB-4GB-MD313LL-A-90-Day-Warranty/319326012'
p7
sS'price'
p8
V$482.61
p9
sS'properties'
p10
(dp11
VRAM Memory
p12
V4 GB
p13
sVOperating System
p14
VOS x 10.7 Lion
p15
sVBrand
p16
VApple
p17
sVProcessor Speed
p18
V2.4 GHz
p19
sVManufacturer Part Number
p20
VMD313LLA-PB-RCC-WAL1
p21
sVHard Drive Capacity
p22
V500 GB
p23
sVBattery Life
p24
V7 h
p25
sVAssembled Product Dimensions (L x W x H)
p26
V17.50 x 15.50 x 5.00 Inches
p27
sVModel
p28
VMD313LL/A
p29
sVScreen Size
p30
V13 in
p31
sVProcessor Type
p32
VIntel Core i5
p33
sVCondition
p34
VRefurbished
p35
ssS'title'
p36
VCertified Refurbished Apple Macbook Pro 13" core i5 2011 [2.4] [500GB] [4GB] MD313LL/A - 90 Day Warranty
p37
sb.