ccopy_reg
_reconstructor
p0
(c__main__
ProductRecord
p1
c__builtin__
object
p2
Ntp3
Rp4
(dp5
S'product_url'
p6
S'http://www.walmart.com/ip/Apple-MacBook-Pro-MC975LL-A-Intel-Core-i7-3615QM-X4-2-3GHz-8GB-256GB-SSD-Silver-Scratch-And-Dent-Refurbished/145688162'
p7
sS'price'
p8
V$799.99
p9
sS'properties'
p10
(dp11
VRAM Memory
p12
V8 GB
p13
sVOperating System
p14
VMac OS
p15
sVLaptop Computer Type
p16
VMacBooks
p17
sVBrand
p18
VApple
p19
sVManufacturer Part Number
p20
VMC975LL/A-C-RFB
p21
sVHard Drive Capacity
p22
V256 GB
p23
sVProcessor Type
p24
VIntel Core i7-3615QM
p25
sVScreen Size
p26
V15.4 in
p27
sVModel
p28
V3615QM
p29
sVManufacturer
p30
VApple
p31
ssS'title'
p32
VApple MacBook Pro MC975LL/A Intel Core i7-3615QM X4 2.3GHz 8GB 256GB SSD,Silver (Scratch And Dent Refurbished)
p33
sb.