ccopy_reg
_reconstructor
p0
(c__main__
ProductRecord
p1
c__builtin__
object
p2
Ntp3
Rp4
(dp5
S'product_url'
p6
S'http://www.walmart.com/ip/Certified-Refurbished-Apple-Macbook-Pro-15-Retina-display-i7-2014-2-2-256GB-16GB-MGXA2LL-A-90-Day-Warranty/450812712'
p7
sS'price'
p8
V$1,282.05
p9
sS'properties'
p10
(dp11
VRAM Memory
p12
V16 GB
p13
sVOperating System
p14
VOS X Mavericks
p15
sVBrand
p16
VApple
p17
sVProcessor Speed
p18
V2.2 GHz
p19
sVHard Drive Capacity
p20
V256 GB
p21
sVBattery Life
p22
V8 h
p23
sVModel
p24
VMGXA2LL/A
p25
sVScreen Size
p26
V15 in
p27
sVProcessor Type
p28
VIntel Core i7
p29
sVCondition
p30
VRefurbished
p31
ssS'title'
p32
VCertified Refurbished - Apple Macbook Pro 15" Retina display i7 2014 [2.2] 256GB] [16GB] MGXA2LL/A - 90 Day Warranty
p33
sb.