ccopy_reg
_reconstructor
p0
(c__main__
ProductRecord
p1
c__builtin__
object
p2
Ntp3
Rp4
(dp5
S'product_url'
p6
S'http://www.walmart.com/ip/Apple-MacBook-Pro-15-Inch-Retina-Laptop-Quad-i7-2-5GHz-16GB-DDR3-Memory-1TB-PCIe-Flash-SSD-Radeon-R9-M370X-2GB-Video-OS-X-Sierra-Thunderbolt-HDMI-Ref/157871304'
p7
sS'price'
p8
V$2,299.95
p9
sS'properties'
p10
(dp11
VRAM Memory
p12
V16 GB
p13
sVOperating System
p14
VMac OS X 10.12 Sierra, Mac OS
p15
sVFeatures
p16
V1 TB SSD Pcie, AMD Radeon R9 M370X 2GB Dedicated Graphics
p17
sVBrand
p18
VApple
p19
sVProcessor Speed
p20
V2.5 GHz
p21
sVManufacturer Part Number
p22
VMJLT2LL/A
p23
sVMaximum RAM Supported
p24
V16 GB
p25
sVHard Drive Capacity
p26
V1000 GB
p27
sVBattery Life
p28
V7 h
p29
sVModel
p30
VMJLT2LL/A
p31
sVScreen Size
p32
V15.4 in
p33
sVProcessor Type
p34
VIntel Core i7, Quad Intel Core i7
p35
ssS'title'
p36
VApple MacBook Pro 15-Inch Retina Laptop Quad i7 2.5GHz / 16GB DDR3 Memory / 1TB PCIe Flash SSD / Radeon R9 M370X 2GB Video / OS X Sierra / Thunderbolt / HDMI / (Refurbished)
p37
sb.