ccopy_reg
_reconstructor
p0
(c__main__
ProductRecord
p1
c__builtin__
object
p2
Ntp3
Rp4
(dp5
S'product_url'
p6
S'http://www.walmart.com/ip/Apple-MacBook-Air-MMGG2LL-A-13-3-Inch-Laptop-Intel-Core-i5-8GB-RAM-256GB-SSD-2015-Model/434381544'
p7
sS'price'
p8
V$1,318.13
p9
sS'properties'
p10
(dp11
VBrand
p12
VApple
p13
sVRAM Memory
p14
V8 GB
p15
sVScreen Size
p16
V13.3\u005c"
p17
sVHard Drive Capacity
p18
V256 GB
p19
sVCondition
p20
VNew
p21
ssS'title'
p22
VApple MacBook Air MMGG2LL/A 13.3-Inch Laptop (Intel Core i5, 8GB RAM, 256GB SSD ), 2015 Model
p23
sb.