ccopy_reg
_reconstructor
p0
(c__main__
ProductRecord
p1
c__builtin__
object
p2
Ntp3
Rp4
(dp5
S'product_url'
p6
S'http://www.walmart.com/ip/Refurbished-Apple-Macbook-Air-MD231LL-A-13-3-inch-Laptop-Intel-Core-i5-3427U-X2-1-6GHz-4GB-128GB-SSD/100960109'
p7
sS'price'
p8
V$599.99
p9
sS'properties'
p10
(dp11
VRAM Memory
p12
V4 GB
p13
sVOperating System
p14
VMicrosoft Windows
p15
sVBrand
p16
VApple
p17
sVManufacturer Part Number
p18
VMBA-MD231LLA-B2
p19
sVHard Drive Capacity
p20
V128 GB
p21
sVAssembled Product Dimensions (L x W x H)
p22
V11.68 x 9.00 x 0.50 Inches
p23
sVModel
p24
VW-MD231-B3
p25
sVScreen Size
p26
V13.3\u005c"
p27
sVProcessor Speed
p28
V1.6 GHz
p29
ssS'title'
p30
VRefurbished Apple Macbook Air MD231LL/A 13.3-inch Laptop Intel Core i5-3427U X2 1.6GHz 4GB 128GB SSD
p31
sb.