ccopy_reg
_reconstructor
p0
(c__main__
ProductRecord
p1
c__builtin__
object
p2
Ntp3
Rp4
(dp5
S'product_url'
p6
S'http://www.walmart.com/ip/Certified-Refurbished-Apple-MacBook-Air-13-3-Inch-Laptop-1-4Ghz-Core-i5-4GB-RAM-128GB-SSD-MD760LL-A-Grade-B/965112281'
p7
sS'price'
p8
V$614.99
p9
sS'properties'
p10
(dp11
VRAM Memory
p12
V4 GB
p13
sVOperating System
p14
VMac OS X, Mac OS
p15
sVVideo Game Platform
p16
VMac
p17
sVBrand
p18
VApple
p19
sVManufacturer Part Number
p20
VMD760LL/A
p21
sVHard Drive Capacity
p22
V128 GB
p23
sVProcessor Type
p24
VIntel Core i5
p25
sVScreen Size
p26
V13.3 in
p27
sVProcessor Speed
p28
V1.4 GHz
p29
ssS'title'
p30
VCertified Refurbished - Apple MacBook Air 13.3-Inch Laptop  - 1.4Ghz Core i5 / 4GB RAM / 128GB SSD MD760LL/A (Grade B)
p31
sb.