ccopy_reg
_reconstructor
p0
(c__main__
ProductRecord
p1
c__builtin__
object
p2
Ntp3
Rp4
(dp5
S'product_url'
p6
S'http://www.walmart.com/ip/Refurbished-Apple-MacBook-Pro-15-4-Intel-Core-i7-2-6GHz-8GB-750GB-Laptop-MD104LL-A/172045925'
p7
sS'price'
p8
V$641.03
p9
sS'properties'
p10
(dp11
VRAM Memory
p12
V8 GB
p13
sVColor Category
p14
VSilver
p15
sVLaptop Computer Type
p16
VMacbooks
p17
sVBrand
p18
VApple
p19
sVHard Drive Capacity
p20
V750 Gigabytes
p21
sVProcessor Type
p22
VIntel Core i7
p23
sVScreen Size
p24
V15.4 Inches
p25
sVModel
p26
VMD104LL/A
p27
ssS'title'
p28
VRefurbished Apple MacBook Pro 15.4 Intel Core i7 2.6GHz 8GB 750GB Laptop MD104LL/A
p29
sb.