ccopy_reg
_reconstructor
p0
(c__main__
ProductRecord
p1
c__builtin__
object
p2
Ntp3
Rp4
(dp5
S'product_url'
p6
S'http://www.walmart.com/ip/Apple-MacBook-Pro-Retina-Core-i7-Quad-Core-2-4GHz-16GB-256GB-SSD-ME664LL-A-Refurbished/474422584'
p7
sS'price'
p8
V$1,169.99
p9
sS'properties'
p10
(dp11
VBrand
p12
VApple
p13
sVRAM Memory
p14
V16 GB
p15
sVHard Drive Capacity
p16
V256 GB
p17
sVCondition
p18
VRefurbished
p19
ssS'title'
p20
VApple MacBook Pro Retina Core i7 Quad-Core 2.4GHz 16GB 256GB SSD ME664LL/A - Refurbished
p21
sb.