ccopy_reg
_reconstructor
p0
(c__main__
ProductRecord
p1
c__builtin__
object
p2
Ntp3
Rp4
(dp5
S'product_url'
p6
S'http://www.walmart.com/ip/Refurbished-Apple-MacBook-Air-11-6-LED-Laptop-1-6GHz-Intel-i5-4GB-128GB-SSD-MJVM2LLA/289816434'
p7
sS'price'
p8
V$599.00
p9
sS'properties'
p10
(dp11
VRAM Memory
p12
V4 KB
p13
sVOperating System
p14
VMac OS
p15
sVFeatures
p16
VCondition: Refurbished
p17
sVBrand
p18
VApple
p19
sVProcessor Speed
p20
V1.6 Hz
p21
sVManufacturer Part Number
p22
VMJVM2LLA-PB-RCB-WAL3
p23
sVMaximum RAM Supported
p24
V4 KB
p25
sVHard Drive Capacity
p26
V512 KB
p27
sVBattery Life
p28
V10 hours
p29
sVAssembled Product Dimensions (L x W x H)
p30
V11.68 x 7.56 x 0.68 Inches
p31
sVModel
p32
VMJVM2LLA
p33
sVScreen Size
p34
V11.6 in
p35
sVProcessor Type
p36
VIntel Core i5
p37
ssS'title'
p38
VRefurbished - Apple MacBook Air 11.6" LED Laptop 1.6GHz Intel i5 4GB 128GB SSD MJVM2LLA
p39
sb.