ccopy_reg
_reconstructor
p0
(c__main__
ProductRecord
p1
c__builtin__
object
p2
Ntp3
Rp4
(dp5
S'product_url'
p6
S'http://www.walmart.com/ip/Refurbished-Macbook-5K4M2LL-A-12-Display-256GB-8GB-1-1GHz-Gold-2015/131982569'
p7
sS'price'
p8
V$959.69
p9
sS'properties'
p10
(dp11
VRAM Memory
p12
V8 Gibibytes
p13
sVOperating System
p14
VOS X 10.10
p15
sVBrand
p16
VApple
p17
sVHard Drive Capacity
p18
V256 Gibibytes
p19
sVProcessor Type
p20
VIntel Core M
p21
sVScreen Size
p22
V12 Inches
p23
sVProcessor Speed
p24
V1.1000000000000001 Gigahertz
p25
sVCondition
p26
VRefurbished
p27
sVmanufacturer_part_number
p28
V5k4m2ll/a
p29
ssS'title'
p30
VRefurbished Macbook 5K4M2LL/A 12" Display (256GB) 8GB 1.1GHz Gold(2015)
p31
sb.