ccopy_reg
_reconstructor
p0
(c__main__
ProductRecord
p1
c__builtin__
object
p2
Ntp3
Rp4
(dp5
S'product_url'
p6
S'http://www.walmart.com/ip/Refurbished-Dell-XPS-13-9365-2-in-1-i7-7Y75-16GB-256GB-PCIe-SSD-FHD-Touch-FingerPrint-W10/281189036'
p7
sS'price'
p8
S'N/A'
p9
sS'properties'
p10
(dp11
VRAM Memory
p12
V16.00 GB
p13
sVOperating System
p14
VWindows 10
p15
sVBrand
p16
VDell
p17
sVHard Drive Capacity
p18
V256.00 GB
p19
sVModel
p20
VXPS 13 9365 2-in-1
p21
sVScreen Size
p22
V13.3 in
p23
sVProcessor Type
p24
VIntel Core i7
p25
sVCondition
p26
VRefurbished
p27
ssS'title'
p28
VRefurbished Dell XPS 13 9365 2-in-1 i7-7Y75 16GB 256GB PCIe SSD FHD Touch + FingerPrint W10
p29
sb.