ccopy_reg
_reconstructor
p0
(c__main__
ProductRecord
p1
c__builtin__
object
p2
Ntp3
Rp4
(dp5
S'product_url'
p6
S'http://www.walmart.com/ip/Apple-MacBook-13-3-Laptop-PC-Intel-Core-2-Duo-P7550-Processor-2-26-GHz-2GB-Memory-250GB-Hard-Drive-OS-X-10-9-Mavericks-A1342-White-Pre-Owned/930806361'
p7
sS'price'
p8
V$351.95
p9
sS'properties'
p10
(dp11
VHard Drive Capacity
p12
V250 GB
p13
sVBrand
p14
VApple
p15
sVRAM Memory
p16
V2 GB
p17
sVScreen Size
p18
V13.3\u005c"
p19
sVModel
p20
VA1342XRX
p21
ssS'title'
p22
VApple MacBook 13.3" Laptop PC with Intel Core 2 Duo P7550 Processor (2.26 GHz), 2GB Memory, 250GB Hard Drive and OS X 10.9 Mavericks, A1342, White (Pre-Owned)
p23
sb.