ccopy_reg
_reconstructor
p0
(c__main__
ProductRecord
p1
c__builtin__
object
p2
Ntp3
Rp4
(dp5
S'product_url'
p6
S'http://www.walmart.com/ip/Certified-Refurbished-Apple-MacBook-Pro-15-Inch-Laptop-2-3Ghz-Core-i7-4GB-RAM-500GB-MD103LL-A-Grade-B/396322030'
p7
sS'price'
p8
V$789.89
p9
sS'properties'
p10
(dp11
VRAM Memory
p12
V4 Gigabytes
p13
sVOperating System
p14
VMac OS X
p15
sVVideo Game Platform
p16
VMac
p17
sVBrand
p18
VApple
p19
sVManufacturer Part Number
p20
VMD103LL/A
p21
sVHard Drive Capacity
p22
V500 Gigabytes
p23
sVProcessor Type
p24
VIntel Core i7
p25
sVScreen Size
p26
V15.4 Inches
p27
sVProcessor Speed
p28
V2.3 Gigahertz
p29
ssS'title'
p30
VCertified Refurbished - Apple MacBook Pro 15-Inch Laptop  - 2.3Ghz Core i7 / 4GB RAM / 500GB MD103LL/A (Grade B)
p31
sb.