ccopy_reg
_reconstructor
p0
(c__main__
ProductRecord
p1
c__builtin__
object
p2
Ntp3
Rp4
(dp5
S'product_url'
p6
S'http://www.walmart.com/ip/Refurbished-Apple-Macbook-Air-13-3-inch-i5-4260U-1-4GHz-Dual-Core-4GB-128GB-SSD-MD760LL-B/812832778'
p7
sS'price'
p8
V$529.99
p9
sS'properties'
p10
(dp11
VRAM Memory
p12
V4 GB
p13
sVBrand
p14
VApple
p15
sVManufacturer Part Number
p16
VMD760LLB-PB-RCC
p17
sVHard Drive Capacity
p18
V128 GB
p19
sVModel
p20
VMD760LL/B
p21
sVCondition
p22
VRefurbished
p23
ssS'title'
p24
VRefurbished Apple Macbook Air 13.3-inch i5-4260U 1.4GHz Dual-Core 4GB 128GB SSD MD760LL/B
p25
sb.