ccopy_reg
_reconstructor
p0
(c__main__
ProductRecord
p1
c__builtin__
object
p2
Ntp3
Rp4
(dp5
S'product_url'
p6
S'http://www.walmart.com/ip/Refurbished-Apple-MacBook-Air-MD711LL-A-11-6-Inch-Premium-Flagship-Laptop-1-3GHz-Intel-Core-i5-Dual-Core-4GB-RAM-128GB-SSD-Wi-Fi-Bluetooth-4-0/111199559'
p7
sS'price'
p8
V$500.00
p9
sS'properties'
p10
(dp11
VRAM Memory
p12
V4 Gigabytes
p13
sVOperating System
p14
VMac OS X
p15
sVBrand
p16
VApple
p17
sVHard Drive Capacity
p18
V128
p19
sVProcessor Type
p20
Vcore_i5
p21
sVScreen Size
p22
V11.6
p23
sVProcessor Speed
p24
V1.3 Gigahertz
p25
sVmanufacturer_part_number
p26
Vmd711ll/a
p27
ssS'title'
p28
VRefurbished Apple MacBook Air MD711LL/A 11.6-Inch Premium Flagship Laptop (1.3GHz Intel Core i5 Dual-Core, 4GB RAM, 128GB SSD, Wi-Fi, Bluetooth 4.0)
p29
sb.