ccopy_reg
_reconstructor
p0
(c__main__
ProductRecord
p1
c__builtin__
object
p2
Ntp3
Rp4
(dp5
S'product_url'
p6
S'http://www.walmart.com/ip/Genuine-BATTERY-A1493-Apple-MacBook-Pro-MacBook-Pro-13-inch-A1502-Late-2013-Retina-ME864LL-A-ME866LL-A-Apple-A1493-020-8148-Laptop-Notebook-battery-L/170900561'
p7
sS'price'
p8
V$94.99
p9
sS'properties'
p10
(dp11
VBrand
p12
VApple
p13
sVCondition
p14
VNew
p15
ssS'title'
p16
VGenuine BATTERY A1493 For Apple MacBook Pro MacBook Pro 13 inch A1502 Late 2013 Retina ME864LL/A* ME866LL/A / Apple A1493 020-8148 Laptop Notebook battery / Li-Polymer 11.34V 71.8Wh
p17
sb.