ccopy_reg
_reconstructor
p0
(c__main__
ProductRecord
p1
c__builtin__
object
p2
Ntp3
Rp4
(dp5
S'product_url'
p6
S'http://www.walmart.com/ip/Apple-Macbook-Pro-15-4-Laptop-Used-Refurbished-Intel-Core-2-2-2ghz-2GB-Ram-120GB-HD-Yosemite/896305403'
p7
sS'price'
p8
V$275.00
p9
sS'properties'
p10
(dp11
VRAM Memory
p12
V2 GB
p13
sVOperating System
p14
VOSX El Capitan or Yosemite
p15
sVBrand
p16
VApple
p17
sVHard Drive Capacity
p18
V120 GB
p19
sVProcessor Type
p20
VIntel Core 2 Duo
p21
sVScreen Size
p22
V15.4 in
p23
sVProcessor Speed
p24
V2 GHz
p25
sVCondition
p26
VNew
p27
ssS'title'
p28
VApple Macbook Pro 15.4 Laptop Used-Refurbished Intel Core 2 2.2ghz 2GB Ram 120GB HD Yosemite
p29
sb.