ccopy_reg
_reconstructor
p0
(c__main__
ProductRecord
p1
c__builtin__
object
p2
Ntp3
Rp4
(dp5
S'product_url'
p6
S'http://www.walmart.com/ip/Refurbished-Apple-Macbook-Air-13-3-LED-Laptop-Intel-i5-4260U-Dual-Core-1-4GHz-8Gb-128GB-SSD/965142339'
p7
sS'price'
p8
V$524.95
p9
sS'properties'
p10
(dp11
VRAM Memory
p12
V4 GB
p13
sVOperating System
p14
VMicrosoft Windows
p15
sVBrand
p16
VApple
p17
sVManufacturer Part Number
p18
VMD760LLB-PB-3RCC-WAL6
p19
sVHard Drive Capacity
p20
V128 GB
p21
sVModel
p22
VA1466
p23
sVScreen Size
p24
V13.3\u005c"
p25
sVCondition
p26
VRefurbished
p27
ssS'title'
p28
VRefurbished Apple Macbook Air 13.3" LED Laptop Intel i5-4260U Dual Core 1.4GHz 8Gb 128GB SSD
p29
sb.