ccopy_reg
_reconstructor
p0
(c__main__
ProductRecord
p1
c__builtin__
object
p2
Ntp3
Rp4
(dp5
S'product_url'
p6
S'http://www.walmart.com/ip/New-Apple-MacBook-Pro-Dual-Core-i5-5257U-2-7GHZ-512GB-SSD-16GB-13in-Mac-OS/228289090'
p7
sS'price'
p8
V$2,749.82
p9
sS'properties'
p10
(dp11
VHard Drive Capacity
p12
V512 GB
p13
sVRAM Memory
p14
V16 GB
p15
sVScreen Size
p16
V13\u005c"
p17
sVCondition
p18
VNew
p19
ssS'title'
p20
VNew Apple MacBook Pro Dual Core\u2122 i5-5257U 2.7GHZ 512GB SSD 16GB 13in Mac OS
p21
sb.