ccopy_reg
_reconstructor
p0
(c__main__
ProductRecord
p1
c__builtin__
object
p2
Ntp3
Rp4
(dp5
S'product_url'
p6
S'http://www.walmart.com/ip/Refurbished-Apple-MacBook-Pro-15-Inch-Retina-Laptop-Quad-i7-2-2GHz-16GB-DDR3-Memory-1TB-PCIe-Flash-SSD-Iris-Pro-1-5GB-Graphics-OS-X-Sierra-Thunderbol/357917079'
p7
sS'price'
p8
V$1,999.95
p9
sS'properties'
p10
(dp11
VRAM Memory
p12
V16 GB
p13
sVOperating System
p14
VMac OS X 10.12 Sierra, Mac OS
p15
sVFeatures
p16
V1 Terabytes Hard Drive
p17
sVBrand
p18
VApple
p19
sVProcessor Speed
p20
V2.2 GHz
p21
sVManufacturer Part Number
p22
VMJLQ2LL/A
p23
sVMaximum RAM Supported
p24
V16 GB
p25
sVHard Drive Capacity
p26
V1000 GB
p27
sVBattery Life
p28
V7 h
p29
sVModel
p30
VIntel Iris Pro 5200 1.5GB Video - MJLQ2LL/A
p31
sVScreen Size
p32
V15.4 in
p33
sVProcessor Type
p34
VIntel Quad Core i7, Intel Core i7
p35
ssS'title'
p36
VRefurbished Apple MacBook Pro 15-Inch Retina Laptop Quad i7 2.2GHz / 16GB DDR3 Memory / 1TB PCIe Flash SSD / Iris Pro 1.5GB Graphics / OS X Sierra / Thunderbolt / HDMI
p37
sb.