ccopy_reg
_reconstructor
p0
(c__main__
ProductRecord
p1
c__builtin__
object
p2
Ntp3
Rp4
(dp5
S'product_url'
p6
S'http://www.walmart.com/ip/Refurbished-Apple-MacBook-Air-11-6-Laptop-Intel-Core-i5-4260U-1-4GHz-4GB-128GB-SSD-MD711LLB/474532345'
p7
sS'price'
p8
V$399.95
p9
sS'properties'
p10
(dp11
VRAM Memory
p12
V4 Gigabytes
p13
sVOperating System
p14
VmacOS 10.12
p15
sVFeatures
p16
V11.6-inch (1366 x 768) LED Display, 0.68" x 11.8" x 7.56" (HxWxD); 2.4lbs, 4GB DDR3 System Memory, No Ethernet, 802.11ABGN and Bluetooth 4.0 + HS, 1MP Webcam and Integrated Microphone, Intel Core i5-4260U Processor (Dual-Core, 1.4GHz, 3MB Cache), This Certified Refurbished product is tested and certified to look and work like new. The refurbishing process includes functionality testing, basic cleaning, inspection, and repackaging. The product ships with all relevant accessories, a minimum 90-day warranty, and may arrive in a generic box., 3-cell Lithium-Polymer Battery, macOS 10.12 Operating System, 120GB Solid State Drive (SSD), 2 x USB 2.0, Integrated Intel HD Graphics, Backlit Standard Keyboard and Touchpad
p17
sVBrand
p18
VApple
p19
sVProcessor Speed
p20
V1.4 Gigahertz
p21
sVManufacturer Part Number
p22
VMD711LLB-PB-RCC-WAL9
p23
sVMaximum RAM Supported
p24
V4 Gigabytes
p25
sVHard Drive Capacity
p26
V120 Gigabytes
p27
sVBattery Life
p28
V9 Hours
p29
sVAssembled Product Dimensions (L x W x H)
p30
V11.80 x 7.60 x 0.70 Inches
p31
sVModel
p32
VMacBook
p33
sVScreen Size
p34
V11.6 Inches
p35
sVProcessor Type
p36
VIntel Core i5
p37
ssS'title'
p38
VRefurbished Apple MacBook Air 11.6" Laptop Intel Core i5-4260U 1.4GHz 4GB 128GB SSD MD711LLB
p39
sb.