ccopy_reg
_reconstructor
p0
(c__main__
ProductRecord
p1
c__builtin__
object
p2
Ntp3
Rp4
(dp5
S'product_url'
p6
S'http://www.walmart.com/ip/Apple-MacBook-Core-m5-1-2-GHz-OS-X-10-12-Sierra-8-GB-RAM-512-GB-flash-storage-12-IPS-2304-x-1440-HD-Graphics-515-Wi-Fi-rose-gold-kbd-Spanish/143169092'
p7
sS'price'
p8
V$1,450.99
p9
sS'properties'
p10
(dp11
VRAM Memory
p12
V8 GB
p13
sVOperating System
p14
VMac OS X 10.11 El Capitan, Mac OS
p15
sVBrand
p16
VApple
p17
sVProcessor Speed
p18
V1.2 GHz
p19
sVManufacturer Part Number
p20
VMMGM2E/A
p21
sVBattery Life
p22
V11 hours
p23
sVAssembled Product Dimensions (L x W x H)
p24
V7.70 x 11.00 x 0.50 Inches
p25
sVModel
p26
VHD Graphics 515, MMGM2E/A
p27
sVScreen Size
p28
V12"
p29
sVProcessor Type
p30
VCore m5
p31
sVCondition
p32
VNew
p33
ssS'title'
p34
VApple MacBook - Core m5 1.2 GHz - OS X 10.12 Sierra - 8 GB RAM - 512 GB flash storage - 12" IPS 2304 x 1440 - HD Graphics 515 - Wi-Fi - rose gold - kbd: Spanish
p35
sb.