ccopy_reg
_reconstructor
p0
(c__main__
ProductRecord
p1
c__builtin__
object
p2
Ntp3
Rp4
(dp5
S'product_url'
p6
S'http://www.walmart.com/ip/Certified-Refurbished-Apple-Macbook-Pro-15-i7-2011-2-4-750GB-4GB-MD322LL-A-90-Day-Warranty/218716280'
p7
sS'price'
p8
V$725.32
p9
sS'properties'
p10
(dp11
VRAM Memory
p12
V4 GB
p13
sVOperating System
p14
VMac OS X v10.7 Lion
p15
sVBrand
p16
VApple
p17
sVProcessor Speed
p18
V2.4 GHz
p19
sVHard Drive Capacity
p20
V750 GB
p21
sVBattery Life
p22
V7 h
p23
sVModel
p24
VMD322LL/A
p25
sVScreen Size
p26
V15 in
p27
sVProcessor Type
p28
VIntel Core i7
p29
sVCondition
p30
VRefurbished
p31
ssS'title'
p32
VCertified Refurbished Apple Macbook Pro 15" i7 2011 [2.4] [750GB] [4GB] MD322LL/A - 90 Day Warranty
p33
sb.