ccopy_reg
_reconstructor
p0
(c__main__
ProductRecord
p1
c__builtin__
object
p2
Ntp3
Rp4
(dp5
S'product_url'
p6
S'http://www.walmart.com/ip/Refurbished-Apple-MacBook-Pro-15-4-Intel-Core-i7-2-3GHz-8GB-256GB-Laptop-MC975LL-A/152056225'
p7
sS'price'
p8
V$1,066.99
p9
sS'properties'
p10
(dp11
VRAM Memory
p12
V8.00 GB
p13
sVColor Category
p14
VSilver
p15
sVVideo Game Platform
p16
VMac OS
p17
sVBrand
p18
VApple
p19
sVManufacturer Part Number
p20
VMC975LL
p21
sVHard Drive Capacity
p22
V256 Gigabytes
p23
sVLaptop Computer Type
p24
VMacbooks
p25
sVProcessor Type
p26
VIntel Core i7
p27
sVScreen Size
p28
V15.4 Inches
p29
sVModel
p30
VMC975LL/A
p31
sVManufacturer
p32
VApple
p33
ssS'title'
p34
VRefurbished Apple MacBook Pro 15.4 Intel Core i7 2.3GHz 8GB 256GB Laptop MC975LL/A
p35
sb.