ccopy_reg
_reconstructor
p0
(c__main__
ProductRecord
p1
c__builtin__
object
p2
Ntp3
Rp4
(dp5
S'product_url'
p6
S'http://www.walmart.com/ip/Apple-MacBook-Pro-MC024LL-A-Intel-Core-i7-620M-X2-2-66GHz-4GB-500GB-Silver-Certified-Refurbished/876334348'
p7
sS'price'
p8
V$547.41
p9
sS'properties'
p10
(dp11
VRAM Memory
p12
V4 Gigabytes
p13
sVOperating System
p14
VApple Mac OS X 10.6
p15
sVFeatures
p16
V3 x USB 2.0, 4GB DDR3 System Memory, SuperMulti-DVD Burner, 6-cell Lithium-Ion Battery, This Certified Refurbished product is tested and certified to look and work like new. The refurbishing process includes functionality testing, basic cleaning, inspection, and repackaging. The product ships with all relevant accessories, a minimum 90-day warranty, and may arrive in a generic box., 500GB (5400RPM) SATA Hard Disk Drive (HDD), 10/100/1000 Gigabit Ethernet, 802.11N and Bluetooth 2.1 + EDR, Energy Star Compliant, Gold EPEAT, Intel Core i7-620M Processor (Dual-Core, 2.66GHz, 4MB Cache), 0.95" x 14.35" x 9.82" (HxWxD); 5.6lbs, 17-inch (1920 x 1200) LCD Display, Apple Mac OS X 10.6 Operating System, Backlit Standard Keyboard, Hybrid NVIDIA GeForce GT 330M Graphics (0.3MB Dedicated Video Memory), 2MP Webcam and Integrated Microphone
p17
sVBrand
p18
VApple
p19
sVManufacturer Part Number
p20
VMC024LL/A-RFB
p21
sVMaximum RAM Supported
p22
V8 Gigabytes
p23
sVHard Drive Capacity
p24
V500 Gigabytes
p25
sVBattery Life
p26
V8 Hours
p27
sVAssembled Product Dimensions (L x W x H)
p28
V14.40 x 9.80 x 1.00 Inches
p29
sVProcessor Type
p30
VIntel Core i7-620M
p31
sVScreen Size
p32
V17 Inches
p33
sVProcessor Speed
p34
V2.66 Gigahertz
p35
ssS'title'
p36
VApple MacBook Pro MC024LL/A Intel Core i7-620M X2 2.66GHz 4GB 500GB, Silver (Certified Refurbished)
p37
sb.