ccopy_reg
_reconstructor
p0
(c__main__
ProductRecord
p1
c__builtin__
object
p2
Ntp3
Rp4
(dp5
S'product_url'
p6
S'http://www.walmart.com/ip/Apple-MacBook-Pro-MD831LL-A-Intel-Core-i7-3820QM-X4-2-7GHz-8GB-512GB-Silver-Certified-Refurbished/607036870'
p7
sS'price'
p8
V$1,069.99
p9
sS'properties'
p10
(dp11
VRAM Memory
p12
V8 Gigabytes
p13
sVOperating System
p14
VApple Mac OS X 10.7
p15
sVFeatures
p16
VNo Ethernet, 802.11ABGN and Bluetooth 4.0 + HS, 6-cell Lithium-Polymer Battery, 1MP Webcam and Integrated Microphone, Hybrid NVIDIA GeForce GT 650M Graphics (1.0GB Dedicated Video Memory), This Certified Refurbished product is tested and certified to look and work like new. The refurbishing process includes functionality testing, basic cleaning, inspection, and repackaging. The product ships with all relevant accessories, a minimum 90-day warranty, and may arrive in a generic box., 2 x USB 3.0, 1 x HDMI, 15.4-inch (2880 x 1800) LED Display, 0.71" x 14.13" x 9.73" (HxWxD); 4.5lbs, Apple Mac OS X 10.7 Operating System, Energy Star Compliant, 8GB DDR3 System Memory, 512GB Solid State Drive (SSD), Backlit Standard Keyboard and Touchpad, Intel Core i7-3820QM Processor (Quad-Core, 2.7GHz, 8MB Cache)
p17
sVBrand
p18
VApple
p19
sVManufacturer Part Number
p20
VMD831LL/A-RFB
p21
sVMaximum RAM Supported
p22
V8 Gigabytes
p23
sVHard Drive Capacity
p24
V512 Gigabytes
p25
sVBattery Life
p26
V7 Hours
p27
sVAssembled Product Dimensions (L x W x H)
p28
V14.10 x 9.70 x 0.70 Inches
p29
sVProcessor Type
p30
VIntel Core i7-3820QM
p31
sVScreen Size
p32
V15.4 Inches
p33
sVProcessor Speed
p34
V2.7 Gigahertz
p35
ssS'title'
p36
VApple MacBook Pro MD831LL/A Intel Core i7-3820QM X4 2.7GHz 8GB 512GB, Silver (Certified Refurbished)
p37
sb.