ccopy_reg
_reconstructor
p0
(c__main__
ProductRecord
p1
c__builtin__
object
p2
Ntp3
Rp4
(dp5
S'product_url'
p6
S'http://www.walmart.com/ip/Apple-MacBook-Pro-ME864LL-A-13-3-Inch-Laptop-with-Retina-Display-Certified-Refurbished/525053717'
p7
sS'price'
p8
V$899.00
p9
sS'properties'
p10
(dp11
VAssembled Product Dimensions (L x W x H)
p12
V1.00 x 1.00 x 1.00 Inches
p13
sVBrand
p14
VApple
p15
sVScreen Size
p16
V13.3\u005c"
p17
sVManufacturer Part Number
p18
VCRTAPME864LLARB
p19
ssS'title'
p20
VApple MacBook Pro ME864LL/A 13.3-Inch Laptop with Retina Display - (Certified Refurbished)
p21
sb.