ccopy_reg
_reconstructor
p0
(c__main__
ProductRecord
p1
c__builtin__
object
p2
Ntp3
Rp4
(dp5
S'product_url'
p6
S'http://www.walmart.com/ip/Refurbished-Apple-MacBook-Pro-15-4-Retina-Laptop-Intel-i7-3635QM-Quad-Core-8GB-256GB-SSD/117521877'
p7
sS'price'
p8
V$859.95
p9
sS'properties'
p10
(dp11
VRAM Memory
p12
V8 Gigabytes
p13
sVOperating System
p14
VApple Mac OS X 10.8
p15
sVFeatures
p16
VNo Ethernet, 802.11ABGN and Bluetooth 4.0 + HS, Backlit Standard Keyboard and Multi-touch Trackpad, 1MP Webcam and Integrated Microphone, Hybrid NVIDIA GeForce GT 650M Graphics (1.0GB Dedicated Video Memory), 14.13" x 9.73" x 0.71" (HxWxD); 4.5lbs, 2 x USB 3.0, 1 x HDMI, Intel Core i7-3635QM Processor (Quad-Core, 2.4GHz, 6MB Cache), Apple Mac OS X 10.8 Operating System, 15.4-inch (2880 x 1800) LCD Display, 256GB (7200RPM) SATA Hard Disk Drive (HDD), Gold EPEAT, 8GB DDR3 System Memory, 4-cell Lithium-Polymer Battery
p17
sVBrand
p18
VApple
p19
sVProcessor Speed
p20
V2.4 Gigahertz
p21
sVManufacturer Part Number
p22
VME664LLA-PB-2RCC-WAL5
p23
sVMaximum RAM Supported
p24
V8 Gigabytes
p25
sVHard Drive Capacity
p26
V256 Gigabytes
p27
sVBattery Life
p28
V7 Hours
p29
sVAssembled Product Dimensions (L x W x H)
p30
V9.70 x 0.70 x 14.10 Inches
p31
sVModel
p32
VMacBook Pro Retina A1398
p33
sVScreen Size
p34
V15.4 Inches
p35
sVProcessor Type
p36
VIntel Core i7-3635QM
p37
ssS'title'
p38
VRefurbished Apple MacBook Pro 15.4" Retina Laptop Intel i7-3635QM Quad Core 8GB 256GB SSD
p39
sb.