ccopy_reg
_reconstructor
p0
(c__main__
ProductRecord
p1
c__builtin__
object
p2
Ntp3
Rp4
(dp5
S'product_url'
p6
S'http://www.walmart.com/ip/Refurbished-Apple-A-Grade-Macbook-Pro-15-4-inch-Laptop-Retina-DG-2-5Ghz-Quad-Core-i7-Mid-2014-MGXC2LL-A-512-GB-SSD-16-GB/582298492'
p7
sS'price'
p8
V$1,449.00
p9
sS'properties'
p10
(dp11
VRAM Memory
p12
V16 GB
p13
sVOperating System
p14
VMac OS
p15
sVFeatures
p16
VCondition: Refurbished
p17
sVBrand
p18
VApple
p19
sVProcessor Speed
p20
V2.5 GHz
p21
sVManufacturer Part Number
p22
VMGXC2LL/A-AGS
p23
sVMaximum RAM Supported
p24
V16 KB
p25
sVHard Drive Capacity
p26
V512 GB
p27
sVAssembled Product Dimensions (L x W x H)
p28
V13.00 x 11.00 x 0.35 Inches
p29
sVModel
p30
VW-MGXA2-A2
p31
sVScreen Size
p32
V15.4 in
p33
sVProcessor Type
p34
VIntel Core i7
p35
ssS'title'
p36
VRefurbished Apple A Grade Macbook Pro 15.4-inch Laptop (Retina DG) 2.5Ghz Quad Core i7 (Mid 2014) MGXC2LL/A 512 GB SSD 16 GB
p37
sb.