ccopy_reg
_reconstructor
p0
(c__main__
ProductRecord
p1
c__builtin__
object
p2
Ntp3
Rp4
(dp5
S'product_url'
p6
S'http://www.walmart.com/ip/Manufacturer-Refurbished-Apple-MacBook-Air-13-A1369-1-7GHz-Core-i5-4GB-RAM-128GB-SSD-2011-MC965LL-A/843231842'
p7
sS'price'
p8
V$549.99
p9
sS'properties'
p10
(dp11
VRAM Memory
p12
V4 GB
p13
sVOperating System
p14
VMicrosoft Windows
p15
sVBrand
p16
VApple
p17
sVManufacturer Part Number
p18
VMBA-MC965LLA-B2
p19
sVHard Drive Capacity
p20
V128 GB
p21
sVAssembled Product Dimensions (L x W x H)
p22
V11.68 x 9.50 x 0.68 Inches
p23
sVModel
p24
VW-MC965-B2
p25
sVScreen Size
p26
V13.3 in
p27
sVProcessor Speed
p28
V1.7 GHz
p29
ssS'title'
p30
VManufacturer Refurbished Apple MacBook Air 13"" A1369 1.7GHz Core i5 4GB RAM 128GB SSD 2011 (MC965LL/A)
p31
sb.