ccopy_reg
_reconstructor
p0
(c__main__
ProductRecord
p1
c__builtin__
object
p2
Ntp3
Rp4
(dp5
S'product_url'
p6
S'http://www.walmart.com/ip/Refurbished-Macbook-Pro-15-4-Laptop-Core-i7-4GB-220GB-Glossy-MC721LL-A/975778839'
p7
sS'price'
p8
V$549.99
p9
sS'properties'
p10
(dp11
VRAM Memory
p12
V4 GB
p13
sVOperating System
p14
VMicrosoft Windows
p15
sVBrand
p16
VApple
p17
sVManufacturer Part Number
p18
VMC721LL-A-220
p19
sVHard Drive Capacity
p20
V220 GB
p21
sVScreen Size
p22
V15.4\u005c"
p23
ssS'title'
p24
VRefurbished Macbook Pro 15.4" Laptop, Core i7, 4GB, 220GB, Glossy, MC721LL/A
p25
sb.