ccopy_reg
_reconstructor
p0
(c__main__
ProductRecord
p1
c__builtin__
object
p2
Ntp3
Rp4
(dp5
S'product_url'
p6
S'http://www.walmart.com/ip/Refurbished-Dell-XPS-13-9365-2-in-1-i7-7Y75-16GB-512GB-PCIe-SSD-FHD-Touch-screen-INFINITY-Windows-10-PROFESSIONAL-laptop-silver-Fingerprint/413671410'
p7
sS'price'
p8
S'N/A'
p9
sS'properties'
p10
(dp11
VRAM Memory
p12
V16 Gigabytes
p13
sVBrand
p14
VDell
p15
sVHard Drive Capacity
p16
V512 Gigabytes
p17
sVModel
p18
VXPS13-9365-REF
p19
sVScreen Size
p20
V13.3 Inches
p21
sVProcessor Type
p22
VIntel Core i7
p23
ssS'title'
p24
VRefurbished Dell XPS 13 9365 2-in-1 i7-7Y75 16GB 512GB PCIe SSD FHD Touch-screen INFINITY Windows 10 PROFESSIONAL laptop silver +Fingerprint
p25
sb.