ccopy_reg
_reconstructor
p0
(c__main__
ProductRecord
p1
c__builtin__
object
p2
Ntp3
Rp4
(dp5
S'product_url'
p6
S'http://www.walmart.com/ip/Apple-MacBook-Pro-Core-i7-2-6GHz-8GB-750GB-15-4-MD104LL-A-Refurbished/202308438'
p7
sS'price'
p8
V$699.97
p9
sS'properties'
p10
(dp11
VRAM Memory
p12
V8 GB
p13
sVBrand
p14
VApple
p15
sVHard Drive Capacity
p16
V750 GB
p17
sVProcessor Type
p18
VIntel Core i7
p19
sVScreen Size
p20
V15.4 in
p21
sVManufacturer
p22
VApple
p23
ssS'title'
p24
VApple MacBook Pro Core i7 2.6GHz 8GB 750GB 15.4" MD104LL/A - Refurbished
p25
sb.