ccopy_reg
_reconstructor
p0
(c__main__
ProductRecord
p1
c__builtin__
object
p2
Ntp3
Rp4
(dp5
S'product_url'
p6
S'http://www.walmart.com/ip/Apple-MacBook-Pro-MD101LL-A-Intel-Core-i5-3210M-X2-2-5GHz-4GB-500GB-13-3-Silver-Scratch-And-Dent-Refurbished/218274761'
p7
sS'price'
p8
V$479.99
p9
sS'properties'
p10
(dp11
VRAM Memory
p12
V4 Gigabytes
p13
sVOperating System
p14
VApple Mac OS X 10.8
p15
sVFeatures
p16
VIntegrated Intel HD Graphics 4000, 13.3-inch (1280 x 800) LED Display, 4GB DDR3 System Memory, SuperMulti-DVD Burner, Intel Core i5-3210M Processor (Dual-Core, 2.5GHz, 3MB Cache), 2 x USB 3.0, 6-cell Lithium-Polymer Battery, 500GB (5400RPM) SATA Hard Disk Drive (HDD), 10/100 Ethernet, 802.11ABGN and Bluetooth 4.0 + HS, Apple Mac OS X 10.8 Operating System, Energy Star Compliant, 0.95" x 12.78" x 8.94" (HxWxD); 4.5lbs, Backlit Standard Keyboard and Touchpad, 2MP Webcam and Integrated Microphone
p17
sVBrand
p18
VApple
p19
sVManufacturer Part Number
p20
VMD101LL/A-R-C-RFB
p21
sVMaximum RAM Supported
p22
V16 Gigabytes
p23
sVHard Drive Capacity
p24
V500 Gigabytes
p25
sVBattery Life
p26
V6 Hours
p27
sVAssembled Product Dimensions (L x W x H)
p28
V12.80 x 8.90 x 1.00 Inches
p29
sVProcessor Type
p30
VIntel Core i5
p31
sVScreen Size
p32
V13.3 Inches
p33
sVProcessor Speed
p34
V2.5 Gigahertz
p35
ssS'title'
p36
VApple MacBook Pro MD101LL/A Intel Core i5-3210M X2 2.5GHz 4GB 500GB 13.3", Silver (Scratch And Dent Refurbished)
p37
sb.