ccopy_reg
_reconstructor
p0
(c__main__
ProductRecord
p1
c__builtin__
object
p2
Ntp3
Rp4
(dp5
S'product_url'
p6
S'http://www.walmart.com/ip/Refurbished-Apple-MacBook-Pro-15-4-Retina-Laptop-Intel-i7-3635QM-Quad-Core-8GB-256GB-SSD/356237679'
p7
sS'price'
p8
V$859.95
p9
sS'properties'
p10
(dp11
VRAM Memory
p12
V8 GB
p13
sVOperating System
p14
VMicrosoft Windows
p15
sVBrand
p16
VApple
p17
sVProcessor Speed
p18
V2.40 GHz
p19
sVManufacturer Part Number
p20
VME664LLA-PB-2RCC-WAL3
p21
sVHard Drive Capacity
p22
V256 GB
p23
sVModel
p24
VMacBook Pro Retina A1398
p25
sVScreen Size
p26
V15.4 in
p27
sVProcessor Type
p28
VIntel Core i7
p29
ssS'title'
p30
VRefurbished Apple MacBook Pro 15.4" Retina Laptop Intel i7-3635QM Quad Core 8GB 256GB SSD
p31
sb.