ccopy_reg
_reconstructor
p0
(c__main__
ProductRecord
p1
c__builtin__
object
p2
Ntp3
Rp4
(dp5
S'product_url'
p6
S'http://www.walmart.com/ip/Refurbished-Apple-Macbook-Pro-13-3-2-5-GHz-Core-i5-500GB-HDD-4GB-DDR3L-RAM-MD101LL-A-Scratches-Dents/471052627'
p7
sS'price'
p8
V$499.99
p9
sS'properties'
p10
(dp11
VOperating System
p12
VMicrosoft Windows
p13
sVBrand
p14
VApple
p15
sVManufacturer Part Number
p16
VMD101LL/A
p17
sVHard Drive Capacity
p18
V500 GB
p19
sVModel
p20
VMD101LL/A
p21
sVScreen Size
p22
V13.3\u005c"
p23
ssS'title'
p24
VRefurbished Apple Macbook Pro 13.3" 2.5 GHz Core i5, 500GB HDD, 4GB DDR3L RAM (MD101LL/A) (Scratches & Dents)
p25
sb.