ccopy_reg
_reconstructor
p0
(c__main__
ProductRecord
p1
c__builtin__
object
p2
Ntp3
Rp4
(dp5
S'product_url'
p6
S'http://www.walmart.com/ip/Apple-MacBook-Pro-MD104LL-A-Intel-Core-i7-3720QM-X4-2-6GHz-8GB-750GB-DVD-RW-Silver-Refurbished/181739842'
p7
sS'price'
p8
V$844.94
p9
sS'properties'
p10
(dp11
VRAM Memory
p12
V8 Gigabytes
p13
sVOperating System
p14
VApple Mac OS X 10.7
p15
sVFeatures
p16
VEnergy Star Compliant
p17
sVVideo Game Platform
p18
VLaptop
p19
sVBrand
p20
VApple
p21
sVProcessor Speed
p22
V2.6 Gigahertz
p23
sVManufacturer Part Number
p24
VMD104LL/A-RFB
p25
sVMaximum RAM Supported
p26
V16 Gigabytes
p27
sVHard Drive Capacity
p28
V750 Gigabytes
p29
sVBattery Life
p30
V6 Hours
p31
sVAssembled Product Dimensions (L x W x H)
p32
V14.40 x 9.80 x 1.00 Inches
p33
sVModel
p34
VHD 4000, GeForce GT 650M, MD104LL/A
p35
sVScreen Size
p36
V15.4 Inches
p37
sVProcessor Type
p38
VIntel Core i7-3720QM
p39
ssS'title'
p40
VApple MacBook Pro MD104LL/A Intel Core i7-3720QM X4 2.6GHz 8GB 750GB DVD+/-RW, Silver (Refurbished)
p41
sb.