ccopy_reg
_reconstructor
p0
(c__main__
ProductRecord
p1
c__builtin__
object
p2
Ntp3
Rp4
(dp5
S'product_url'
p6
S'http://www.walmart.com/ip/Direkt-Tek-11-6-Convertible-Touchscreen-Laptop-Windows-10-Office-365-Personal-1-Year-Subscription-Included-69-99-Value-Windows-Hello-Fingerprint-Read/56123866'
p7
sS'price'
p8
S'N/A'
p9
sS'properties'
p10
(dp11
VRAM Memory
p12
V4 GB
p13
sVOperating System
p14
VMicrosoft Windows
p15
sVBrand
p16
VDirekt-tek
p17
sVManufacturer Part Number
p18
VDTLAPY116-2-SL
p19
sVHard Drive Capacity
p20
V32 GB
p21
sVAssembled Product Dimensions (L x W x H)
p22
V14.06 x 9.29 x 2.64 Inches
p23
sVModel
p24
VDTLAPY116-2-SL
p25
sVScreen Size
p26
V11.6
p27
sVCondition
p28
VNew
p29
ssS'title'
p30
VDirekt-Tek 11.6" Convertible Touchscreen Laptop, Windows 10, Office 365 Personal 1-Year Subscription Included ($69.99 Value), Windows Hello (Fingerprint Reader), Windows Ink (Smart Stylus included)
p31
sb.