ccopy_reg
_reconstructor
p0
(c__main__
ProductRecord
p1
c__builtin__
object
p2
Ntp3
Rp4
(dp5
S'product_url'
p6
S'http://www.walmart.com/ip/Mightyskins-Protective-Skin-Decal-Cover-for-Apple-MacBook-Pro-13-Retina-wrap-sticker-skins-Checkered-Flag/162291098'
p7
sS'price'
p8
V$18.99
p9
sS'properties'
p10
(dp11
VBrand
p12
VMightyskins
p13
sVScreen Size
p14
V13
p15
sVManufacturer Part Number
p16
VAPMPRET13-Checkered Flag
p17
sVCondition
p18
VNew
p19
ssS'title'
p20
VMightyskins Protective Skin Decal Cover for Apple MacBook Pro 13" Retina wrap sticker skins Checkered Flag
p21
sb.