ccopy_reg
_reconstructor
p0
(c__main__
ProductRecord
p1
c__builtin__
object
p2
Ntp3
Rp4
(dp5
S'product_url'
p6
S'http://www.walmart.com/ip/Apple-922-7933-Top-Case-Housing-Lid-for-15-inch-MacBook-Pro-Core-Refurbished/553559516'
p7
sS'price'
p8
V$19.49
p9
sS'properties'
p10
(dp11
VVideo Game Platform
p12
VUnknown
p13
sVBrand
p14
VApple
p15
sVScreen Size
p16
V15
p17
sVCondition
p18
VRefurbished
p19
sVmanufacturer_part_number
p20
V922-7933
p21
ssS'title'
p22
VApple 922-7933 Top Case Housing Lid for 15-inch MacBook Pro Core (Refurbished)
p23
sb.