ccopy_reg
_reconstructor
p0
(c__main__
ProductRecord
p1
c__builtin__
object
p2
Ntp3
Rp4
(dp5
S'product_url'
p6
S'http://www.walmart.com/ip/922-4058-Apple-MacBook-Pro-17-AirPort-Card/148917333'
p7
sS'price'
p8
V$21.00
p9
sS'properties'
p10
(dp11
VBrand
p12
VApple
p13
sVManufacturer Part Number
p14
V922-4058
p15
sVCondition
p16
VGrade A Used Like New. 100% Tested and Working
p17
sVFeatures
p18
VReplacement Part Only. No accessories, cables or manuals are included unless otherwise noted
p19
ssS'title'
p20
V922-4058 Apple MacBook Pro 17" AirPort Card
p21
sb.