ccopy_reg
_reconstructor
p0
(c__main__
ProductRecord
p1
c__builtin__
object
p2
Ntp3
Rp4
(dp5
S'product_url'
p6
S'http://www.walmart.com/ip/922-7969-Apple-MacBook-Pro-17-Bluetooth-Bracket-w-Foil-Shield/130332154'
p7
sS'price'
p8
V$21.00
p9
sS'properties'
p10
(dp11
VBrand
p12
VApple
p13
sVFeatures
p14
VReplacement Part Only. No accessories, cables or manuals are included unless otherwise noted
p15
sVCondition
p16
VGrade A Used Like New. 100% Tested and Working
p17
sVmanufacturer_part_number
p18
V922-7969
p19
ssS'title'
p20
V922-7969 Apple MacBook Pro 17" Bluetooth Bracket w/ Foil Shield
p21
sb.