ccopy_reg
_reconstructor
p0
(c__main__
ProductRecord
p1
c__builtin__
object
p2
Ntp3
Rp4
(dp5
S'product_url'
p6
S'http://www.walmart.com/ip/922-8056-Apple-MacBook-Pro-15-4-Hard-Drive-Bracket/126726792'
p7
sS'price'
p8
V$21.00
p9
sS'properties'
p10
(dp11
VFeatures
p12
VReplacement Part Only. No accessories, cables or manuals are included unless otherwise noted
p13
sVDisplay Technology
p14
VLCD
p15
sVManufacturer Part Number
p16
V922-8056
p17
sVScreen Size
p18
V15.4
p19
sVBrand
p20
VApple
p21
sVCondition
p22
VGrade A Used Like New. 100% Tested and Working
p23
ssS'title'
p24
V922-8056 Apple MacBook Pro 15.4" Hard Drive Bracket
p25
sb.