ccopy_reg
_reconstructor
p0
(c__main__
ProductRecord
p1
c__builtin__
object
p2
Ntp3
Rp4
(dp5
S'product_url'
p6
S'http://www.walmart.com/ip/EBK-6-Cell-A1382-A1286-Apple-Macbook-Pro-15-4-inch-Mid-2012-MacBookPro9-1-Macbook-Laptop-battery/403063314'
p7
sS'price'
p8
V$55.89
p9
sS'properties'
p10
(dp11
VBrand
p12
VEBK TRADING INC.
p13
sVCondition
p14
VNew
p15
ssS'title'
p16
VEBK 6 Cell A1382 A1286 Apple Macbook Pro 15.4 inch Mid 2012 MacBookPro9,1 Macbook Laptop battery
p17
sb.