ccopy_reg
_reconstructor
p0
(c__main__
ProductRecord
p1
c__builtin__
object
p2
Ntp3
Rp4
(dp5
S'product_url'
p6
S'http://www.walmart.com/ip/Refurbished-Apple-Macbook-13-3-LED-Laptop-MC516LL-A-2-Duo-P8600-2-4GHz-OS-X-2GB-250GB/45584715'
p7
sS'price'
p8
V$169.89
p9
sS'properties'
p10
(dp11
VRAM Memory
p12
V2 KB
p13
sVOperating System
p14
VApple Mac OS X 10.6
p15
sVFeatures
p16
V13" x 9.12" x 1.08" (HxWxD); 4.7lbs, 10/100/1000 Gigabit Ethernet, 802.11ABGN and Bluetooth 2.1 + EDR, 2 x USB 2.0, 1 x Mini DisplayPort, 6-cell Lithium-Polymer Battery, 1MP Webcam and Integrated Microphone, 13.3-inch (1280 x 800) TFT Display, 250GB (5400RPM) SATA Hard Drive, Hybrid NVIDIA GeForce 320M Graphics (0.3MB Dedicated Video Memory), Intel Core Duo P8600 Processor (Dual-Core, 2.4GHz, 3MB Cache), Energy Star Compliant, Apple Mac OS X 10.6 Operating System, Standard Keyboard and Multi-touch Trackpad, 2GB DDR3 System Memory, 8X DL "SuperDrive"
p17
sVVideo Game Platform
p18
VMac
p19
sVBrand
p20
VApple
p21
sVProcessor Speed
p22
V2.4 Hz
p23
sVManufacturer Part Number
p24
VMC516LLA-PB-2RCB
p25
sVMaximum RAM Supported
p26
V16 KB
p27
sVHard Drive Capacity
p28
V250 KB
p29
sVBattery Life
p30
V10 h
p31
sVModel
p32
VMC516LLA-PB-2RCB
p33
sVScreen Size
p34
V13.3 in
p35
sVProcessor Type
p36
VIntel Core 2 Duo
p37
sVCondition
p38
VRefurbished
p39
ssS'title'
p40
VRefurbished Apple Macbook 13.3" LED Laptop MC516LL/A 2 Duo P8600 2.4GHz OS X 2GB 250GB
p41
sb.