ccopy_reg
_reconstructor
p0
(c__main__
ProductRecord
p1
c__builtin__
object
p2
Ntp3
Rp4
(dp5
S'product_url'
p6
S'http://www.walmart.com/ip/Pre-Owned-Apple-MacBook-13-Unibody-Core-2-Duo-2-26-250GB-2GB-MC207LL-A-2009/197123411'
p7
sS'price'
p8
V$219.99
p9
sS'properties'
p10
(dp11
VBrand
p12
VApple
p13
sVManufacturer Part Number
p14
VETK-MC207LLA-PB-3RCC-WAL5
p15
sVHard Drive Capacity
p16
V250 Gigabytes
p17
sVModel
p18
VMC207LL/ARFB
p19
sVScreen Size
p20
V13 Inches
p21
sVProcessor Speed
p22
V2.2599999999999998 Gigahertz
p23
ssS'title'
p24
VPre-Owned Apple MacBook 13" Unibody Core 2 Duo [2.26] [250GB] [2GB] MC207LL/A(2009)
p25
sb.