ccopy_reg
_reconstructor
p0
(c__main__
ProductRecord
p1
c__builtin__
object
p2
Ntp3
Rp4
(dp5
S'product_url'
p6
S'http://www.walmart.com/ip/REFURBISHED-MacBook-Pro-15-4in-2-2GHz-Core-2-Duo-A1226-Mid-2007-661-4955/100428226'
p7
sS'price'
p8
V$224.95
p9
sS'properties'
p10
(dp11
VBrand
p12
VHP
p13
sVScreen Size
p14
V15.4
p15
sVCondition
p16
VRefurbished
p17
ssS'title'
p18
VREFURBISHED - MacBook Pro 15.4in 2.2GHz Core 2 Duo A1226 Mid 2007 661-4955
p19
sb.