ccopy_reg
_reconstructor
p0
(c__main__
ProductRecord
p1
c__builtin__
object
p2
Ntp3
Rp4
(dp5
S'product_url'
p6
S'http://www.walmart.com/ip/Apple-MacBook-Air-11-6-Laptop-PC-Intel-Core-2-Duo-SU9400-Processor-1-4-GHz-2GB-DDR3-Memory-64GB-Hard-Drive-OS-X-10-11-El-Capitan-A1370-Silver-Pre-Own/545081025'
p7
sS'price'
p8
V$291.95
p9
sS'properties'
p10
(dp11
VHard Drive Capacity
p12
V64 GB
p13
sVBrand
p14
VApple
p15
sVRAM Memory
p16
V2 GB
p17
sVScreen Size
p18
V11.6\u005c"
p19
sVModel
p20
VA1370XRX
p21
ssS'title'
p22
VApple MacBook Air 11.6" Laptop PC with Intel Core 2 Duo SU9400 Processor (1.4 GHz), 2GB DDR3 Memory, 64GB Hard Drive and OS X 10.11 El Capitan, A1370, Silver (Pre-Owned)
p23
sb.