ccopy_reg
_reconstructor
p0
(c__main__
ProductRecord
p1
c__builtin__
object
p2
Ntp3
Rp4
(dp5
S'product_url'
p6
S'http://www.walmart.com/ip/Refurbished-Apple-MacBook-Air-11-6-Laptop-Intel-Core-i5-4260U-1-4GHz-4GB-128GB-SSD-MD711LLB/847720665'
p7
sS'price'
p8
V$399.95
p9
sS'properties'
p10
(dp11
VRAM Memory
p12
V4 GB
p13
sVOperating System
p14
VMicrosoft Windows
p15
sVBrand
p16
VApple
p17
sVManufacturer Part Number
p18
VMD711LLB-PB-RCC-WAL7
p19
sVHard Drive Capacity
p20
V128 GB
p21
sVModel
p22
VMacBook
p23
sVScreen Size
p24
V11.6 in
p25
ssS'title'
p26
VRefurbished Apple MacBook Air 11.6" Laptop Intel Core i5-4260U 1.4GHz 4GB 128GB SSD MD711LLB
p27
sb.