ccopy_reg
_reconstructor
p0
(c__main__
ProductRecord
p1
c__builtin__
object
p2
Ntp3
Rp4
(dp5
S'product_url'
p6
S'http://www.walmart.com/ip/Apple-MacBook-Pro-13-3-Core-2-Duo-P8600-2-4GHz-4GB-250GB-DVD-RW-GeForce-320M-MC374LL-A-2010-Refurbished-FREE-Casing/721136236'
p7
sS'price'
p8
V$429.99
p9
sS'properties'
p10
(dp11
VBrand
p12
VApple
p13
sVRAM Memory
p14
V4 GB
p15
sVScreen Size
p16
V13.3 in
p17
sVHard Drive Capacity
p18
V250 GB
p19
sVCondition
p20
VRefurbished
p21
ssS'title'
p22
VApple MacBook Pro 13.3" Core 2 Duo P8600 2.4GHz 4GB 250GB DVD?RW GeForce 320M MC374LL/A (2010) - Refurbished FREE Casing
p23
sb.