ccopy_reg
_reconstructor
p0
(c__main__
ProductRecord
p1
c__builtin__
object
p2
Ntp3
Rp4
(dp5
S'product_url'
p6
S'http://www.walmart.com/ip/Refurbished-Apple-MacBook-Air-11-6-LED-Laptop-Intel-i5-3317U-Dual-Core-1-7GHz-4GB-64GB-SSD/466670858'
p7
sS'price'
p8
V$439.99
p9
sS'properties'
p10
(dp11
VRAM Memory
p12
V4 GB
p13
sVOperating System
p14
VMicrosoft Windows
p15
sVBrand
p16
VApple
p17
sVManufacturer Part Number
p18
VMD223LLA-PB-RCB-WALMART
p19
sVModel
p20
VMD223LL/A
p21
sVScreen Size
p22
V11.6\u005c"
p23
ssS'title'
p24
VRefurbished Apple MacBook Air 11.6" LED Laptop Intel i5-3317U Dual Core 1.7GHz 4GB 64GB SSD
p25
sb.