ccopy_reg
_reconstructor
p0
(c__main__
ProductRecord
p1
c__builtin__
object
p2
Ntp3
Rp4
(dp5
S'product_url'
p6
S'http://www.walmart.com/ip/Refurbished-Apple-MacBook-Air-Core-i5-3317U-Dual-Core-1-7GHz-4GB-64GB-SSD-11-6-LED-Notebook-AirPort-OS-X-w-Webcam-Mid-2012-B/653759641'
p7
sS'price'
p8
V$492.91
p9
sS'properties'
p10
(dp11
VBrand
p12
VApple
p13
sVScreen Size
p14
V11.6
p15
sVManufacturer Part Number
p16
VMD223LLA-PB-RCB
p17
ssS'title'
p18
VRefurbished Apple MacBook Air Core i5-3317U Dual-Core 1.7GHz 4GB 64GB SSD 11.6" LED Notebook AirPort OS X w/Webcam (Mid 2012) - B
p19
sb.