ccopy_reg
_reconstructor
p0
(c__main__
ProductRecord
p1
c__builtin__
object
p2
Ntp3
Rp4
(dp5
S'product_url'
p6
S'http://www.walmart.com/ip/Refurbished-Apple-MacBook-Pro-Core-i7-2-7-13-Early-2011-Specs-Scratched-and-Dented/822310129'
p7
sS'price'
p8
V$499.99
p9
sS'properties'
p10
(dp11
VBrand
p12
VApple
p13
sVOperating System
p14
VMicrosoft Windows
p15
ssS'title'
p16
VRefurbished Apple MacBook Pro "Core i7" 2.7 13" Early 2011 Specs  (Scratched and Dented)
p17
sb.