ccopy_reg
_reconstructor
p0
(c__main__
ProductRecord
p1
c__builtin__
object
p2
Ntp3
Rp4
(dp5
S'product_url'
p6
S'http://www.walmart.com/ip/Apple-MacBook-Air-11-6-Inch-Laptop-MD712LL-A-Certified-Refurbished/189960273'
p7
sS'price'
p8
V$499.99
p9
sS'properties'
p10
(dp11
VBrand
p12
VApple
p13
sVScreen Size
p14
V11.6 in
p15
sVFeatures
p16
VWill show minor signs of previous cosmetic wear - scuffs, minor scratches, etc.
p17
ssS'title'
p18
VApple MacBook Air 11.6 Inch Laptop MD712LL/A (Certified Refurbished)
p19
sb.