ccopy_reg
_reconstructor
p0
(c__main__
ProductRecord
p1
c__builtin__
object
p2
Ntp3
Rp4
(dp5
S'product_url'
p6
S'http://www.walmart.com/ip/Apple-MacBook-Air-11-6-LED-Notebook-Intel-Core-i5-Dual-core-2-Core-1-40-GHz-Refurbished-MD711LL-A/158690969'
p7
sS'price'
p8
V$499.99
p9
sS'properties'
p10
(dp11
VVideo Game Platform
p12
VPC
p13
sVBrand
p14
VApple
p15
sVScreen Size
p16
V11.6
p17
sVManufacturer Part Number
p18
VMD711LL/A
p19
ssS'title'
p20
VApple MacBook Air 11.6" LED Notebook - Intel Core i5 Dual-core (2 Core) 1.40 GHz Refurbished MD711LL/A
p21
sb.