ccopy_reg
_reconstructor
p0
(c__main__
ProductRecord
p1
c__builtin__
object
p2
Ntp3
Rp4
(dp5
S'product_url'
p6
S'http://www.walmart.com/ip/Apple-13-Inch-MacBook-Pro-MD101LL-A-2-5GHz-Intel-Core-i5-4GB-RAM-Certified-Refurbished/656983289'
p7
sS'price'
p8
V$519.99
p9
sS'properties'
p10
(dp11
VAssembled Product Dimensions (L x W x H)
p12
V12.78 x 8.94 x 0.95 Inches
p13
sVBrand
p14
VApple
p15
sVRAM Memory
p16
V4 GB
p17
sVOperating System
p18
VMicrosoft Windows
p19
sVManufacturer Part Number
p20
VCRTAPMD101LLARB
p21
ssS'title'
p22
VApple 13 Inch MacBook Pro / MD101LL/A / 2.5GHz Intel Core i5, 4GB RAM - (Certified Refurbished)
p23
sb.