ccopy_reg
_reconstructor
p0
(c__main__
ProductRecord
p1
c__builtin__
object
p2
Ntp3
Rp4
(dp5
S'product_url'
p6
S'http://www.walmart.com/ip/Apple-MacBook-Air-Core-i5-1-3GHz-4GB-128GB-SSD-11-6-MD711LL-A-Mid-2013-Refurbished/588948855'
p7
sS'price'
p8
V$529.99
p9
sS'properties'
p10
(dp11
VBrand
p12
VApple
p13
sVRAM Memory
p14
V4 GB
p15
sVScreen Size
p16
V11.6\u005c"
p17
sVHard Drive Capacity
p18
V128 GB
p19
sVmanufacturer_part_number
p20
Vmd711ll/a
p21
ssS'title'
p22
VApple MacBook Air Core i5 / 1.3GHz / 4GB / 128GB SSD 11.6" - MD711LL/A (Mid 2013) - Refurbished
p23
sb.