ccopy_reg
_reconstructor
p0
(c__main__
ProductRecord
p1
c__builtin__
object
p2
Ntp3
Rp4
(dp5
S'product_url'
p6
S'http://www.walmart.com/ip/Apple-MacBook-Air-Core-i5-1-7GHz-4GB-128GB-SSD-11-6-LED-Notebook-MD224LLA-Certified-Refurbished/990614524'
p7
sS'price'
p8
V$549.99
p9
sS'properties'
p10
(dp11
VRAM Memory
p12
V4 GB
p13
sVOperating System
p14
VMicrosoft Windows
p15
sVBrand
p16
VApple
p17
sVManufacturer Part Number
p18
Vmd224lla
p19
sVHard Drive Capacity
p20
V128 GB
p21
sVAssembled Product Dimensions (L x W x H)
p22
V17.00 x 3.00 x 12.00 Inches
p23
sVModel
p24
VW-MD224-B1
p25
sVScreen Size
p26
V11.6 in
p27
sVProcessor Speed
p28
V1.7 GHz
p29
ssS'title'
p30
VApple MacBook Air Core i5 / 1.7GHz / 4GB / 128GB SSD 11.6" LED Notebook MD224LLA - Certified Refurbished
p31
sb.