ccopy_reg
_reconstructor
p0
(c__main__
ProductRecord
p1
c__builtin__
object
p2
Ntp3
Rp4
(dp5
S'product_url'
p6
S'http://www.walmart.com/ip/Manufacturer-Refurbished-Asus-T102HA-10-1-Touch-Laptop-Intel-Atom-X5-Z8350-1-44GHz-4GB-128GB-W10/600648925'
p7
sS'price'
p8
S'N/A'
p9
sS'properties'
p10
(dp11
VRAM Memory
p12
V4 GB
p13
sVOperating System
p14
VMicrosoft Windows
p15
sVBrand
p16
VASUS
p17
sVManufacturer Part Number
p18
VT102HA-QC2-CB-RF
p19
sVHard Drive Capacity
p20
V128 GB
p21
sVModel
p22
VT102HA-QC2-CB-RF
p23
sVScreen Size
p24
V10.1\u005c"
p25
ssS'title'
p26
VManufacturer Refurbished - Asus T102HA 10.1" Touch Laptop Intel Atom X5-Z8350 1.44GHz 4GB 128GB W10
p27
sb.