ccopy_reg
_reconstructor
p0
(c__main__
ProductRecord
p1
c__builtin__
object
p2
Ntp3
Rp4
(dp5
S'product_url'
p6
S'http://www.walmart.com/ip/Apple-MacBook-Air-MD223LL-A-Intel-Core-i5-3317U-X2-1-7GHz-4GB-64GB-Silver-Certified-Refurbished/191844603'
p7
sS'price'
p8
V$551.67
p9
sS'properties'
p10
(dp11
VRAM Memory
p12
V4 Gigabytes
p13
sVOperating System
p14
VmacOS 10.12
p15
sVFeatures
p16
VApple Mac OS X 10.12 Operating System, Integrated Intel HD Graphics 4000, 11.6-inch (1366 x 768) LED Display, 4GB DDR3 System Memory, 2 x USB 3.0, 6-cell Lithium-Polymer Battery, 1MP Webcam and Integrated Microphone, 64GB Solid State Drive (SSD), This Certified Refurbished product is tested and certified to look and work like new. The refurbishing process includes functionality testing, basic cleaning, inspection, and repackaging. The product ships with all relevant accessories, a minimum 90-day warranty, and may arrive in a generic box., Standard Keyboard and Touchpad, Intel Core i5-3317U Processor (Dual-Core, 1.7GHz, 3MB Cache), 11.8" x 0.7" x 7.6" (HxWxD); 2.4lbs, 10/100/1000 Gigabit Ethernet, 802.11AC and Bluetooth 4.0 + HS
p17
sVBrand
p18
VApple
p19
sVManufacturer Part Number
p20
V4999168-RFB
p21
sVMaximum RAM Supported
p22
V8 Gigabytes
p23
sVHard Drive Capacity
p24
V64 Gigabytes
p25
sVBattery Life
p26
V8 Hours
p27
sVAssembled Product Dimensions (L x W x H)
p28
V0.70 x 7.60 x 11.80 Inches
p29
sVProcessor Type
p30
VIntel Core i5
p31
sVScreen Size
p32
V11.6 Inches
p33
sVProcessor Speed
p34
V1.7 Gigahertz
p35
ssS'title'
p36
VApple MacBook Air MD223LL/A Intel Core i5-3317U X2 1.7GHz 4GB 64GB, Silver (Certified Refurbished)
p37
sb.