ccopy_reg
_reconstructor
p0
(c__main__
ProductRecord
p1
c__builtin__
object
p2
Ntp3
Rp4
(dp5
S'product_url'
p6
S'http://www.walmart.com/ip/Certified-Refurbished-Apple-Macbook-Air-11-core-i5-2014-1-4-128GB-4GB-MD711LL-B-90-Day-Warranty/549639665'
p7
sS'price'
p8
V$559.99
p9
sS'properties'
p10
(dp11
VRAM Memory
p12
V4 GB
p13
sVOperating System
p14
VOS x Mavericks
p15
sVBrand
p16
VApple
p17
sVProcessor Speed
p18
V1.4 GHz
p19
sVHard Drive Capacity
p20
V128 GB
p21
sVBattery Life
p22
V9 h
p23
sVModel
p24
VMD711LL/B
p25
sVScreen Size
p26
V11 in
p27
sVProcessor Type
p28
VIntel Core i5
p29
sVCondition
p30
VRefurbished
p31
ssS'title'
p32
VCertified Refurbished - Apple Macbook Air 11" core i5 2014 [1.4] [128GB] [4GB] MD711LL/B - 90 Day Warranty
p33
sb.