ccopy_reg
_reconstructor
p0
(c__main__
ProductRecord
p1
c__builtin__
object
p2
Ntp3
Rp4
(dp5
S'product_url'
p6
S'http://www.walmart.com/ip/Lenovo-ThinkPad-Yoga-370-13-3-Core-i5-7200U-8-GB-RAM-256-GB-SSD/200178080'
p7
sS'price'
p8
S'N/A'
p9
sS'properties'
p10
(dp11
VRAM Memory
p12
V8 Gigabytes
p13
sVOperating System
p14
VWindows 10 Pro (English)
p15
sVBrand
p16
VLenovo
p17
sVProcessor Speed
p18
V2.5 Gigahertz
p19
sVManufacturer Part Number
p20
V20JH0024US
p21
sVHard Drive Capacity
p22
V256 Gigabytes
p23
sVBattery Life
p24
V0 h
p25
sVAssembled Product Dimensions (L x W x H)
p26
V12.00 x 12.00 x 12.00 Inches
p27
sVModel
p28
V20JH0024US
p29
sVScreen Size
p30
V13.3 in
p31
sVProcessor Type
p32
VIntel i5-7200U
p33
sVCondition
p34
VNew
p35
ssS'title'
p36
VLenovo ThinkPad Yoga 370 - 13.3" - Core i5 7200U - 8 GB RAM - 256 GB SSD
p37
sb.