ccopy_reg
_reconstructor
p0
(c__main__
ProductRecord
p1
c__builtin__
object
p2
Ntp3
Rp4
(dp5
S'product_url'
p6
S'http://www.walmart.com/ip/Refurbished-Grade-A-Apple-MacBook-Air-13-3-Intel-Core-i5-3427U-Processor-4GB-Memory-128GB-SSD-Mac-OS-X-Silver-Scratched-and-Dented/549217664'
p7
sS'price'
p8
V$579.99
p9
sS'properties'
p10
(dp11
VOperating System
p12
VMicrosoft Windows
p13
sVBrand
p14
VApple
p15
sVRAM Memory
p16
V4 GB
p17
sVScreen Size
p18
V13.3\u005c"
p19
sVHard Drive Capacity
p20
V128 GB
p21
ssS'title'
p22
VRefurbished Grade A Apple MacBook Air 13.3" Intel Core i5 3427U Processor 4GB Memory 128GB SSD Mac OS X Silver (Scratched and Dented)
p23
sb.