ccopy_reg
_reconstructor
p0
(c__main__
ProductRecord
p1
c__builtin__
object
p2
Ntp3
Rp4
(dp5
S'product_url'
p6
S'http://www.walmart.com/ip/Refurbished-Apple-15-4-Macbook-Pro-Core-2-Duo-P8700-2-53GHz-4GB-250GB-Geforce-9400M-Laptop/52675000'
p7
sS'price'
p8
V$499.93
p9
sS'properties'
p10
(dp11
VHard Drive Capacity
p12
V250
p13
sVBrand
p14
VApple
p15
sVModel
p16
VMC118LLA-PB-RCB
p17
sVCondition
p18
VRefurbished
p19
sVManufacturer Part Number
p20
VMC118LLA-PB-RCB
p21
ssS'title'
p22
VRefurbished Apple 15.4" Macbook Pro Core 2 Duo P8700 2.53GHz 4GB 250GB Geforce 9400M Laptop
p23
sb.