ccopy_reg
_reconstructor
p0
(c__main__
ProductRecord
p1
c__builtin__
object
p2
Ntp3
Rp4
(dp5
S'product_url'
p6
S'http://www.walmart.com/ip/Apple-MacBook-Air-Core-i5-4260U-Dual-Core-1-4GHz-4GB-128GB-SSD-11-6-LED-Notebook-AirPort-OS-X-w-Webcam-Early-2014/187167132'
p7
sS'price'
p8
S'N/A'
p9
sS'properties'
p10
(dp11
VAssembled Product Dimensions (L x W x H)
p12
V17.10 x 15.75 x 5.00 Inches
p13
sVBrand
p14
VApple
p15
sVScreen Size
p16
V11.6
p17
sVHard Drive Capacity
p18
V128
p19
sVManufacturer Part Number
p20
VMD711LLB-PB-RCC
p21
ssS'title'
p22
VApple MacBook Air Core i5-4260U Dual-Core 1.4GHz 4GB 128GB SSD 11.6" LED Notebook AirPort OS X w/Webcam (Early 2014)
p23
sb.