ccopy_reg
_reconstructor
p0
(c__main__
ProductRecord
p1
c__builtin__
object
p2
Ntp3
Rp4
(dp5
S'product_url'
p6
S'http://www.walmart.com/ip/Apple-MacBook-Air-MD231LL-A-Intel-Core-i5-3427U-X2-1-8GHz-4GB-128GB-SSD-13-3-Silver-Refurbished/158348460'
p7
sS'price'
p8
V$629.58
p9
sS'properties'
p10
(dp11
VRAM Memory
p12
V4 Gigabytes
p13
sVOperating System
p14
VApple Mac OS X 10.9
p15
sVFeatures
p16
V6-cellLithium-Polymer Battery, No Ethernet, 802.11ABGN and Bluetooth 4.0 + HS, 1MP Webcam and Integrated Microphone, 2 x USB 3.0, 1 x Thunderbolt, 0.68" x 12.8" x 8.94" (HxWxD);3lbs, Standard Keyboard and Touchpad, 13.3-inch (1440 x 900) LED Display, Apple Mac OS X 10.9 Operating System, 128GBSolid State Drive, Energy Star Compliant, IntegratedIntel HD Graphics 4000, Intel Core i5-3427U Processor (Dual-Core, 1.8GHz, 3MB Cache), 4GBDDR3 System Memory
p17
sVBrand
p18
VApple
p19
sVManufacturer Part Number
p20
VMD231LL/A-RFB
p21
sVMaximum RAM Supported
p22
V4 Gigabytes
p23
sVHard Drive Capacity
p24
V128 Gigabytes
p25
sVBattery Life
p26
V9 Hours
p27
sVAssembled Product Dimensions (L x W x H)
p28
V12.80 x 8.90 x 0.70 Inches
p29
sVProcessor Type
p30
VIntel Core i5
p31
sVScreen Size
p32
V13.3 Inches
p33
sVProcessor Speed
p34
V1.8 Gigahertz
p35
ssS'title'
p36
VApple MacBook Air MD231LL/A Intel Core i5-3427U X2 1.8GHz 4GB 128GB SSD 13.3",Silver (Refurbished)
p37
sb.