ccopy_reg
_reconstructor
p0
(c__main__
ProductRecord
p1
c__builtin__
object
p2
Ntp3
Rp4
(dp5
S'product_url'
p6
S'http://www.walmart.com/ip/Lenovo-ThinkPad-X380-Yoga-13-3-Notebook-i7-8550U-8GB-256GB-SSD-W10P/275507822'
p7
sS'price'
p8
S'N/A'
p9
sS'properties'
p10
(dp11
VRAM Memory
p12
V8 Gigabytes
p13
sVOperating System
p14
VWindows 10 Pro (English)
p15
sVBrand
p16
VLenovo
p17
sVProcessor Speed
p18
V1.8 Gigahertz
p19
sVHard Drive Capacity
p20
V256 Gigabytes
p21
sVBattery Life
p22
V0 h
p23
sVAssembled Product Dimensions (L x W x H)
p24
V15.00 x 13.00 x 4.00 Inches
p25
sVModel
p26
V20LH000VUS
p27
sVScreen Size
p28
V13.30 Inches
p29
sVProcessor Type
p30
VIntel i7-8550U
p31
sVCondition
p32
VNew
p33
ssS'title'
p34
VLenovo ThinkPad X380 Yoga 13.3" Notebook i7-8550U 8GB 256GB SSD W10P
p35
sb.