ccopy_reg
_reconstructor
p0
(c__main__
ProductRecord
p1
c__builtin__
object
p2
Ntp3
Rp4
(dp5
S'product_url'
p6
S'http://www.walmart.com/ip/Apple-MacBook-Air-11-6-Inch-laptop-1-6-GHz-Intel-i5-128-GB-SSD-Integrated-Intel-HD-Graphics-6000-Mac-OS-X-Yosemite-MJVM2LL-A-Manufacture-Refurbished/585033511'
p7
sS'price'
p8
V$659.99
p9
sS'properties'
p10
(dp11
VBrand
p12
VApple
p13
sVScreen Size
p14
V11.6\u005c"
p15
sVModel
p16
VMJVM2LL/A
p17
sVManufacturer Part Number
p18
VMJVM2LL/A
p19
ssS'title'
p20
VApple MacBook Air 11.6-Inch laptop(1.6 GHz Intel i5, 128 GB SSD, Integrated Intel HD Graphics 6000, Mac OS X Yosemite) - MJVM2LL/A (Manufacture Refurbished)
p21
sb.