ccopy_reg
_reconstructor
p0
(c__main__
ProductRecord
p1
c__builtin__
object
p2
Ntp3
Rp4
(dp5
S'product_url'
p6
S'http://www.walmart.com/ip/Apple-MacBook-Air-Core-i5-1-6GHz-4GB-RAM-256GB-SSD-11-MJVP2LL-A-Refurbished/130475266'
p7
sS'price'
p8
V$689.97
p9
sS'properties'
p10
(dp11
VRAM Memory
p12
V4 GB
p13
sVBrand
p14
VApple
p15
sVHard Drive Capacity
p16
V256 GB
p17
sVProcessor Type
p18
VIntel Core i5
p19
sVScreen Size
p20
V11.6 in
p21
sVProcessor Speed
p22
V1.60 GHz
p23
sVmanufacturer_part_number
p24
Vmjvp2ll/a
p25
ssS'title'
p26
VApple MacBook Air Core i5 1.6GHz 4GB RAM 256GB SSD 11" - MJVP2LL/A - Refurbished
p27
sb.