ccopy_reg
_reconstructor
p0
(c__main__
ProductRecord
p1
c__builtin__
object
p2
Ntp3
Rp4
(dp5
S'product_url'
p6
S'http://www.walmart.com/ip/Apple-MacBook-Air-MJVG2LL-A-Intel-Core-i5-5250U-X2-1-6GHz-4GB-256GB-SSD-Silver-Scratch-And-Dent-Refurbished/685170106'
p7
sS'price'
p8
V$694.66
p9
sS'properties'
p10
(dp11
VRAM Memory
p12
V4 Gigabytes
p13
sVOperating System
p14
VApple Mac OS X 10.10
p15
sVFeatures
p16
V4GB DDR3 System Memory, 2 x USB 3.0, Backlit Standard Keyboard and Multi-touch Trackpad, 6-cell Lithium-Ion Battery, 1MP Webcam and Integrated Microphone, Apple Mac OS X 10.10 Operating System, 13.3-inch (1440 x 900) TFT Display, Energy Star Compliant, Gold EPEAT, No Ethernet, 802.11AC and Bluetooth 4.0 + HS, Integrated Intel HD Graphics 6000, Intel Core i5-5250U Processor (Dual-Core, 1.6GHz, 3MB Cache), 0.68" x 12.8" x 8.94" (HxWxD); 3lbs, 256GB Solid State Drive (SSD)
p17
sVBrand
p18
VApple
p19
sVProcessor Speed
p20
V1.6 Gigahertz
p21
sVManufacturer Part Number
p22
V4676872-RFB
p23
sVMaximum RAM Supported
p24
V8 Gigabytes
p25
sVHard Drive Capacity
p26
V256 Gigabytes
p27
sVBattery Life
p28
V12 Hours
p29
sVAssembled Product Dimensions (L x W x H)
p30
V12.80 x 8.90 x 0.70 Inches
p31
sVModel
p32
VMJVG2LL/A
p33
sVScreen Size
p34
V13.3 Inches
p35
sVProcessor Type
p36
VIntel Core i5
p37
ssS'title'
p38
VApple MacBook Air MJVG2LL/A Intel Core i5-5250U X2 1.6GHz 4GB 256GB SSD, Silver (Scratch And Dent Refurbished)
p39
sb.