ccopy_reg
_reconstructor
p0
(c__main__
ProductRecord
p1
c__builtin__
object
p2
Ntp3
Rp4
(dp5
S'product_url'
p6
S'http://www.walmart.com/ip/Pre-Owned-Apple-MacBook-Pro-13-Retina-Display-i5-2-5-128GB-8GB-MD212LL-A-2012/144852463'
p7
sS'price'
p8
V$745.63
p9
sS'properties'
p10
(dp11
VHard Drive Capacity
p12
V128 Gigabytes
p13
sVBrand
p14
VApple
p15
sVScreen Size
p16
V13 Inches
p17
sVModel
p18
VMD212LL/ARFB
p19
sVProcessor Speed
p20
V2.5 Gigahertz
p21
ssS'title'
p22
VPre-Owned Apple MacBook Pro 13" Retina Display i5 [2.5] [128GB] [8GB] MD212LL/A(2012)
p23
sb.