ccopy_reg
_reconstructor
p0
(c__main__
ProductRecord
p1
c__builtin__
object
p2
Ntp3
Rp4
(dp5
S'product_url'
p6
S'http://www.walmart.com/ip/Apple-MacBook-Pro-MD102LL-A-2-9GHz-Intel-i7-13-3-Laptop-Computer-Scratch-and-Dent-Refurbished/161354889'
p7
sS'price'
p8
V$725.00
p9
sS'properties'
p10
(dp11
VRAM Memory
p12
V8 KB
p13
sVOperating System
p14
VMac OS X 10.7 Lion
p15
sVColor Category
p16
VSilver
p17
sVLaptop Computer Type
p18
VMacBooks
p19
sVBrand
p20
VApple
p21
sVManufacturer Part Number
p22
VMD102LL/A
p23
sVWireless Technology
p24
VFast Ethernet
p25
sVHard Drive Capacity
p26
V750 KB
p27
sVProcessor Core Type
p28
VDual-core (2 Core)
p29
sVProcessor Type
p30
VIntel Core i7
p31
sVScreen Size
p32
V13.3 in
p33
sVModel
p34
VMD102LL/A
p35
sVManufacturer
p36
VApple
p37
ssS'title'
p38
VApple MacBook Pro MD102LL/A 2.9GHz Intel i7 13.3" Laptop Computer - Scratch and Dent Refurbished
p39
sb.