ccopy_reg
_reconstructor
p0
(c__main__
ProductRecord
p1
c__builtin__
object
p2
Ntp3
Rp4
(dp5
S'product_url'
p6
S'http://www.walmart.com/ip/Apple-MacBook-MJY32LL-A-Intel-Core-M-5Y71-X2-1-3GHz-8GB-256GB-12-Dark-Gray-Scratch-And-Dent-Refurbished/799222977'
p7
sS'price'
p8
V$829.00
p9
sS'properties'
p10
(dp11
VRAM Memory
p12
V8 Gigabytes
p13
sVOperating System
p14
VApple Mac OS X 10.11
p15
sVFeatures
p16
VApple Mac OS X 10.11 Operating System, 6-cell Lithium-Polymer Battery, 1MP Webcam and Integrated Microphone, 11" x 0.5" x 7.7" (HxWxD); 2lbs, No Ethernet, 802.11AACBGN and Bluetooth 4.0 + HS, 12-inch (2304 x 1440) IPS Display, 256GB Hard Disk Drive (HDD), Energy Star Compliant, 8GB DDR3 System Memory, Integrated Intel HD Graphics, 1 x USB 3.0, Backlit Standard Keyboard and Touchpad, Intel Core M-5Y71 Processor (Dual-Core, 1.3GHz, 4MB Cache)
p17
sVBrand
p18
VApple
p19
sVManufacturer Part Number
p20
V5006935-RFB
p21
sVMaximum RAM Supported
p22
V8 Gigabytes
p23
sVHard Drive Capacity
p24
V256 Gigabytes
p25
sVBattery Life
p26
V9 Hours
p27
sVAssembled Product Dimensions (L x W x H)
p28
V0.50 x 7.70 x 11.00 Inches
p29
sVProcessor Type
p30
VIntel Core M-5Y71
p31
sVScreen Size
p32
V12 Inches
p33
sVProcessor Speed
p34
V1.3 Gigahertz
p35
ssS'title'
p36
VApple MacBook MJY32LL/A Intel Core M-5Y71 X2 1.3GHz 8GB 256GB 12", Dark Gray (Scratch And Dent Refurbished)
p37
sb.