ccopy_reg
_reconstructor
p0
(c__main__
ProductRecord
p1
c__builtin__
object
p2
Ntp3
Rp4
(dp5
S'product_url'
p6
S'http://www.walmart.com/ip/Apple-MacBook-Air-Core-i7-2-0GHz-4GB-512GB-SSD-13-3-LED-Notebook-MD846LL-A-Mid-2012-Refurbished/513199018'
p7
sS'price'
p8
V$829.99
p9
sS'properties'
p10
(dp11
VBrand
p12
VApple
p13
sVRAM Memory
p14
V4 GB
p15
sVScreen Size
p16
V13.3\u005c"
p17
sVHard Drive Capacity
p18
V512 GB
p19
sVmanufacturer_part_number
p20
Vmd846ll/a
p21
ssS'title'
p22
VApple MacBook Air Core i7 2.0GHz 4GB 512GB SSD 13.3" LED Notebook MD846LL/A (Mid 2012) - Refurbished
p23
sb.