ccopy_reg
_reconstructor
p0
(c__main__
ProductRecord
p1
c__builtin__
object
p2
Ntp3
Rp4
(dp5
S'product_url'
p6
S'http://www.walmart.com/ip/Apple-MacBook-Pro-ME865LL-A-Intel-Core-i5-4250U-X2-2-4GHz-8GB-256GB-13-3-Silver-Scratch-And-Dent-Refurbished/126447260'
p7
sS'price'
p8
V$869.00
p9
sS'properties'
p10
(dp11
VRAM Memory
p12
V8 Gigabytes
p13
sVOperating System
p14
VApple Mac OS X 10.9
p15
sVFeatures
p16
V6-cellLithium-Polymer Battery, SuperMulti-DVD Burner, 2 x USB 3.0, Intel Core i5-4250U Processor (Dual-Core, 2.4GHz, 3MB Cache), IntegratedIntel Iris Pro Graphics, 256GB(5400RPM)SATA Hard Drive, 10/100 Ethernet, 802.11AC and Bluetooth 4.0 + HS, Apple Mac OS X 10.9 Operating System, Energy Star Compliant, 8GBDDR3 System Memory, 13.3-inch(1280 x 800)LED Display, 0.95" x 12.78" x 8.94" (HxWxD);4.5lbs, Backlit Standard Keyboard and Touchpad, 2MP Webcam and Integrated Microphone
p17
sVBrand
p18
VApple
p19
sVManufacturer Part Number
p20
VME865LL/A-C-RFB
p21
sVMaximum RAM Supported
p22
V16 Gigabytes
p23
sVHard Drive Capacity
p24
V256 Gigabytes
p25
sVBattery Life
p26
V6 Hours
p27
sVAssembled Product Dimensions (L x W x H)
p28
V12.80 x 8.90 x 1.00 Inches
p29
sVProcessor Type
p30
VIntel Core i5
p31
sVScreen Size
p32
V13.3 Inches
p33
sVProcessor Speed
p34
V2.4 Gigahertz
p35
ssS'title'
p36
VApple MacBook Pro ME865LL/A Intel Core i5-4250U X2 2.4GHz 8GB 256GB 13.3",Silver (Scratch And Dent Refurbished)
p37
sb.