ccopy_reg
_reconstructor
p0
(c__main__
ProductRecord
p1
c__builtin__
object
p2
Ntp3
Rp4
(dp5
S'product_url'
p6
S'http://www.walmart.com/ip/Apple-MacBook-MJY42LL-A-Intel-Core-M-5Y51-X2-1-2GHz-8GB-512GB-SSD-12-Gray-Scratch-And-Dent-Refurbished/161339167'
p7
sS'price'
p8
V$917.28
p9
sS'properties'
p10
(dp11
VRAM Memory
p12
V8 Gigabytes
p13
sVOperating System
p14
VApple Mac OS x 10.11
p15
sVFeatures
p16
V6-cell Lithium-Polymer Battery, 1MP Webcam and Integrated Microphone, 11" x 0.5" x 7.7" (HxWxD); 2lbs, Integrated Intel HD Graphics 5300, No Ethernet, 802.11AACBGN and Bluetooth 4.0 + HS, Intel Core M-5Y51 Processor (Dual-Core, 1.2GHz, 41MB Cache), 12-inch (2304 x 1440) IPS Display, Energy Star Compliant, 8GB DDR3 System Memory, Apple Mac OS x 10.11 Operating System, 512GB SATA Solid State Drive (SSD), Backlit Standard Keyboard and Touchpad
p17
sVBrand
p18
VApple
p19
sVManufacturer Part Number
p20
V4788363-RFB
p21
sVMaximum RAM Supported
p22
V8 Gigabytes
p23
sVHard Drive Capacity
p24
V512 Gigabytes
p25
sVBattery Life
p26
V9 Hours
p27
sVAssembled Product Dimensions (L x W x H)
p28
V0.50 x 7.70 x 11.00 Inches
p29
sVProcessor Type
p30
VIntel Core M-5Y51
p31
sVScreen Size
p32
V12 Inches
p33
sVProcessor Speed
p34
V1.2 Gigahertz
p35
ssS'title'
p36
VApple MacBook MJY42LL/A Intel Core M-5Y51 X2 1.2GHz 8GB 512GB SSD 12", Gray (Scratch And Dent Refurbished)
p37
sb.