ccopy_reg
_reconstructor
p0
(c__main__
ProductRecord
p1
c__builtin__
object
p2
Ntp3
Rp4
(dp5
S'product_url'
p6
S'http://www.walmart.com/ip/Apple-MacBook-Pro-ME293LL-A-Intel-Core-i7-4700HQ-X1-2-0GHz-8GB-256GB-SSD-Silver-Scratch-And-Dent-Refurbished/106118711'
p7
sS'price'
p8
V$909.85
p9
sS'properties'
p10
(dp11
VRAM Memory
p12
V8 GB
p13
sVOperating System
p14
VMac OS
p15
sVFeatures
p16
V0.71" x 14.13" x 9.73" (HxWxD);4.5lbs, 6-cellLithium-Polymer Battery, IntegratedIntel Iris Pro Graphics, DVD Player, 2 x USB 3.0, 1 x HDMI, 15.4-inch(2880 x 1800)LED Display, Apple Mac OS X 10.9 Operating System, Energy Star Compliant, 8GBDDR3 System Memory, 10/100/1000 Gigabit Ethernet, 802.11ABGN and Bluetooth 4.0 + HS, 256GBSSD, Backlit Standard Keyboard and Touchpad, Intel Core i7-4750HQ Processor (Four-Core, 2.0GHz, 6MB Cache), 1MP Webcam and No Integrated Microphone
p17
sVBrand
p18
VApple
p19
sVManufacturer Part Number
p20
VME293LL/A-C-RFB
p21
sVMaximum RAM Supported
p22
V8 GB
p23
sVHard Drive Capacity
p24
V256 GB
p25
sVBattery Life
p26
V8 h
p27
sVAssembled Product Dimensions (L x W x H)
p28
V14.10 x 9.70 x 0.70 Inches
p29
sVProcessor Type
p30
VIntel Core i7-4750HQ
p31
sVScreen Size
p32
V15.4 in
p33
sVProcessor Speed
p34
V2 GHz
p35
ssS'title'
p36
VApple MacBook Pro ME293LL/A Intel Core i7-4700HQ X1 2.0GHz 8GB 256GB SSD,Silver (Scratch And Dent Refurbished)
p37
sb.