ccopy_reg
_reconstructor
p0
(c__main__
ProductRecord
p1
c__builtin__
object
p2
Ntp3
Rp4
(dp5
S'product_url'
p6
S'http://www.walmart.com/ip/Refurbished-Dell-i5368-1692GRY-13-3-FHD-2-in-1-Laptop-Intel-Core-i3-6100U-2-3GHz-Processor-4-GB-RAM-1-TB-HDD-Windows-10-Gray/295591206'
p7
sS'price'
p8
S'N/A'
p9
sS'properties'
p10
(dp11
VBrand
p12
VDell
p13
sVHard Drive Capacity
p14
V1000
p15
sVmanufacturer_part_number
p16
Vi5368-1692gry
p17
ssS'title'
p18
VRefurbished Dell i5368-1692GRY 13.3 FHD 2-in-1 Laptop (Intel Core i3-6100U 2.3GHz Processor, 4 GB RAM, 1 TB HDD, Windows 10) Gray
p19
sb.