ccopy_reg
_reconstructor
p0
(c__main__
ProductRecord
p1
c__builtin__
object
p2
Ntp3
Rp4
(dp5
S'product_url'
p6
S'http://www.walmart.com/ip/Refurbished-Apple-Grade-Macbook-Pro-13-3-inch-Laptop-Retina-2-8Ghz-Dual-Core-i5-Mid-2014-MGX92LL-A-512-GB-SSD-8-GB-Memory-2560x1600-Display-macOS-Sie/143316880'
p7
sS'price'
p8
V$969.00
p9
sS'properties'
p10
(dp11
VRAM Memory
p12
V8.00 GB
p13
sVOperating System
p14
VMac OS
p15
sVFeatures
p16
VCondition: Refurbished
p17
sVBrand
p18
VApple
p19
sVManufacturer Part Number
p20
VMGX92LL/A-GS
p21
sVMaximum RAM Supported
p22
V8.00 GB
p23
sVHard Drive Capacity
p24
V512.00 GB
p25
sVProcessor Type
p26
VIntel Core i5
p27
sVScreen Size
p28
V13.30 in
p29
sVProcessor Speed
p30
V2.80 GHz
p31
ssS'title'
p32
VRefurbished Apple A Grade Macbook Pro 13.3-inch Laptop (Retina) 2.8Ghz Dual Core i5 (Mid 2014) MGX92LL/A 512 GB SSD 8 GB Memory 2560x1600 Display macOS Sierra Power Adapter
p33
sb.