ccopy_reg
_reconstructor
p0
(c__main__
ProductRecord
p1
c__builtin__
object
p2
Ntp3
Rp4
(dp5
S'product_url'
p6
S'http://www.walmart.com/ip/Apple-MacBook-MF865LL-A-Intel-Core-M-5Y51-X2-1-3GHz-8GB-512GB-SSD-12-Silver-Scratch-And-Dent-Refurbished/887273170'
p7
sS'price'
p8
V$987.99
p9
sS'properties'
p10
(dp11
VRAM Memory
p12
V8 Gigabytes
p13
sVOperating System
p14
VApple Mac OS X 10.11
p15
sVFeatures
p16
V0.5" x 11.04" x 7.74" (HxWxD); 2lbs, Apple Mac OS X 10.11 Operating System, 6-cell Lithium-Polymer Battery, 1MP Webcam and Integrated Microphone, Integrated Intel HD Graphics 5300, 8GB DDR3 System Memory, 12-inch (2304 x 1440) LED Display, Intel Core M-5Y51 Processor (Dual-Core, 1.3GHz, 4MB Cache), 512GB SATA Solid State Drive (SSD), Backlit Standard Keyboard and Touchpad, 10/100/1000 Gigabit Ethernet, 802.11AC and Bluetooth 4.0 + HS
p17
sVBrand
p18
VApple
p19
sVManufacturer Part Number
p20
V4975277-RFB
p21
sVMaximum RAM Supported
p22
V8 Gigabytes
p23
sVHard Drive Capacity
p24
V512 Gigabytes
p25
sVBattery Life
p26
V9 Hours
p27
sVAssembled Product Dimensions (L x W x H)
p28
V11.00 x 7.70 x 0.50 Inches
p29
sVProcessor Type
p30
VIntel Core M-5Y51
p31
sVScreen Size
p32
V12 Inches
p33
sVProcessor Speed
p34
V1.3 Gigahertz
p35
ssS'title'
p36
VApple MacBook MF865LL/A Intel Core M-5Y51 X2 1.3GHz 8GB 512GB SSD 12", Silver (Scratch And Dent Refurbished)
p37
sb.