ccopy_reg
_reconstructor
p0
(c__main__
ProductRecord
p1
c__builtin__
object
p2
Ntp3
Rp4
(dp5
S'product_url'
p6
S'http://www.walmart.com/ip/Apple-MacBook-Pro-15-4-Inch-Laptop-Intel-QuadCore-i7-2-0GHz-480GB-SSD-16GB-DDR3-Memory-Refurbished/767598323'
p7
sS'price'
p8
V$1,059.00
p9
sS'properties'
p10
(dp11
VRAM Memory
p12
V16.00 GB
p13
sVOperating System
p14
VMac OS 10.12 Sierra
p15
sVBrand
p16
VApple
p17
sVProcessor Speed
p18
V2.00 GHz
p19
sVMaximum RAM Supported
p20
V16.00 GB
p21
sVHard Drive Capacity
p22
V480.00 GB
p23
sVModel
p24
VMC721LL/A
p25
sVScreen Size
p26
V15.40 in
p27
sVProcessor Type
p28
VIntel "Core i7" 32 nm "Sandy Bridge" 2.0GHz
p29
ssS'title'
p30
VApple MacBook Pro 15.4-Inch Laptop Intel QuadCore i7 2.0GHz 480GB SSD / 16GB DDR3 Memory - Refurbished
p31
sb.