ccopy_reg
_reconstructor
p0
(c__main__
ProductRecord
p1
c__builtin__
object
p2
Ntp3
Rp4
(dp5
S'product_url'
p6
S'http://www.walmart.com/ip/Refurbished-Apple-MacBook-Pro-Retina-Core-i5-5257U-Dual-Core-2-7GHz-8GB-256GB-SSD-13-3-LED-Notebook-OS-X-w-Webcam-Early-2015/789416024'
p7
sS'price'
p8
V$1,230.22
p9
sS'properties'
p10
(dp11
VRAM Memory
p12
V8 GB
p13
sVOperating System
p14
VMicrosoft Windows
p15
sVBrand
p16
VApple
p17
sVManufacturer Part Number
p18
VMF839LLA-PB-2RC
p19
sVHard Drive Capacity
p20
V256 GB
p21
sVScreen Size
p22
V13.3 in
p23
ssS'title'
p24
VRefurbished Apple MacBook Pro Retina Core i5-5257U Dual-Core 2.7GHz 8GB 256GB SSD 13.3" LED Notebook OS X w/Webcam (Early 2015)
p25
sb.