ccopy_reg
_reconstructor
p0
(c__main__
ProductRecord
p1
c__builtin__
object
p2
Ntp3
Rp4
(dp5
S'product_url'
p6
S'http://www.walmart.com/ip/Apple-MacBook-Pro-15-Inch-Laptop-Quad-i7-2-4GHz-16GB-DDR3-Ram-1TB-SSHD-AMD-Radeon-6770M-Graphics-OS-X-10-12-DVD-RW-Thunderbolt-Wifi-Refurbished/442378712'
p7
sS'price'
p8
V$1,249.95
p9
sS'properties'
p10
(dp11
VRAM Memory
p12
V16 GB
p13
sVOperating System
p14
VMac OS X 10.12 Sierra, Mac OS
p15
sVBrand
p16
VApple
p17
sVProcessor Speed
p18
V2.4 GHz
p19
sVManufacturer Part Number
p20
VMD322LL/A
p21
sVMaximum RAM Supported
p22
V16 GB
p23
sVHard Drive Capacity
p24
V1 TB
p25
sVBattery Life
p26
V7 h
p27
sVModel
p28
VMD322LL/A
p29
sVScreen Size
p30
V15.4 in
p31
sVProcessor Type
p32
VIntel Quad Core i7, Intel Core i7
p33
ssS'title'
p34
VApple MacBook Pro 15-Inch Laptop Quad i7 2.4GHz / 16GB DDR3 Ram / 1TB SSHD / AMD Radeon 6770M Graphics / OS X 10.12 / DVD-RW / Thunderbolt / Wifi / (Refurbished)
p35
sb.