ccopy_reg
_reconstructor
p0
(c__main__
ProductRecord
p1
c__builtin__
object
p2
Ntp3
Rp4
(dp5
S'product_url'
p6
S'http://www.walmart.com/ip/Apple-12-MacBook-Early-2016-Silver-MLHC2LL-A-Padded-Case-For-Macbook-Fibercloth-Bundle/386131927'
p7
sS'price'
p8
V$1,503.99
p9
sS'properties'
p10
(dp11
VBrand
p12
VApple
p13
sVScreen Size
p14
V12
p15
sVCondition
p16
VNew
p17
ssS'title'
p18
VApple 12" MacBook (Early 2016 Silver) #MLHC2LL/A + Padded Case For Macbook + Fibercloth Bundle
p19
sb.