ccopy_reg
_reconstructor
p0
(c__main__
ProductRecord
p1
c__builtin__
object
p2
Ntp3
Rp4
(dp5
S'product_url'
p6
S'http://www.walmart.com/ip/Apple-13-inch-MacBook-Pro-MPDK2LL-A-MacBook/304338620'
p7
sS'price'
p8
V$1,865.16
p9
sS'properties'
p10
(dp11
VModel
p12
Vwith Touch Bar
p13
sVProcessor Type
p14
VIntel Core i5
p15
sVBrand
p16
VApple
p17
sVManufacturer Part Number
p18
VMPDK2LL/A
p19
ssS'title'
p20
VApple 13-inch MacBook Pro MPDK2LL/A MacBook
p21
sb.