ccopy_reg
_reconstructor
p0
(c__main__
ProductRecord
p1
c__builtin__
object
p2
Ntp3
Rp4
(dp5
S'product_url'
p6
S'http://www.walmart.com/ip/Apple-MacBook-Pro-MJLT2LL-A-15-4-Inch-Laptop-with-Retina-Display-512-GB/53156222'
p7
sS'price'
p8
V$2,141.29
p9
sS'properties'
p10
(dp11
VRAM Memory
p12
V16 GB
p13
sVOperating System
p14
VMac OS X 10.12 Sierra
p15
sVVideo Game Platform
p16
VPlayStation 4
p17
sVBrand
p18
VApple
p19
sVProcessor Speed
p20
V2.5 GHz
p21
sVMaximum RAM Supported
p22
V16 GB
p23
sVHard Drive Capacity
p24
V512  GB
p25
sVBattery Life
p26
V7 h
p27
sVModel
p28
VMJLT2LLA
p29
sVScreen Size
p30
V15.4 Inches
p31
sVProcessor Type
p32
VIntel Core i7
p33
sVCondition
p34
VNew
p35
sVmanufacturer_part_number
p36
VMJLT2LL/A
p37
ssS'title'
p38
VApple MacBook Pro MJLT2LL/A 15.4-Inch Laptop with Retina Display (512 GB)
p39
sb.