ccopy_reg
_reconstructor
p0
(c__main__
ProductRecord
p1
c__builtin__
object
p2
Ntp3
Rp4
(dp5
S'product_url'
p6
S'http://www.walmart.com/ip/Apple-15-4-MacBook-Pro-with-Touch-Bar-Space-Gray-MPTR2LL-A-White-Wired-Earbuds-Headphones-Padded-Case-For-Macbook-Fibercloth-Bundle/411519423'
p7
sS'price'
p8
V$2,268.89
p9
sS'properties'
p10
(dp11
VBrand
p12
VApple
p13
sVScreen Size
p14
V15.4
p15
sVCondition
p16
VNew
p17
ssS'title'
p18
VApple 15.4" MacBook Pro with Touch Bar (Space Gray) #MPTR2LL/A + White Wired Earbuds Headphones + Padded Case For Macbook + Fibercloth Bundle
p19
sb.