ccopy_reg
_reconstructor
p0
(c__main__
ProductRecord
p1
c__builtin__
object
p2
Ntp3
Rp4
(dp5
S'product_url'
p6
S'http://www.walmart.com/ip/Refurbished-Latitude-D830-15-4-Notebook-400GB-2GB-DVD-Windows-7-Professional-32-Bit/188066124'
p7
sS'price'
p8
V$118.99
p9
sS'properties'
p10
(dp11
VLaptop Computer Type
p12
VPC Laptops
p13
sVBrand
p14
VDell
p15
sVScreen Size
p16
V15.4
p17
sVOperating System
p18
VMicrosoft Windows
p19
ssS'title'
p20
VRefurbished Latitude D830 15.4" Notebook - 400GB, 2GB, DVD, Windows 7 Professional 32 Bit
p21
sb.