ccopy_reg
_reconstructor
p0
(c__main__
ProductRecord
p1
c__builtin__
object
p2
Ntp3
Rp4
(dp5
S'product_url'
p6
S'http://www.walmart.com/ip/Refurbished-HP-15-f387wm-15-6-Laptop-Touchscreen-Windows-10-Home-AMD-Quad-Core-A8-7410-APU-Processor-4GB-RAM-500GB-Hard-Drive/54476821'
p7
sS'price'
p8
V$229.00
p9
sS'properties'
p10
(dp11
VRAM Memory
p12
V4 GB
p13
sVOperating System
p14
VWindows 10
p15
sVFeatures
p16
VEPEAT
p17
sVVideo Game Platform
p18
VPC
p19
sVBrand
p20
VHP
p21
sVProcessor Speed
p22
V2.20 GHz, with a Max Turbo Speed of 2.50 GHz
p23
sVManufacturer Part Number
p24
V15-f387wm
p25
sVHard Drive Capacity
p26
V500 GB
p27
sVAssembled Product Dimensions (L x W x H)
p28
V22.05 x 3.15 x 13.58 Inches
p29
sVModel
p30
V15-f387wm
p31
sVScreen Size
p32
V15.6 in
p33
sVProcessor Type
p34
VAMD A-Series
p35
sVCondition
p36
VRefurbished
p37
ssS'title'
p38
VRefurbished HP 15-f387wm 15.6" Laptop, Touchscreen, Windows 10 Home, AMD Quad-Core A8-7410 APU Processor, 4GB RAM, 500GB Hard Drive
p39
sb.