ccopy_reg
_reconstructor
p0
(c__main__
ProductRecord
p1
c__builtin__
object
p2
Ntp3
Rp4
(dp5
S'product_url'
p6
S'http://www.walmart.com/ip/Refurbished-HP-Elitebook-8460p-Laptop-WEBCAM-Intel-Core-i5-2-5ghz-4GB-DDR3-250GB-SATA-HDD-DVDRW-Windows-10-Home-64bit-w-Restore-Partition/494623593'
p7
sS'price'
p8
V$188.00
p9
sS'properties'
p10
(dp11
VRAM Memory
p12
V4.00 Gigabytes
p13
sVOperating System
p14
VWindows 10 Home 64bit
p15
sVColor Category
p16
VSilver
p17
sVLaptop Computer Type
p18
VPC Laptops
p19
sVBrand
p20
VHP
p21
sVWireless Technology
p22
V802_11_BGN
p23
sVHard Drive Capacity
p24
V250.00 Gigabytes
p25
sVProcessor Type
p26
VIntel Core i5
p27
sVScreen Size
p28
V14.10 Inches
p29
ssS'title'
p30
VRefurbished HP Elitebook 8460p Laptop WEBCAM, Intel Core i5 2.5ghz, 4GB DDR3, 250GB SATA HDD, DVDRW, Windows 10 Home 64bit w/ Restore Partition
p31
sb.