ccopy_reg
_reconstructor
p0
(c__main__
ProductRecord
p1
c__builtin__
object
p2
Ntp3
Rp4
(dp5
S'product_url'
p6
S'http://www.walmart.com/ip/REFURBISHED-HP-6470B-Probook-14-I3-3110M-2-4GHZ-4GB-250GB-Win-7-Professional-No-Webcam/108171601'
p7
sS'price'
p8
V$139.99
p9
sS'properties'
p10
(dp11
VRAM Memory
p12
V4 Gigabytes
p13
sVOperating System
p14
VWindows 7
p15
sVLaptop Computer Type
p16
VPC Laptops
p17
sVBrand
p18
VHP
p19
sVManufacturer Part Number
p20
VA1G24AV
p21
sVHard Drive Capacity
p22
V250 Gigabytes
p23
sVProcessor Type
p24
VIntel Core i3-3110M
p25
sVScreen Size
p26
V15 Inches
p27
sVModel
p28
V6470B
p29
sVManufacturer
p30
VHP
p31
ssS'title'
p32
VREFURBISHED HP 6470B Probook 14" I3-3110M 2.4GHZ 4GB 250GB Win 7 Professional No Webcam
p33
sb.