ccopy_reg
_reconstructor
p0
(c__main__
ProductRecord
p1
c__builtin__
object
p2
Ntp3
Rp4
(dp5
S'product_url'
p6
S'http://www.walmart.com/ip/Refurbished-HP-Elitebook-8440p-Laptop-Notebook-Intel-Core-i5-2-4GHz-4GB-DDR3-250GB-SATA-HDD-DVDRW-Windows-10-Home-64bit-w-Restore-Partition/454311431'
p7
sS'price'
p8
V$183.97
p9
sS'properties'
p10
(dp11
VRAM Memory
p12
V4.00 Gigabytes
p13
sVOperating System
p14
VWindows 10 Home 64bit
p15
sVColor
p16
VSilver
p17
sVBrand
p18
VHP
p19
sVProcessor Type
p20
VIntel Core i5
p21
sVHard Drive Capacity
p22
V250.00 Gigabytes
p23
sVModel
p24
VEliteBook 8440p
p25
sVScreen Size
p26
V14.10 Inches
p27
sVProcessor Speed
p28
V2.40 Gigahertz
p29
ssS'title'
p30
VRefurbished HP Elitebook 8440p Laptop Notebook, Intel Core i5 2.4GHz, 4GB DDR3, 250GB SATA HDD, DVDRW, Windows 10 Home 64bit w/ Restore Partition
p31
sb.