ccopy_reg
_reconstructor
p0
(c__main__
ProductRecord
p1
c__builtin__
object
p2
Ntp3
Rp4
(dp5
S'product_url'
p6
S'http://www.walmart.com/ip/Refurbished-HP-Elitebook-840-G1-Laptop-Intel-Core-i5-1-9GHz-4th-Gen-Processor-4GB-DDR3-320GB-SATA-HDD-Charger-14-LED-Windows-10-Pro-64bit-w-Restore-P/730547060'
p7
sS'price'
p8
V$239.97
p9
sS'properties'
p10
(dp11
VRAM Memory
p12
V4.00 Gigabytes
p13
sVOperating System
p14
VWindows 10 Pro 64bit
p15
sVColor Category
p16
VBlack
p17
sVLaptop Computer Type
p18
VPC Laptops
p19
sVBrand
p20
VHP
p21
sVWireless Technology
p22
V802_11_BGN
p23
sVHard Drive Capacity
p24
V320.00 Gigabytes
p25
sVProcessor Type
p26
VIntel Core i5
p27
sVScreen Size
p28
V14.00 Inches
p29
ssS'title'
p30
VRefurbished HP Elitebook 840 G1 Laptop, Intel Core i5 1.9GHz 4th Gen. Processor, 4GB DDR3, 320GB SATA HDD, Charger, 14" LED, Windows 10 Pro 64bit w/ Restore Partition
p31
sb.