ccopy_reg
_reconstructor
p0
(c__main__
ProductRecord
p1
c__builtin__
object
p2
Ntp3
Rp4
(dp5
S'product_url'
p6
S'http://www.walmart.com/ip/Refurbished-HP-15-ba015wm-15-6-Laptop-AMD-E2-7110-CPU-4GB-RAM-500GB-HDD-Win10/726329178'
p7
sS'price'
p8
V$205.00
p9
sS'properties'
p10
(dp11
VRAM Memory
p12
V4 GB
p13
sVOperating System
p14
VMicrosoft Windows
p15
sVFeatures
p16
VNo features description available
p17
sVBrand
p18
VHP
p19
sVManufacturer Part Number
p20
V15-BA015WM
p21
sVHard Drive Capacity
p22
V500 GB
p23
sVAssembled Product Dimensions (L x W x H)
p24
V10.00 x 15.00 x 0.90 Inches
p25
sVModel
p26
VVIPRB-15-BA015WM
p27
sVScreen Size
p28
V15.6\u005c"
p29
sVCondition
p30
VRefurbished
p31
ssS'title'
p32
VRefurbished HP 15-ba015wm, 15.6" Laptop, AMD E2-7110 CPU, 4GB RAM, 500GB HDD, Win10
p33
sb.