ccopy_reg
_reconstructor
p0
(c__main__
ProductRecord
p1
c__builtin__
object
p2
Ntp3
Rp4
(dp5
S'product_url'
p6
S'http://www.walmart.com/ip/Dell-Latitude-E6400-Notebook-Core-2-Duo-2-26-Ghz-4GB-RAM-80GB-HDD/706891149'
p7
sS'price'
p8
V$129.00
p9
sS'properties'
p10
(dp11
VLaptop Computer Type
p12
VPC Laptops
p13
sVHard Drive Capacity
p14
V80
p15
sVRAM Memory
p16
V4 GB
p17
sVOperating System
p18
VMicrosoft Windows
p19
sVBrand
p20
VDell
p21
ssS'title'
p22
VDell Latitude E6400 Notebook Core 2 Duo 2.26 Ghz 4GB RAM 80GB HDD
p23
sb.