ccopy_reg
_reconstructor
p0
(c__main__
ProductRecord
p1
c__builtin__
object
p2
Ntp3
Rp4
(dp5
S'product_url'
p6
S'http://www.walmart.com/ip/Dell-Latitude-E6430-HD-14-Intel-Core-i7-3540M-3-0GHz-3-7GHz-8GB-Memory-500GB-Hard-Drive-Webcam-DVD-RW-Windows-7-Professional-64-Bit-Laptop-Refurbished/168791117'
p7
sS'price'
p8
V$297.28
p9
sS'properties'
p10
(dp11
VRAM Memory
p12
V8 GB
p13
sVOperating System
p14
VMicrosoft Windows
p15
sVVideo Game Platform
p16
VPC
p17
sVBrand
p18
VDell
p19
sVWireless Technology
p20
VWi-Fi
p21
sVHard Drive Capacity
p22
V500 GB
p23
sVLaptop Computer Type
p24
VBusiness Laptops
p25
sVProcessor Type
p26
VIntel Core i7
p27
sVScreen Size
p28
V14 in
p29
sVModel
p30
VE6430
p31
sVManufacturer
p32
VDell
p33
ssS'title'
p34
VDell Latitude E6430 HD 14" Intel Core i7 3540M (3.0GHz-3.7GHz) 8GB Memory 500GB Hard Drive Webcam DVD-RW Windows 7 Professional 64-Bit Laptop (Refurbished)
p35
sb.