ccopy_reg
_reconstructor
p0
(c__main__
ProductRecord
p1
c__builtin__
object
p2
Ntp3
Rp4
(dp5
S'product_url'
p6
S'http://www.walmart.com/ip/Refurbished-Dell-Latitude-E5430-Core-i5-3210M-Laptop/142514503'
p7
sS'price'
p8
V$189.00
p9
sS'properties'
p10
(dp11
VRAM Memory
p12
V4.00 GB
p13
sVBrand
p14
VDell
p15
sVHard Drive Capacity
p16
V120.00 GB
p17
sVProcessor Type
p18
VIntel Core i5
p19
sVScreen Size
p20
V14.10 in
p21
sVProcessor Speed
p22
V2.40 GHz
p23
sVCondition
p24
VRefurbished
p25
ssS'title'
p26
VRefurbished Dell Latitude E5430 Core i5-3210M  Laptop
p27
sb.