ccopy_reg
_reconstructor
p0
(c__main__
ProductRecord
p1
c__builtin__
object
p2
Ntp3
Rp4
(dp5
S'product_url'
p6
S'http://www.walmart.com/ip/Dell-Latitude-E6400-Laptop-Core-2-Duo-2-26GHz-500GB-HDD-4GB-RAM-Windows-7-Professional-64-Bit-WiFi-Refurbished/143052175'
p7
sS'price'
p8
V$199.99
p9
sS'properties'
p10
(dp11
VLaptop Computer Type
p12
VBusiness Laptops
p13
sVHard Drive Capacity
p14
V500 KB
p15
sVRAM Memory
p16
V4 GB
p17
sVOperating System
p18
VMicrosoft Windows
p19
sVBrand
p20
VDell
p21
ssS'title'
p22
VDell Latitude E6400 Laptop - Core 2 Duo 2.26GHz -  500GB HDD - 4GB RAM - Windows 7 Professional 64-Bit - WiFi Refurbished
p23
sb.