ccopy_reg
_reconstructor
p0
(c__main__
ProductRecord
p1
c__builtin__
object
p2
Ntp3
Rp4
(dp5
S'product_url'
p6
S'http://www.walmart.com/ip/Refurbished-HP-W5H84US-ABA-CTO-14-EliteBook-840-i5-6300U-8GB-Laptop/486813974'
p7
sS'price'
p8
V$399.00
p9
sS'properties'
p10
(dp11
VBrand
p12
VHP
p13
sVCondition
p14
VRefurbished
p15
sVmanufacturer_part_number
p16
Vw5h84us # aba
p17
ssS'title'
p18
VRefurbished HP W5H84US#ABA CTO 14 EliteBook 840 i5-6300U 8GB Laptop
p19
sb.