ccopy_reg
_reconstructor
p0
(c__main__
ProductRecord
p1
c__builtin__
object
p2
Ntp3
Rp4
(dp5
S'product_url'
p6
S'http://www.walmart.com/ip/Refurbished-Dell-i3552-10040BLK-15-6-HD-Intel-Pentium-N3710-2-56-GHz-8GB-RAM-1TB-HDD/426921383'
p7
sS'price'
p8
V$226.97
p9
sS'properties'
p10
(dp11
VRAM Memory
p12
V8 GB
p13
sVOperating System
p14
VMicrosoft Windows
p15
sVFeatures
p16
VNo features description available
p17
sVBrand
p18
VDell
p19
sVManufacturer Part Number
p20
Vi3552-10040BLK
p21
sVHard Drive Capacity
p22
V1000 GB
p23
sVAssembled Product Dimensions (L x W x H)
p24
V15.00 x 0.90 x 10.20 Inches
p25
sVModel
p26
VVIPRB-i3552-10040BLK
p27
sVScreen Size
p28
V15.6\u005c"
p29
sVCondition
p30
VRefurbished
p31
ssS'title'
p32
VRefurbished Dell i3552-10040BLK 15.6" HD Intel Pentium N3710 2.56 GHz, 8GB RAM, 1TB HDD
p33
sb.