ccopy_reg
_reconstructor
p0
(c__main__
ProductRecord
p1
c__builtin__
object
p2
Ntp3
Rp4
(dp5
S'product_url'
p6
S'http://www.walmart.com/ip/Refurbished-Direkt-Tek-DTLAPC14-1-SL-14-Touch-Laptop-Intel-Atom-1-92Ghz-4GB-RAM-32GB-eMMC/427927456'
p7
sS'price'
p8
V$102.05
p9
sS'properties'
p10
(dp11
VOperating System
p12
VMicrosoft Windows
p13
sVFeatures
p14
VNo features description available
p15
sVBrand
p16
VDirekt-Tek
p17
sVManufacturer Part Number
p18
VDTLAPC14-1-SL
p19
sVHard Drive Capacity
p20
V32 GB
p21
sVAssembled Product Dimensions (L x W x H)
p22
V15.55 x 2.99 x 10.43 Inches
p23
sVModel
p24
VVIPRB-DTLAPC14-1-SL
p25
sVScreen Size
p26
V14\u005c"
p27
sVProcessor Speed
p28
V1 Ghz
p29
sVCondition
p30
VRefurbished
p31
ssS'title'
p32
VRefurbished Direkt-Tek DTLAPC14-1-SL 14" Touch Laptop Intel Atom 1.92Ghz 4GB RAM 32GB eMMC
p33
sb.