ccopy_reg
_reconstructor
p0
(c__main__
ProductRecord
p1
c__builtin__
object
p2
Ntp3
Rp4
(dp5
S'product_url'
p6
S'http://www.walmart.com/ip/HP-Envy-X360-15-Aq110Nr-15-6-Laptop-Touchscreen-2-in-1-Windows-10-Home-Intel-Core-i7-7500U-Dual-Core-Processor-8GB-RAM-256GB-Solid-State-Drive/55868215'
p7
sS'price'
p8
S'N/A'
p9
sS'properties'
p10
(dp11
VRAM Memory
p12
V8 GB
p13
sVOperating System
p14
VWindows 10
p15
sVFeatures
p16
VEPEAT
p17
sVVideo Game Platform
p18
VPC
p19
sVBrand
p20
VHP
p21
sVProcessor Speed
p22
V2.70 GHz, with a Max Turbo Speed of 3.50 GHz
p23
sVManufacturer Part Number
p24
VX7U50UA#ABA
p25
sVHard Drive Capacity
p26
V256 GB
p27
sVBattery Life
p28
V11 hours 30 minutes
p29
sVAssembled Product Dimensions (L x W x H)
p30
V9.84 x 14.96 x 0.74 Inches
p31
sVModel
p32
VHP 15-Aq110Nr
p33
sVScreen Size
p34
V15.6"
p35
sVProcessor Type
p36
VIntel Core i7
p37
ssS'title'
p38
VHP Envy X360 15-Aq110Nr 15.6" Laptop, Touchscreen, 2-in-1, Windows 10 Home, Intel Core i7-7500U Dual-Core Processor, 8GB RAM, 256GB Solid State Drive
p39
sb.