ccopy_reg
_reconstructor
p0
(c__main__
ProductRecord
p1
c__builtin__
object
p2
Ntp3
Rp4
(dp5
S'product_url'
p6
S'http://www.walmart.com/ip/Latitude-E6420-Notebook/19417675'
p7
sS'price'
p8
V$199.99
p9
sS'properties'
p10
(dp11
VRAM Memory
p12
V4 GB
p13
sVOperating System
p14
VMicrosoft Windows
p15
sVColor Category
p16
VSilver
p17
sVVideo Game Platform
p18
VPC
p19
sVBrand
p20
VDell
p21
sVWireless Technology
p22
VBluetooth 3.0
p23
sVHard Drive Capacity
p24
V320 GB
p25
sVLaptop Computer Type
p26
VBusiness Laptops
p27
sVProcessor Core Type
p28
VDual-core (2 Core)
p29
sVProcessor Type
p30
VIntel Core i5
p31
sVmanufacturer_part_number
p32
VD630
p33
sVScreen Size
p34
V14 in
p35
sVModel
p36
VE6420
p37
sVManufacturer
p38
VIntel
p39
ssS'title'
p40
VLatitude E6420 Notebook
p41
sb.