ccopy_reg
_reconstructor
p0
(c__main__
ProductRecord
p1
c__builtin__
object
p2
Ntp3
Rp4
(dp5
S'product_url'
p6
S'http://www.walmart.com/ip/Manufacturer-Refurbished-HP-14-BW010NR-14-Laptop-AMD-E2-9000E-1-5GHz-4GB-500GB-Windows-10/808705319'
p7
sS'price'
p8
V$219.99
p9
sS'properties'
p10
(dp11
VRAM Memory
p12
V4 GB
p13
sVOperating System
p14
VMicrosoft Windows
p15
sVColor Category
p16
VBlack
p17
sVLaptop Computer Type
p18
VPC Laptops
p19
sVBrand
p20
VHP
p21
sVManufacturer Part Number
p22
V14-BW010NR-RF
p23
sVHard Drive Capacity
p24
V500 GB
p25
sVModel
p26
V14-BW010NR-RF
p27
sVScreen Size
p28
V14\u005c"
p29
sVCondition
p30
VRefurbished
p31
sVManufacturer
p32
VHP
p33
ssS'title'
p34
VManufacturer Refurbished - HP 14-BW010NR 14" Laptop AMD E2-9000E 1.5GHz 4GB 500GB Windows 10
p35
sb.