ccopy_reg
_reconstructor
p0
(c__main__
ProductRecord
p1
c__builtin__
object
p2
Ntp3
Rp4
(dp5
S'product_url'
p6
S'http://www.walmart.com/ip/Dell-Latitude-D620-Notebook-Core-2-Duo-1-66-GHz-60GB-HD-4GB-RAM-14-1-Widescreen-Display/667212325'
p7
sS'price'
p8
V$119.00
p9
sS'properties'
p10
(dp11
VRAM Memory
p12
V4.00 GB
p13
sVOperating System
p14
VMicrosoft Windows
p15
sVColor Category
p16
VBlack
p17
sVLaptop Computer Type
p18
VPC Laptops
p19
sVBrand
p20
VDell
p21
sVManufacturer Part Number
p22
VD620
p23
sVHard Drive Capacity
p24
V60.00 GB
p25
sVProcessor Type
p26
VIntel Core 2 Duo
p27
sVScreen Size
p28
V14.1 in
p29
sVModel
p30
VD620
p31
sVManufacturer
p32
VDell
p33
ssS'title'
p34
VDell Latitude D620 Notebook Core 2 Duo 1.66 GHz 60GB HD 4GB RAM 14.1 Widescreen Display
p35
sb.