ccopy_reg
_reconstructor
p0
(c__main__
ProductRecord
p1
c__builtin__
object
p2
Ntp3
Rp4
(dp5
S'product_url'
p6
S'http://www.walmart.com/ip/Dell-Latitude-E5440-14-Laptop-i5-4300U-8GB-128GB-SSD-Win10-Pro-Refurbished/697388642'
p7
sS'price'
p8
V$370.92
p9
sS'properties'
p10
(dp11
VRAM Memory
p12
V8 GB
p13
sVOperating System
p14
VMicrosoft Windows
p15
sVBrand
p16
VDell
p17
sVManufacturer Part Number
p18
VE5440-8-128-W10P
p19
sVHard Drive Capacity
p20
V128 GB
p21
sVAssembled Product Dimensions (L x W x H)
p22
V19.00 x 13.60 x 3.00 Inches
p23
sVModel
p24
VE5440-8-128-W10P
p25
sVScreen Size
p26
V14\u005c"
p27
sVCondition
p28
VRefurbished
p29
ssS'title'
p30
VDell Latitude E5440 14" Laptop i5-4300U 8GB 128GB SSD Win10 Pro Refurbished
p31
sb.