ccopy_reg
_reconstructor
p0
(c__main__
ProductRecord
p1
c__builtin__
object
p2
Ntp3
Rp4
(dp5
S'product_url'
p6
S'http://www.walmart.com/ip/Refurbished-Dell-latitude-D820-with-Windows-7-Pro-Core-2-Duo-1-66GH-z-80GB-HD-4GB-RAM-15-4-Widescreen-Display/831163420'
p7
sS'price'
p8
V$124.00
p9
sS'properties'
p10
(dp11
VRAM Memory
p12
V4.00 GB
p13
sVOperating System
p14
VMicrosoft Windows
p15
sVColor Category
p16
VBlack
p17
sVLaptop Computer Type
p18
VPC Laptops
p19
sVBrand
p20
VDell
p21
sVHard Drive Capacity
p22
V80.00 GB
p23
sVProcessor Type
p24
VIntel Core 2 Duo
p25
sVScreen Size
p26
V15.4 in
p27
sVManufacturer
p28
VDell
p29
ssS'title'
p30
VRefurbished Dell latitude D820 with Windows 7 Pro. Core 2 Duo 1.66GH,z 80GB HD, 4GB RAM, 15.4 Widescreen Display
p31
sb.