ccopy_reg
_reconstructor
p0
(c__main__
ProductRecord
p1
c__builtin__
object
p2
Ntp3
Rp4
(dp5
S'product_url'
p6
S'http://www.walmart.com/ip/Refurbished-Acer-Aspire-NX-MFQAA-005-11-6-Inch-Laptop-E1-2100-1-GHz-4-GB-RAM-500-GB-HDD-Glossy-Black/106816081'
p7
sS'price'
p8
V$222.43
p9
sS'properties'
p10
(dp11
VBrand
p12
VAcer
p13
sVRAM Memory
p14
V4 GB
p15
sVScreen Size
p16
V11.6
p17
sVHard Drive Capacity
p18
V500
p19
sVmanufacturer_part_number
p20
Vnx.mfqaa.005
p21
ssS'title'
p22
VRefurbished Acer Aspire NX.MFQAA.005 11.6-Inch Laptop E1 -2100 1 GHz - 4 GB RAM - 500 GB HDD - Glossy Black
p23
sb.