ccopy_reg
_reconstructor
p0
(c__main__
ProductRecord
p1
c__builtin__
object
p2
Ntp3
Rp4
(dp5
S'product_url'
p6
S'http://www.walmart.com/ip/Refurbished-Asus-Transformer-Book-T100TA-C1-GR-B-10-1-Inch-Laptop/143849331'
p7
sS'price'
p8
V$179.00
p9
sS'properties'
p10
(dp11
VRAM Memory
p12
V2 Gigabytes
p13
sVOperating System
p14
VWindows 8
p15
sVBrand
p16
VASUS
p17
sVProcessor Speed
p18
V1.33 Gigahertz
p19
sVHard Drive Capacity
p20
V64 Gigabytes
p21
sVBattery Life
p22
V11 Hours
p23
sVAssembled Product Dimensions (L x W x H)
p24
V6.70 x 0.93 x 10.40 Inches
p25
sVModel
p26
VT100TAC1GR-RB
p27
sVScreen Size
p28
V10.1 Inches
p29
sVProcessor Type
p30
VQuad Core Atom Bay Trail-T Z3740
p31
sVAssembled Product Weight
p32
V2.40 Pounds
p33
ssS'title'
p34
VRefurbished Asus Transformer Book T100TA-C1-GR-B 10.1-Inch Laptop
p35
sb.