ccopy_reg
_reconstructor
p0
(c__main__
ProductRecord
p1
c__builtin__
object
p2
Ntp3
Rp4
(dp5
S'product_url'
p6
S'http://www.walmart.com/ip/Lenovo-Thinkpad-X1-Tablet-20gg001nus-12-in-plane-Switching-ips-Technology-2-1-Notebook-Intel-Core-M-M7-6y75-Dual-core-2-Core-1-20-Ghz-Convertible-Mid/54054277'
p7
sS'price'
p8
S'N/A'
p9
sS'properties'
p10
(dp11
VRAM Memory
p12
V8 GB
p13
sVOperating System
p14
VMicrosoft Windows
p15
sVBrand
p16
VLenovo
p17
sVManufacturer Part Number
p18
V20GG001NUS
p19
sVHard Drive Capacity
p20
V256 GB
p21
sVModel
p22
V20GG001NUS
p23
sVScreen Size
p24
V12"
p25
sVProcessor Speed
p26
V1.20 GHz
p27
ssS'title'
p28
VLenovo Thinkpad X1 Tablet 20gg001nus 12" [in-plane Switching [ips] Technology] 2 In 1 Notebook - Intel Core M M7-6y75 Dual-core [2 Core] 1.20 Ghz - Convertible - Midnight Black - 8 Gb Lpddr3 Ram - 256
p29
sb.