ccopy_reg
_reconstructor
p0
(c__main__
ProductRecord
p1
c__builtin__
object
p2
Ntp3
Rp4
(dp5
S'product_url'
p6
S'http://www.walmart.com/ip/Refurbished-Latitude-D630-14-1-Notebook-120GB-1GB-DVD-Windows-XP-Professional/111358349'
p7
sS'price'
p8
V$102.99
p9
sS'properties'
p10
(dp11
VOperating System
p12
VMicrosoft Windows
p13
sVBrand
p14
VDell
p15
sVScreen Size
p16
V14.1
p17
ssS'title'
p18
VRefurbished Latitude D630 14.1" Notebook - 120GB, 1GB, DVD, Windows XP Professional
p19
sb.