ccopy_reg
_reconstructor
p0
(c__main__
ProductRecord
p1
c__builtin__
object
p2
Ntp3
Rp4
(dp5
S'product_url'
p6
S'http://www.walmart.com/ip/Manufacturer-Refurbished-HP-15-BW070NR-15-6-Laptop-AMD-A9-9420-3-0GHz-4GB-1TB-Windows-10/211907794'
p7
sS'price'
p8
V$359.99
p9
sS'properties'
p10
(dp11
VRAM Memory
p12
V4 GB
p13
sVOperating System
p14
VMicrosoft Windows
p15
sVBrand
p16
VHP
p17
sVManufacturer Part Number
p18
V15-BW070NR-RF
p19
sVHard Drive Capacity
p20
V1000 GB
p21
sVModel
p22
V15-BW070NR-RF
p23
sVScreen Size
p24
V15.6\u005c"
p25
sVCondition
p26
VRefurbished
p27
ssS'title'
p28
VManufacturer Refurbished - HP 15-BW070NR 15.6" Laptop AMD A9-9420 3.0GHz 4GB 1TB Windows 10
p29
sb.