ccopy_reg
_reconstructor
p0
(c__main__
ProductRecord
p1
c__builtin__
object
p2
Ntp3
Rp4
(dp5
S'product_url'
p6
S'http://www.walmart.com/ip/Refurbished-Latitude-D830-15-4-Notebook-160GB-1GB-DVD-Windows-XP-Professional/195795945'
p7
sS'price'
p8
V$116.99
p9
sS'properties'
p10
(dp11
VLaptop Computer Type
p12
VPC Laptops
p13
sVHard Drive Capacity
p14
V160
p15
sVScreen Size
p16
V15.4
p17
sVOperating System
p18
VMicrosoft Windows
p19
sVBrand
p20
VDell
p21
ssS'title'
p22
VRefurbished Latitude D830 15.4" Notebook - 160GB, 1GB, DVD, Windows XP Professional
p23
sb.