ccopy_reg
_reconstructor
p0
(c__main__
ProductRecord
p1
c__builtin__
object
p2
Ntp3
Rp4
(dp5
S'product_url'
p6
S'http://www.walmart.com/ip/Dell-Inspiron-1525-Laptop-Dual-Core-1-8-GHz-2GB-RAM-160GB-DVD-Windows-7-PC-WiFi-Refurbished/126815376'
p7
sS'price'
p8
V$179.99
p9
sS'properties'
p10
(dp11
VBrand
p12
VDell
p13
sVRAM Memory
p14
V2 GB
p15
sVOperating System
p16
VMicrosoft Windows
p17
sVHard Drive Capacity
p18
V160
p19
ssS'title'
p20
VDell Inspiron 1525 Laptop Dual Core 1.8 GHz 2GB RAM 160GB DVD Windows 7 PC WiFi Refurbished
p21
sb.