ccopy_reg
_reconstructor
p0
(c__main__
ProductRecord
p1
c__builtin__
object
p2
Ntp3
Rp4
(dp5
S'product_url'
p6
S'http://www.walmart.com/ip/Dell-Latitude-E5400-Windows-7-Professional-Core-2-Duo-2-26GHZ-80-GB-HD-4GB-RAM-14-1-Widescreen-Display/437443538'
p7
sS'price'
p8
V$129.00
p9
sS'properties'
p10
(dp11
VRAM Memory
p12
V4.00 GB
p13
sVBrand
p14
VDell
p15
sVHard Drive Capacity
p16
V80.00 GB
p17
sVProcessor Type
p18
VIntel Core 2 Duo
p19
sVScreen Size
p20
V14.1 in
p21
sVProcessor Speed
p22
V2.26 GHz
p23
ssS'title'
p24
VDell Latitude E5400 Windows 7 Professional Core 2 Duo 2.26GHZ 80 GB HD 4GB RAM 14.1 Widescreen Display
p25
sb.