ccopy_reg
_reconstructor
p0
(c__main__
ProductRecord
p1
c__builtin__
object
p2
Ntp3
Rp4
(dp5
S'product_url'
p6
S'http://www.walmart.com/ip/Dell-XPS-XPS9365-7926BLK-PUS-2-in-1-13-3-Touch-screen-Laptop-Tablet-Notebook-i7-16GB-512GB-SSD/468105906'
p7
sS'price'
p8
S'N/A'
p9
sS'properties'
p10
(dp11
VRAM Memory
p12
V16 GB
p13
sVOperating System
p14
VMicrosoft Windows
p15
sVFeatures
p16
VDell XPS 13 9365 2-in-14-cell batteryPower adapter, Thoughtful designIt goes beyond beauty. Bonded Corning Gorilla glass, machined aluminum and carbon fiber are incorporated to enhance the performance of this Ultrabook.Strikingly thin, with more room to viewThe XPS 13 Ultrabook is a slim 6 mm (0.24) at its thinnest point - only 18 mm (0.71) at its thickest point - and features a 13.3" HD display cleverly fit into a footprint that's similar to an 11" laptop.Refined featuresXPS 13 Ultrabook feels as good as it looks, thanks to a comfort-designed keyboard and a sleek, gesture-enabled glass touch pad.Full HD displayEnjoy a state-of-the-art viewing experience with the Full HD 1080p display.Sharper detailYou can experience sharper detail with twice the number of pixels than a 720p display.Brilliant displayThe 350-nit brightness is up to 75% brighter than a typical 200-nit panel, so movie viewing and web surfing is enhanced with exceptional illumination.Wide viewing angleThe full 178-degree viewing angle allows you to easily share content with friends and family.Turns on instantlyThe XPS 13 Ultrabook boots from cold in as little as 12 seconds. Whatever state your laptop is in, it comes back in a snap, less than 3 seconds when it's in sleep mode and less than 5 seconds from deep sleep.Always up to dateIntel Smart Connect technology keeps your email, contacts, calendar and social networks up to date, even when your XPS 13 Ultrabook is in sleep mode., Thoughtful designStrikingly thin, with more room to viewRefined featuresFull HD displaySharper detailBrilliant displayWide viewing angleTurns on instantlyAlways up to date
p17
sVBrand
p18
VDell
p19
sVHard Drive Capacity
p20
V512 GB
p21
sVModel
p22
V13 9365 2-in-1
p23
sVScreen Size
p24
V13.3\u005c"
p25
sVProcessor Type
p26
VIntel Core i7
p27
sVCondition
p28
VNew
p29
sVmanufacturer_part_number
p30
Vxps9365-7926blk-pus
p31
ssS'title'
p32
VDell XPS XPS9365-7926BLK-PUS 2-in-1 13.3" Touch-screen Laptop Tablet Notebook i7 16GB 512GB SSD
p33
sb.