ccopy_reg
_reconstructor
p0
(c__main__
ProductRecord
p1
c__builtin__
object
p2
Ntp3
Rp4
(dp5
S'product_url'
p6
S'http://www.walmart.com/ip/Dell-latitude-D820-with-Windows-7-Pro-Core-2-Duo-1-66GH-z-80GB-HD-2GB-RAM-15-4-Widescreen-Display/923399033'
p7
sS'price'
p8
V$119.00
p9
sS'properties'
p10
(dp11
VRAM Memory
p12
V2.00 GB
p13
sVBrand
p14
VDell
p15
sVHard Drive Capacity
p16
V80.00 GB
p17
sVProcessor Type
p18
VIntel Core 2 Duo
p19
sVScreen Size
p20
V15.4 in
p21
sVProcessor Speed
p22
V1.66 GHz
p23
ssS'title'
p24
VDell latitude D820 with Windows 7 Pro. Core 2 Duo 1.66GH,z 80GB HD, 2GB RAM, 15.4 Widescreen Display
p25
sb.