ccopy_reg
_reconstructor
p0
(c__main__
ProductRecord
p1
c__builtin__
object
p2
Ntp3
Rp4
(dp5
S'product_url'
p6
S'http://www.walmart.com/ip/Refurbished-HP-1040-G3-2-4GHz-i5-8GB-256SSD-Windows-10-Pro-14-64-Laptop-Camera-B/824219874'
p7
sS'price'
p8
V$367.50
p9
sS'properties'
p10
(dp11
VOperating System
p12
VMicrosoft Windows
p13
sVBrand
p14
VHP
p15
sVRAM Memory
p16
V8 GB
p17
sVScreen Size
p18
V14\u005c"
p19
sVModel
p20
VEliteBook 1040 G3
p21
ssS'title'
p22
VRefurbished HP 1040 G3 2.4GHz i5 8GB 256SSD Windows 10 Pro 14" 64 Laptop Camera B
p23
sb.