ccopy_reg
_reconstructor
p0
(c__main__
ProductRecord
p1
c__builtin__
object
p2
Ntp3
Rp4
(dp5
S'product_url'
p6
S'http://www.walmart.com/ip/Refurbished-Dell-Precision-M4600-Intel-Quad-2820QM-2-3GHz-32GB-RAM-320GB-DVDRW-Windows-7-Professional-64-bit-15-6-1920x1080-HD-Ultra-Sharp-LED-Displa/508278658'
p7
sS'price'
p8
V$598.35
p9
sS'properties'
p10
(dp11
VRAM Memory
p12
V32 GB
p13
sVOperating System
p14
VMicrosoft Windows
p15
sVBrand
p16
VDell
p17
sVHard Drive Capacity
p18
V320
p19
sVAssembled Product Dimensions (L x W x H)
p20
V14.72 x 9.96 x 1.42 Inches
p21
sVScreen Size
p22
V15.6
p23
ssS'title'
p24
VRefurbished Dell Precision M4600 Intel Quad 2820QM 2.3GHz 32GB RAM 320GB DVDRW Windows 7 Professional 64-bit 15.6" 1920x1080 HD Ultra Sharp LED Display nVidia Quadro FX 1000M 2GB GPU
p25
sb.