ccopy_reg
_reconstructor
p0
(c__main__
ProductRecord
p1
c__builtin__
object
p2
Ntp3
Rp4
(dp5
S'product_url'
p6
S'http://www.walmart.com/ip/Dell-Latitude-E6430s-Intel-Core-i5-3320M-X2-2-6GHz-4GB-128GB-SSD-Gray-Refurbished/164790200'
p7
sS'price'
p8
V$254.99
p9
sS'properties'
p10
(dp11
VRAM Memory
p12
V4 Gigabytes
p13
sVOperating System
p14
VWindows 7
p15
sVFeatures
p16
VEnergy Star Compliant, Gold EPEAT
p17
sVBrand
p18
VDell
p19
sVProcessor Speed
p20
V2.6 Gigahertz
p21
sVManufacturer Part Number
p22
VE6430S-RFB
p23
sVMaximum RAM Supported
p24
V32 Gigabytes
p25
sVHard Drive Capacity
p26
V128 Gigabytes
p27
sVBattery Life
p28
V9 Hours
p29
sVAssembled Product Dimensions (L x W x H)
p30
V13.20 x 8.80 x 1.20 Inches
p31
sVModel
p32
Ve6430s
p33
sVScreen Size
p34
V14 Inches
p35
sVProcessor Type
p36
VIntel Core i5
p37
ssS'title'
p38
VDell Latitude E6430s Intel Core i5-3320M X2 2.6GHz 4GB 128GB SSD, Gray (Refurbished)
p39
sb.