ccopy_reg
_reconstructor
p0
(c__main__
ProductRecord
p1
c__builtin__
object
p2
Ntp3
Rp4
(dp5
S'product_url'
p6
S'http://www.walmart.com/ip/Off-Lease-REFURBISHED-Dell-Latitude-E6420-2-5GHz-Core-i5-8GB-250GB-DVD-Win-7-Pro-64-14-Laptop-Notebook/41053832'
p7
sS'price'
p8
V$341.99
p9
sS'properties'
p10
(dp11
VRAM Memory
p12
V8 Gigabytes
p13
sVOperating System
p14
VWindows 7
p15
sVVideo Game Platform
p16
VPC
p17
sVBrand
p18
VDell
p19
sVProcessor Speed
p20
V2.5 Gigahertz
p21
sVManufacturer Part Number
p22
V9SIA9UW3N87578
p23
sVMaximum RAM Supported
p24
V8
p25
sVHard Drive Capacity
p26
V250 Gigabytes
p27
sVBattery Life
p28
VBattery is the original battery and tested to hold a charge.
p29
sVModel
p30
VLatitude E6420
p31
sVScreen Size
p32
V14 Inches
p33
sVProcessor Type
p34
VIntel Core i5
p35
sVCondition
p36
VRefurbished
p37
ssS'title'
p38
VOff Lease REFURBISHED Dell Latitude E6420 2.5GHz Core i5 8GB 250GB DVD Win 7 Pro 64 14"Laptop Notebook
p39
sb.