ccopy_reg
_reconstructor
p0
(c__main__
ProductRecord
p1
c__builtin__
object
p2
Ntp3
Rp4
(dp5
S'product_url'
p6
S'http://www.walmart.com/ip/Refurbished-Dell-XPS-13-9343-2727SLV-13-3-Full-HD-Signature-Edition-Laptop-Intel-Core-i5-Broadwell-4GB-RAM-128GB-SSD-Windows-8-1-Intel/454066494'
p7
sS'price'
p8
V$899.98
p9
sS'properties'
p10
(dp11
VBrand
p12
VDell
p13
sVHard Drive Capacity
p14
V128
p15
sVmanufacturer_part_number
p16
V9343-2727slv
p17
ssS'title'
p18
VRefurbished Dell XPS 13 9343-2727SLV 13.3 Full HD Signature Edition Laptop - Intel Core i5 Broadwell, 4GB RAM, 128GB SSD, Windows 8.1,Intel
p19
sb.