ccopy_reg
_reconstructor
p0
(c__main__
ProductRecord
p1
c__builtin__
object
p2
Ntp3
Rp4
(dp5
S'product_url'
p6
S'http://www.walmart.com/ip/DELL-Laptop-Latitude-E6420-Intel-Core-i5-2520M-2-50-GHz-4-GB-Memory-320-GB-HDD-14-0-Refurbished/138254085'
p7
sS'price'
p8
V$209.99
p9
sS'properties'
p10
(dp11
VRAM Memory
p12
V4 GB
p13
sVOperating System
p14
VMicrosoft Windows
p15
sVLaptop Computer Type
p16
VBusiness Laptops
p17
sVBrand
p18
VDell
p19
sVHard Drive Capacity
p20
V320 KB
p21
sVScreen Size
p22
V14 in
p23
ssS'title'
p24
VDELL Laptop Latitude E6420 Intel Core i5 2520M (2.50 GHz) 4 GB Memory 320 GB HDD 14.0" Refurbished
p25
sb.