ccopy_reg
_reconstructor
p0
(c__main__
ProductRecord
p1
c__builtin__
object
p2
Ntp3
Rp4
(dp5
S'product_url'
p6
S'http://www.walmart.com/ip/Refurbished-HP-14-G2-Workstation-2-6GHz-i7-16GB-320GB-Windows-10-Pro-64-Laptop-Camera-B/740345900'
p7
sS'price'
p8
V$465.00
p9
sS'properties'
p10
(dp11
VHard Drive Capacity
p12
V320 GB
p13
sVBrand
p14
VHP
p15
sVRAM Memory
p16
V16 GB
p17
sVOperating System
p18
VMicrosoft Windows
p19
sVModel
p20
V14 G2 Mobile Workstation
p21
ssS'title'
p22
VRefurbished HP 14 G2 Workstation 2.6GHz i7 16GB 320GB Windows 10 Pro 64 Laptop Camera B
p23
sb.