ccopy_reg
_reconstructor
p0
(c__main__
ProductRecord
p1
c__builtin__
object
p2
Ntp3
Rp4
(dp5
S'product_url'
p6
S'http://www.walmart.com/ip/Manufacturer-Refurbished-HP-22-B315Z-21-5-All-in-one-Desktop-PC-i5-4460T-2-00GHz-4GB-RAM-1TB-HDD-Win-10/723966505'
p7
sS'price'
p8
V$349.99
p9
sS'properties'
p10
(dp11
VRAM Memory
p12
V8 GB
p13
sVOperating System
p14
VMicrosoft Windows
p15
sVBrand
p16
VHP
p17
sVManufacturer Part Number
p18
V22-b315z-RF
p19
sVHard Drive Capacity
p20
V1000 GB
p21
sVModel
p22
V22-b315z-RF
p23
sVScreen Size
p24
V21.5\u005c"
p25
sVCondition
p26
VRefurbished
p27
ssS'title'
p28
VManufacturer Refurbished - HP 22-B315Z 21.5" All-in-one Desktop PC i5-4460T 2.00GHz 4GB RAM 1TB HDD Win 10
p29
sb.