ccopy_reg
_reconstructor
p0
(c__main__
ProductRecord
p1
c__builtin__
object
p2
Ntp3
Rp4
(dp5
S'product_url'
p6
S'http://www.walmart.com/ip/REFURBISHED-ALIENWARE-13-ALW13E-1508-HD-1366-x-768-GTX-860M-2GB-DDR5-8GB-RAM/516084283'
p7
sS'price'
p8
V$749.00
p9
sS'properties'
p10
(dp11
VBrand
p12
VAlienware
p13
ssS'title'
p14
VREFURBISHED - ALIENWARE 13 ALW13E-1508 HD (1366 x 768)~GTX 860M 2GB DDR5~8GB RAM
p15
sb.