ccopy_reg
_reconstructor
p0
(c__main__
ProductRecord
p1
c__builtin__
object
p2
Ntp3
Rp4
(dp5
S'product_url'
p6
S'http://www.walmart.com/ip/Refurbished-Lenovo-ThinkPad-T430-14-Laptop-Windows-10-Pro-Intel-Core-i5-3320M-Processor-4GB-RAM-320GB-Hard-Drive/55641569'
p7
sS'price'
p8
V$253.00
p9
sS'properties'
p10
(dp11
VRAM Memory
p12
V4 GB
p13
sVOperating System
p14
VWindows 10 Professional 64-bit
p15
sVVideo Game Platform
p16
VPC
p17
sVBrand
p18
VLenovo
p19
sVProcessor Speed
p20
V2.60 GHz
p21
sVManufacturer Part Number
p22
V17VFLELP0059
p23
sVMaximum RAM Supported
p24
V16GB, SO DIMM 204-pin, 1066 MHz / PC3-8500
p25
sVHard Drive Capacity
p26
V320 GB
p27
sVBattery Life
p28
V1 hour 30 minutes
p29
sVAssembled Product Dimensions (L x W x H)
p30
V17.75 x 14.88 x 4.50 Inches
p31
sVModel
p32
VLenovo ThinkPad T430
p33
sVScreen Size
p34
V14.0"
p35
sVProcessor Type
p36
VIntel Core i5
p37
ssS'title'
p38
VRefurbished Lenovo ThinkPad T430 14" Laptop, Windows 10 Pro, Intel Core i5-3320M Processor, 4GB RAM, 320GB Hard Drive
p39
sb.