ccopy_reg
_reconstructor
p0
(c__main__
ProductRecord
p1
c__builtin__
object
p2
Ntp3
Rp4
(dp5
S'product_url'
p6
S'http://www.walmart.com/ip/Lenovo-Thinkpad-T440-HD-14-Intel-Core-i5-4300U-1-9GHz-2-9GHz-8GB-Memory-750GB-Hard-Drive-Webcam-Bluetooth-Windows-7-Professional-Laptop-Refurbished/893867867'
p7
sS'price'
p8
V$419.99
p9
sS'properties'
p10
(dp11
sS'title'
p12
VLenovo Thinkpad T440 HD+ 14" Intel Core i5 4300U (1.9GHz-2.9GHz) 8GB Memory 750GB Hard Drive Webcam Bluetooth Windows 7 Professional Laptop (Refurbished)
p13
sb.