ccopy_reg
_reconstructor
p0
(c__main__
ProductRecord
p1
c__builtin__
object
p2
Ntp3
Rp4
(dp5
S'product_url'
p6
S'http://www.walmart.com/ip/REFURBISHED-Alienware-ALW14-2189sLV-Intel-Core-i5-4200M-3-10GHz-8GB-500GB-14/114795928'
p7
sS'price'
p8
V$799.00
p9
sS'properties'
p10
(dp11
VBrand
p12
VAlienware
p13
sVRAM Memory
p14
V8 GB
p15
sVOperating System
p16
VMicrosoft Windows
p17
sVHard Drive Capacity
p18
V500
p19
sVCondition
p20
VRefurbished
p21
ssS'title'
p22
VREFURBISHED - Alienware ALW14-2189sLV Intel Core i5-4200M 3.10GHz 8GB 500GB 14''
p23
sb.