ccopy_reg
_reconstructor
p0
(c__main__
ProductRecord
p1
c__builtin__
object
p2
Ntp3
Rp4
(dp5
S'product_url'
p6
S'http://www.walmart.com/ip/Dell-Latitude-E6330-HD-13-3-Intel-Core-i5-3320M-2-6GHz-3-3GHz-8GB-Memory-500GB-Hard-Drive-Webcam-Bluetooth-Windows-7-Professional-Laptop-Refurbished/144067285'
p7
sS'price'
p8
V$319.99
p9
sS'properties'
p10
(dp11
sS'title'
p12
VDell Latitude E6330 HD 13.3" Intel Core i5 3320M (2.6GHz-3.3GHz) 8GB Memory 500GB Hard Drive Webcam Bluetooth Windows 7 Professional Laptop (Refurbished)
p13
sb.