ccopy_reg
_reconstructor
p0
(c__main__
ProductRecord
p1
c__builtin__
object
p2
Ntp3
Rp4
(dp5
S'product_url'
p6
S'http://www.walmart.com/ip/Lenovo-E531-6885CCU-15-6-Inch-Netbook-Refurbished/34009819'
p7
sS'price'
p8
V$279.99
p9
sS'properties'
p10
(dp11
VRAM Memory
p12
V2 GB
p13
sVOperating System
p14
VMicrosoft Windows
p15
sVVideo Game Platform
p16
VPC
p17
sVBrand
p18
VLenovo
p19
sVProcessor Speed
p20
V2.40 GHz
p21
sVManufacturer Part Number
p22
V6885CCU
p23
sVMaximum RAM Supported
p24
V16 GB
p25
sVHard Drive Capacity
p26
V320 GB
p27
sVBattery Life
p28
V6.20 Hour
p29
sVAssembled Product Dimensions (L x W x H)
p30
V19.50 x 13.10 x 3.70 Inches
p31
sVModel
p32
VHM77 Express, HD 4000, 6885CCU, E531
p33
sVScreen Size
p34
V15.6"
p35
sVProcessor Type
p36
VIntel Core i3
p37
ssS'title'
p38
VLenovo E531 6885CCU 15.6-Inch Netbook- Refurbished
p39
sb.