ccopy_reg
_reconstructor
p0
(c__main__
ProductRecord
p1
c__builtin__
object
p2
Ntp3
Rp4
(dp5
S'product_url'
p6
S'http://www.walmart.com/ip/Lenovo-ThinkPad-W530-HD-15-6-Intel-Core-i7-3520M-2-9GHz-3-6GHz-8GB-Memory-750GB-Hard-Drive-Nvidia-Quadro-K1000M-2GB-Windows-7-Professional-Laptop-Ref/167013896'
p7
sS'price'
p8
V$519.99
p9
sS'properties'
p10
(dp11
VRAM Memory
p12
V8 GB
p13
sVOperating System
p14
VMicrosoft Windows
p15
sVColor Category
p16
VBlack
p17
sVVideo Game Platform
p18
VPC
p19
sVBrand
p20
VLenovo
p21
sVWireless Technology
p22
VBluetooth
p23
sVHard Drive Capacity
p24
V750 GB
p25
sVLaptop Computer Type
p26
VPC Laptops
p27
sVProcessor Type
p28
VIntel Core i7
p29
sVScreen Size
p30
V15.6 in
p31
sVModel
p32
VW530
p33
sVCondition
p34
VRefurbished
p35
sVManufacturer
p36
VLENOVO
p37
ssS'title'
p38
VLenovo ThinkPad W530 HD+ 15.6" Intel Core i7 3520M (2.9GHz-3.6GHz) 8GB Memory 750GB Hard Drive Nvidia Quadro K1000M 2GB Windows 7 Professional Laptop (Refurbished)
p39
sb.