ccopy_reg
_reconstructor
p0
(c__main__
ProductRecord
p1
c__builtin__
object
p2
Ntp3
Rp4
(dp5
S'product_url'
p6
S'http://www.walmart.com/ip/Refurbished-HP-14-af110nr-14-Inch-Laptop-AMD-E1-2-GB-RAM-32-GB-SSD/170415752'
p7
sS'price'
p8
V$175.19
p9
sS'properties'
p10
(dp11
VRAM Memory
p12
V2 GB
p13
sVOperating System
p14
VMicrosoft Windows
p15
sVLaptop Computer Type
p16
VPC Laptops
p17
sVBrand
p18
VHP
p19
sVHard Drive Capacity
p20
V32
p21
sVScreen Size
p22
V\u005c\u005c"
p23
sVCondition
p24
VRefurbished
p25
ssS'title'
p26
VRefurbished HP 14-af110nr 14-Inch Laptop (AMD E1, 2 GB RAM, 32 GB SSD)
p27
sb.