ccopy_reg
_reconstructor
p0
(c__main__
ProductRecord
p1
c__builtin__
object
p2
Ntp3
Rp4
(dp5
S'product_url'
p6
S'http://www.walmart.com/ip/Manufacturer-Refurbished-HP-14-BW002LA-14-Laptop-AMD-A4-9120-2-2GHz-4GB-500GB-Windows-10/595393758'
p7
sS'price'
p8
V$259.99
p9
sS'properties'
p10
(dp11
VRAM Memory
p12
V4 GB
p13
sVOperating System
p14
VMicrosoft Windows
p15
sVBrand
p16
VHP
p17
sVManufacturer Part Number
p18
V14-BW002LA-RF
p19
sVHard Drive Capacity
p20
V500 GB
p21
sVModel
p22
V14-BW002LA-RF
p23
sVScreen Size
p24
V14\u005c"
p25
sVCondition
p26
VRefurbished
p27
ssS'title'
p28
VManufacturer Refurbished - HP 14-BW002LA 14" Laptop AMD A4-9120 2.2GHz 4GB 500GB Windows 10
p29
sb.