ccopy_reg
_reconstructor
p0
(c__main__
ProductRecord
p1
c__builtin__
object
p2
Ntp3
Rp4
(dp5
S'product_url'
p6
S'http://www.walmart.com/ip/Refurbished-Dell-Latitude-E5430-14-LED-Intel-Core-i5-3210M-2-5GHz-4GB-320GB-Laptop-Notebook/49988253'
p7
sS'price'
p8
V$284.94
p9
sS'properties'
p10
(dp11
VRAM Memory
p12
V4 GB
p13
sVBrand
p14
VDell
p15
sVManufacturer Part Number
p16
VE5430-I525-SKN-NC-FB-2R
p17
sVHard Drive Capacity
p18
V320
p19
sVModel
p20
VE5430-I525-SKN-NC-FB-2R
p21
sVCondition
p22
VRefurbished
p23
ssS'title'
p24
VRefurbished Dell Latitude E5430 14" LED Intel Core i5-3210M 2.5GHz 4GB 320GB Laptop Notebook
p25
sb.