ccopy_reg
_reconstructor
p0
(c__main__
ProductRecord
p1
c__builtin__
object
p2
Ntp3
Rp4
(dp5
S'product_url'
p6
S'http://www.walmart.com/ip/Refurbished-HP-Elitebook-745-G3-14-Notebook-8-GB-RAM-500-GB-HDD-AMD-Radeon-R6-Black-T3L32UT-ABA/653982103'
p7
sS'price'
p8
V$399.00
p9
sS'properties'
p10
(dp11
VBrand
p12
VHP
p13
sVHard Drive Capacity
p14
V500
p15
ssS'title'
p16
VRefurbished HP Elitebook 745 G3 14 Notebook, 8 GB RAM, 500 GB HDD, AMD Radeon R6, Black (T3L32UT#ABA)
p17
sb.