ccopy_reg
_reconstructor
p0
(c__main__
ProductRecord
p1
c__builtin__
object
p2
Ntp3
Rp4
(dp5
S'product_url'
p6
S'http://www.walmart.com/ip/Refurbished-Toshiba-Satellite-U505-S2950-13-3-Intel-T4300-4GB-Memory-320GB-Drive-Win-7/768201758'
p7
sS'price'
p8
V$369.12
p9
sS'properties'
p10
(dp11
VRAM Memory
p12
V4 GB
p13
sVOperating System
p14
VMicrosoft Windows
p15
sVFeatures
p16
VNo features description available
p17
sVBrand
p18
VToshiba
p19
sVManufacturer Part Number
p20
VU505-S2950
p21
sVHard Drive Capacity
p22
V320 GB
p23
sVAssembled Product Dimensions (L x W x H)
p24
V15.50 x 14.50 x 4.80 Inches
p25
sVModel
p26
VVIPRB-U505-S2950
p27
sVScreen Size
p28
V13.3\u005c"
p29
sVCondition
p30
VRefurbished
p31
ssS'title'
p32
VRefurbished Toshiba Satellite U505-S2950 13.3" Intel T4300 4GB Memory 320GB Drive Win 7
p33
sb.