ccopy_reg
_reconstructor
p0
(c__main__
ProductRecord
p1
c__builtin__
object
p2
Ntp3
Rp4
(dp5
S'product_url'
p6
S'http://www.walmart.com/ip/Lenovo-Thinkpad-T430-14-0-Intel-i5-2-6GHz-4GB-Ram-250GB-Hard-Drive-Webcam-Windows-7-Professional-Refurbished/185774086'
p7
sS'price'
p8
V$299.99
p9
sS'properties'
p10
(dp11
VOperating System
p12
VMicrosoft Windows
p13
sVBrand
p14
VLenovo
p15
sVRAM Memory
p16
V4 GB
p17
sVScreen Size
p18
V14.0
p19
sVHard Drive Capacity
p20
V250
p21
ssS'title'
p22
VLenovo Thinkpad T430 - 14.0" Intel i5 2.6GHz, 4GB Ram, 250GB Hard Drive, Webcam, Windows 7 Professional Refurbished
p23
sb.