ccopy_reg
_reconstructor
p0
(c__main__
ProductRecord
p1
c__builtin__
object
p2
Ntp3
Rp4
(dp5
S'product_url'
p6
S'http://www.walmart.com/ip/Refurbished-Lenovo-S21e-80M4002DUS-11-6-Inches-Laptop-Intel-Celeron-N2840-2-1-GHz-Processor-2-GB-DDR3-RAM-32-GB-SSD-Windows-8-1-Operati/151503218'
p7
sS'price'
p8
V$198.90
p9
sS'properties'
p10
(dp11
VLaptop Computer Type
p12
VPC Laptops
p13
sVBrand
p14
VLenovo
p15
sVRAM Memory
p16
V2 GB
p17
sVOperating System
p18
VMicrosoft Windows
p19
sVmanufacturer_part_number
p20
V80m4002dus
p21
ssS'title'
p22
VRefurbished Lenovo S21e 80M4002DUS 11.6-Inches Laptop (Intel Celeron N2840 2.1 GHz Processor, 2 GB DDR3 RAM, 32 GB SSD,  Windows 8.1 Operati
p23
sb.