ccopy_reg
_reconstructor
p0
(c__main__
ProductRecord
p1
c__builtin__
object
p2
Ntp3
Rp4
(dp5
S'product_url'
p6
S'http://www.walmart.com/ip/Microsoft-Surface-Book-13-5-LCD-2-in-1-Notebook-Intel-Core-i7-Refurbished/356832675'
p7
sS'price'
p8
S'N/A'
p9
sS'properties'
p10
(dp11
VRAM Memory
p12
V16 GB
p13
sVOperating System
p14
VWindows 10 Professional 64-bit Edition
p15
sVBrand
p16
VMicrosoft
p17
sVProcessor Speed
p18
V2.6 GHz
p19
sVHard Drive Capacity
p20
V512 GB
p21
sVModel
p22
VSW6-00001
p23
sVScreen Size
p24
V13.5 in
p25
sVProcessor Type
p26
VIntel Core i7
p27
ssS'title'
p28
VMicrosoft Surface Book 13.5" LCD 2 in 1 Notebook - Intel Core i7 (Refurbished)
p29
sb.