ccopy_reg
_reconstructor
p0
(c__main__
ProductRecord
p1
c__builtin__
object
p2
Ntp3
Rp4
(dp5
S'product_url'
p6
S'http://www.walmart.com/ip/Refurbished-HP-ProBook-350-G1-Intel-core-i5-4200U-1-6-GHz-8GB-DDR3-1TB-HDD-15-6-inches-HD-Windows-7-Pro-Silver/171527739'
p7
sS'price'
p8
V$328.99
p9
sS'properties'
p10
(dp11
VBrand
p12
VHP
p13
sVHard Drive Capacity
p14
V1000
p15
ssS'title'
p16
VRefurbished HP ProBook 350 G1 Intel core i5 4200U 1.6 GHz, 8GB DDR3, 1TB HDD, 15.6 inches HD, Windows 7 Pro, Silver
p17
sb.