ccopy_reg
_reconstructor
p0
(c__main__
ProductRecord
p1
c__builtin__
object
p2
Ntp3
Rp4
(dp5
S'product_url'
p6
S'http://www.walmart.com/ip/DELL-Latitude-E6430-Intel-Core-i5-3320M-2-60-GHz-8-GB-Memory-256-GB-SSD-Intel-HD-Graphics-4000-14-0-Windows-7-Professional-64-Bit-Refurbished/168735469'
p7
sS'price'
p8
V$299.99
p9
sS'properties'
p10
(dp11
VOperating System
p12
VMicrosoft Windows
p13
sVBrand
p14
VDell
p15
sVScreen Size
p16
V14 in
p17
ssS'title'
p18
VDELL Latitude E6430 Intel Core i5 3320M (2.60 GHz) 8 GB Memory 256 GB SSD Intel HD Graphics 4000 14.0" Windows 7 Professional 64-Bit  Refurbished
p19
sb.