ccopy_reg
_reconstructor
p0
(c__main__
ProductRecord
p1
c__builtin__
object
p2
Ntp3
Rp4
(dp5
S'product_url'
p6
S'http://www.walmart.com/ip/Refurbished-Dell-790-USFF-Desktop-PC-with-Intel-Core-i3-2100-Processor-4GB-Memory-320GB-Hard-Drive-and-Windows-10-Home-Monitor-Not-Included/55648699'
p7
sS'price'
p8
V$178.00
p9
sS'properties'
p10
(dp11
VRAM Memory
p12
V4 GB
p13
sVOperating System
p14
VWindows 10
p15
sVColor Category
p16
VBlack
p17
sVVideo Game Platform
p18
VPC
p19
sVBrand
p20
VDell
p21
sVManufacturer Part Number
p22
V62805557373
p23
sVHard Drive Capacity
p24
V320 GB
p25
sVLaptop Computer Type
p26
VPC Laptops
p27
sVProcessor Type
p28
VIntel Core i3
p29
sVModel
p30
VDell 790
p31
sVCondition
p32
VRefurbished
p33
sVManufacturer
p34
VDell
p35
ssS'title'
p36
VRefurbished Dell 790 USFF Desktop PC with Intel Core i3-2100 Processor, 4GB Memory, 320GB Hard Drive and Windows 10 Home (Monitor Not Included)
p37
sb.