ccopy_reg
_reconstructor
p0
(c__main__
ProductRecord
p1
c__builtin__
object
p2
Ntp3
Rp4
(dp5
S'product_url'
p6
S'http://www.walmart.com/ip/Refurbished-Gigaware-USB-Laptop-Notebook-Speaker/139061697'
p7
sS'price'
p8
V$8.99
p9
sS'properties'
p10
(dp11
VBrand
p12
VGigaware
p13
sVCondition
p14
VRefurbished
p15
ssS'title'
p16
VRefurbished Gigaware USB Laptop/Notebook Speaker
p17
sb.