ccopy_reg
_reconstructor
p0
(c__main__
ProductRecord
p1
c__builtin__
object
p2
Ntp3
Rp4
(dp5
S'product_url'
p6
S'http://www.walmart.com/ip/Refurbished-Dell-7010-USFF-i5-Processor-8GB-500GB-Windows-10-Pro-Wi-Fi/945773691'
p7
sS'price'
p8
V$260.51
p9
sS'properties'
p10
(dp11
VRAM Memory
p12
V8 GB
p13
sVOperating System
p14
VWindows 10
p15
sVFeatures
p16
VComes with new wired keyboard and mouse
p17
sVBrand
p18
VDell
p19
sVProcessor Speed
p20
V3.2 GHz
p21
sVMaximum RAM Supported
p22
V16 KB
p23
sVHard Drive Capacity
p24
V500 GB
p25
sVAssembled Product Dimensions (L x W x H)
p26
V20.00 x 15.00 x 7.00 Inches
p27
sVModel
p28
V0062805557889
p29
sVProcessor Type
p30
VIntel Core i5
p31
sVCondition
p32
VRefurbished
p33
sVmanufacturer_part_number
p34
V7010
p35
ssS'title'
p36
VRefurbished Dell 7010 USFF, i5 Processor, 8GB, 500GB, Windows 10 Pro, Wi-Fi
p37
sb.