ccopy_reg
_reconstructor
p0
(c__main__
ProductRecord
p1
c__builtin__
object
p2
Ntp3
Rp4
(dp5
S'product_url'
p6
S'http://www.walmart.com/ip/HP-ProBook-650-G3-15-6-Core-i7-7820HQ-16-GB-RAM-256-GB-SSD-US/919612453'
p7
sS'price'
p8
V$1,608.87
p9
sS'properties'
p10
(dp11
VRAM Memory
p12
V16.00 GB
p13
sVOperating System
p14
VWindows 10
p15
sVFeatures
p16
V16GB 256GB SSD DVDRW 15.6IN BT W10P
p17
sVBrand
p18
VHP
p19
sVProcessor Speed
p20
V2.90 GHz
p21
sVManufacturer Part Number
p22
V1NW45UT#ABA
p23
sVMaximum RAM Supported
p24
V32.00 GB
p25
sVHard Drive Capacity
p26
V256.00 GB
p27
sVBattery Life
p28
V13.00 h
p29
sVAssembled Product Dimensions (L x W x H)
p30
V5.00 x 5.00 x 5.00 Inches
p31
sVModel
p32
V1NW45UT
p33
sVScreen Size
p34
V15.60 in
p35
sVProcessor Type
p36
VIntel Core i7
p37
sVCondition
p38
VRefurbished
p39
ssS'title'
p40
VHP ProBook 650 G3 - 15.6" - Core i7 7820HQ - 16 GB RAM - 256 GB SSD - US
p41
sb.