ccopy_reg
_reconstructor
p0
(c__main__
ProductRecord
p1
c__builtin__
object
p2
Ntp3
Rp4
(dp5
S'product_url'
p6
S'http://www.walmart.com/ip/Dell-Latitude-E6440-Laptop-i5-4300M-2-6Ghz-4GB-RAM-160GB-SSD-14-High-Definition-Radeon-8690M-Windows-7-Refurbished/436675799'
p7
sS'price'
p8
V$479.95
p9
sS'properties'
p10
(dp11
VRAM Memory
p12
V4 Gigabytes
p13
sVOperating System
p14
VWindows 7
p15
sVVideo Game Platform
p16
VPC
p17
sVBrand
p18
VDell
p19
sVProcessor Speed
p20
V2.6 Gigahertz
p21
sVHard Drive Capacity
p22
V160 Gigabytes
p23
sVAssembled Product Dimensions (L x W x H)
p24
V9.20 x 13.30 x 1.30 Inches
p25
sVModel
p26
VE6440
p27
sVScreen Size
p28
V14 Inches
p29
sVProcessor Type
p30
VIntel Core i5
p31
ssS'title'
p32
VDell Latitude E6440 Laptop i5-4300M 2.6Ghz 4GB RAM 160GB SSD 14" High Definition Radeon 8690M Windows 7 (Refurbished)
p33
sb.