ccopy_reg
_reconstructor
p0
(c__main__
ProductRecord
p1
c__builtin__
object
p2
Ntp3
Rp4
(dp5
S'product_url'
p6
S'http://www.walmart.com/ip/Refurbished-Acer-Predator-G6-Intel-Core-i7-4-20-GHZ-16GB-Ram-2TB-HD-512GB-SSD-Windows-10/313266951'
p7
sS'price'
p8
V$2,217.59
p9
sS'properties'
p10
(dp11
VRAM Memory
p12
V16 GB
p13
sVOperating System
p14
VWindows 10
p15
sVBrand
p16
VAcer
p17
sVManufacturer Part Number
p18
VUD.P01AA.753
p19
sVHard Drive Capacity
p20
V512 GB
p21
sVModel
p22
VG6-720-i7KDCF1080TiF
p23
sVScreen Size
p24
V0 in
p25
sVProcessor Speed
p26
V4.20 GHz
p27
sVCondition
p28
VRefurbished
p29
ssS'title'
p30
VRefurbished Acer Predator G6 Intel Core i7 4.20 GHZ 16GB Ram 2TB HD 512GB SSD Windows 10
p31
sb.