ccopy_reg
_reconstructor
p0
(c__main__
ProductRecord
p1
c__builtin__
object
p2
Ntp3
Rp4
(dp5
S'product_url'
p6
S'http://www.walmart.com/ip/REFURBISHED-Hp-Mini-110-1100-10-1-Pink-Netbook-Atom-N270-1-6ghz-Cpu-2gb-Ram-2/788825835'
p7
sS'price'
p8
V$295.00
p9
sS'properties'
p10
(dp11
VOperating System
p12
VMicrosoft Windows
p13
sVBrand
p14
VHP
p15
sVRAM Memory
p16
V2 GB
p17
sVScreen Size
p18
V10.1
p19
sVCondition
p20
VRefurbished
p21
ssS'title'
p22
VREFURBISHED - Hp Mini 110 1100 10.1" Pink Netbook Atom N270 1.6ghz Cpu 2gb Ram 2
p23
sb.