ccopy_reg
_reconstructor
p0
(c__main__
ProductRecord
p1
c__builtin__
object
p2
Ntp3
Rp4
(dp5
S'product_url'
p6
S'http://www.walmart.com/ip/LENOVO-5D10G16541-REFURBISHED-15-6-LIQUID-CRYSTAL-DISPLAY/376175473'
p7
sS'price'
p8
V$102.00
p9
sS'properties'
p10
(dp11
VBrand
p12
VLenovo
p13
ssS'title'
p14
VLENOVO 5D10G16541 REFURBISHED 15.6 LIQUID CRYSTAL DISPLAY
p15
sb.