ccopy_reg
_reconstructor
p0
(c__main__
ProductRecord
p1
c__builtin__
object
p2
Ntp3
Rp4
(dp5
S'product_url'
p6
S'http://www.walmart.com/ip/HP-Spectre-x360-13t-Premium-Ultra-Light-Convertible-2-in-1-Laptop-Intel-8th-gen-i7-8550U-Quad-Core-16GB-RAM-256GB-SSD-13-3-UHD-4K-3840x2160-Touch-Act/410751512'
p7
sS'price'
p8
S'N/A'
p9
sS'properties'
p10
(dp11
VRAM Memory
p12
V16 GB
p13
sVOperating System
p14
VMicrosoft Windows
p15
sVBrand
p16
VMichaelElectronics2
p17
sVManufacturer Part Number
p18
VHP-13-02386-UHD-ME1
p19
sVHard Drive Capacity
p20
V256 GB
p21
sVProcessor Type
p22
V8th-Generation Intel Core i7-8550U
p23
sVScreen Size
p24
V13.3 in
p25
sVProcessor Speed
p26
V1.8 GHz
p27
ssS'title'
p28
VHP Spectre x360 13t Premium Ultra Light Convertible 2-in-1 Laptop (Intel 8th gen i7-8550U Quad Core, 16GB RAM, 256GB SSD, 13.3" UHD 4K (3840x2160) Touch, Active Stylus Pen, Win 10 Pro) Dark Ash Silver
p29
sb.