ccopy_reg
_reconstructor
p0
(c__main__
ProductRecord
p1
c__builtin__
object
p2
Ntp3
Rp4
(dp5
S'product_url'
p6
S'http://www.walmart.com/ip/Toshiba-V000240440-Base-Enclosure-for-Satellite-L630-Laptop-PC-Refurbished/50053602'
p7
sS'price'
p8
V$17.49
p9
sS'properties'
p10
(dp11
VRAM Memory
p12
V0 GB
p13
sVBrand
p14
VToshiba
p15
sVHard Drive Capacity
p16
V0 GB
p17
sVModel
p18
VV000240440
p19
sVScreen Size
p20
V0 in
p21
sVProcessor Speed
p22
V0 GHz
p23
sVmanufacturer_part_number
p24
Vv000240440
p25
ssS'title'
p26
VToshiba V000240440 Base Enclosure for Satellite L630 Laptop PC - (Refurbished)
p27
sb.