ccopy_reg
_reconstructor
p0
(c__main__
ProductRecord
p1
c__builtin__
object
p2
Ntp3
Rp4
(dp5
S'product_url'
p6
S'http://www.walmart.com/ip/Refurbished-SWITCH-by-Design-Studio-Lotus-Pink-15/108734578'
p7
sS'price'
p8
V$3.90
p9
sS'properties'
p10
(dp11
VBrand
p12
VDell
p13
sVCondition
p14
VRefurbished
p15
ssS'title'
p16
VRefurbished SWITCH by Design Studio; Lotus Pink - 15
p17
sb.