ccopy_reg
_reconstructor
p0
(c__main__
ProductRecord
p1
c__builtin__
object
p2
Ntp3
Rp4
(dp5
S'product_url'
p6
S'http://www.walmart.com/ip/Lenovo-Thinkpad-T440s-Intel-i7-8GB-RAM-256GB-SSD-14-FHD-Webcam-Backlit-Bluetooth-Windows-10-Pro-Laptop-Refurbished/566443778'
p7
sS'price'
p8
V$609.99
p9
sS'properties'
p10
(dp11
VRAM Memory
p12
V8 Gigabytes
p13
sVOperating System
p14
VWindows 10 Professional
p15
sVVideo Game Platform
p16
VPC
p17
sVBrand
p18
VLenovo
p19
sVProcessor Speed
p20
V2.1 Gigahertz
p21
sVHard Drive Capacity
p22
V256 Gigabytes
p23
sVModel
p24
VThinkpad T440s
p25
sVScreen Size
p26
V14 Inches
p27
sVProcessor Type
p28
V4th Generation Intel Core i7
p29
ssS'title'
p30
VLenovo Thinkpad T440s Intel i7 8GB RAM 256GB SSD 14" FHD Webcam Backlit Bluetooth Windows 10 Pro Laptop (Refurbished)
p31
sb.