ccopy_reg
_reconstructor
p0
(c__main__
ProductRecord
p1
c__builtin__
object
p2
Ntp3
Rp4
(dp5
S'product_url'
p6
S'http://www.walmart.com/ip/Refurbished-HP-EliteBook-Revolve-810-G3-1BB25US-Convertible-Notebook-PC-Intel-Core-i5-5300U-2-3-GHz-Dual-Core-Processor-8-GB-DDR3L-SDRAM-128-GB-Solid/619748842'
p7
sS'price'
p8
S'N/A'
p9
sS'properties'
p10
(dp11
sS'title'
p12
VRefurbished HP EliteBook Revolve 810 G3 1BB25US Convertible Notebook PC - Intel Core i5-5300U 2.3 GHz Dual-Core Processor - 8 GB DDR3L SDRAM - 128 GB Solid State Drive - 11.6-inch Touchscreen
p13
sb.