ccopy_reg
_reconstructor
p0
(c__main__
ProductRecord
p1
c__builtin__
object
p2
Ntp3
Rp4
(dp5
S'product_url'
p6
S'http://www.walmart.com/ip/HP-Pavilion-15-ab157cl-Intel-Core-i7-5500U-X2-2-4GHz-8GB-1TB-15-6-Win10-Silver-Refurbished/113828845'
p7
sS'price'
p8
V$665.00
p9
sS'properties'
p10
(dp11
VRAM Memory
p12
V8 Gigabytes
p13
sVOperating System
p14
VWindows 10
p15
sVFeatures
p16
V15.6-inch(1366 x 768)LED Display, SuperMulti-DVD Burner, 2 x USB 3.0, 1 x USB 2.0, 1 x HDMI, Intel Core i7-5500U Processor (Dual-Core, 2.4GHz, 4MB Cache), 1MP Webcam and Integrated Microphone, Energy Star Compliant, Silver EPEAT, 10/100 Ethernet, 802.11AC and Bluetooth 4.0 + HS, 8GBDDR3 System Memory, Backlit Full Size (10 Key) Keyboard and Touchpad, 1TB(5400RPM)SATA Hard Drive, Microsoft Windows 10 Home Operating System, 1.0" x 15.1" x 10.3" (HxWxD);5.5lbs, IntegratedIntel HD Graphics 5500, 4-cellLithium-Ion Battery
p17
sVBrand
p18
VHP
p19
sVManufacturer Part Number
p20
V15-AB157CL-FB-RCB-RFB
p21
sVMaximum RAM Supported
p22
V8 Gigabytes
p23
sVHard Drive Capacity
p24
V1000 Gigabytes
p25
sVBattery Life
p26
V7 Hours
p27
sVAssembled Product Dimensions (L x W x H)
p28
V15.10 x 10.30 x 1.00 Inches
p29
sVProcessor Type
p30
VIntel Core i7-5500U
p31
sVScreen Size
p32
V15.6 Inches
p33
sVProcessor Speed
p34
V2.4 Gigahertz
p35
ssS'title'
p36
VHP Pavilion 15-ab157cl Intel Core i7-5500U X2 2.4GHz 8GB 1TB 15.6" Win10,Silver (Refurbished)
p37
sb.