ccopy_reg
_reconstructor
p0
(c__main__
ProductRecord
p1
c__builtin__
object
p2
Ntp3
Rp4
(dp5
S'product_url'
p6
S'http://www.walmart.com/ip/Manufacturer-Refurbished-Acer-11-6-Intel-Celeron-1-6-GHz-4-GB-Ram-500GB-HDD-Windows-10-Home-R3-131T-C0B1/371502726'
p7
sS'price'
p8
V$271.57
p9
sS'properties'
p10
(dp11
VRAM Memory
p12
V4.00 GB
p13
sVOperating System
p14
VWindows 10
p15
sVBrand
p16
VAcer
p17
sVProcessor Speed
p18
V1.60 GHz
p19
sVManufacturer Part Number
p20
VNX.G0YAA.014
p21
sVHard Drive Capacity
p22
V500.00 GB
p23
sVModel
p24
VR3-131T-C0B1
p25
sVScreen Size
p26
V11.60 in
p27
sVProcessor Type
p28
VIntel Celeron
p29
ssS'title'
p30
VManufacturer Refurbished Acer 11.6" Intel Celeron 1.6 GHz 4 GB Ram 500GB HDD Windows 10 Home|R3-131T-C0B1
p31
sb.