ccopy_reg
_reconstructor
p0
(c__main__
ProductRecord
p1
c__builtin__
object
p2
Ntp3
Rp4
(dp5
S'product_url'
p6
S'http://www.walmart.com/ip/Refurbished-Asus-X550LA-RI5T25-Notebook-PC-Intel-Core-i5-4200U-1-6-GHz-Dual-Core/450827918'
p7
sS'price'
p8
V$299.00
p9
sS'properties'
p10
(dp11
VBrand
p12
VASUS
p13
sVmanufacturer_part_number
p14
Vx550la-ri5t25
p15
ssS'title'
p16
VRefurbished Asus X550LA-RI5T25 Notebook PC - Intel Core i5-4200U 1.6 GHz Dual Core
p17
sb.