ccopy_reg
_reconstructor
p0
(c__main__
ProductRecord
p1
c__builtin__
object
p2
Ntp3
Rp4
(dp5
S'product_url'
p6
S'http://www.walmart.com/ip/REFURBISHED-Dell-Latitude-E6410-14-Core-i5-160GB-Notebook/931011527'
p7
sS'price'
p8
V$236.77
p9
sS'properties'
p10
(dp11
VBrand
p12
VHP
p13
sVScreen Size
p14
V14
p15
sVHard Drive Capacity
p16
V160
p17
sVCondition
p18
VRefurbished
p19
ssS'title'
p20
VREFURBISHED - Dell Latitude E6410 14" Core i5 160GB Notebook
p21
sb.