ccopy_reg
_reconstructor
p0
(c__main__
ProductRecord
p1
c__builtin__
object
p2
Ntp3
Rp4
(dp5
S'product_url'
p6
S'http://www.walmart.com/ip/HP-W2M98UA-17-X051NR-Laptop-PC-Intel-Core-i3-6100U-2-3-GHz-Refurbished/524676934'
p7
sS'price'
p8
V$434.97
p9
sS'properties'
p10
(dp11
VRAM Memory
p12
V6 GB
p13
sVOperating System
p14
VWindows 10 Home 64-bit Edition
p15
sVBrand
p16
VHP
p17
sVProcessor Speed
p18
V2.3 GHz
p19
sVHard Drive Capacity
p20
V1024 GB
p21
sVModel
p22
VW2M98UA
p23
sVScreen Size
p24
V17.3 in
p25
sVProcessor Type
p26
VIntel Core i3
p27
sVCondition
p28
VRefurbished
p29
ssS'title'
p30
VHP W2M98UA 17-X051NR Laptop PC - Intel Core i3-6100U 2.3 GHz (Refurbished)
p31
sb.