ccopy_reg
_reconstructor
p0
(c__main__
ProductRecord
p1
c__builtin__
object
p2
Ntp3
Rp4
(dp5
S'product_url'
p6
S'http://www.walmart.com/ip/REFURBISHED-HP-EliteBook-8740w-XT913UA-17-LED-Notebook-Core-i7-i7-640M-2-8G/578380241'
p7
sS'price'
p8
V$549.95
p9
sS'properties'
p10
(dp11
VBrand
p12
VHP
p13
sVScreen Size
p14
V17
p15
sVCondition
p16
VRefurbished
p17
sVmanufacturer_part_number
p18
Vxt913ua
p19
ssS'title'
p20
VREFURBISHED - HP EliteBook 8740w XT913UA 17" LED Notebook - Core i7 i7-640M 2.8G
p21
sb.