ccopy_reg
_reconstructor
p0
(c__main__
ProductRecord
p1
c__builtin__
object
p2
Ntp3
Rp4
(dp5
S'product_url'
p6
S'http://www.walmart.com/ip/Refurbished-Dell-Precision-M6800-Mobile-Workstation-Intel-Core-i7-2-7GHz-Quad-Core-16GB-Memroy-Dual-500GB-Hard-Drive-Windows-10-Professional-Grade-B/566879650'
p7
sS'price'
p8
V$999.99
p9
sS'properties'
p10
(dp11
VRAM Memory
p12
V16.00 GB
p13
sVOperating System
p14
VWindows 10
p15
sVBrand
p16
VDell
p17
sVProcessor Speed
p18
V2.70 GHz
p19
sVManufacturer Part Number
p20
VM6800RB
p21
sVMaximum RAM Supported
p22
V32.00 GB
p23
sVHard Drive Capacity
p24
V500.00 GB
p25
sVBattery Life
p26
V0.00 h
p27
sVModel
p28
VM6800RBRCP
p29
sVScreen Size
p30
V17.20 in
p31
sVProcessor Type
p32
VIntel Core i7
p33
ssS'title'
p34
VRefurbished Dell Precision M6800 Mobile Workstation Intel Core i7 2.7GHz Quad Core 16GB Memroy Dual 500GB Hard Drive Windows 10 Professional Grade B
p35
sb.