ccopy_reg
_reconstructor
p0
(c__main__
ProductRecord
p1
c__builtin__
object
p2
Ntp3
Rp4
(dp5
S'product_url'
p6
S'http://www.walmart.com/ip/Manufacturer-Refurbished-HP-15-G035WM-15-6-Notebook-AMD-A8-6410-APU-2-4GHz-4GB-500GB-Windows-8/432270474'
p7
sS'price'
p8
V$249.99
p9
sS'properties'
p10
(dp11
VRAM Memory
p12
V4 Gigabytes
p13
sVOperating System
p14
VMicrosoft Windows
p15
sVVideo Game Platform
p16
VLaptop PC
p17
sVBrand
p18
VHP
p19
sVProcessor Speed
p20
V2.00 Gigahertz
p21
sVManufacturer Part Number
p22
V15-G035WM-RF
p23
sVMaximum RAM Supported
p24
V6 Gigabytes
p25
sVHard Drive Capacity
p26
V500 Gigabytes
p27
sVAssembled Product Dimensions (L x W x H)
p28
V24.00 x 4.00 x 14.00 Inches
p29
sVModel
p30
V15-G035WM-RF
p31
sVProcessor Type
p32
VAMD A8-Series
p33
ssS'title'
p34
VManufacturer Refurbished - HP 15-G035WM 15.6 Notebook AMD A8-6410 APU 2.4GHz 4GB 500GB Windows 8
p35
sb.