ccopy_reg
_reconstructor
p0
(c__main__
ProductRecord
p1
c__builtin__
object
p2
Ntp3
Rp4
(dp5
S'product_url'
p6
S'http://www.walmart.com/ip/HP-EliteBook-840-G4-14-WQHD-Laptop-i7-7500U-16GB-512GB-SSD-W10P-Refurb/372522964'
p7
sS'price'
p8
V$1,055.07
p9
sS'properties'
p10
(dp11
VRAM Memory
p12
V16 GB
p13
sVOperating System
p14
VMicrosoft Windows, Windows 10
p15
sVBrand
p16
VHP
p17
sVProcessor Speed
p18
V2.70 GHz
p19
sVManufacturer Part Number
p20
V1GE45UTR#ABA
p21
sVHard Drive Capacity
p22
V512 GB
p23
sVBattery Life
p24
V15.25 Hour
p25
sVAssembled Product Dimensions (L x W x H)
p26
V18.80 x 13.50 x 3.20 Inches
p27
sVModel
p28
V1GE45UTR#ABA
p29
sVScreen Size
p30
V14"
p31
sVProcessor Type
p32
VIntel Core i7
p33
sVCondition
p34
VRefurbished
p35
ssS'title'
p36
VHP EliteBook 840 G4 14" WQHD Laptop i7-7500U 16GB 512GB SSD W10P Refurb
p37
sb.