ccopy_reg
_reconstructor
p0
(c__main__
ProductRecord
p1
c__builtin__
object
p2
Ntp3
Rp4
(dp5
S'product_url'
p6
S'http://www.walmart.com/ip/Refurbished-Acer-Laptop-AMD-FX-Series-3-GHz-8-GB-Ram-256-GB-SSD-Windows-10-Home/976471076'
p7
sS'price'
p8
V$703.49
p9
sS'properties'
p10
(dp11
VRAM Memory
p12
V8 GB
p13
sVOperating System
p14
VWindows 10
p15
sVBrand
p16
VAcer
p17
sVManufacturer Part Number
p18
VNH.Q2UAA.003
p19
sVHard Drive Capacity
p20
V256 GB
p21
sVModel
p22
VAN515-41-F6VS
p23
sVScreen Size
p24
V15.6 in
p25
sVProcessor Speed
p26
V3 GHz
p27
sVCondition
p28
VRefurbished
p29
ssS'title'
p30
VRefurbished Acer Laptop AMD FX-Series 3 GHz 8 GB Ram 256 GB SSD Windows 10 Home
p31
sb.