ccopy_reg
_reconstructor
p0
(c__main__
ProductRecord
p1
c__builtin__
object
p2
Ntp3
Rp4
(dp5
S'product_url'
p6
S'http://www.walmart.com/ip/Refurbished-ASUS-X501U-RHE1N21-15-6-Notebook-E1-1200-1-4-GHz-4-GB-RAM-320-GB-HDD-Dark-Blue/518654626'
p7
sS'price'
p8
V$249.00
p9
sS'properties'
p10
(dp11
VBrand
p12
VASUS
p13
sVHard Drive Capacity
p14
V320
p15
ssS'title'
p16
VRefurbished ASUS X501U RHE1N21 15.6 Notebook - E1 -1200 1.4 GHz - 4 GB RAM - 320 GB HDD - Dark Blue
p17
sb.