ccopy_reg
_reconstructor
p0
(c__main__
ProductRecord
p1
c__builtin__
object
p2
Ntp3
Rp4
(dp5
S'product_url'
p6
S'http://www.walmart.com/ip/Manufacturer-Refurbished-HP-EliteBook-840-G1-14-Laptop-Intel-Core-i5-4300U-1-9GHz-4GB-500GB-Windows-7/787231655'
p7
sS'price'
p8
V$399.99
p9
sS'properties'
p10
(dp11
VBrand
p12
VHP
p13
sVScreen Size
p14
V14
p15
sVModel
p16
V840 G1-RF
p17
sVManufacturer Part Number
p18
V840 G1-RF
p19
ssS'title'
p20
VManufacturer Refurbished - HP EliteBook 840 G1 14" Laptop Intel Core i5-4300U 1.9GHz 4GB 500GB Windows 7
p21
sb.