ccopy_reg
_reconstructor
p0
(c__main__
ProductRecord
p1
c__builtin__
object
p2
Ntp3
Rp4
(dp5
S'product_url'
p6
S'http://www.walmart.com/ip/Refurbished-Acer-11-6-Intel-Celeron-N2840-2-16-GHz-4-GB-Ram-16GB-Flash-Chrome-OS-C730E-C555/752286735'
p7
sS'price'
p8
V$173.24
p9
sS'properties'
p10
(dp11
VRAM Memory
p12
V4 GB
p13
sVOperating System
p14
VChrome OS
p15
sVBrand
p16
VAcer
p17
sVManufacturer Part Number
p18
VNX.GC1AA.002
p19
sVModel
p20
VC730E-C555
p21
sVScreen Size
p22
V11.6 in
p23
sVProcessor Speed
p24
V2.16 GHz
p25
sVCondition
p26
VRefurbished
p27
ssS'title'
p28
VRefurbished Acer 11.6" Intel Celeron N2840 2.16 GHz 4 GB Ram 16GB Flash Chrome OS|C730E-C555
p29
sb.