ccopy_reg
_reconstructor
p0
(c__main__
ProductRecord
p1
c__builtin__
object
p2
Ntp3
Rp4
(dp5
S'product_url'
p6
S'http://www.walmart.com/ip/Refurbished-Acer-Aspire-One-Cloudbook-11-AO1-132-C3T3-11-6-LED-ComfyView-Notebook-Intel-Celeron-N3060-Dual-core-2-Core-1-60-GHz-2-GB/388396214'
p7
sS'price'
p8
V$141.35
p9
sS'properties'
p10
(dp11
VBrand
p12
VCLASSYTEK
p13
ssS'title'
p14
VRefurbished Acer Aspire One Cloudbook 11 AO1-132-C3T3 11.6 LED (ComfyView) Notebook - Intel Celeron N3060 Dual-core (2 Core) 1.60 GHz - 2 GB
p15
sb.