ccopy_reg
_reconstructor
p0
(c__main__
ProductRecord
p1
c__builtin__
object
p2
Ntp3
Rp4
(dp5
S'product_url'
p6
S'http://www.walmart.com/ip/Refurbished-HP-Notebook-Spectre-13v151nr-Notebook/251744011'
p7
sS'price'
p8
V$804.18
p9
sS'properties'
p10
(dp11
VRAM Memory
p12
V8 GB
p13
sVOperating System
p14
VMicrosoft Windows, Windows 10
p15
sVBrand
p16
VHP
p17
sVProcessor Speed
p18
V2.70 GHz
p19
sVManufacturer Part Number
p20
VW2K31UAR#ABA
p21
sVModel
p22
VW2K31UAR#ABA
p23
sVScreen Size
p24
V13.3"
p25
sVProcessor Type
p26
VIntel Core i7
p27
sVCondition
p28
VRefurbished
p29
ssS'title'
p30
VRefurbished HP Notebook Spectre 13v151nr Notebook
p31
sb.