ccopy_reg
_reconstructor
p0
(c__main__
ProductRecord
p1
c__builtin__
object
p2
Ntp3
Rp4
(dp5
S'product_url'
p6
S'http://www.walmart.com/ip/LENOVO-ThinkPad-E570-20H50043US-Laptop-PC-Intel-Core-i7-7500U-Refurbished/864483849'
p7
sS'price'
p8
V$688.49
p9
sS'properties'
p10
(dp11
VRAM Memory
p12
V8 GB
p13
sVOperating System
p14
VWindows 10
p15
sVBrand
p16
VLenovo
p17
sVProcessor Speed
p18
V2.7 GHz
p19
sVHard Drive Capacity
p20
V500 GB
p21
sVModel
p22
V20H50043US
p23
sVScreen Size
p24
V15.6 in
p25
sVProcessor Type
p26
VIntel Core i7
p27
sVCondition
p28
VRefurbished
p29
sVmanufacturer_part_number
p30
V20h50043us
p31
ssS'title'
p32
VLENOVO ThinkPad E570 20H50043US Laptop PC - Intel Core i7-7500U (Refurbished)
p33
sb.