ccopy_reg
_reconstructor
p0
(c__main__
ProductRecord
p1
c__builtin__
object
p2
Ntp3
Rp4
(dp5
S'product_url'
p6
S'http://www.walmart.com/ip/REFURBISHED-HP-EliteBook-2560p-Intel-Core-i7-2640M-2-80GHz-4GB-RAM-320GB/964578102'
p7
sS'price'
p8
V$579.00
p9
sS'properties'
p10
(dp11
VBrand
p12
Vintel
p13
sVHard Drive Capacity
p14
V320
p15
sVCondition
p16
VRefurbished
p17
ssS'title'
p18
VREFURBISHED - HP EliteBook 2560p - Intel Core i7-2640M 2.80GHz - 4GB RAM - 320GB
p19
sb.