ccopy_reg
_reconstructor
p0
(c__main__
ProductRecord
p1
c__builtin__
object
p2
Ntp3
Rp4
(dp5
S'product_url'
p6
S'http://www.walmart.com/ip/REFURBISHED-Dell-15R-7520-Special-Edition-15-Laptop-i5-3210M-2-5GHz-8GB-RAM-1/968055661'
p7
sS'price'
p8
V$474.79
p9
sS'properties'
p10
(dp11
VBrand
p12
VToshiba
p13
sVScreen Size
p14
V15
p15
sVCondition
p16
VRefurbished
p17
ssS'title'
p18
VREFURBISHED - Dell 15R 7520 Special Edition 15" Laptop i5-3210M 2.5GHz 8GB RAM 1
p19
sb.