ccopy_reg
_reconstructor
p0
(c__main__
ProductRecord
p1
c__builtin__
object
p2
Ntp3
Rp4
(dp5
S'product_url'
p6
S'http://www.walmart.com/ip/Refurbished-Toshiba-Satellite-C855-S5234-Laptop-Battery/842715311'
p7
sS'price'
p8
V$30.40
p9
sS'properties'
p10
(dp11
VAssembled Product Dimensions (L x W x H)
p12
V6.00 x 14.00 x 4.00 Inches
p13
sVFeatures
p14
VNo features description available
p15
sVBrand
p16
VToshiba
p17
sVManufacturer Part Number
p18
VC855-S5234 Battery
p19
sVModel
p20
VVIPRB-C855-S5234 Battery
p21
sVCondition
p22
VRefurbished
p23
ssS'title'
p24
VRefurbished Toshiba Satellite C855-S5234 Laptop Battery
p25
sb.