ccopy_reg
_reconstructor
p0
(c__main__
ProductRecord
p1
c__builtin__
object
p2
Ntp3
Rp4
(dp5
S'product_url'
p6
S'http://www.walmart.com/ip/REFURBISHED-Hp-Elitebook-8730w-17-Laptop-T9600-2-8ghz-4gb-500gb-Hdd-W7p-Dream/590411198'
p7
sS'price'
p8
V$556.77
p9
sS'properties'
p10
(dp11
VRAM Memory
p12
V4 GB
p13
sVBrand
p14
VHP
p15
sVHard Drive Capacity
p16
V500
p17
sVProcessor Speed
p18
V2
p19
sVScreen Size
p20
V17
p21
sVCondition
p22
VRefurbished
p23
ssS'title'
p24
VREFURBISHED - Hp Elitebook 8730w 17" Laptop T9600 2.8ghz 4gb 500gb Hdd W7p Dream
p25
sb.