ccopy_reg
_reconstructor
p0
(c__main__
ProductRecord
p1
c__builtin__
object
p2
Ntp3
Rp4
(dp5
S'product_url'
p6
S'http://www.walmart.com/ip/REFURBISHED-HP-ProBook-640-G1-14-Business-Laptop-Intel-Core-i5-4210M-2-6GHz/722395933'
p7
sS'price'
p8
V$599.95
p9
sS'properties'
p10
(dp11
VBrand
p12
VHP
p13
sVScreen Size
p14
V14
p15
sVCondition
p16
VRefurbished
p17
ssS'title'
p18
VREFURBISHED - HP ProBook 640 G1 14" Business Laptop ~Intel Core i5-4210M 2.6GHz
p19
sb.