ccopy_reg
_reconstructor
p0
(c__main__
ProductRecord
p1
c__builtin__
object
p2
Ntp3
Rp4
(dp5
S'product_url'
p6
S'http://www.walmart.com/ip/Refurbished-Lenovo-Black-ThinkPad-T420-14-PC-Laptop-Intel-i5-Dual-Core-2-5GHz-4GB-RAM-160GB-HDD-Intel-HD-Graphics-4000-1600-x-900-Display-Windows-10-/197381462'
p7
sS'price'
p8
V$238.25
p9
sS'properties'
p10
(dp11
VRAM Memory
p12
V4 Gigabytes
p13
sVOperating System
p14
VWindows 10
p15
sVBrand
p16
VLenovo
p17
sVProcessor Speed
p18
V2.5 Gigahertz
p19
sVManufacturer Part Number
p20
VT420
p21
sVHard Drive Capacity
p22
V160 Gigabytes
p23
sVModel
p24
VT420
p25
sVScreen Size
p26
V14 Inches
p27
sVProcessor Type
p28
VIntel Core i5
p29
ssS'title'
p30
VRefurbished Lenovo Black ThinkPad T420 14'' PC Laptop Intel i5 Dual Core 2.5GHz 4GB RAM 160GB HDD Intel HD Graphics 4000 1600 x 900 Display Windows 10 Professional 64-Bit
p31
sb.