ccopy_reg
_reconstructor
p0
(c__main__
ProductRecord
p1
c__builtin__
object
p2
Ntp3
Rp4
(dp5
S'product_url'
p6
S'http://www.walmart.com/ip/Asus-Chromebook-Flip-C302CA-DHM4-12-5-Touchscreen-LCD-2-in-1-Chromebook/792220114'
p7
sS'price'
p8
S'N/A'
p9
sS'properties'
p10
(dp11
VRAM Memory
p12
V4 KB
p13
sVOperating System
p14
VChrome OS
p15
sVFeatures
p16
VAsus Notebook C302CA-DHM4 Chromebook Flip 12.5 inch Core m3-6Y30 4GB 64GB Intel HD Touch Retail
p17
sVVideo Game Platform
p18
VPC
p19
sVBrand
p20
VASUS
p21
sVProcessor Speed
p22
V900 Hz
p23
sVManufacturer Part Number
p24
VC302CA-DHM4
p25
sVHard Drive Capacity
p26
V64 KB
p27
sVBattery Life
p28
V10 Hours
p29
sVAssembled Product Dimensions (L x W x H)
p30
V8.30 x 11.90 x 0.59 Inches
p31
sVModel
p32
VC302CA-DHM4
p33
sVScreen Size
p34
V12.50 Inches
p35
sVProcessor Type
p36
VIntel m3-6Y30
p37
sVCondition
p38
VNew
p39
ssS'title'
p40
VAsus Chromebook Flip C302CA-DHM4 12.5" Touchscreen LCD 2 in 1 Chromebook
p41
sb.