ccopy_reg
_reconstructor
p0
(c__main__
ProductRecord
p1
c__builtin__
object
p2
Ntp3
Rp4
(dp5
S'product_url'
p6
S'http://www.walmart.com/ip/Lenovo-Thinkpad-T440P-HD-14-Intel-Core-i5-4300M-2-6GHz-3-3GHz-8GB-Memory-128GB-SSD-Webcam-Backlit-Keyboard-Windows-10-Professional-Laptop-Refurbished/129707311'
p7
sS'price'
p8
V$369.99
p9
sS'properties'
p10
(dp11
sS'title'
p12
VLenovo Thinkpad T440P HD+ 14" Intel Core i5 4300M (2.6GHz-3.3GHz) 8GB Memory 128GB SSD Webcam Backlit Keyboard Windows 10 Professional Laptop (Refurbished)
p13
sb.