ccopy_reg
_reconstructor
p0
(c__main__
ProductRecord
p1
c__builtin__
object
p2
Ntp3
Rp4
(dp5
S'product_url'
p6
S'http://www.walmart.com/ip/Refurbished-Dell-Inspiron-15-3000-15-3542-15-6-TrueLife-Notebook-Intel-Celeron-2957U-Dual-core-2-Core-1-40-GHz-Black-i3542-0000BLK/162664333'
p7
sS'price'
p8
V$234.88
p9
sS'properties'
p10
(dp11
VBrand
p12
VDell
p13
ssS'title'
p14
VRefurbished Dell Inspiron 15 3000 15-3542 15.6 (TrueLife) Notebook - Intel Celeron 2957U Dual-core (2 Core) 1.40 GHz - Black i3542-0000BLK
p15
sb.