ccopy_reg
_reconstructor
p0
(c__main__
ProductRecord
p1
c__builtin__
object
p2
Ntp3
Rp4
(dp5
S'product_url'
p6
S'http://www.walmart.com/ip/Refurbished-Dell-XPS-15-9550-i7-6700HQ-8GB-256GB-SSD-FHD-INFINITYedge-Nvidia-GTX960M-Windows-10-Home-Laptop-silver/879357162'
p7
sS'price'
p8
V$1,299.88
p9
sS'properties'
p10
(dp11
VRAM Memory
p12
V8 Gigabytes
p13
sVBrand
p14
VDell
p15
sVHard Drive Capacity
p16
V256 Gigabytes
p17
sVProcessor Type
p18
VIntel Core i7
p19
sVScreen Size
p20
V15.6 Inches
p21
sVmanufacturer_part_number
p22
Vgtx960m
p23
ssS'title'
p24
VRefurbished Dell XPS 15 9550 i7-6700HQ 8GB 256GB SSD FHD INFINITYedge Nvidia GTX960M Windows 10 Home Laptop silver
p25
sb.