ccopy_reg
_reconstructor
p0
(c__main__
ProductRecord
p1
c__builtin__
object
p2
Ntp3
Rp4
(dp5
S'product_url'
p6
S'http://www.walmart.com/ip/Apple-iMac-MF883LL-A-Intel-Core-i5-4260U-X2-1-4GHz-8GB-500GB-21-5-Silver-Refurbished/876457102'
p7
sS'price'
p8
V$821.44
p9
sS'properties'
p10
(dp11
VScreen Size
p12
V21.5 Inches
p13
sVOperating System
p14
VApple Mac OS X 10.9
p15
sVFeatures
p16
VIntel Core i5-4260U Processor (Dual-Core, 1.4GHz, 3MB Cache), IntegratedIntel HD Graphics 5000, 1MP Webcam, 500GB(5400RPM)SATA Hard Drive, 8GBDDR3 Memory, 21.5-inch(1920 x 1080)TFT Display, Apple Mac OS X 10.9 Operating System, 4 x USB 3.0, 1 x Microphone-in, Wired Keyboard and Wired Mouse, Energy Star Compliant, 205W Power Supply, 17.7" x 20.8" x 6.9" (HxWxD);12.5lbs, 10/100/1000 Gigabit Ethernet, 802.11AC and Bluetooth 4.0 + HS
p17
sVResolution
p18
VFHD (1080P)
p19
sVDisplay Technology
p20
VTFT
p21
sVRAM Memory
p22
V8 Gigabytes
p23
sVGraphics Information
p24
VIntel HD Graphics 5000
p25
sVAssembled Product Dimensions (L x W x H)
p26
V20.80 x 6.90 x 17.70 Inches
p27
sVManufacturer Part Number
p28
VMF883LL/A-A-RFB
p29
sVMaximum RAM Supported
p30
V16 Gigabytes
p31
sVHard Drive Capacity
p32
V500 Gigabytes
p33
sVBrand
p34
VApple
p35
sVHas Bluetooth
p36
VY
p37
sVProcessor Type
p38
VIntel Core i5
p39
sVForm Factor
p40
VAll-in-One
p41
sVProcessor Speed
p42
V1.4 Gigahertz
p43
sVAssembled Product Weight
p44
V12.5 Pounds
p45
ssS'title'
p46
VApple iMac MF883LL/A Intel Core i5-4260U X2 1.4GHz 8GB 500GB 21.5",Silver (Refurbished)
p47
sb.