ccopy_reg
_reconstructor
p0
(c__main__
ProductRecord
p1
c__builtin__
object
p2
Ntp3
Rp4
(dp5
S'product_url'
p6
S'http://www.walmart.com/ip/Refurbished-HP-15-ay052nr-Laptop-15-6-Screen-Intel-Core-i3-4GB-Memory/823437405'
p7
sS'price'
p8
V$385.94
p9
sS'properties'
p10
(dp11
VBrand
p12
VHP
p13
sVRAM Memory
p14
V4 GB
p15
sVOperating System
p16
VMicrosoft Windows
p17
sVCondition
p18
VRefurbished
p19
ssS'title'
p20
VRefurbished HP 15-ay052nr Laptop, 15.6 Screen Intel Core i3, 4GB Memory
p21
sb.