ccopy_reg
_reconstructor
p0
(c__main__
ProductRecord
p1
c__builtin__
object
p2
Ntp3
Rp4
(dp5
S'product_url'
p6
S'http://www.walmart.com/ip/Lenovo-ThinkPad-Yoga-370-13-3-Touchscreen-Notebook-i7-7600U-8GB-256GB-SSD-W10P/563535412'
p7
sS'price'
p8
S'N/A'
p9
sS'properties'
p10
(dp11
VRAM Memory
p12
V8 Gigabytes
p13
sVOperating System
p14
VWindows 10 Pro (English)
p15
sVBrand
p16
VLenovo
p17
sVProcessor Speed
p18
V2.8 Gigahertz
p19
sVHard Drive Capacity
p20
V256 Gigabytes
p21
sVAssembled Product Dimensions (L x W x H)
p22
V19.00 x 14.00 x 2.00 Inches
p23
sVModel
p24
V20JH002DUS
p25
sVScreen Size
p26
V13.30 Inches
p27
sVProcessor Type
p28
VIntel i7-7600U
p29
sVCondition
p30
VNew
p31
sVmanufacturer_part_number
p32
V20jh002dus
p33
ssS'title'
p34
VLenovo ThinkPad Yoga 370 13.3" Touchscreen Notebook i7-7600U 8GB 256GB SSD W10P
p35
sb.