ccopy_reg
_reconstructor
p0
(c__main__
ProductRecord
p1
c__builtin__
object
p2
Ntp3
Rp4
(dp5
S'product_url'
p6
S'http://www.walmart.com/ip/Acer-Aspire-5100-Laptop-Modem-Card-T60M955-00-Refurbished/640289938'
p7
sS'price'
p8
V$19.99
p9
sS'properties'
p10
(dp11
VBrand
p12
VBCR
p13
sVOperating System
p14
VMicrosoft Windows
p15
sVManufacturer Part Number
p16
VT60M955.00
p17
sVCondition
p18
VRefurbished
p19
ssS'title'
p20
VAcer Aspire 5100 Laptop Modem Card- T60M955.00 -Refurbished
p21
sb.