ccopy_reg
_reconstructor
p0
(c__main__
ProductRecord
p1
c__builtin__
object
p2
Ntp3
Rp4
(dp5
S'product_url'
p6
S'http://www.walmart.com/ip/HP-ProBook-6450b-6455b-Laptop-Internal-Speakers-Assembly-613347-001-6039B0040601-Refurbished/756563394'
p7
sS'price'
p8
V$24.99
p9
sS'properties'
p10
(dp11
VBrand
p12
VHP
p13
sVManufacturer Part Number
p14
V613347-001 6039B0040601
p15
ssS'title'
p16
VHP ProBook 6450b 6455b Laptop Internal Speakers Assembly 613347-001 6039B0040601 - Refurbished
p17
sb.