ccopy_reg
_reconstructor
p0
(c__main__
ProductRecord
p1
c__builtin__
object
p2
Ntp3
Rp4
(dp5
S'product_url'
p6
S'http://www.walmart.com/ip/Refurbished-Intel-Core-i7-i7-720QM-Socket-G1-1-6GHz-SLBLY/327521215'
p7
sS'price'
p8
V$27.49
p9
sS'properties'
p10
(dp11
VFeatures
p12
VRefurbished, Pre-owned, Tested
p13
sVBrand
p14
VIntel
p15
sVManufacturer Part Number
p16
VSLBLYTR
p17
sVProcessor Speed
p18
V1.6 GHz
p19
sVProcessor Type
p20
VIntel Core i7
p21
sVCondition
p22
VRefurbished
p23
ssS'title'
p24
VRefurbished Intel Core i7 i7-720QM Socket G1 1.6GHz  SLBLY
p25
sb.