ccopy_reg
_reconstructor
p0
(c__main__
ProductRecord
p1
c__builtin__
object
p2
Ntp3
Rp4
(dp5
S'product_url'
p6
S'http://www.walmart.com/ip/REFURBISHED-Generic-Laptop-LCD-Screen-Display-Cable-For-HP-EliteBook-2740-2740/933541348'
p7
sS'price'
p8
V$30.00
p9
sS'properties'
p10
(dp11
VBrand
p12
VLenovo
p13
sVCondition
p14
VRefurbished
p15
ssS'title'
p16
VREFURBISHED - Generic Laptop LCD Screen Display Cable For HP EliteBook 2740 2740
p17
sb.