ccopy_reg
_reconstructor
p0
(c__main__
ProductRecord
p1
c__builtin__
object
p2
Ntp3
Rp4
(dp5
S'product_url'
p6
S'http://www.walmart.com/ip/REFURBISHED-U499F-Dell-Inspiron-15-1545-1546-Laptop-Base-Bottom-Cover-As/186298457'
p7
sS'price'
p8
V$30.00
p9
sS'properties'
p10
(dp11
VBrand
p12
Vintel
p13
sVCondition
p14
VRefurbished
p15
sVmanufacturer_part_number
p16
Vu499f
p17
ssS'title'
p18
VREFURBISHED - U499F - Dell Inspiron 15 (1545 / 1546) Laptop Base Bottom Cover As
p19
sb.