ccopy_reg
_reconstructor
p0
(c__main__
ProductRecord
p1
c__builtin__
object
p2
Ntp3
Rp4
(dp5
S'product_url'
p6
S'http://www.walmart.com/ip/Gateway-High-Voltage-LCD-Inverter-3RUA2IV0003/113226307'
p7
sS'price'
p8
V$30.00
p9
sS'properties'
p10
(dp11
VBrand
p12
VHP
p13
sVRecommended Location
p14
VIndoor
p15
ssS'title'
p16
VGateway High Voltage LCD Inverter 3RUA2IV0003
p17
sb.