ccopy_reg
_reconstructor
p0
(c__main__
ProductRecord
p1
c__builtin__
object
p2
Ntp3
Rp4
(dp5
S'product_url'
p6
S'http://www.walmart.com/ip/GUMDROPCASES-DT-DL3180-BLK-Drop-Tech-Case-For-11-inch-Notebook-Refurbished/579348330'
p7
sS'price'
p8
V$36.97
p9
sS'properties'
p10
(dp11
VRAM Memory
p12
V0 GB
p13
sVBrand
p14
VGumdrop Cases
p15
sVHard Drive Capacity
p16
V0 GB
p17
sVModel
p18
VDT-DL3180-BLK
p19
sVScreen Size
p20
V0 in
p21
sVProcessor Speed
p22
V0 GHz
p23
sVCondition
p24
VRefurbished
p25
sVmanufacturer_part_number
p26
Vdt-dl3180-blk
p27
ssS'title'
p28
VGUMDROPCASES DT-DL3180-BLK Drop Tech Case For 11-inch Notebook - (Refurbished)
p29
sb.