ccopy_reg
_reconstructor
p0
(c__main__
ProductRecord
p1
c__builtin__
object
p2
Ntp3
Rp4
(dp5
S'product_url'
p6
S'http://www.walmart.com/ip/Toshiba-Satellite-C300-LCD-Inverter-Board-V000120230-Refurbished/515611518'
p7
sS'price'
p8
V$52.99
p9
sS'properties'
p10
(dp11
VBrand
p12
VBCR
p13
sVRecommended Location
p14
VIndoor
p15
ssS'title'
p16
VToshiba Satellite C300 LCD Inverter Board- V000120230  - Refurbished
p17
sb.