ccopy_reg
_reconstructor
p0
(c__main__
ProductRecord
p1
c__builtin__
object
p2
Ntp3
Rp4
(dp5
S'product_url'
p6
S'http://www.walmart.com/ip/Aleko-WA600W12V-APE-New-600-Watt-Car-Power-Inverter-12V-To-120V/39243422'
p7
sS'price'
p8
V$56.33
p9
sS'properties'
p10
(dp11
VRecommended Location
p12
VIndoor
p13
sVBrand
p14
VALEKO
p15
sVModel
p16
VWA600W12V-APE
p17
sVCondition
p18
VNew
p19
ssS'title'
p20
VAleko WA600W12V-APE New 600 Watt Car Power Inverter 12V To 120V
p21
sb.