ccopy_reg
_reconstructor
p0
(c__main__
ProductRecord
p1
c__builtin__
object
p2
Ntp3
Rp4
(dp5
S'product_url'
p6
S'http://www.walmart.com/ip/Aleko-WA600W24V-APE-600-Watt-Car-Power-Inverter/39249345'
p7
sS'price'
p8
V$57.08
p9
sS'properties'
p10
(dp11
VRecommended Location
p12
VIndoor
p13
sVBrand
p14
VALEKO
p15
sVModel
p16
VWA600W24V-APE
p17
ssS'title'
p18
VAleko WA600W24V-APE 600 Watt Car Power Inverter
p19
sb.