ccopy_reg
_reconstructor
p0
(c__main__
ProductRecord
p1
c__builtin__
object
p2
Ntp3
Rp4
(dp5
S'product_url'
p6
S'http://www.walmart.com/ip/Refurbished-HP-Folio-13-1000-672352001-BGA1023-Intel-Core-i5-1-6GHz-DDR3-SDRAM-Laptop-Motherboard/462339384'
p7
sS'price'
p8
V$62.49
p9
sS'properties'
p10
(dp11
VOperating System
p12
VMicrosoft Windows
p13
sVFeatures
p14
VRefurbished, Pre-owned, Tested
p15
sVBrand
p16
VHP
p17
sVManufacturer Part Number
p18
V672352001TR
p19
sVProcessor Type
p20
VIntel Core i5
p21
sVCondition
p22
VRefurbished
p23
ssS'title'
p24
VRefurbished HP Folio 13-1000 672352001  BGA1023 Intel Core i5 1.6GHz DDR3 SDRAM  Laptop Motherboard
p25
sb.