ccopy_reg
_reconstructor
p0
(c__main__
ProductRecord
p1
c__builtin__
object
p2
Ntp3
Rp4
(dp5
S'product_url'
p6
S'http://www.walmart.com/ip/Apple-A1224-AS022176K00-Inverter-Board-Model-V247-002-4H-V2471-011-A-Refurbished/311946391'
p7
sS'price'
p8
V$62.99
p9
sS'properties'
p10
(dp11
VBrand
p12
VApple
p13
ssS'title'
p14
VApple A1224 AS022176K00 Inverter Board Model: V247-002 4H.V2471.011/A. - Refurbished
p15
sb.