ccopy_reg
_reconstructor
p0
(c__main__
ProductRecord
p1
c__builtin__
object
p2
Ntp3
Rp4
(dp5
S'product_url'
p6
S'http://www.walmart.com/ip/Refurbished-Intel-i7-2760QM-Socket-G2-2-4GHz-Laptop-SR02W/544243669'
p7
sS'price'
p8
V$73.74
p9
sS'properties'
p10
(dp11
VFeatures
p12
VRefurbished, Pre-owned, Tested
p13
sVBrand
p14
VIntel
p15
sVManufacturer Part Number
p16
VSR02WTR
p17
sVProcessor Speed
p18
V2.4 GHz
p19
sVProcessor Type
p20
VIntel Core i7
p21
sVCondition
p22
VRefurbished
p23
ssS'title'
p24
VRefurbished Intel i7-2760QM  Socket G2 2.4GHz Laptop SR02W
p25
sb.