ccopy_reg
_reconstructor
p0
(c__main__
ProductRecord
p1
c__builtin__
object
p2
Ntp3
Rp4
(dp5
S'product_url'
p6
S'http://www.walmart.com/ip/ASUS-VivoBook-TP200SA-DH01T-BL-11-6-inch-display-Thin-Lightweight-2-in-1-HD-Touchscreen-Laptop-Intel-Celeron-2-48-GHz-Processor-4GB-RAM-32GB-EMMC-Sto/976603495'
p7
sS'price'
p8
S'N/A'
p9
sS'properties'
p10
(dp11
VRAM Memory
p12
V4 GB
p13
sVOperating System
p14
VMicrosoft Windows
p15
sVLaptop Computer Type
p16
VTouchscreen
p17
sVBrand
p18
VASUS
p19
sVProcessor Core Type
p20
VDual-core (2 Core)
p21
sVProcessor Type
p22
VIntel Celeron
p23
sVManufacturer
p24
VASUS Computers
p25
sVScreen Size
p26
V11.6"
p27
sVModel
p28
VTP200SA
p29
sVmanufacturer_part_number
p30
Vtp200sa-dh01t-bl
p31
ssS'title'
p32
VASUS VivoBook TP200SA-DH01T-BL 11.6 inch display Thin and Lightweight 2-in-1 HD Touchscreen Laptop, Intel Celeron 2.48 GHz Processor, 4GB RAM, 32GB EMMC Storage, Windows 10 Home, Dark Blue Color
p33
sb.