ccopy_reg
_reconstructor
p0
(c__main__
ProductRecord
p1
c__builtin__
object
p2
Ntp3
Rp4
(dp5
S'product_url'
p6
S'http://www.walmart.com/ip/Refurbished-Latitude-D830-15-4-Notebook-120GB-2GB-DVD-Windows-7-Professional-32-Bit/131012755'
p7
sS'price'
p8
V$116.99
p9
sS'properties'
p10
(dp11
VOperating System
p12
VMicrosoft Windows
p13
sVBrand
p14
VDell
p15
sVScreen Size
p16
V15.4
p17
ssS'title'
p18
VRefurbished Latitude D830 15.4" Notebook - 120GB, 2GB, DVD, Windows 7 Professional 32 Bit
p19
sb.