ccopy_reg
_reconstructor
p0
(c__main__
ProductRecord
p1
c__builtin__
object
p2
Ntp3
Rp4
(dp5
S'product_url'
p6
S'http://www.walmart.com/ip/Lenovo-ThinkPad-X1-Tablet-12-Core-i7-7Y75-16-GB-RAM-256-GB-SSD/855196984'
p7
sS'price'
p8
S'N/A'
p9
sS'properties'
p10
(dp11
VRAM Memory
p12
V16 Gigabytes
p13
sVOperating System
p14
VWindows 10 Pro (English)
p15
sVBrand
p16
VLenovo
p17
sVProcessor Speed
p18
V1.3 Gigahertz
p19
sVManufacturer Part Number
p20
V20JB002BUS
p21
sVHard Drive Capacity
p22
V256 Gigabytes
p23
sVBattery Life
p24
V0 h
p25
sVAssembled Product Dimensions (L x W x H)
p26
V12.00 x 6.00 x 12.00 Inches
p27
sVModel
p28
V20JB002BUS
p29
sVScreen Size
p30
V12.00 Inches
p31
sVProcessor Type
p32
VIntel i7-7Y75
p33
sVCondition
p34
VNew
p35
ssS'title'
p36
VLenovo ThinkPad X1 Tablet - 12" - Core i7 7Y75 - 16 GB RAM - 256 GB SSD
p37
sb.