ccopy_reg
_reconstructor
p0
(c__main__
ProductRecord
p1
c__builtin__
object
p2
Ntp3
Rp4
(dp5
S'product_url'
p6
S'http://www.walmart.com/ip/Refurbished-HP-Silver-14-EliteBook-8460P-WA5-0930-Laptop-PC-with-Intel-Core-i5-2410M-Processor-4GB-Memory-320GB-Hard-Drive-and-Windows-10-Home/50348571'
p7
sS'price'
p8
V$185.00
p9
sS'properties'
p10
(dp11
VRAM Memory
p12
V4 GB
p13
sVOperating System
p14
VWindows 10
p15
sVVideo Game Platform
p16
VPC
p17
sVBrand
p18
VHP
p19
sVProcessor Speed
p20
V2.30 GHz
p21
sVManufacturer Part Number
p22
VWA5-0930
p23
sVMaximum RAM Supported
p24
V16 GB
p25
sVHard Drive Capacity
p26
V320 Gigabytes
p27
sVAssembled Product Dimensions (L x W x H)
p28
V13.30 x 1.25 x 9.10 Inches
p29
sVModel
p30
V8460P
p31
sVScreen Size
p32
V14.0 in
p33
sVProcessor Type
p34
VIntel Core i5
p35
sVCondition
p36
VRefurbished
p37
ssS'title'
p38
VRefurbished HP Silver 14" EliteBook 8460P WA5-0930 Laptop PC with Intel Core i5-2410M Processor, 4GB Memory, 320GB Hard Drive and Windows 10 Home
p39
sb.