ccopy_reg
_reconstructor
p0
(c__main__
ProductRecord
p1
c__builtin__
object
p2
Ntp3
Rp4
(dp5
S'product_url'
p6
S'http://www.walmart.com/ip/NEW-Original-OEM-DELL-XPS-15-9550-11-1V-84Wh-4GVGH-1P6KD/556819074'
p7
sS'price'
p8
V$199.95
p9
sS'properties'
p10
(dp11
VBrand
p12
VDell
p13
ssS'title'
p14
VNEW Original/OEM DELL XPS 15 9550 11.1V 84Wh 4GVGH 1P6KD
p15
sb.