ccopy_reg
_reconstructor
p0
(c__main__
ProductRecord
p1
c__builtin__
object
p2
Ntp3
Rp4
(dp5
S'product_url'
p6
S'http://www.walmart.com/ip/Refurbished-HP-EliteBook-2570p-i5-2-8GHz-4GB-128SSD-Windows-10-Pro-64-Laptop-B/562892067'
p7
sS'price'
p8
V$215.66
p9
sS'properties'
p10
(dp11
VBrand
p12
VHP
p13
sVRAM Memory
p14
V4 GB
p15
sVOperating System
p16
VMicrosoft Windows
p17
sVModel
p18
VEliteBook 2570p
p19
ssS'title'
p20
VRefurbished HP EliteBook 2570p i5 2.8GHz 4GB 128SSD Windows 10 Pro 64 Laptop B
p21
sb.