ccopy_reg
_reconstructor
p0
(c__main__
ProductRecord
p1
c__builtin__
object
p2
Ntp3
Rp4
(dp5
S'product_url'
p6
S'http://www.walmart.com/ip/Dell-Inspiron-15-i3541-2000BLK-15-6-AMD-A4-6210-Notebook-Computer-Refurbished/409445184'
p7
sS'price'
p8
V$219.00
p9
sS'properties'
p10
(dp11
VBrand
p12
VDell
p13
sVmanufacturer_part_number
p14
Vi3541-2000blk
p15
ssS'title'
p16
VDell Inspiron 15 i3541-2000BLK 15.6" AMD A4-6210 Notebook Computer - Refurbished
p17
sb.