ccopy_reg
_reconstructor
p0
(c__main__
ProductRecord
p1
c__builtin__
object
p2
Ntp3
Rp4
(dp5
S'product_url'
p6
S'http://www.walmart.com/ip/REFURBISHED-HP-Mini-110-3098NR-Netbook-1GB-RAM-1-66-Ghz-160-GB-HDD-Laptop-PC/666397523'
p7
sS'price'
p8
V$219.97
p9
sS'properties'
p10
(dp11
VBrand
p12
Vintel
p13
sVCondition
p14
VRefurbished
p15
ssS'title'
p16
VREFURBISHED - HP Mini 110-3098NR Netbook 1GB RAM, 1.66 Ghz, 160 GB HDD Laptop PC
p17
sb.