ccopy_reg
_reconstructor
p0
(c__main__
ProductRecord
p1
c__builtin__
object
p2
Ntp3
Rp4
(dp5
S'product_url'
p6
S'http://www.walmart.com/ip/Refurbished-HP-EliteBook-8460p-Laptop-Intel-Core-i5-2520m-2-5GHz-4GB-128GB-14in-W7Pro/975065296'
p7
sS'price'
p8
V$229.00
p9
sS'properties'
p10
(dp11
VBrand
p12
VHP
p13
sVScreen Size
p14
V14
p15
sVHard Drive Capacity
p16
V128
p17
ssS'title'
p18
VRefurbished HP EliteBook 8460p Laptop Intel Core i5-2520m 2.5GHz 4GB 128GB 14in W7Pro
p19
sb.