ccopy_reg
_reconstructor
p0
(c__main__
ProductRecord
p1
c__builtin__
object
p2
Ntp3
Rp4
(dp5
S'product_url'
p6
S'http://www.walmart.com/ip/Refurbished-4GB-500GB-DRW-14IN-W10P/660346165'
p7
sS'price'
p8
V$243.11
p9
sS'properties'
p10
(dp11
VRAM Memory
p12
V4 GB
p13
sVOperating System
p14
VMicrosoft Windows
p15
sVManufacturer Part Number
p16
VIM5-00006E-RF
p17
sVHard Drive Capacity
p18
V500
p19
sVModel
p20
VIM5-00006E-RF
p21
sVScreen Size
p22
V14
p23
sVCondition
p24
VRefurbished
p25
ssS'title'
p26
VRefurbished 4GB 500GB DRW 14IN W10P
p27
sb.