ccopy_reg
_reconstructor
p0
(c__main__
ProductRecord
p1
c__builtin__
object
p2
Ntp3
Rp4
(dp5
S'product_url'
p6
S'http://www.walmart.com/ip/REFURBISHED-Dell-Latitude-E6410-14-1-Core-i5-160GB-Windows-Professional-32bit/625495038'
p7
sS'price'
p8
V$236.77
p9
sS'properties'
p10
(dp11
VOperating System
p12
VMicrosoft Windows
p13
sVBrand
p14
VDell
p15
sVScreen Size
p16
V14.1
p17
sVHard Drive Capacity
p18
V160
p19
sVCondition
p20
VRefurbished
p21
ssS'title'
p22
VREFURBISHED - Dell Latitude E6410 14.1" Core i5 160GB Windows Professional 32bit
p23
sb.