ccopy_reg
_reconstructor
p0
(c__main__
ProductRecord
p1
c__builtin__
object
p2
Ntp3
Rp4
(dp5
S'product_url'
p6
S'http://www.walmart.com/ip/REFURBISHED-Dell-Latitude-E6410-Notebook-Core-i5-i5-520M-2-40-GHz-14-1/307397314'
p7
sS'price'
p8
V$236.77
p9
sS'properties'
p10
(dp11
VBrand
p12
VHP
p13
sVScreen Size
p14
V14.1
p15
sVCondition
p16
VRefurbished
p17
ssS'title'
p18
VREFURBISHED - Dell Latitude E6410 Notebook - Core i5 i5-520M 2.40 GHz - 14.1" -
p19
sb.