ccopy_reg
_reconstructor
p0
(c__main__
ProductRecord
p1
c__builtin__
object
p2
Ntp3
Rp4
(dp5
S'product_url'
p6
S'http://www.walmart.com/ip/REFURBISHED-Dell-Latitude-E6410-14-1-Intel-Core-i5-2-4GHz-4GB-RAM-250GB-HDD-W/106702913'
p7
sS'price'
p8
V$236.77
p9
sS'properties'
p10
(dp11
VBrand
p12
VDell
p13
sVScreen Size
p14
V14.1
p15
sVHard Drive Capacity
p16
V250
p17
ssS'title'
p18
VREFURBISHED - Dell Latitude E6410 14.1" Intel Core i5 2.4GHz 4GB RAM 250GB HDD W
p19
sb.