ccopy_reg
_reconstructor
p0
(c__main__
ProductRecord
p1
c__builtin__
object
p2
Ntp3
Rp4
(dp5
S'product_url'
p6
S'http://www.walmart.com/ip/REFURBISHED-HP-Mini-1030NR-FW376UA-Refurbished-Netbook-PC-Intel-Atom-N270-1/167468470'
p7
sS'price'
p8
V$245.00
p9
sS'properties'
p10
(dp11
VBrand
p12
VGeneric
p13
sVCondition
p14
VRefurbished
p15
ssS'title'
p16
VREFURBISHED - HP Mini 1030NR FW376UA Refurbished Netbook PC - Intel Atom N270 1.
p17
sb.