ccopy_reg
_reconstructor
p0
(c__main__
ProductRecord
p1
c__builtin__
object
p2
Ntp3
Rp4
(dp5
S'product_url'
p6
S'http://www.walmart.com/ip/Refurbished-HP-Elitebook-2570P-LT-12-5-Inch-Notebook-Notebook/322283270'
p7
sS'price'
p8
V$245.95
p9
sS'properties'
p10
(dp11
VBrand
p12
VHP
p13
ssS'title'
p14
VRefurbished "HP Elitebook 2570P LT 12.5 Inch Notebook Notebook"
p15
sb.