ccopy_reg
_reconstructor
p0
(c__main__
ProductRecord
p1
c__builtin__
object
p2
Ntp3
Rp4
(dp5
S'product_url'
p6
S'http://www.walmart.com/ip/Refurbished-Dell-i3552-3240BLK-15-6-HD-Laptop-Intel-Pentium-N3700-1-6GHz-Processor-4-GB-DDR3L-SDRAM-500-GB-HDD-Windows-10-Black/897251671'
p7
sS'price'
p8
V$249.00
p9
sS'properties'
p10
(dp11
VBrand
p12
VDell
p13
sVHard Drive Capacity
p14
V500
p15
sVmanufacturer_part_number
p16
Vi3552-3240blk
p17
ssS'title'
p18
VRefurbished Dell i3552-3240BLK 15.6 HD Laptop (Intel Pentium N3700 1.6GHz Processor, 4 GB DDR3L SDRAM, 500 GB HDD, Windows 10) Black
p19
sb.