ccopy_reg
_reconstructor
p0
(c__main__
ProductRecord
p1
c__builtin__
object
p2
Ntp3
Rp4
(dp5
S'product_url'
p6
S'http://www.walmart.com/ip/Refurbished-Supermicro-MTFDDAC128MAG1G1-128gb-Micron-Realssd-C300-Ssd/659103000'
p7
sS'price'
p8
V$249.00
p9
sS'properties'
p10
(dp11
VBrand
p12
VHP
p13
ssS'title'
p14
VRefurbished Supermicro - MTFDDAC128MAG1G1 - 128gb Micron Realssd C300 Ssd
p15
sb.