ccopy_reg
_reconstructor
p0
(c__main__
ProductRecord
p1
c__builtin__
object
p2
Ntp3
Rp4
(dp5
S'product_url'
p6
S'http://www.walmart.com/ip/REFURBISHED-HP-1104-10-1-Inch-Netbook/834126243'
p7
sS'price'
p8
V$249.95
p9
sS'properties'
p10
(dp11
VBrand
p12
VDell
p13
sVScreen Size
p14
V10.1
p15
sVCondition
p16
VRefurbished
p17
ssS'title'
p18
VREFURBISHED - HP 1104 10.1-Inch Netbook
p19
sb.