ccopy_reg
_reconstructor
p0
(c__main__
ProductRecord
p1
c__builtin__
object
p2
Ntp3
Rp4
(dp5
S'product_url'
p6
S'http://www.walmart.com/ip/Dell-Latitude-E6220-Refurbished-Core-i5-2-5Ghz-4gb-Ram-250GBHD-Windows-10-Pro/773286790'
p7
sS'price'
p8
V$249.99
p9
sS'properties'
p10
(dp11
VBrand
p12
VDell
p13
sVOperating System
p14
VWindows 10 Professional
p15
ssS'title'
p16
VDell Latitude E6220 Refurbished Core i5 2.5Ghz 4gb Ram 250GBHD Windows 10 Pro
p17
sb.