ccopy_reg
_reconstructor
p0
(c__main__
ProductRecord
p1
c__builtin__
object
p2
Ntp3
Rp4
(dp5
S'product_url'
p6
S'http://www.walmart.com/ip/Dell-Latitude-E6220-Intel-Core-i5-2520M-X2-2-5GHz-4GB-128GB-SSD-12-5-Win7-Black-Refurbished/725310292'
p7
sS'price'
p8
V$249.99
p9
sS'properties'
p10
(dp11
VHard Drive Capacity
p12
V128
p13
sVBrand
p14
VDell
p15
sVScreen Size
p16
V12.5
p17
sVFeatures
p18
V802.11B,802.11G,802.11N; Bluetooth 3.0 + HS; Microsoft Windows 7 Professional, Intel Core i5-2520M 2.5GHz; 128GB SSD; 4GB DDR3, Backlit Keyboard; No Optical Drive; 6 Hours Battery Life, 12.5" LED display; 1366 x 768; Intel HD Graphics 3000, IntegratedIntel HD Graphics 3000
p19
ssS'title'
p20
VDell Latitude E6220 Intel Core i5-2520M X2 2.5GHz 4GB 128GB SSD 12.5" Win7,Black(Refurbished)
p21
sb.