ccopy_reg
_reconstructor
p0
(c__main__
ProductRecord
p1
c__builtin__
object
p2
Ntp3
Rp4
(dp5
S'product_url'
p6
S'http://www.walmart.com/ip/REFURBISHED-HP-Mini-110-3098NR-Laptop-10-1-diagonal-WSVGA-HP-Anti-glare-LED-D/459778729'
p7
sS'price'
p8
V$249.99
p9
sS'properties'
p10
(dp11
VBrand
p12
VHP
p13
sVScreen Size
p14
V10.1
p15
sVCondition
p16
VRefurbished
p17
sVmanufacturer_part_number
p18
V110-3098nr
p19
ssS'title'
p20
VREFURBISHED - HP Mini 110-3098NR Laptop 10.1" diagonal WSVGA HP Anti-glare LED D
p21
sb.