ccopy_reg
_reconstructor
p0
(c__main__
ProductRecord
p1
c__builtin__
object
p2
Ntp3
Rp4
(dp5
S'product_url'
p6
S'http://www.walmart.com/ip/Refurbished-EliteBook-8470-3-Gen-EliteBook-8470-3-Gen/610345212'
p7
sS'price'
p8
V$257.95
p9
sS'properties'
p10
(dp11
VBrand
p12
VHP
p13
sVOperating System
p14
VMicrosoft Windows
p15
sVCondition
p16
VRefurbished
p17
ssS'title'
p18
VRefurbished "EliteBook 8470 3 Gen EliteBook 8470 3 Gen"
p19
sb.