ccopy_reg
_reconstructor
p0
(c__main__
ProductRecord
p1
c__builtin__
object
p2
Ntp3
Rp4
(dp5
S'product_url'
p6
S'http://www.walmart.com/ip/Refurbished-HP-Folio-9480M-2-0GHz-i5-4GB-180SSD-Windows-10-Pro-64-14-Laptop-B-Camera/132092423'
p7
sS'price'
p8
V$258.40
p9
sS'properties'
p10
(dp11
VBrand
p12
VHP
p13
sVModel
p14
VFolio 9480M
p15
ssS'title'
p16
VRefurbished HP Folio 9480M 2.0GHz i5 4GB 180SSD Windows 10 Pro 64 14" Laptop B Camera
p17
sb.