ccopy_reg
_reconstructor
p0
(c__main__
ProductRecord
p1
c__builtin__
object
p2
Ntp3
Rp4
(dp5
S'product_url'
p6
S'http://www.walmart.com/ip/REFURBISHED-HP-3125-E1Y97UT-11-6-LED-Notebook-AMD-E-Series-E1-1500-1-48GH/605117003'
p7
sS'price'
p8
V$260.00
p9
sS'properties'
p10
(dp11
VBrand
p12
Vintel
p13
sVScreen Size
p14
V11.6
p15
sVCondition
p16
VRefurbished
p17
sVmanufacturer_part_number
p18
Ve1y97ut
p19
ssS'title'
p20
VREFURBISHED - HP 3125 E1Y97UT 11.6" LED Notebook - AMD - E-Series E1-1500 1.48GH
p21
sb.