ccopy_reg
_reconstructor
p0
(c__main__
ProductRecord
p1
c__builtin__
object
p2
Ntp3
Rp4
(dp5
S'product_url'
p6
S'http://www.walmart.com/ip/Refurbished-Dell-GT5-0017-Latitude-E6430-Notebook/240774038'
p7
sS'price'
p8
V$262.94
p9
sS'properties'
p10
(dp11
VBrand
p12
VDell
p13
sVmanufacturer_part_number
p14
Vgt5-0017
p15
ssS'title'
p16
VRefurbished "Dell GT5-0017 Latitude E6430 Notebook"
p17
sb.