ccopy_reg
_reconstructor
p0
(c__main__
ProductRecord
p1
c__builtin__
object
p2
Ntp3
Rp4
(dp5
S'product_url'
p6
S'http://www.walmart.com/ip/Sparepart-HP-Systemboard-FF-M82-DV5-12-Refurbished-506070-001-B-Refurbished/462248005'
p7
sS'price'
p8
V$267.00
p9
sS'properties'
p10
(dp11
VBrand
p12
VHP
p13
ssS'title'
p14
VSparepart: HP Systemboard FF+/M82 DV5-12 **Refurbished**, 506070-001-B (**Refurbished**)
p15
sb.