ccopy_reg
_reconstructor
p0
(c__main__
ProductRecord
p1
c__builtin__
object
p2
Ntp3
Rp4
(dp5
S'product_url'
p6
S'http://www.walmart.com/ip/Refurbished-Acer-11-6-Intel-Core-Celeron-1-60-GHz-4-GB-Ram-32GB-Flash-Chrome-OS-C738T-C7KD/621365455'
p7
sS'price'
p8
V$270.89
p9
sS'properties'
p10
(dp11
VRAM Memory
p12
V4 GB
p13
sVOperating System
p14
VChrome OS
p15
sVBrand
p16
VAcer
p17
sVProcessor Speed
p18
V1.60 GHz
p19
sVManufacturer Part Number
p20
VNX.G55AA.010
p21
sVModel
p22
VC738T-C7KD
p23
sVScreen Size
p24
V11.6 in
p25
sVProcessor Type
p26
VIntel Celeron
p27
sVCondition
p28
VRefurbished
p29
ssS'title'
p30
VRefurbished Acer 11.6" Intel Core Celeron 1.60 GHz 4 GB Ram 32GB Flash Chrome OS|C738T-C7KD
p31
sb.