ccopy_reg
_reconstructor
p0
(c__main__
ProductRecord
p1
c__builtin__
object
p2
Ntp3
Rp4
(dp5
S'product_url'
p6
S'http://www.walmart.com/ip/Refurbished-Dell-7010-USFF-i5-Processor-8GB-500GB-Windows-10-Pro-Wi-Fi/618782872'
p7
sS'price'
p8
V$272.87
p9
sS'properties'
p10
(dp11
VRAM Memory
p12
V8 GB
p13
sVOperating System
p14
VWindows 10
p15
sVBrand
p16
VDell
p17
sVProcessor Speed
p18
V3.2 GHz
p19
sVHard Drive Capacity
p20
V500 GB
p21
sVModel
p22
VDell 7010
p23
sVProcessor Type
p24
VIntel Core i5
p25
sVCondition
p26
VRefurbished
p27
sVmanufacturer_part_number
p28
V7010
p29
ssS'title'
p30
VRefurbished Dell 7010 USFF, i5 Processor, 8GB, 500GB, Windows 10 Pro, Wi-Fi
p31
sb.