ccopy_reg
_reconstructor
p0
(c__main__
ProductRecord
p1
c__builtin__
object
p2
Ntp3
Rp4
(dp5
S'product_url'
p6
S'http://www.walmart.com/ip/Dell-Inspiron-15-Gaming-Edition-15-6-Gray-7559-Laptop-PC-Intel-Core-i7-6700HQ-Processor-8GB-Memory-touch-screen-1TB-Hybrid-Hard-Drive-Windows-10-Home/47431723'
p7
sS'price'
p8
S'N/A'
p9
sS'properties'
p10
(dp11
VRAM Memory
p12
V8 GB
p13
sVOperating System
p14
VWindows 10
p15
sVColor Category
p16
VBlack
p17
sVVideo Game Platform
p18
VPC
p19
sVBrand
p20
VDell
p21
sVLaptop Computer Type
p22
VTouchscreen, Notebook
p23
sVProcessor Core Type
p24
VQuad-core (4 Core)
p25
sVProcessor Type
p26
VIntel Quad Core i7-6700HQ 2.6 GHz ProcessorIntel Quad Core i7-6700HQ 2.6 GHz Processor
p27
sVmanufacturer_part_number
p28
V7559
p29
sVScreen Size
p30
V15.6"
p31
sVModel
p32
Vi7559-5012GRY
p33
sVCondition
p34
VNew
p35
sVManufacturer
p36
VDell Inc
p37
ssS'title'
p38
VDell Inspiron 15 Gaming Edition 15.6" Gray 7559 Laptop PC with Intel Core i7-6700HQ Processor, 8GB Memory, touch screen, 1TB Hybrid Hard Drive and Windows 10 Home
p39
sb.