ccopy_reg
_reconstructor
p0
(c__main__
ProductRecord
p1
c__builtin__
object
p2
Ntp3
Rp4
(dp5
S'product_url'
p6
S'http://www.walmart.com/ip/Refurbished-Lenovo-X1-Yoga-20JD000ZUS-Convertible-Notebook-PC-Intel-Core-i7-7600U-2-8-GHz-Dual-Core-Processor-16-GB-LPDDR3-SDRAM-1-TB-Solid-State-Dri/548669679'
p7
sS'price'
p8
S'N/A'
p9
sS'properties'
p10
(dp11
sS'title'
p12
VRefurbished Lenovo X1 Yoga 20JD000ZUS Convertible Notebook PC - Intel Core i7-7600U 2.8 GHz Dual-Core Processor - 16 GB LPDDR3 SDRAM - 1 TB Solid State Drive - 14-inch Touchscreen Display - Windows
p13
sb.