ccopy_reg
_reconstructor
p0
(c__main__
ProductRecord
p1
c__builtin__
object
p2
Ntp3
Rp4
(dp5
S'product_url'
p6
S'http://www.walmart.com/ip/Lenovo-ThinkPad-Yoga-370-13-3-Core-i5-7300U-16-GB-RAM-512-GB-SSD/993026837'
p7
sS'price'
p8
S'N/A'
p9
sS'properties'
p10
(dp11
VRAM Memory
p12
V16 Gigabytes
p13
sVOperating System
p14
VWindows 10 Pro (English)
p15
sVBrand
p16
VLenovo
p17
sVProcessor Speed
p18
V2.6 Gigahertz
p19
sVManufacturer Part Number
p20
V20JH002BUS
p21
sVHard Drive Capacity
p22
V512 Gigabytes
p23
sVAssembled Product Dimensions (L x W x H)
p24
V12.00 x 6.00 x 12.00 Inches
p25
sVModel
p26
VThinkPad Yoga 370 20JH002BUS 2 in 1 Notebook
p27
sVScreen Size
p28
V13.3 in
p29
sVProcessor Type
p30
VIntel i5-7300U
p31
sVCondition
p32
VNew
p33
ssS'title'
p34
VLenovo ThinkPad Yoga 370 - 13.3" - Core i5 7300U - 16 GB RAM - 512 GB SSD
p35
sb.