ccopy_reg
_reconstructor
p0
(c__main__
ProductRecord
p1
c__builtin__
object
p2
Ntp3
Rp4
(dp5
S'product_url'
p6
S'http://www.walmart.com/ip/TOPSELLER-X1-YOGA-I7-6600U-2-6G-16GB-512GB-SSD-14IN-W10P-64BIT/166081322'
p7
sS'price'
p8
S'N/A'
p9
sS'properties'
p10
(dp11
VRAM Memory
p12
V16.00 GB
p13
sVOperating System
p14
VWindows 10 Pro (English)
p15
sVFeatures
p16
VLENOVO X1 YOGA-G1 BUSINESS CONVERTIBLE NOTEBOOK INTEL:I7-6600U/CI7-2.60GLV 16GB/
p17
sVVideo Game Platform
p18
VPC
p19
sVBrand
p20
VLenovo
p21
sVProcessor Speed
p22
V2.60 GHz
p23
sVManufacturer Part Number
p24
V20FQ002YUS
p25
sVMaximum RAM Supported
p26
V16 GB
p27
sVHard Drive Capacity
p28
V512.00 GB
p29
sVBattery Life
p30
V11 hours
p31
sVModel
p32
V20FQ002YUS
p33
sVScreen Size
p34
V14.00 in
p35
sVProcessor Type
p36
VIntel Core i7
p37
sVCondition
p38
VNew
p39
ssS'title'
p40
VTOPSELLER X1 YOGA I7-6600U 2.6G 16GB 512GB SSD 14IN W10P 64BIT
p41
sb.