ccopy_reg
_reconstructor
p0
(c__main__
ProductRecord
p1
c__builtin__
object
p2
Ntp3
Rp4
(dp5
S'product_url'
p6
S'http://www.walmart.com/ip/Lenovo-ThinkPad-X1-Tablet-12-Core-i7-7Y75-8-GB-RAM-256-GB-SSD/487212035'
p7
sS'price'
p8
S'N/A'
p9
sS'properties'
p10
(dp11
VRAM Memory
p12
V8 Gigabytes
p13
sVOperating System
p14
VWindows 10 Pro (English)
p15
sVBrand
p16
VLenovo
p17
sVProcessor Speed
p18
V1.3 Gigahertz
p19
sVManufacturer Part Number
p20
V20JB002NUS
p21
sVHard Drive Capacity
p22
V256 Gigabytes
p23
sVAssembled Product Dimensions (L x W x H)
p24
V12.00 x 8.00 x 1.00 Inches
p25
sVModel
p26
V20JB
p27
sVScreen Size
p28
V12.00 Inches
p29
sVProcessor Type
p30
VIntel i7-7Y75
p31
ssS'title'
p32
VLenovo ThinkPad X1 Tablet - 12" - Core i7 7Y75 - 8 GB RAM - 256 GB SSD
p33
sb.