ccopy_reg
_reconstructor
p0
(c__main__
ProductRecord
p1
c__builtin__
object
p2
Ntp3
Rp4
(dp5
S'product_url'
p6
S'http://www.walmart.com/ip/Lenovo-ThinkPad-X1-Yoga-4G-LTE-Multimode-Ultrabook-Windows-10-Pro-Intel-i7-7600U-1TB-SSD-NVMe-PCIe-16GB-RAM-14-FHD-IPS-1920x1080-Touchscreen-w-Pen-In/326796643'
p7
sS'price'
p8
S'N/A'
p9
sS'properties'
p10
(dp11
VRAM Memory
p12
V16 Gigabytes
p13
sVOperating System
p14
VWindows 10
p15
sVBrand
p16
VLenovo
p17
sVProcessor Speed
p18
V3.9 Gigahertz
p19
sVHard Drive Capacity
p20
V1 Terabytes
p21
sVModel
p22
V20JD
p23
sVScreen Size
p24
V14 Inches
p25
sVProcessor Type
p26
Vcore_i7
p27
sVCondition
p28
VNew
p29
ssS'title'
p30
VLenovo ThinkPad X1 Yoga 4G LTE Multimode Ultrabook - Windows 10 Pro - Intel i7-7600U, 1TB SSD NVMe-PCIe, 16GB RAM, 14" FHD IPS (1920x1080) Touchscreen w/ Pen Input, Fingerprint Reader - Black
p31
sb.