ccopy_reg
_reconstructor
p0
(c__main__
ProductRecord
p1
c__builtin__
object
p2
Ntp3
Rp4
(dp5
S'product_url'
p6
S'http://www.walmart.com/ip/R5-471T-78VY-I7-6500U-2-5G-8GB-256GB-SSD-14IN-11AC-W10H/52773918'
p7
sS'price'
p8
S'N/A'
p9
sS'properties'
p10
(dp11
VRAM Memory
p12
V8 GB
p13
sVOperating System
p14
VWindows 10
p15
sVColor Category
p16
VBlack
p17
sVVideo Game Platform
p18
VPC
p19
sVBrand
p20
VAcer
p21
sVManufacturer Part Number
p22
VNX.G7WAA.012
p23
sVHard Drive Capacity
p24
V256 GB
p25
sVLaptop Computer Type
p26
VTouchscreen
p27
sVProcessor Type
p28
VIntel Core i7
p29
sVScreen Size
p30
V14.0"
p31
sVModel
p32
VNX.G7WAA.012
p33
sVCondition
p34
VNew
p35
sVManufacturer
p36
VACER AMERICA - NOTEBOOKS
p37
ssS'title'
p38
VR5-471T-78VY I7-6500U 2.5G 8GB 256GB SSD 14IN 11AC W10H
p39
sb.