ccopy_reg
_reconstructor
p0
(c__main__
ProductRecord
p1
c__builtin__
object
p2
Ntp3
Rp4
(dp5
S'product_url'
p6
S'http://www.walmart.com/ip/Lenovo-ThinkPad-P40-Yoga-2-in-1-Mobile-Station-14-FHD-1920x1080-IPS-TouchScreen-Intel-i7-6500U-256GB-SSD-8GB-NVIDIA-Quadro-M500M-2GB-Carbon-ThinkPad-/749004184'
p7
sS'price'
p8
S'N/A'
p9
sS'properties'
p10
(dp11
VOperating System
p12
VMicrosoft Windows
p13
sVBrand
p14
VLenovo
p15
sVManufacturer Part Number
p16
V20GQ000BUS-8-zZz
p17
sVHard Drive Capacity
p18
V256
p19
sVModel
p20
V20GQ000BUS-8-zZz
p21
sVScreen Size
p22
V14
p23
sVCondition
p24
VNew
p25
ssS'title'
p26
VLenovo ThinkPad P40 Yoga 2-in-1 Mobile Station: 14" FHD (1920x1080) IPS TouchScreen | Intel i7-6500U | 256GB SSD | 8GB | NVIDIA Quadro M500M 2GB | Carbon | ThinkPad Active Pen Pro | Win 10 Pro
p27
sb.