ccopy_reg
_reconstructor
p0
(c__main__
ProductRecord
p1
c__builtin__
object
p2
Ntp3
Rp4
(dp5
S'product_url'
p6
S'http://www.walmart.com/ip/HP-Pavilion-15-bk020wm-X360-15-6-Laptop-Touch-Screen-2-1-Windows-10-Intel-Core-i5-6200U-Processor-8GB-Memory-1TB-Hard-Drive-Natural-Silver/51397787'
p7
sS'price'
p8
S'N/A'
p9
sS'properties'
p10
(dp11
VRAM Memory
p12
V8 GB
p13
sVOperating System
p14
VWindows 10
p15
sVFeatures
p16
VEPEAT
p17
sVVideo Game Platform
p18
VPC
p19
sVBrand
p20
VHP
p21
sVProcessor Speed
p22
V2.30 GHz, with a Max Turbo Speed of 2.80 GHz
p23
sVManufacturer Part Number
p24
VW2M07UA#ABA
p25
sVHard Drive Capacity
p26
V1 TB
p27
sVBattery Life
p28
V9 hours
p29
sVAssembled Product Dimensions (L x W x H)
p30
V15.04 x 9.84 x 0.94 Inches
p31
sVModel
p32
V15-bk020wm
p33
sVScreen Size
p34
V15.6 in
p35
sVProcessor Type
p36
VIntel 3165 AC (1x1 AC, 433 Mbps)
p37
sVCondition
p38
VNew
p39
ssS'title'
p40
VHP Pavilion 15-bk020wm X360 15.6" Laptop, Touch Screen, 2 in 1, Windows 10,  Intel Core i5-6200U Processor, 8GB Memory, 1TB Hard Drive, Natural Silver
p41
sb.