ccopy_reg
_reconstructor
p0
(c__main__
ProductRecord
p1
c__builtin__
object
p2
Ntp3
Rp4
(dp5
S'product_url'
p6
S'http://www.walmart.com/ip/RCA-Maven-Pro-11-6-2-in-1-Tablet-32GB-Quad-Core/44656207'
p7
sS'price'
p8
S'N/A'
p9
sS'properties'
p10
(dp11
VOperating System
p12
VAndroid
p13
sVAccessories Included
p14
VAC Adapter
p15
sVBrand
p16
VRCA
p17
sVBattery Life
p18
V8 hours
p19
sVProduct Line
p20
VRCA
p21
sVModel
p22
VRCT6213W87DK
p23
sVScreen Size
p24
V11.6 in
p25
sVCondition
p26
VNew
p27
sVManufacturer
p28
VVenturer Electronics
p29
ssS'title'
p30
VRCA Maven Pro 11.6" 2-in-1 Tablet 32GB Quad Core
p31
sb.