ccopy_reg
_reconstructor
p0
(c__main__
ProductRecord
p1
c__builtin__
object
p2
Ntp3
Rp4
(dp5
S'product_url'
p6
S'http://www.walmart.com/ip/DELL-Inspiron-13-5000-i5378-3031GRY-Intel-Core-i3-7th-Gen-7100U-2-40-GHz-4-GB-Memory-1-TB-HDD-13-3-Touchscreen-1920-x-1080-2-in-1-Laptop-Windows-10-H/943701610'
p7
sS'price'
p8
S'N/A'
p9
sS'properties'
p10
(dp11
VRAM Memory
p12
V4 GB
p13
sVOperating System
p14
VWindows 10
p15
sVColor Category
p16
VGray
p17
sVVideo Game Platform
p18
VPC
p19
sVBrand
p20
VDell
p21
sVManufacturer Part Number
p22
Vi5378-3031GRY
p23
sVHard Drive Capacity
p24
V1 TB
p25
sVLaptop Computer Type
p26
VTouchscreen
p27
sVProcessor Type
p28
VIntel Core i3
p29
sVScreen Size
p30
V13.30 in
p31
sVModel
p32
Vi53783031GRY
p33
sVManufacturer
p34
VDell Technologies
p35
ssS'title'
p36
VDELL Inspiron 13 5000 i5378-3031GRY Intel Core i3 7th Gen 7100U (2.40 GHz) 4 GB Memory 1 TB HDD 13.3" Touchscreen 1920 x 1080 2-in-1 Laptop Windows 10 Home 64-bit
p37
sb.