ccopy_reg
_reconstructor
p0
(c__main__
ProductRecord
p1
c__builtin__
object
p2
Ntp3
Rp4
(dp5
S'product_url'
p6
S'http://www.walmart.com/ip/Asus-Tp500la-dh51t-15-6-Notebook/39603726'
p7
sS'price'
p8
S'N/A'
p9
sS'properties'
p10
(dp11
VCapacity
p12
V48 Wh
p13
sVVideo Game Platform
p14
VPC
p15
sVIs Dark Sky-Compliant
p16
VY
p17
sVBattery Life
p18
V5 Hour
p19
sVAspect Ratio
p20
V16:9
p21
sVHas Touchscreen
p22
VY
p23
sVAssembled Product Weight
p24
V5 lb
p25
sVDisplay Resolution
p26
V1366 x 768
p27
sVSeries
p28
VTP500LA
p29
sVForm
p30
VConvertible
p31
sVDisplay Technology
p32
VLCD
p33
sVManufacturer Part Number
p34
VTP500LA-DH51T
p35
sVBacklight Type
p36
VLED backlight
p37
sVNumber of Batteries
p38
V1
p39
sVScreen Size
p40
V15.6"
p41
sVCondition
p42
VNew
p43
sVWatts
p44
V65 Watts
p45
sVHas Bluetooth
p46
VY
p47
sVContained Battery Type
p48
VLithium Ion (Li-Ion)
p49
sVConnector Type
p50
V1 x DC-in, 1 x Ethernet, 1 x HDMI, 1 x Headphone/Microphone, 2 x USB 2.0, 1 x USB 3.0
p51
sVMaximum RAM Supported
p52
V8 GB
p53
sVInterface Type
p54
VGigabit Ethernet
p55
sVModel
p56
VTP500LA-DH51T, HD Graphics 4400, TP500LA
p57
sVResolution
p58
V720p
p59
sVCPU Socket Type
p60
VIntel Core i5 (4th Gen) 4210U / 1.7 GHz
p61
sVIs Energy Star-Certified
p62
VY
p63
sVAssembled Product Dimensions (L x W x H)
p64
V10.00 x 15.00 x 0.90 Inches
p65
sVFeatures
p66
VIntel Anti-theft
p67
sVAccessories Included
p68
VTransformer Book Flip TP500LA-DH51T 2 in 1 NotebookAC AdapterUser ManualWarranty Card
p69
sVColor
p70
VMulticolor
p71
sVForm Factor
p72
VConvertible
p73
sVMicrophone Included
p74
VY
p75
sVProcessor Speed
p76
V1.70 GHz
p77
sVCompatible Devices
p78
VSD
p79
sVHard Drive Capacity
p80
V500 GB
p81
sVMemory Card Type
p82
VYes
p83
sVVolts
p84
V230 V AC, 120 V AC
p85
sVDuration
p86
VUp to 5 hours
p87
sVProcessor Type
p88
VIntel Core i5
p89
sVBrand
p90
Vintel
p91
ssS'title'
p92
VAsus Tp500la-dh51t 15.6" Notebook
p93
sb.