ccopy_reg
_reconstructor
p0
(c__main__
ProductRecord
p1
c__builtin__
object
p2
Ntp3
Rp4
(dp5
S'product_url'
p6
S'http://www.walmart.com/ip/ELAIO-17-3-Touchscreen-All-In-One-4GB-Memory-32GB-Hard-Drive-Intel-Atom-Celeron-Processor-with-Windows-10-Home-Silver/56148677'
p7
sS'price'
p8
S'N/A'
p9
sS'properties'
p10
(dp11
VRAM Memory
p12
V4 GB
p13
sVOperating System
p14
VMicrosoft Windows
p15
sVBrand
p16
VEPIK
p17
sVManufacturer Part Number
p18
VELAIO17301E-SL
p19
sVHard Drive Capacity
p20
V32
p21
sVAssembled Product Dimensions (L x W x H)
p22
V18.78 x 12.09 x 3.82 Inches
p23
sVModel
p24
VELAIO17301E-SL
p25
sVScreen Size
p26
V17.3
p27
ssS'title'
p28
VELAIO 17.3" Touchscreen All-In-One, 4GB Memory, 32GB Hard Drive, Intel Atom Celeron Processor with Windows 10 Home, Silver
p29
sb.