ccopy_reg
_reconstructor
p0
(c__main__
ProductRecord
p1
c__builtin__
object
p2
Ntp3
Rp4
(dp5
S'product_url'
p6
S'http://www.walmart.com/ip/HP-Black-Licorice-15-6-15-F387WM-Laptop-PC-with-AMD-A8-7410-Processor-4GB-Memory-touch-screen-500GB-Hard-Drive-and-Windows-10-Home/47836539'
p7
sS'price'
p8
S'N/A'
p9
sS'properties'
p10
(dp11
VRAM Memory
p12
V4 GB
p13
sVOperating System
p14
VWindows 10
p15
sVColor Category
p16
VBlack
p17
sVVideo Game Platform
p18
VPC
p19
sVBrand
p20
VHP
p21
sVManufacturer Part Number
p22
VN5Y09UA#ABA
p23
sVWireless Technology
p24
VEthernet
p25
sVLaptop Computer Type
p26
VTouchscreen
p27
sVProcessor Type
p28
VAMD A-Series
p29
sVScreen Size
p30
V15.6 in
p31
sVModel
p32
V15-F387WM
p33
sVCondition
p34
VNew
p35
sVManufacturer
p36
VHP
p37
ssS'title'
p38
VHP Black Licorice 15.6" 15-F387WM Laptop PC with AMD A8-7410 Processor, 4GB Memory, touch screen, 500GB Hard Drive and Windows 10 Home
p39
sb.