ccopy_reg
_reconstructor
p0
(c__main__
ProductRecord
p1
c__builtin__
object
p2
Ntp3
Rp4
(dp5
S'product_url'
p6
S'http://www.walmart.com/ip/HP-15-bs020WM-15-6-Touch-Laptop-Windows-10-Intel-Pentium-N3710-Quad-Core-Processor-4GB-Memory-500GB-Hard-Drive-DVD/323892529'
p7
sS'price'
p8
S'N/A'
p9
sS'properties'
p10
(dp11
VRAM Memory
p12
V4 GB
p13
sVOperating System
p14
VWindows 10
p15
sVColor Category
p16
VBlack
p17
sVLaptop Computer Type
p18
VTouchscreen
p19
sVBrand
p20
VHP
p21
sVWireless Technology
p22
V802.11b/g/n WLAN
p23
sVHard Drive Capacity
p24
V500 KB
p25
sVProcessor Type
p26
VIntel Pentium Processor N3710
p27
sVManufacturer
p28
VHP
p29
sVScreen Size
p30
V15.6 in
p31
sVModel
p32
V15-bs020WM
p33
sVmanufacturer_part_number
p34
V15-bs020wm
p35
ssS'title'
p36
VHP 15-bs020WM, 15.6" Touch Laptop, Windows 10, Intel Pentium N3710 Quad Core Processor, 4GB Memory, 500GB Hard Drive, DVD
p37
sb.