ccopy_reg
_reconstructor
p0
(c__main__
ProductRecord
p1
c__builtin__
object
p2
Ntp3
Rp4
(dp5
S'product_url'
p6
S'http://www.walmart.com/ip/Refurbished-HP-15-cd040wm-Pavilion-Laptop-12GB-RAM-1TB-15-6-Windows-10-AMD-Quad-Core/56136483'
p7
sS'price'
p8
S'N/A'
p9
sS'properties'
p10
(dp11
VRAM Memory
p12
V12 GB
p13
sVOperating System
p14
VMicrosoft Windows
p15
sVLaptop Computer Type
p16
VTouchscreen
p17
sVBrand
p18
VHP
p19
sVManufacturer Part Number
p20
VRB 15-cd040wm
p21
sVHard Drive Capacity
p22
V1000
p23
sVModel
p24
VRB 15-cd040wm
p25
sVCondition
p26
VRefurbished
p27
sVManufacturer
p28
VGeneric
p29
ssS'title'
p30
VRefurbished HP 15-cd040wm Pavilion  Laptop 12GB RAM 1TB 15.6" Windows 10 AMD Quad-Core
p31
sb.