ccopy_reg
_reconstructor
p0
(c__main__
ProductRecord
p1
c__builtin__
object
p2
Ntp3
Rp4
(dp5
S'product_url'
p6
S'http://www.walmart.com/ip/Slide-11-6-2-in-1-Folding-Touchscreen-Laptop-Quad-Core-1-4-GHz-Intel-Processor-32GB-Storage-2GB-RAM-Windows-10-White/671004468'
p7
sS'price'
p8
S'N/A'
p9
sS'properties'
p10
(dp11
VRAM Memory
p12
V2 Gigabytes
p13
sVOperating System
p14
VWindows 10
p15
sVColor Category
p16
VWhite
p17
sVLaptop Computer Type
p18
VTouchscreen
p19
sVBrand
p20
VSlide
p21
sVManufacturer Part Number
p22
VLAP116WH
p23
sVWireless Technology
p24
V802.11.b/g/n
p25
sVHard Drive Capacity
p26
V32 Gigabytes
p27
sVProcessor Type
p28
VIntel
p29
sVScreen Size
p30
V11.6 Inches
p31
sVModel
p32
VLAP116WH
p33
sVCondition
p34
VNew
p35
sVManufacturer
p36
VSlide
p37
ssS'title'
p38
VSlide 11.6" 2-in-1 Folding Touchscreen Laptop, Quad Core 1.4 GHz Intel Processor, 32GB Storage 2GB RAM, Windows 10 - White
p39
sb.