ccopy_reg
_reconstructor
p0
(c__main__
ProductRecord
p1
c__builtin__
object
p2
Ntp3
Rp4
(dp5
S'product_url'
p6
S'http://www.walmart.com/ip/HP-Pavilion-15-Cc065Nr-15-6-Laptop-Touchscreen-Windows-10-Home-Intel-Core-i3-7100U-Dual-Core-Processor-8GB-RAM-1TB-Hard-Drive/55908686'
p7
sS'price'
p8
S'N/A'
p9
sS'properties'
p10
(dp11
VRAM Memory
p12
V8 GB
p13
sVOperating System
p14
VWindows 10
p15
sVFeatures
p16
VEPEAT
p17
sVVideo Game Platform
p18
VPC
p19
sVBrand
p20
VHP
p21
sVProcessor Speed
p22
V2.40 GHz
p23
sVManufacturer Part Number
p24
V1KU17UA#ABA
p25
sVHard Drive Capacity
p26
V1 TB
p27
sVBattery Life
p28
V9 hours 15 minutes
p29
sVAssembled Product Dimensions (L x W x H)
p30
V9.93 x 14.88 x 0.89 Inches
p31
sVModel
p32
VHP 15-Cc065Nr
p33
sVScreen Size
p34
V15.6"
p35
sVProcessor Type
p36
VIntel Core i3
p37
ssS'title'
p38
VHP Pavilion 15-Cc065Nr 15.6" Laptop, Touchscreen, Windows 10 Home, Intel Core i3-7100U Dual-Core Processor, 8GB RAM, 1TB Hard Drive
p39
sb.