ccopy_reg
_reconstructor
p0
(c__main__
ProductRecord
p1
c__builtin__
object
p2
Ntp3
Rp4
(dp5
S'product_url'
p6
S'http://www.walmart.com/ip/Manufacturer-Refurbished-HP-Chromebook-x360-11-ae027nr-11-6-Touch-Laptop-N3350-1-10GHz-4GB-16GB-ChromeOS/785450255'
p7
sS'price'
p8
S'N/A'
p9
sS'properties'
p10
(dp11
VRAM Memory
p12
V4 GB
p13
sVOperating System
p14
VChrome OS
p15
sVBrand
p16
VHP
p17
sVManufacturer Part Number
p18
V11-ae027nr-RF
p19
sVModel
p20
V11-ae027nr-RF
p21
sVScreen Size
p22
V11.6\u005c"
p23
ssS'title'
p24
VManufacturer Refurbished - HP Chromebook x360 11-ae027nr 11.6" Touch Laptop N3350 1.10GHz 4GB 16GB ChromeOS
p25
sb.