ccopy_reg
_reconstructor
p0
(c__main__
ProductRecord
p1
c__builtin__
object
p2
Ntp3
Rp4
(dp5
S'product_url'
p6
S'http://www.walmart.com/ip/Lenovo-N23-Yoga-Chromebook-11-6-MT8173c-4-GB-RAM-32-GB-SSD/579684052'
p7
sS'price'
p8
S'N/A'
p9
sS'properties'
p10
(dp11
VRAM Memory
p12
V4 Gigabytes
p13
sVOperating System
p14
VChrome OS
p15
sVFeatures
p16
VN23 YOGA CHROMEBOOK, MTK 8173C ARM CPU , 11.6 HD IPS TOUCH DISPLAY, CHROME OS, 4
p17
sVBrand
p18
VLenovo
p19
sVProcessor Speed
p20
V0 Gigahertz
p21
sVManufacturer Part Number
p22
VZA260016US
p23
sVHard Drive Capacity
p24
V32 Gigabytes
p25
sVBattery Life
p26
V10 Hours
p27
sVAssembled Product Dimensions (L x W x H)
p28
V5.00 x 5.00 x 5.00 Inches
p29
sVModel
p30
VZA260016US
p31
sVScreen Size
p32
V11.60 Inches
p33
sVProcessor Type
p34
VMediaTek M8173C
p35
sVCondition
p36
VNew
p37
ssS'title'
p38
VLenovo N23 Yoga Chromebook - 11.6" - MT8173c - 4 GB RAM - 32 GB SSD
p39
sb.