ccopy_reg
_reconstructor
p0
(c__main__
ProductRecord
p1
c__builtin__
object
p2
Ntp3
Rp4
(dp5
S'product_url'
p6
S'http://www.walmart.com/ip/Manufacturer-Refurbished-HP-Notebook-15-bs010ds-15-6-Touch-Screen-Laptop-N3710-1-60GHz-4GB-1TB-WIN10/552739872'
p7
sS'price'
p8
S'N/A'
p9
sS'properties'
p10
(dp11
VRAM Memory
p12
V4 GB
p13
sVOperating System
p14
VMicrosoft Windows
p15
sVBrand
p16
VHP
p17
sVManufacturer Part Number
p18
V15-bs010ds-RF
p19
sVHard Drive Capacity
p20
V1000 GB
p21
sVModel
p22
V15-bs010ds-RF
p23
sVScreen Size
p24
V15.6\u005c"
p25
ssS'title'
p26
VManufacturer Refurbished - HP Notebook 15-bs010ds 15.6" Touch Screen Laptop N3710 1.60GHz 4GB 1TB WIN10
p27
sb.