ccopy_reg
_reconstructor
p0
(c__main__
ProductRecord
p1
c__builtin__
object
p2
Ntp3
Rp4
(dp5
S'product_url'
p6
S'http://www.walmart.com/ip/Refurbished-HP-Natural-Silver-15-6-Envy-Laptop-PC-with-Intel-Core-i5-5200U-Processor-6GB-Memory-touch-screen-1TB-Hard-Drive-and-Windows-10-Home/51240939'
p7
sS'price'
p8
S'N/A'
p9
sS'properties'
p10
(dp11
VRAM Memory
p12
V6 GB
p13
sVOperating System
p14
VWindows 10
p15
sVFeatures
p16
VEPEAT
p17
sVVideo Game Platform
p18
VPC
p19
sVBrand
p20
VHP
p21
sVProcessor Speed
p22
V2.20 GHz
p23
sVManufacturer Part Number
p24
VM6-AE151DXREF
p25
sVHard Drive Capacity
p26
V1 Terabytes
p27
sVAssembled Product Dimensions (L x W x H)
p28
V15.10 x 10.00 x 0.93 Inches
p29
sVModel
p30
VM6-AE151DXREF
p31
sVScreen Size
p32
V15.6"
p33
sVProcessor Type
p34
VIntel Core i5
p35
sVCondition
p36
VRefurbished
p37
ssS'title'
p38
VRefurbished HP Natural Silver 15.6" Envy Laptop PC with Intel Core i5-5200U Processor, 6GB Memory, touch screen, 1TB Hard Drive and Windows 10 Home
p39
sb.