ccopy_reg
_reconstructor
p0
(c__main__
ProductRecord
p1
c__builtin__
object
p2
Ntp3
Rp4
(dp5
S'product_url'
p6
S'http://www.walmart.com/ip/HP-Stream-11-y000-Model-11-y020nr-X7V30UA-ABA-11-6-Screen-Intel-Celeron/448981561'
p7
sS'price'
p8
S'N/A'
p9
sS'properties'
p10
(dp11
VOperating System
p12
VMicrosoft Windows
p13
sVBrand
p14
VHP
p15
sVScreen Size
p16
V11.6\u005c"
p17
sVmanufacturer_part_number
p18
Vx7v30ua # aba
p19
ssS'title'
p20
VHP Stream 11-y000 Model 11-y020nr X7V30UA#ABA 11.6" Screen Intel Celeron
p21
sb.