ccopy_reg
_reconstructor
p0
(c__main__
ProductRecord
p1
c__builtin__
object
p2
Ntp3
Rp4
(dp5
S'product_url'
p6
S'http://www.walmart.com/ip/Dell-Inspiron-15-5000-Series-5565-7th-Gen-AMD-A12-9700P-Quad-Core-Processor-12GB-Memory-1TB-Hard-Drive-15-6-inch-FHD-1920-x-1080-Truelife-LED-Backlit/864900105'
p7
sS'price'
p8
S'N/A'
p9
sS'properties'
p10
(dp11
VRAM Memory
p12
V12 KB
p13
sVOperating System
p14
VWindows 10 Home 64bit English
p15
sVColor Category
p16
VGray
p17
sVLaptop Computer Type
p18
VPC Laptops
p19
sVBrand
p20
VDell
p21
sVManufacturer Part Number
p22
Vi5565-A000GRY-PUS
p23
sVWireless Technology
p24
V802.11ac + Bluetooth 4.1, Dual Band 2.4&5 GHz, 1x1802.11ac + Bluetooth 4.1, Dual Band 2.4&5 GHz, 1x1
p25
sVHard Drive Capacity
p26
V1000 KB
p27
sVProcessor Type
p28
VAMD A12-9700P
p29
sVScreen Size
p30
V15.6 in
p31
sVModel
p32
Vi5565-A000GRY
p33
sVCondition
p34
VNew
p35
sVManufacturer
p36
VDell
p37
ssS'title'
p38
VDell Inspiron 15 5000 Series (5565) with 7th Gen AMD A12-9700P Quad-Core Processor, 12GB Memory, 1TB Hard Drive, 15.6-inch FHD (1920 x 1080) Truelife LED-Backlit Touch Display, Windows 10 Home
p39
sb.