ccopy_reg
_reconstructor
p0
(c__main__
ProductRecord
p1
c__builtin__
object
p2
Ntp3
Rp4
(dp5
S'product_url'
p6
S'http://www.walmart.com/ip/HP-Pavilion-15-au030wm-15-6-Manhattan-Gold-Laptop-Touch-Screen-Windows-10-Intel-Core-i5-6200U-Processor-8GB-Memory-1TB-Hard-Drive/51397790'
p7
sS'price'
p8
S'N/A'
p9
sS'properties'
p10
(dp11
VRAM Memory
p12
V8 GB
p13
sVOperating System
p14
VWindows 10
p15
sVColor Category
p16
VGold
p17
sVVideo Game Platform
p18
VPC
p19
sVBrand
p20
VHP
p21
sVManufacturer Part Number
p22
VW2L55UA#ABA
p23
sVLaptop Computer Type
p24
VTouchscreen
p25
sVProcessor Type
p26
VIntel 3165 AC (1x1 AC, 433 Mbps)
p27
sVScreen Size
p28
V15.6"
p29
sVModel
p30
V15-au030wm
p31
sVCondition
p32
VNew
p33
sVManufacturer
p34
VHewlett Packard
p35
ssS'title'
p36
VHP Pavilion 15-au030wm 15.6" Manhattan Gold Laptop, Touch Screen, Windows 10,  Intel Core i5-6200U Processor, 8GB Memory, 1TB Hard Drive
p37
sb.