ccopy_reg
_reconstructor
p0
(c__main__
ProductRecord
p1
c__builtin__
object
p2
Ntp3
Rp4
(dp5
S'product_url'
p6
S'http://www.walmart.com/ip/Acer-Chromebook-15-CB515-1HT-P39B-Pentium-N4200-1-1-GHz-Chrome-OS-4-GB-RAM-32-GB-eMMC-15-6-IPS-touchscreen-1920-x-1080-Full-HD-HD-Graphics-505-Wi-Fi-/951996342'
p7
sS'price'
p8
S'N/A'
p9
sS'properties'
p10
(dp11
VRAM Memory
p12
V4 GB
p13
sVOperating System
p14
VChrome OS
p15
sVLaptop Computer Type
p16
VTouchscreen
p17
sVBrand
p18
VAcer
p19
sVManufacturer Part Number
p20
VNX.GPTAA.002
p21
sVHard Drive Capacity
p22
V32 GB
p23
sVProcessor Core Type
p24
VQuad-core (4 Core)
p25
sVProcessor Type
p26
VIntel Pentium
p27
sVScreen Size
p28
V15.6"
p29
sVModel
p30
VHD Graphics 505
p31
sVCondition
p32
VNew
p33
sVManufacturer
p34
VAcer, Inc
p35
ssS'title'
p36
VAcer Chromebook 15 CB515-1HT-P39B - Pentium N4200 / 1.1 GHz - Chrome OS - 4 GB RAM - 32 GB eMMC - 15.6" IPS touchscreen 1920 x 1080 (Full HD) - HD Graphics 505 - Wi-Fi, Bluetooth - pure silver - kbd: US
p37
sb.