ccopy_reg
_reconstructor
p0
(c__main__
ProductRecord
p1
c__builtin__
object
p2
Ntp3
Rp4
(dp5
S'product_url'
p6
S'http://www.walmart.com/ip/HP-15-Bw040Nr-15-6-Laptop-Touchscreen-Windows-10-AMD-Quad-Core-A12-9720P-Processor-8GB-RAM-1TB-Hard-Drive/55823221'
p7
sS'price'
p8
S'N/A'
p9
sS'properties'
p10
(dp11
VRAM Memory
p12
V8 GB
p13
sVOperating System
p14
VWindows 10
p15
sVColor Category
p16
VMulticolor
p17
sVVideo Game Platform
p18
VPC
p19
sVBrand
p20
VHP
p21
sVManufacturer Part Number
p22
V1KV17UA#ABA
p23
sVHard Drive Capacity
p24
V1 TB
p25
sVLaptop Computer Type
p26
VTouchscreen
p27
sVProcessor Core Type
p28
VQuad-core (4 Core)
p29
sVProcessor Type
p30
VAMD Quad-Core A12-9720P Processor
p31
sVScreen Size
p32
V15.6"
p33
sVModel
p34
VHP 1KV17UA#ABA
p35
sVManufacturer
p36
VHP
p37
ssS'title'
p38
VHP 15-Bw040Nr 15.6" Laptop, Touchscreen, Windows 10, AMD Quad-Core A12-9720P Processor, 8GB RAM, 1TB Hard Drive
p39
sb.