ccopy_reg
_reconstructor
p0
(c__main__
ProductRecord
p1
c__builtin__
object
p2
Ntp3
Rp4
(dp5
S'product_url'
p6
S'http://www.walmart.com/ip/HP-15-f222wm-ndash-15-6-Laptop-Touchscreen-Windows-10-Home-Intel-Pentium-Quad-Core-Processor-4GB-Memory-500GB-Hard-Drive/53853531'
p7
sS'price'
p8
S'N/A'
p9
sS'properties'
p10
(dp11
VRAM Memory
p12
V4 GB
p13
sVOperating System
p14
VWindows 10
p15
sVFeatures
p16
VEPEAT
p17
sVVideo Game Platform
p18
VPC
p19
sVBrand
p20
VHP
p21
sVProcessor Speed
p22
V2.16 GHz, with a Max Turbo Speed of 2.66 GHz
p23
sVManufacturer Part Number
p24
VN5Y13UA#ABA
p25
sVMaximum RAM Supported
p26
V4 GB
p27
sVHard Drive Capacity
p28
V500 GB
p29
sVBattery Life
p30
V5 hours
p31
sVAssembled Product Dimensions (L x W x H)
p32
V15.18 x 10.16 x 0.89 Inches
p33
sVModel
p34
V15-F222WM
p35
sVScreen Size
p36
V15.6"
p37
sVProcessor Type
p38
VIntel Pentium Quad-Core Processor
p39
sVCondition
p40
VNew
p41
ssS'title'
p42
VHP 15-f222wm \u2013 15.6 Laptop ,Touchscreen, Windows 10 Home, Intel Pentium Quad-Core Processor, 4GB Memory, 500GB Hard Drive
p43
sb.