ccopy_reg
_reconstructor
p0
(c__main__
ProductRecord
p1
c__builtin__
object
p2
Ntp3
Rp4
(dp5
S'product_url'
p6
S'http://www.walmart.com/ip/HP-15-6-Touchscreen-Notebook-w-AMD-A8-4GB-RAM-1TB-HDD-Windows-10-Home-Red/51975839'
p7
sS'price'
p8
S'N/A'
p9
sS'properties'
p10
(dp11
VRAM Memory
p12
V4 Gigabytes
p13
sVOperating System
p14
VWindows 10
p15
sVBrand
p16
VHP
p17
sVProcessor Speed
p18
V2.20 Gigahertz
p19
sVManufacturer Part Number
p20
VX0H91UA#ABA
p21
sVHard Drive Capacity
p22
V1 Terabytes
p23
sVBattery Life
p24
V5 hours 30 minutes
p25
sVModel
p26
VX0H91UA#ABA
p27
sVScreen Size
p28
V15.6 in
p29
sVProcessor Type
p30
VAMD A8-7410 A-Series Quad-core (4 Core)
p31
sVCondition
p32
VNew
p33
ssS'title'
p34
VHP 15.6" Touchscreen Notebook w/ AMD A8, 4GB RAM, 1TB HDD, Windows 10 Home - Red
p35
sb.