ccopy_reg
_reconstructor
p0
(c__main__
ProductRecord
p1
c__builtin__
object
p2
Ntp3
Rp4
(dp5
S'product_url'
p6
S'http://www.walmart.com/ip/Dell-Inspiron-15-3567-Core-i5-7200U-2-5-GHz-Win-10-Home-64-bit-8-GB-RAM-2-TB-HDD-DVD-Writer-15-6-touchscreen-1366-x-768-HD-HD-Graphics-620-black-1-Ye/836203160'
p7
sS'price'
p8
S'N/A'
p9
sS'properties'
p10
(dp11
VRAM Memory
p12
V8 GB
p13
sVOperating System
p14
VMicrosoft Windows
p15
sVBrand
p16
VDell
p17
sVProcessor Speed
p18
V2.5 GHz
p19
sVManufacturer Part Number
p20
VI3567-5664BLK-PUS
p21
sVHard Drive Capacity
p22
V2000 GB
p23
sVAssembled Product Dimensions (L x W x H)
p24
V1.00 x 1.00 x 1.00 Inches
p25
sVModel
p26
V15 3567
p27
sVScreen Size
p28
V15.6 in
p29
sVProcessor Type
p30
VIntel Core i5
p31
sVCondition
p32
VNew
p33
ssS'title'
p34
VDell Inspiron 15 3567 - Core i5 7200U / 2.5 GHz - Win 10 Home 64-bit - 8 GB RAM - 2 TB HDD - DVD-Writer - 15.6" touchscreen 1366 x 768 (HD) - HD Graphics 620 - black - with 1 Year Dell Mail-In Service
p35
sb.