ccopy_reg
_reconstructor
p0
(c__main__
ProductRecord
p1
c__builtin__
object
p2
Ntp3
Rp4
(dp5
S'product_url'
p6
S'http://www.walmart.com/ip/Acer-CB5-312T-K40U-13-3-multitouch-screen-Chromebook-Chrome-OS-MediaTek-M8173C-Quad-Core-Processor-4GB-RAM-64GB-eMMC/55009826'
p7
sS'price'
p8
S'N/A'
p9
sS'properties'
p10
(dp11
VRAM Memory
p12
V4 KB
p13
sVOperating System
p14
VChrome
p15
sVColor Category
p16
VSilver
p17
sVLaptop Computer Type
p18
VChromebooks
p19
sVBrand
p20
VAcer
p21
sVManufacturer Part Number
p22
VNX.GL4AA.003
p23
sVHard Drive Capacity
p24
V64 KB
p25
sVProcessor Core Type
p26
VQuad-core (4 Core)
p27
sVProcessor Type
p28
VMediaTek M8173C Quad-Core ProcessorMediaTek M8173C Quad-Core Processor
p29
sVScreen Size
p30
V13.3"
p31
sVModel
p32
VNX.GL4AA.003
p33
sVCondition
p34
VNew
p35
sVManufacturer
p36
VAcer
p37
ssS'title'
p38
VAcer CB5-312T-K40U 13.3" multitouch screen Chromebook, Chrome OS, MediaTek M8173C Quad-Core Processor, 4GB RAM, 64GB eMMC
p39
sb.