ccopy_reg
_reconstructor
p0
(c__main__
ProductRecord
p1
c__builtin__
object
p2
Ntp3
Rp4
(dp5
S'product_url'
p6
S'http://www.walmart.com/ip/HP-15-6-AMD-A12-4GB-500GB-Windows-10-Touchscren-Laptop/975762354'
p7
sS'price'
p8
S'N/A'
p9
sS'properties'
p10
(dp11
VRAM Memory
p12
V4 GB
p13
sVOperating System
p14
VMicrosoft Windows, Windows 10
p15
sVBrand
p16
VHP
p17
sVProcessor Speed
p18
V2.70 GHz
p19
sVManufacturer Part Number
p20
V2TZ74UA#ABA
p21
sVHard Drive Capacity
p22
V500 GB
p23
sVBattery Life
p24
V6 Hour
p25
sVModel
p26
V2TZ74UA#ABA
p27
sVScreen Size
p28
V15.6"
p29
sVProcessor Type
p30
VAMD A-Series
p31
ssS'title'
p32
VHP 15.6" AMD A12, 4GB, 500GB, Windows 10 Touchscren Laptop
p33
sb.