ccopy_reg
_reconstructor
p0
(c__main__
ProductRecord
p1
c__builtin__
object
p2
Ntp3
Rp4
(dp5
S'product_url'
p6
S'http://www.walmart.com/ip/Asus-T100-10-1-Tablet-64GB-Quad-Core-Refurbished/36471708'
p7
sS'price'
p8
S'N/A'
p9
sS'properties'
p10
(dp11
VOperating System
p12
VMicrosoft Windows
p13
sVBrand
p14
VONLINE
p15
sVBattery Life
p16
V11 hours
p17
sVModel
p18
VAsus T100
p19
sVCondition
p20
VRefurbished
p21
sVManufacturer
p22
VAsus
p23
ssS'title'
p24
VAsus T100 10.1" Tablet 64GB Quad Core Refurbished
p25
sb.