ccopy_reg
_reconstructor
p0
(c__main__
ProductRecord
p1
c__builtin__
object
p2
Ntp3
Rp4
(dp5
S'product_url'
p6
S'http://www.walmart.com/ip/Google-Pixelbook-12-3-2-in-1-Touchscreen-Display-Intel-Core-i7-Processor-16GB-512GB-MC-Storage-GA00124-US/783918030'
p7
sS'price'
p8
S'N/A'
p9
sS'properties'
p10
(dp11
VRAM Memory
p12
V8 GB
p13
sVOperating System
p14
VChrome OS
p15
sVBrand
p16
VGoogle
p17
sVAssembled Product Dimensions (L x W x H)
p18
V15.51 x 9.80 x 1.77 Inches
p19
sVModel
p20
VGA00124-US
p21
sVScreen Size
p22
V12.3\u005c"
p23
sVProcessor Type
p24
VIntel Core i7
p25
sVCondition
p26
VNew
p27
sVmanufacturer_part_number
p28
Vga00124-us
p29
ssS'title'
p30
VGoogle Pixelbook 12.3", 2-in 1 Touchscreen Display, Intel Core i7 Processor, 16GB, 512GB MC Storage, GA00124-US
p31
sb.