ccopy_reg
_reconstructor
p0
(c__main__
ProductRecord
p1
c__builtin__
object
p2
Ntp3
Rp4
(dp5
S'product_url'
p6
S'http://www.walmart.com/ip/Google-Pixelbook-12-3-2-in-1-Touchscreen-Display-Intel-Core-i5-Processor-8GB-128GB-MC-Storage-GA00122-US/439277849'
p7
sS'price'
p8
S'N/A'
p9
sS'properties'
p10
(dp11
VRAM Memory
p12
V8 GB
p13
sVOperating System
p14
VChrome OS
p15
sVColor Category
p16
VSilver
p17
sVLaptop Computer Type
p18
VTouchscreen
p19
sVBrand
p20
VGoogle
p21
sVHard Drive Capacity
p22
V128 GB
p23
sVModel
p24
VGA00122-US
p25
sVManufacturer
p26
VQCMC
p27
sVScreen Size
p28
V12.3\u005c"
p29
sVCondition
p30
VNew
p31
sVmanufacturer_part_number
p32
Vga00122-us
p33
ssS'title'
p34
VGoogle Pixelbook 12.3", 2-in 1 Touchscreen Display, Intel Core i5 Processor, 8GB, 128GB MC Storage, GA00122-US
p35
sb.