ccopy_reg
_reconstructor
p0
(c__main__
ProductRecord
p1
c__builtin__
object
p2
Ntp3
Rp4
(dp5
S'product_url'
p6
S'http://www.walmart.com/ip/GPD-Pocket-7-0-inch-touchscreen-laptops-game-8GB-RAM-128GB-Aluminum-Shell-portable-mini/385978612'
p7
sS'price'
p8
S'N/A'
p9
sS'properties'
p10
(dp11
VNetwork
p12
VWIFI: 802.11a/b/g/n/ac wireless internet Bluetooth: Bluetooth 4.1
p13
sVPackage Contents
p14
VEnglish Manual : 1 Notebook: 1 Power Adapter: 1 USB Cable: 1
p15
sVStorage
p16
VRAM: 8GB Hard Disk Memory: 128GB EMMC
p17
sVDisplay
p18
VScreen size: 7 inch Screen resolution: 1920 x 1080 (FHD)
p19
sVGeneral
p20
VBattery Type: : 3.7V / 7000mAh, Li-ion polymer battery Battery / Run Time (up to): 5 hours video playing time Material of back cover: Aluminium 
p21
sVLanguages
p22
VLanguages: Windows OS is built-in English, and other languages need to be downloaded by WiFi.
p23
sVConnectivity
p24
VUSB Host: Yes (USB 3.0) Micro HDMI slot: Yes 3.5mm Headphone Jack: Yes Type-C: Yes
p25
sVBasic Information
p26
VBrand: GPD Model: GPD Pocket Type: Mini Laptop OS: Windows 10 CPU Brand: Intel CPU: Intel Atom x7-Z8750 Core: 1.6GHz,Quad Core Graphics Chipset: Intel HD Graphics
p27
sVDimensions
p28
VProduct size: 18.20 x 10.90 x 1.99 cm / 7.17 x 4.29 x 0.78 inches Package size: 24.50 x 23.50 x 5.50 cm / 9.65 x 9.25 x 2.17 inches Product weight: 0.5030 kg Package weight: 1.5130 kg
p29
ssS'title'
p30
VGPD Pocket 7.0 inch touchscreen laptops game 8GB RAM 128GB Aluminum Shell portable mini
p31
sb.