ccopy_reg
_reconstructor
p0
(c__main__
ProductRecord
p1
c__builtin__
object
p2
Ntp3
Rp4
(dp5
S'product_url'
p6
S'http://www.walmart.com/ip/Visual-Land-Prestige-9-Quad-Core-Tablet-16GB-includes-Keyboard-Case/41008103'
p7
sS'price'
p8
S'N/A'
p9
sS'properties'
p10
(dp11
VOperating System
p12
VAndroid
p13
sVFeatures
p14
VBluetooth, microSD Slot, Front & Rear Cameras, Wifi 802.11 b/g/n, 16GB Onboard Storage
p15
sVAccessories Included
p16
VKeyboard Case, AC Adapter
p17
sVVideo Game Platform
p18
VAndroid
p19
sVBrand
p20
VVisual Land
p21
sVManufacturer Part Number
p22
VME9Q8KC-BLK
p23
sVBattery Life
p24
V8.00 h
p25
sVModel Name
p26
VPrestige
p27
sVAssembled Product Dimensions (L x W x H)
p28
V11.50 x 7.00 x 3.00 Inches
p29
sVModel
p30
VME9Q8KC-BLK
p31
sVScreen Size
p32
V9 in
p33
sVCondition
p34
VNew
p35
sVAssembled Product Weight
p36
V3.15 lb
p37
ssS'title'
p38
VVisual Land Prestige 9" Quad Core Tablet 16GB includes Keyboard Case
p39
sb.