ccopy_reg
_reconstructor
p0
(c__main__
ProductRecord
p1
c__builtin__
object
p2
Ntp3
Rp4
(dp5
S'product_url'
p6
S'http://www.walmart.com/ip/HP-Chromebook-11-6-HD-Touch-Screen-with-IPS-Celeron-N3060-1-6GHz-4GB-RAM-16GB-eMMC-Gray-Certified-Refurbished/319270079'
p7
sS'price'
p8
S'N/A'
p9
sS'properties'
p10
(dp11
VOperating System
p12
VChrome
p13
sVColor Category
p14
VGray
p15
sVLaptop Computer Type
p16
VTouchscreen
p17
sVBrand
p18
VHP
p19
sVManufacturer Part Number
p20
VX7T65UA#ABA.RB
p21
sVModel
p22
V11-v020nr.RB
p23
sVScreen Size
p24
V11.6
p25
sVManufacturer
p26
VHP
p27
ssS'title'
p28
VHP Chromebook 11.6" HD Touch Screen with IPS, Celeron N3060 @ 1.6GHz, 4GB RAM, 16GB eMMC, Gray (Certified Refurbished)
p29
sb.