ccopy_reg
_reconstructor
p0
(c__main__
ProductRecord
p1
c__builtin__
object
p2
Ntp3
Rp4
(dp5
S'product_url'
p6
S'http://www.walmart.com/ip/HP-15-6-HD-High-Performance-Flagship-Touchscreen-Laptop-Computer-Intel-Core-i3-4GB-RAM-500GB-HDD-DVDRW-USB-3-0-Webcam-WiFi-Windows-10-Iris-Purple/664611141'
p7
sS'price'
p8
S'N/A'
p9
sS'properties'
p10
(dp11
VRAM Memory
p12
V8.00 GB
p13
sVOperating System
p14
VWindows 10
p15
sVColor Category
p16
VPurple
p17
sVLaptop Computer Type
p18
VTouchscreen
p19
sVBrand
p20
VHP
p21
sVWireless Technology
p22
VWireless LAN 802.11b/g/n
p23
sVHard Drive Capacity
p24
V1.00 TB
p25
sVProcessor Type
p26
VIntel Core i3
p27
sVScreen Size
p28
V15.6
p29
ssS'title'
p30
VHP 15.6" HD High Performance Flagship Touchscreen Laptop Computer, Intel Core i3 , 4GB RAM, 500GB HDD, DVDRW, USB 3.0, Webcam, WiFi, Windows 10, Iris Purple
p31
sb.