ccopy_reg
_reconstructor
p0
(c__main__
ProductRecord
p1
c__builtin__
object
p2
Ntp3
Rp4
(dp5
S'product_url'
p6
S'http://www.walmart.com/ip/Refurbished-HP-14-Ak060Nr-14-Chromebook-Touchscreen-Chrome-Intel-Celeron-N2940-Processor-4GB-RAM-16GB-eMMC-Hard-Drive/55681721'
p7
sS'price'
p8
S'N/A'
p9
sS'properties'
p10
(dp11
VRAM Memory
p12
V4 GB
p13
sVOperating System
p14
VChrome
p15
sVFeatures
p16
VEPEAT
p17
sVBrand
p18
VHP
p19
sVProcessor Speed
p20
V1.83 GHz, with a Max Turbo Speed of 2.25 GHz
p21
sVManufacturer Part Number
p22
VRB14-AK060NR
p23
sVHard Drive Capacity
p24
V16 GB
p25
sVAssembled Product Dimensions (L x W x H)
p26
V18.50 x 11.57 x 2.99 Inches
p27
sVModel
p28
VRB14-AK060NR
p29
sVScreen Size
p30
V14.0"
p31
sVProcessor Type
p32
VIntel Celeron
p33
sVCondition
p34
VRefurbished
p35
ssS'title'
p36
VRefurbished HP 14-Ak060Nr 14" Chromebook, Touchscreen, Chrome, Intel Celeron N2940 Processor, 4GB RAM, 16GB eMMC Hard Drive
p37
sb.