ccopy_reg
_reconstructor
p0
(c__main__
ProductRecord
p1
c__builtin__
object
p2
Ntp3
Rp4
(dp5
S'product_url'
p6
S'http://www.walmart.com/ip/Dell-Inspiron-15-5000-2-in-1-15-6-inch-FHD-Intel-Core-i7-8550U-8GB-2400MHz-DDR4-256-GB-SSD-Intel-UHD-graphics-620/797171425'
p7
sS'price'
p8
S'N/A'
p9
sS'properties'
p10
(dp11
VRAM Memory
p12
V8.00 GB
p13
sVOperating System
p14
VWindows 10 Home 64-bit English
p15
sVBrand
p16
VDell
p17
sVProcessor Speed
p18
V1800 MHz
p19
sVManufacturer Part Number
p20
Vi5579-7746GRY-PUS
p21
sVHard Drive Capacity
p22
V256.00 GB
p23
sVModel
p24
Vi5579-7746GRY
p25
sVScreen Size
p26
V15.60 in
p27
sVProcessor Type
p28
VIntel Core i7-8550U
p29
sVCondition
p30
VNew
p31
ssS'title'
p32
VDell - Inspiron 15 5000 2-in-1, 15.6-inch FHD, Intel Core i7-8550U, 8GB 2400MHz DDR4, 256 GB (SSD), Intel UHD graphics 620
p33
sb.