ccopy_reg
_reconstructor
p0
(c__main__
ProductRecord
p1
c__builtin__
object
p2
Ntp3
Rp4
(dp5
S'product_url'
p6
S'http://www.walmart.com/ip/Refurbished-ASUS-TP401NA-WH21T-14-Touchscreen-Laptop-Quad-Core-2-5GHz-4GB-RAM-64GB-EMMC/213955162'
p7
sS'price'
p8
S'N/A'
p9
sS'properties'
p10
(dp11
VRAM Memory
p12
V4 GB
p13
sVOperating System
p14
VMicrosoft Windows
p15
sVFeatures
p16
VNo features description available
p17
sVBrand
p18
VASUS
p19
sVManufacturer Part Number
p20
VTP401NA-WH21T
p21
sVAssembled Product Dimensions (L x W x H)
p22
V12.90 x 1.00 x 8.90 Inches
p23
sVModel
p24
VVIPRB-TP401NA-WH21T
p25
sVScreen Size
p26
V14\u005c"
p27
ssS'title'
p28
VRefurbished ASUS TP401NA-WH21T 14" Touchscreen Laptop Quad-Core 2.5GHz 4GB RAM 64GB EMMC
p29
sb.