ccopy_reg
_reconstructor
p0
(c__main__
ProductRecord
p1
c__builtin__
object
p2
Ntp3
Rp4
(dp5
S'product_url'
p6
S'http://www.walmart.com/ip/Refurbished-Dell-i3043-5000BLK-All-in-One-Desktop-PC-Intel-Pentium-N3530-Processor-4GB-Memory-19-5-Touchscreen-500GB-Hard-Drive-Windows-8-1/54391190'
p7
sS'price'
p8
S'N/A'
p9
sS'properties'
p10
(dp11
VRAM Memory
p12
V4 GB
p13
sVOperating System
p14
VWindows 8
p15
sVFeatures
p16
VTouchscreen, Wireless, Bluetooth, HDMI Outputs
p17
sVVideo Game Platform
p18
VPC
p19
sVBrand
p20
VDell
p21
sVProcessor Speed
p22
V2.16 GHz, with a Max Turbo Speed of 2.58 GHz
p23
sVManufacturer Part Number
p24
Vi3043-5000BLK
p25
sVMaximum RAM Supported
p26
V4 GB
p27
sVHard Drive Capacity
p28
V500 GB
p29
sVAssembled Product Dimensions (L x W x H)
p30
V23.64 x 6.05 x 16.81 Inches
p31
sVModel
p32
Vi3043-5000BLK
p33
sVScreen Size
p34
V19.5"
p35
sVProcessor Type
p36
VIntel Pentium
p37
ssS'title'
p38
VRefurbished Dell i3043-5000BLK All-in-One Desktop PC with Intel Pentium N3530 Processor, 4GB Memory, 19.5" Touchscreen, 500GB Hard Drive and Windows 8.1
p39
sb.