ccopy_reg
_reconstructor
p0
(c__main__
ProductRecord
p1
c__builtin__
object
p2
Ntp3
Rp4
(dp5
S'product_url'
p6
S'http://www.walmart.com/ip/T102HA-D4-GR-ATOM-Z8350-4GB-128GB-SSD-10-1IN-W10-NO-TOUCH/54808094'
p7
sS'price'
p8
S'N/A'
p9
sS'properties'
p10
(dp11
VRAM Memory
p12
V4 GB
p13
sVOperating System
p14
VWindows 10
p15
sVFeatures
p16
VTRANSFORMER BOOK   INTEL   ATOM   X5 Z8350   1.44 GHZ   DDR3 SDRAM   RAM: 4 GB
p17
sVVideo Game Platform
p18
VPC
p19
sVBrand
p20
VASUS
p21
sVProcessor Speed
p22
V1.44 GHz, with a Max Turbo Speed of 1.92 GHz
p23
sVManufacturer Part Number
p24
VT102HA-D4-GR
p25
sVHard Drive Capacity
p26
V128 GB
p27
sVBattery Life
p28
V11 Hours
p29
sVAssembled Product Dimensions (L x W x H)
p30
V10.20 x 6.70 x 0.50 Inches
p31
sVModel
p32
V90NB0D02-M02400
p33
sVScreen Size
p34
V10.1"
p35
sVProcessor Type
p36
VIntel Quad-Core Atom Z8350 Processor
p37
sVCondition
p38
VNew
p39
ssS'title'
p40
VT102HA-D4-GR ATOM Z8350 4GB 128GB SSD 10.1IN W10 NO TOUCH
p41
sb.