ccopy_reg
_reconstructor
p0
(c__main__
ProductRecord
p1
c__builtin__
object
p2
Ntp3
Rp4
(dp5
S'product_url'
p6
S'http://www.walmart.com/ip/NEW-HP-X2-DETACHABLE-LAPTOP-10-1-TOUCHSCREEN-INTEL-ATOM-X5-2GB-MEMORY-32GB-SSD/839366792'
p7
sS'price'
p8
S'N/A'
p9
sS'properties'
p10
(dp11
VRAM Memory
p12
V2.00 GB
p13
sVOperating System
p14
VWindows 10
p15
sVBrand
p16
VHP
p17
sVHard Drive Capacity
p18
V32.00 GB
p19
sVProcessor Type
p20
VAtom x5
p21
sVScreen Size
p22
V10.1\u005c"
p23
sVProcessor Speed
p24
V1.44 GHz
p25
ssS'title'
p26
VNEW HP X2 DETACHABLE LAPTOP 10.1" TOUCHSCREEN, INTEL ATOM X5 2GB MEMORY 32GB SSD
p27
sb.