ccopy_reg
_reconstructor
p0
(c__main__
ProductRecord
p1
c__builtin__
object
p2
Ntp3
Rp4
(dp5
S'product_url'
p6
S'http://www.walmart.com/ip/HP-ZBook-15u-G4-Mobile-Workstation-15-6-Core-i7-7500U-16-GB-RAM-512-GB-SSD/755221358'
p7
sS'price'
p8
S'N/A'
p9
sS'properties'
p10
(dp11
VRAM Memory
p12
V16.00 GB
p13
sVOperating System
p14
VWindows 10
p15
sVFeatures
p16
V2.7G 16GB 512GB 15.6IN BT W10P 64
p17
sVBrand
p18
VHP
p19
sVProcessor Speed
p20
V2.70 GHz
p21
sVManufacturer Part Number
p22
V1BS35UT#ABA
p23
sVHard Drive Capacity
p24
V512.00 GB
p25
sVBattery Life
p26
V10 Hours
p27
sVAssembled Product Dimensions (L x W x H)
p28
V5.00 x 5.00 x 5.00 Inches
p29
sVModel
p30
V1BS35UT
p31
sVScreen Size
p32
V15.60 in
p33
sVProcessor Type
p34
VCore i7-7500U
p35
sVCondition
p36
VNew
p37
ssS'title'
p38
VHP ZBook 15u G4 Mobile Workstation - 15.6" - Core i7 7500U - 16 GB RAM - 512 GB SSD
p39
sb.