ccopy_reg
_reconstructor
p0
(c__main__
ProductRecord
p1
c__builtin__
object
p2
Ntp3
Rp4
(dp5
S'product_url'
p6
S'http://www.walmart.com/ip/Refurbished-HP-15-cc060wm-SLVER-IRIDIUM-CI7/56136486'
p7
sS'price'
p8
S'N/A'
p9
sS'properties'
p10
(dp11
VOperating System
p12
VMicrosoft Windows
p13
sVLaptop Computer Type
p14
VTouchscreen
p15
sVBrand
p16
VHP
p17
sVManufacturer Part Number
p18
VRB 15-cc060wm
p19
sVModel
p20
VRB 15-cc060wm
p21
sVCondition
p22
VRefurbished
p23
sVManufacturer
p24
VGeneric
p25
ssS'title'
p26
VRefurbished HP 15-cc060wm SLVER IRIDIUM CI7
p27
sb.