ccopy_reg
_reconstructor
p0
(c__main__
ProductRecord
p1
c__builtin__
object
p2
Ntp3
Rp4
(dp5
S'product_url'
p6
S'http://www.walmart.com/ip/Manufacturer-Refurbished-HP-15-AY017CY-15-6-Touch-Laptop-Intel-Pentium-N3710-1-6GHz-4GB-500GB-Win10/892674075'
p7
sS'price'
p8
S'N/A'
p9
sS'properties'
p10
(dp11
VRAM Memory
p12
V4 GB
p13
sVOperating System
p14
VMicrosoft Windows
p15
sVColor Category
p16
VRed
p17
sVLaptop Computer Type
p18
VTouchscreen
p19
sVBrand
p20
VHP
p21
sVManufacturer Part Number
p22
V15-AY017CY-RF
p23
sVHard Drive Capacity
p24
V500 GB
p25
sVModel
p26
V15-AY017CY-RF
p27
sVScreen Size
p28
V15.6\u005c"
p29
sVManufacturer
p30
VHP
p31
ssS'title'
p32
VManufacturer Refurbished - HP 15-AY017CY 15.6" Touch Laptop Intel Pentium N3710 1.6GHz 4GB 500GB Win10
p33
sb.