ccopy_reg
_reconstructor
p0
(c__main__
ProductRecord
p1
c__builtin__
object
p2
Ntp3
Rp4
(dp5
S'product_url'
p6
S'http://www.walmart.com/ip/Refurbished-HP-Spectre-x360-15-15-6-4K-UHD-TouchScreen-Laptop-Notebook-Tablet-Convertible-8th-Gen-Quad-Core-i7-8550U-16GB-Ram-Memory-512GB-SSD-NVIDIA/264876561'
p7
sS'price'
p8
S'N/A'
p9
sS'properties'
p10
(dp11
VRAM Memory
p12
V16.00 GB
p13
sVOperating System
p14
VWindows 10
p15
sVFeatures
p16
VX360 Convertible Tablet/Laptop
p17
sVBrand
p18
VHP
p19
sVProcessor Speed
p20
V1.80 GHz
p21
sVManufacturer Part Number
p22
V1WB97AAR#ABA-WKLW
p23
sVHard Drive Capacity
p24
V512.00 GB
p25
sVModel
p26
VHP Spectre x360 15T-BI100
p27
sVScreen Size
p28
V15.60 in
p29
sVProcessor Type
p30
VIntel Core i7
p31
ssS'title'
p32
VRefurbished HP Spectre x360 15 15.6" 4K UHD TouchScreen Laptop/Notebook/Tablet Convertible, 8th Gen Quad Core i7-8550U, 16GB Ram Memory, 512GB SSD, NVIDIA GeForce MX150, WiFi AC Bluetooth, W10
p33
sb.