ccopy_reg
_reconstructor
p0
(c__main__
ProductRecord
p1
c__builtin__
object
p2
Ntp3
Rp4
(dp5
S'product_url'
p6
S'http://www.walmart.com/ip/2018-Flagship-Dell-Inspiron-15-6-HD-Premium-Touchscreen-Laptop-Intel-Dual-Core-i5-7200U-2-5GHz-8GB-DDR4-2TB-HDD-MaxxAudio-DVDRW-Bluetooth-WLAN-HDMI-W/595231518'
p7
sS'price'
p8
S'N/A'
p9
sS'properties'
p10
(dp11
VRAM Memory
p12
V8.00 GB
p13
sVOperating System
p14
VWindows 10
p15
sVColor Category
p16
VBlack
p17
sVLaptop Computer Type
p18
VTouchscreen
p19
sVBrand
p20
VDell
p21
sVWireless Technology
p22
VWireless LAN 802.11b/g/n
p23
sVHard Drive Capacity
p24
V1.00 TB
p25
sVProcessor Type
p26
VIntel?? Core??? i5-7200U Dual-Core
p27
sVScreen Size
p28
V15.60 in
p29
sVCondition
p30
VNew
p31
ssS'title'
p32
V2018 Flagship Dell Inspiron 15.6" HD Premium Touchscreen Laptop - Intel Dual-Core i5-7200U 2.5GHz, 8GB DDR4, 2TB HDD, MaxxAudio, DVDRW, Bluetooth, WLAN, HDMI, Webcam, 3-in-1 Card Reader, Windows 10
p33
sb.