ccopy_reg
_reconstructor
p0
(c__main__
ProductRecord
p1
c__builtin__
object
p2
Ntp3
Rp4
(dp5
S'product_url'
p6
S'http://www.walmart.com/ip/HP-ZBook-15-G3-Mobile-Workstation-15-6-Core-i7-6700HQ-16-GB-RAM-512-GB-SSD/55253094'
p7
sS'price'
p8
S'N/A'
p9
sS'properties'
p10
(dp11
VRAM Memory
p12
V16 GB
p13
sVOperating System
p14
VWindows 10
p15
sVFeatures
p16
VROHS Compliant
p17
sVVideo Game Platform
p18
VPC
p19
sVBrand
p20
VHP
p21
sVProcessor Speed
p22
V2.60 GHz
p23
sVManufacturer Part Number
p24
VX9V54UT#ABA
p25
sVHard Drive Capacity
p26
V512 GB
p27
sVBattery Life
p28
V0 h
p29
sVAssembled Product Dimensions (L x W x H)
p30
V10.40 x 15.20 x 1.00 Inches
p31
sVModel
p32
VX9V54UT#ABA
p33
sVScreen Size
p34
V15.6"
p35
sVProcessor Type
p36
VIntel Core i7
p37
sVCondition
p38
VNew
p39
ssS'title'
p40
VHP ZBook 15 G3 Mobile Workstation - 15.6" - Core i7 6700HQ - 16 GB RAM - 512 GB SSD
p41
sb.