ccopy_reg
_reconstructor
p0
(c__main__
ProductRecord
p1
c__builtin__
object
p2
Ntp3
Rp4
(dp5
S'product_url'
p6
S'http://www.walmart.com/ip/Refurbished-2017-Dell-XPS-15-9560-i7-7700HQ-32GB-1TB-PCIe-SSD-UHD-4K-Touch-GTX1050-4GB-W10/217288282'
p7
sS'price'
p8
S'N/A'
p9
sS'properties'
p10
(dp11
VRAM Memory
p12
V32.00 GB
p13
sVOperating System
p14
VWindows 10
p15
sVColor Category
p16
VSilver
p17
sVLaptop Computer Type
p18
VPC Laptops
p19
sVBrand
p20
VDell
p21
sVHard Drive Capacity
p22
V1.00 TB
p23
sVProcessor Type
p24
VIntel Core i7
p25
sVScreen Size
p26
V15.6 in
p27
sVModel
p28
VXPS 15 9560
p29
sVManufacturer
p30
VDell
p31
ssS'title'
p32
VRefurbished 2017 Dell XPS 15 9560 i7-7700HQ 32GB 1TB PCIe SSD UHD 4K Touch GTX1050 4GB W10
p33
sb.