ccopy_reg
_reconstructor
p0
(c__main__
ProductRecord
p1
c__builtin__
object
p2
Ntp3
Rp4
(dp5
S'product_url'
p6
S'http://www.walmart.com/ip/HP-Silver-15-6-EliteBook-755-G3-Laptop-PC-AMD-A12-8800B-Quad-Core-Processor-8GB-Memory-touch-screen-256GB-Solid-State-Drive-Windows-7-Professional/49152362'
p7
sS'price'
p8
S'N/A'
p9
sS'properties'
p10
(dp11
VRAM Memory
p12
V8 GB
p13
sVOperating System
p14
VWindows 7
p15
sVFeatures
p16
VWin 10 PRO 64, 3C Battery, 15.6 FHD AG LED SVA, HP SmartBuy 755 A12-8800B 15.6 8GB/256 PC AMD A12-8800B, 256GB SSD, UMA, 3yr Warranty U.S. - English localization, BT, 8GB DDR3L RAM, FPR
p17
sVVideo Game Platform
p18
VPC
p19
sVBrand
p20
VHP
p21
sVProcessor Speed
p22
V2.10 GHz
p23
sVManufacturer Part Number
p24
VT3L78UT#ABA
p25
sVMaximum RAM Supported
p26
V16 GB
p27
sVHard Drive Capacity
p28
V256 GB
p29
sVAssembled Product Dimensions (L x W x H)
p30
V10.10 x 15.09 x 0.82 Inches
p31
sVModel
p32
VT3L78UT
p33
sVScreen Size
p34
V15.6"
p35
sVProcessor Type
p36
VAMD A12-8800B Quad-Core Processor
p37
sVCondition
p38
VNew
p39
ssS'title'
p40
VHP Silver 15.6" EliteBook 755 G3 Laptop PC with AMD A12-8800B Quad-Core Processor, 8GB Memory, touch screen, 256GB Solid State Drive and Windows 7 Professional
p41
sb.