ccopy_reg
_reconstructor
p0
(c__main__
ProductRecord
p1
c__builtin__
object
p2
Ntp3
Rp4
(dp5
S'product_url'
p6
S'http://www.walmart.com/ip/HP-Full-HD-Touch-x360-Convertible-Laptop-i5-7200U-12GB-1TB-Backlit-Keyboard-Silver-15-br077cl-2DS98UA-ABA/583308172'
p7
sS'price'
p8
S'N/A'
p9
sS'properties'
p10
(dp11
VRAM Memory
p12
V12 GB
p13
sVBrand
p14
VHP
p15
sVManufacturer Part Number
p16
V2ds98ua # aba
p17
sVHard Drive Capacity
p18
V1000 GB
p19
sVModel
p20
V15-br077cl
p21
sVScreen Size
p22
V15.6\u005c"
p23
sVProcessor Type
p24
VIntel Core i5
p25
sVCondition
p26
VNew
p27
ssS'title'
p28
VHP Full HD Touch x360 Convertible Laptop i5-7200U 12GB 1TB Backlit Keyboard, Silver 15-br077cl 2DS98UA#ABA
p29
sb.