ccopy_reg
_reconstructor
p0
(c__main__
ProductRecord
p1
c__builtin__
object
p2
Ntp3
Rp4
(dp5
S'product_url'
p6
S'http://www.walmart.com/ip/Acer-Spin-5-Touchscreen-2-in-1-Laptop-Intel-Core-8th-Gen-i5-1080p-13-3-Touchscreen-Touch-Screen-8GB-Memory-256GB-SSD-Tablet-Notebook-PC-SP513-52N-552K/827912535'
p7
sS'price'
p8
S'N/A'
p9
sS'properties'
p10
(dp11
VRAM Memory
p12
V8 GB
p13
sVOperating System
p14
VMicrosoft Windows, Windows 10
p15
sVBrand
p16
VAcer
p17
sVProcessor Speed
p18
V1.60 GHz
p19
sVManufacturer Part Number
p20
VNX.GR7AA.003
p21
sVMaximum RAM Supported
p22
V16 GB
p23
sVHard Drive Capacity
p24
V256 GB
p25
sVModel
p26
VSP513-52N-552K
p27
sVScreen Size
p28
V13.3"
p29
sVProcessor Type
p30
VIntel Core i5
p31
ssS'title'
p32
VAcer Spin 5 Touchscreen 2-in-1 Laptop - Intel Core 8th Gen i5 - 1080p 13.3" Touchscreen Touch Screen 8GB Memory 256GB SSD Tablet Notebook PC SP513-52N-552K
p33
sb.