ccopy_reg
_reconstructor
p0
(c__main__
ProductRecord
p1
c__builtin__
object
p2
Ntp3
Rp4
(dp5
S'product_url'
p6
S'http://www.walmart.com/ip/Lenovo-Flex-5-15-6-4K-Touchscreen-Laptop-i7-8550U-16GB-1TB-256GB-940MX-Win10/321750979'
p7
sS'price'
p8
S'N/A'
p9
sS'properties'
p10
(dp11
VRAM Memory
p12
V16 Gigabytes
p13
sVOperating System
p14
VWindows 10
p15
sVBrand
p16
VLenovo
p17
sVProcessor Speed
p18
V1.8 Gigahertz
p19
sVManufacturer Part Number
p20
V81CA000DUS
p21
sVHard Drive Capacity
p22
V1 Terabytes
p23
sVBattery Life
p24
V0 h
p25
sVModel
p26
V81CA000DUS
p27
sVScreen Size
p28
V15.60 Inches
p29
sVProcessor Type
p30
VIntel i7-8550U
p31
sVCondition
p32
VNew
p33
ssS'title'
p34
VLenovo Flex 5 15.6" 4K Touchscreen Laptop i7-8550U 16GB 1TB 256GB 940MX Win10
p35
sb.