ccopy_reg
_reconstructor
p0
(c__main__
ProductRecord
p1
c__builtin__
object
p2
Ntp3
Rp4
(dp5
S'product_url'
p6
S'http://www.walmart.com/ip/Refurbished-Dell-Latitude-E7440-14-Touch-Laptop-Intel-i7-Dual-Core-2-1GHz-8GB-256GB-SSD/176748153'
p7
sS'price'
p8
S'N/A'
p9
sS'properties'
p10
(dp11
VRAM Memory
p12
V8 GB
p13
sVOperating System
p14
VMicrosoft Windows
p15
sVColor Category
p16
VBlack
p17
sVLaptop Computer Type
p18
VTouchscreen
p19
sVBrand
p20
VDell
p21
sVManufacturer Part Number
p22
VE7440TS-I721-SKN-FB-R
p23
sVProcessor Type
p24
VIntel Core i7
p25
sVScreen Size
p26
V14
p27
sVModel
p28
VLatitude E7440
p29
sVManufacturer
p30
VDell
p31
ssS'title'
p32
VRefurbished Dell Latitude E7440 14" Touch Laptop Intel i7 Dual Core 2.1GHz 8GB 256GB SSD
p33
sb.