ccopy_reg
_reconstructor
p0
(c__main__
ProductRecord
p1
c__builtin__
object
p2
Ntp3
Rp4
(dp5
S'product_url'
p6
S'http://www.walmart.com/ip/New-Flagship-HP-Laptop-15-6-HD-High-Performance-Premium-Touchscreen-AMD-A8-7410-Quad-core-2-20-GHz-4GB-RAM-1TB-HDD-AMD-Radeon-R5-DVDRW-WLAN-Webcam-US/965437883'
p7
sS'price'
p8
S'N/A'
p9
sS'properties'
p10
(dp11
VRAM Memory
p12
V4.00 GB
p13
sVOperating System
p14
VWindows 10
p15
sVColor Category
p16
VBlue
p17
sVLaptop Computer Type
p18
VTouchscreen
p19
sVBrand
p20
VHP
p21
sVWireless Technology
p22
VWireless LAN 802.11b/g/n
p23
sVHard Drive Capacity
p24
V1.00 TB
p25
sVProcessor Type
p26
VAMD A-Series A8-7410 Quad-core
p27
sVScreen Size
p28
V15.60 in
p29
sVModel
p30
V15-ay018cy
p31
sVCondition
p32
VNew
p33
ssS'title'
p34
VNew Flagship HP Laptop 15.6" HD High Performance Premium Touchscreen AMD A8-7410 Quad-core 2.20 GHz, 4GB RAM, 1TB HDD, AMD Radeon R5, DVDRW, WLAN, Webcam, USB 3.0, HDMI, Win 10 -Dreamy Teal
p35
sb.