ccopy_reg
_reconstructor
p0
(c__main__
ProductRecord
p1
c__builtin__
object
p2
Ntp3
Rp4
(dp5
S'product_url'
p6
S'http://www.walmart.com/ip/ACER-TOUCH-C771T-32GW-NX-GP6AA-004-11-6-INCHES-BLACK-CHROMEBOOK-11/923064746'
p7
sS'price'
p8
S'N/A'
p9
sS'properties'
p10
(dp11
VRAM Memory
p12
V4.00 GB
p13
sVOperating System
p14
VChrome OS
p15
sVBrand
p16
VAcer
p17
sVProcessor Speed
p18
V2.30 GHz
p19
sVManufacturer Part Number
p20
VNX.GP6AA.004
p21
sVHard Drive Capacity
p22
V32.00 GB
p23
sVAssembled Product Dimensions (L x W x H)
p24
V15.00 x 9.00 x 3.00 Inches
p25
sVModel
p26
VC771T32GW
p27
sVScreen Size
p28
V11.60 in
p29
sVProcessor Type
p30
VIntel Core i3
p31
sVCondition
p32
VNew
p33
ssS'title'
p34
VACER TOUCH C771T-32GW NX.GP6AA.004 11.6 INCHES BLACK CHROMEBOOK 11
p35
sb.