ccopy_reg
_reconstructor
p0
(c__main__
ProductRecord
p1
c__builtin__
object
p2
Ntp3
Rp4
(dp5
S'product_url'
p6
S'http://www.walmart.com/ip/Refurbished-Acer-Aspire-Switch-10-1-Touchscreen-Laptop-Intel-Atom-Quad-Core-2GB-32GB-W10H/461230402'
p7
sS'price'
p8
S'N/A'
p9
sS'properties'
p10
(dp11
VRAM Memory
p12
V2 GB
p13
sVOperating System
p14
VMicrosoft Windows
p15
sVBrand
p16
VAcer
p17
sVManufacturer Part Number
p18
VSW5-015-12KL-PB-R
p19
sVModel
p20
VSW5-015-12KL
p21
sVScreen Size
p22
V10.1\u005c"
p23
ssS'title'
p24
VRefurbished Acer Aspire Switch 10.1" Touchscreen Laptop Intel Atom Quad Core 2GB 32GB W10H
p25
sb.