ccopy_reg
_reconstructor
p0
(c__main__
ProductRecord
p1
c__builtin__
object
p2
Ntp3
Rp4
(dp5
S'product_url'
p6
S'http://www.walmart.com/ip/HP-ENVY-x360-13t-13-y094cl-QHD-Touchscreen-Laptop-Tablet-Notebook-16GB-i7-256GB-SSD-Windows-10-Professional-QHD-Office-365/215399865'
p7
sS'price'
p8
S'N/A'
p9
sS'properties'
p10
(dp11
VBrand
p12
VHP
p13
sVRAM Memory
p14
V16 GB
p15
sVOperating System
p16
VMicrosoft Windows
p17
sVHard Drive Capacity
p18
V256 GB
p19
ssS'title'
p20
VHP ENVY x360 13t 13-y094cl QHD+ Touchscreen Laptop Tablet Notebook 16GB i7 256GB SSD Windows 10 Professional QHD+ Office 365
p21
sb.