ccopy_reg
_reconstructor
p0
(c__main__
ProductRecord
p1
c__builtin__
object
p2
Ntp3
Rp4
(dp5
S'product_url'
p6
S'http://www.walmart.com/ip/Microsoft-Surface-Book-2-15-Intel-Core-i7-8th-Gen-16GB-RAM-512GB-dGPU-GTX-1060-w-6GB-GDDR5/250238101'
p7
sS'price'
p8
S'N/A'
p9
sS'properties'
p10
(dp11
VRAM Memory
p12
V16 Gigabytes
p13
sVOperating System
p14
VWindows 10 Pro Creators Update
p15
sVBrand
p16
VMicrosoft
p17
sVProcessor Speed
p18
V0 Gigahertz
p19
sVManufacturer Part Number
p20
VFUX-00001
p21
sVHard Drive Capacity
p22
V512 Gigabytes
p23
sVBattery Life
p24
V0 h
p25
sVAssembled Product Dimensions (L x W x H)
p26
V19.00 x 12.00 x 3.00 Inches
p27
sVModel
p28
VFUX-00001
p29
sVScreen Size
p30
V15.00 Inches
p31
sVProcessor Type
p32
VIntel i7-8650U
p33
sVCondition
p34
VNew
p35
ssS'title'
p36
VMicrosoft Surface Book 2 - 15" - Intel Core i7 8th Gen - 16GB RAM - 512GB dGPU - GTX 1060 w/ 6GB GDDR5
p37
sb.