ccopy_reg
_reconstructor
p0
(c__main__
ProductRecord
p1
c__builtin__
object
p2
Ntp3
Rp4
(dp5
S'product_url'
p6
S'http://www.walmart.com/ip/Dell-Chromebook-11-3189-11-6-Celeron-N3060-4-GB-RAM-64-GB-SSD/653471165'
p7
sS'price'
p8
S'N/A'
p9
sS'properties'
p10
(dp11
VRAM Memory
p12
V4 Gigabytes
p13
sVOperating System
p14
VChrome OS
p15
sVFeatures
p16
VCELERON N3060 4GB 64GB 1YR MI
p17
sVBrand
p18
VDell
p19
sVProcessor Speed
p20
V1.6 Gigahertz
p21
sVManufacturer Part Number
p22
VT8TJG
p23
sVHard Drive Capacity
p24
V64 Gigabytes
p25
sVBattery Life
p26
V10 Hours
p27
sVAssembled Product Dimensions (L x W x H)
p28
V17.10 x 4.20 x 11.00 Inches
p29
sVModel
p30
VT8TJG
p31
sVScreen Size
p32
V11.60 Inches
p33
sVProcessor Type
p34
VIntel N3060
p35
sVCondition
p36
VNew
p37
ssS'title'
p38
VDell Chromebook 11 3189 - 11.6" - Celeron N3060 - 4 GB RAM - 64 GB SSD
p39
sb.