ccopy_reg
_reconstructor
p0
(c__main__
ProductRecord
p1
c__builtin__
object
p2
Ntp3
Rp4
(dp5
S'product_url'
p6
S'http://www.walmart.com/ip/HP-15-bs095ms-15-6-Touchscreen-Laptop-Intel-Core-i5-7200U-8GB-2TB-Win10/892770536'
p7
sS'price'
p8
S'N/A'
p9
sS'properties'
p10
(dp11
VRAM Memory
p12
V8 GB
p13
sVOperating System
p14
VMicrosoft Windows
p15
sVFeatures
p16
VIntel CoreTM i5-7200U, Hard drive: 2 TB 5400 rpm SATA, Video graphics: Intel HD Graphics 620, Operating system: Windows 10 Home 64, 8 GB DDR4-2133 SDRAM (1 x 8 GB)
p17
sVBrand
p18
VHP
p19
sVManufacturer Part Number
p20
VOEM
p21
sVHard Drive Capacity
p22
V2000 GB
p23
sVAssembled Product Dimensions (L x W x H)
p24
V47.24 x 39.37 x 42.32 Inches
p25
sVScreen Size
p26
V15.6\u005c"
p27
ssS'title'
p28
VHP 15-bs095ms 15.6" Touchscreen Laptop Intel Core i5-7200U 8GB 2TB Win10
p29
sb.