ccopy_reg
_reconstructor
p0
(c__main__
ProductRecord
p1
c__builtin__
object
p2
Ntp3
Rp4
(dp5
S'product_url'
p6
S'http://www.walmart.com/ip/Dell-13-3380-Chromebook-with-Intel-Celeron-3855U-4GB-16GB-SSD/284757167'
p7
sS'price'
p8
S'N/A'
p9
sS'properties'
p10
(dp11
VRAM Memory
p12
V4 GB
p13
sVOperating System
p14
VChrome
p15
sVColor Category
p16
VBlack
p17
sVLaptop Computer Type
p18
VTouchscreen
p19
sVBrand
p20
VDell
p21
sVManufacturer Part Number
p22
V6TXJ4
p23
sVHard Drive Capacity
p24
V16 GB
p25
sVProcessor Type
p26
VIntel Celeron
p27
sVScreen Size
p28
V13.3 in
p29
sVModel
p30
V6TXJ4
p31
sVCondition
p32
VNew
p33
sVManufacturer
p34
VDell
p35
ssS'title'
p36
VDell 13 3380 Chromebook with Intel Celeron 3855U, 4GB 16GB SSD
p37
sb.