ccopy_reg
_reconstructor
p0
(c__main__
ProductRecord
p1
c__builtin__
object
p2
Ntp3
Rp4
(dp5
S'product_url'
p6
S'http://www.walmart.com/ip/TOPSELLER-N22-N3060-1-6G-4GB-16GB-11-6IN-HD-EMMC-WL-BT-4-1/52556513'
p7
sS'price'
p8
S'N/A'
p9
sS'properties'
p10
(dp11
VRAM Memory
p12
V4 GB
p13
sVOperating System
p14
VChrome
p15
sVBrand
p16
VLenovo
p17
sVProcessor Speed
p18
V1.60 GHz
p19
sVManufacturer Part Number
p20
V80VH0001US
p21
sVMaximum RAM Supported
p22
V4 Gigabytes
p23
sVHard Drive Capacity
p24
V16 GB
p25
sVBattery Life
p26
V10 Hours
p27
sVAssembled Product Dimensions (L x W x H)
p28
V17.20 x 12.00 x 3.10 Inches
p29
sVModel
p30
V80VH0001US
p31
sVScreen Size
p32
V11.6"
p33
sVProcessor Type
p34
VIntel Celeron
p35
sVCondition
p36
VNew
p37
ssS'title'
p38
VTOPSELLER N22 N3060 1.6G 4GB 16GB 11.6IN HD EMMC WL BT 4.1
p39
sb.