ccopy_reg
_reconstructor
p0
(c__main__
ProductRecord
p1
c__builtin__
object
p2
Ntp3
Rp4
(dp5
S'product_url'
p6
S'http://www.walmart.com/ip/Acer-Chromebook-R-11-C738T-C5R6-11-6-Celeron-N3150-4-GB-RAM-32-GB-SSD-US/48896257'
p7
sS'price'
p8
S'N/A'
p9
sS'properties'
p10
(dp11
VRAM Memory
p12
V4 GB
p13
sVOperating System
p14
VChrome
p15
sVVideo Game Platform
p16
VPC
p17
sVBrand
p18
VAcer
p19
sVProcessor Speed
p20
V1.60 GHz, with a Max Turbo Speed of 2.08 GHz
p21
sVManufacturer Part Number
p22
VNX.G55AA.003
p23
sVHard Drive Capacity
p24
V32 GB
p25
sVAssembled Product Dimensions (L x W x H)
p26
V0.80 x 8.00 x 11.60 Inches
p27
sVModel
p28
VNX.G55AA.003
p29
sVScreen Size
p30
V11.6"
p31
sVProcessor Type
p32
VIntel Celeron
p33
sVCondition
p34
VNew
p35
ssS'title'
p36
VAcer Chromebook R 11 C738T-C5R6 - 11.6" - Celeron N3150 - 4 GB RAM - 32 GB SSD - US
p37
sb.