ccopy_reg
_reconstructor
p0
(c__main__
ProductRecord
p1
c__builtin__
object
p2
Ntp3
Rp4
(dp5
S'product_url'
p6
S'http://www.walmart.com/ip/Dell-XPS-9560-Notebook-with-Intel-i7-7700HQ-16GB-1TB-SSD/903175545'
p7
sS'price'
p8
S'N/A'
p9
sS'properties'
p10
(dp11
VRAM Memory
p12
V16 KB
p13
sVOperating System
p14
VWindows 10
p15
sVBrand
p16
VDell
p17
sVProcessor Speed
p18
V2.8 Hz
p19
sVManufacturer Part Number
p20
V78634
p21
sVHard Drive Capacity
p22
V1 KB
p23
sVAssembled Product Dimensions (L x W x H)
p24
V19.30 x 12.80 x 5.50 Inches
p25
sVModel
p26
V78634
p27
sVScreen Size
p28
V15.60 Inches
p29
sVProcessor Type
p30
VIntel i7-7700HQ
p31
sVCondition
p32
VNew
p33
ssS'title'
p34
VDell XPS 9560 Notebook with Intel i7-7700HQ, 16GB 1TB SSD
p35
sb.