ccopy_reg
_reconstructor
p0
(c__main__
ProductRecord
p1
c__builtin__
object
p2
Ntp3
Rp4
(dp5
S'product_url'
p6
S'http://www.walmart.com/ip/Dell-XPS-15-9560-15-6-Core-i7-7700HQ-16-GB-RAM-512-GB-SSD/107179405'
p7
sS'price'
p8
S'N/A'
p9
sS'properties'
p10
(dp11
VRAM Memory
p12
V16.00 GB
p13
sVOperating System
p14
VWindows 10 Pro (English)
p15
sVColor Category
p16
VSilver
p17
sVLaptop Computer Type
p18
VTouchscreen
p19
sVBrand
p20
VDell
p21
sVManufacturer Part Number
p22
V0C17R
p23
sVHard Drive Capacity
p24
V512.00 GB
p25
sVProcessor Core Type
p26
VQuad-core (4 Core)
p27
sVProcessor Type
p28
VIntel Core i7
p29
sVScreen Size
p30
V15.60 in
p31
sVModel
p32
VXPS95600C17R
p33
sVCondition
p34
VNew
p35
sVManufacturer
p36
VDell
p37
ssS'title'
p38
VDell XPS 15 9560 - 15.6" - Core i7 7700HQ - 16 GB RAM - 512 GB SSD
p39
sb.