ccopy_reg
_reconstructor
p0
(c__main__
ProductRecord
p1
c__builtin__
object
p2
Ntp3
Rp4
(dp5
S'product_url'
p6
S'http://www.walmart.com/ip/HP-Spectre-x360-13t-Quad-Core-8th-Gen-Intel-i7-8550U-16GB-RAM-512GB-PCIe-NVMe-SSD-IPS-micro-edge-Touchscreen-Corning-Gorilla-Windows-10-Ink-Bang-Oluf/759630989'
p7
sS'price'
p8
S'N/A'
p9
sS'properties'
p10
(dp11
VRAM Memory
p12
V32 GB
p13
sVOperating System
p14
VMicrosoft Windows
p15
sVBrand
p16
VMichaelElectronics2
p17
sVManufacturer Part Number
p18
VHP-13-02409-FHD-ME
p19
sVHard Drive Capacity
p20
V512 GB
p21
sVProcessor Type
p22
V8th Gen Intel i7-8550U Quad Core Processor (1.8 GHz, up to 4.0 GHz, 8 MB cache)
p23
sVScreen Size
p24
V13.3 in
p25
sVProcessor Speed
p26
V1.8 GHz
p27
ssS'title'
p28
VHP Spectre x360-13t Quad Core (8th Gen Intel i7-8550U, 16GB RAM, 512GB PCIe NVMe SSD, IPS micro-edge Touchscreen Corning Gorilla, Windows 10 Ink)Bang & Olufsen 13.3" 2-in-1 Convertible- Dark Ash
p29
sb.