ccopy_reg
_reconstructor
p0
(c__main__
ProductRecord
p1
c__builtin__
object
p2
Ntp3
Rp4
(dp5
S'product_url'
p6
S'http://www.walmart.com/ip/Manufacturer-Refurbished-Dell-Inspiron-I7459-7070BLK-23-8-Touch-AIO-Intel-i7-6700HQ-16GB-1TB-32GB-SSD-W10/221242787'
p7
sS'price'
p8
S'N/A'
p9
sS'properties'
p10
(dp11
VRAM Memory
p12
V16 GB
p13
sVOperating System
p14
VMicrosoft Windows
p15
sVBrand
p16
VDell
p17
sVManufacturer Part Number
p18
VI7459-7070BLK-RF
p19
sVModel
p20
VI7459-7070BLK-RF
p21
sVScreen Size
p22
V23.8\u005c"
p23
ssS'title'
p24
VManufacturer Refurbished - Dell Inspiron I7459-7070BLK 23.8 Touch AIO Intel i7-6700HQ 16GB 1TB 32GB SSD W10
p25
sb.