ccopy_reg
_reconstructor
p0
(c__main__
ProductRecord
p1
c__builtin__
object
p2
Ntp3
Rp4
(dp5
S'product_url'
p6
S'http://www.walmart.com/ip/Dell-Silver-13-3-XPS-XPS9350-4007SLV-Laptop-PC-Intel-Core-i5-6200U-Processor-8GB-Memory-touch-screen-256GB-Solid-State-Drive-Windows-10-Home/47431727'
p7
sS'price'
p8
S'N/A'
p9
sS'properties'
p10
(dp11
VRAM Memory
p12
V8 GB
p13
sVOperating System
p14
VWindows 10
p15
sVFeatures
p16
Vbattery life Indicator
p17
sVVideo Game Platform
p18
VPC
p19
sVBrand
p20
VDell
p21
sVProcessor Speed
p22
V2.80 GHz
p23
sVMaximum RAM Supported
p24
V16 GB
p25
sVHard Drive Capacity
p26
V256 GB
p27
sVBattery Life
p28
V18
p29
sVAssembled Product Dimensions (L x W x H)
p30
V11.98 x 0.60 x 7.88 Inches
p31
sVModel
p32
VXPS9350-4007SLV
p33
sVScreen Size
p34
V13.3 in
p35
sVProcessor Type
p36
VIntel Core i5
p37
sVCondition
p38
VNew
p39
sVmanufacturer_part_number
p40
VXPS9350-4007SLV
p41
ssS'title'
p42
VDell Silver 13.3" XPS XPS9350-4007SLV Laptop PC with Intel Core i5-6200U Processor, 8GB Memory, touch screen, 256GB Solid State Drive and Windows 10 Home
p43
sb.