ccopy_reg
_reconstructor
p0
(c__main__
ProductRecord
p1
c__builtin__
object
p2
Ntp3
Rp4
(dp5
S'product_url'
p6
S'http://www.walmart.com/ip/HP-15-aq210nr-ENVY-15-Intel-i7-8550U-8GB-RAM-Touch-Laptop-X7U52UA-ABA-Elite-Suite-17-Standard-Software-Bundle-Corel-WordPerfect-PC-Mover-PDF-Fusion-X/325723207'
p7
sS'price'
p8
S'N/A'
p9
sS'properties'
p10
(dp11
VRAM Memory
p12
V8 GB
p13
sVOperating System
p14
VMicrosoft Windows
p15
sVBrand
p16
VHP
p17
sVManufacturer Part Number
p18
VE1HP15AQ210NR
p19
sVAssembled Product Dimensions (L x W x H)
p20
V14.96 x 9.84 x 0.74 Inches
p21
sVScreen Size
p22
V15\u005c"
p23
ssS'title'
p24
VHP 15-aq210nr ENVY 15" Intel i7-8550U 8GB RAM Touch Laptop (X7U52UA#ABA)  + Elite Suite 17 Standard Software Bundle (Corel WordPerfect, PC Mover,PDF Fusion,X9) + 1 Year Extended Warranty
p25
sb.