ccopy_reg
_reconstructor
p0
(c__main__
ProductRecord
p1
c__builtin__
object
p2
Ntp3
Rp4
(dp5
S'product_url'
p6
S'http://www.walmart.com/ip/2018-Newest-Premium-HP-15-6-Touchscreen-HD-Laptop-Intel-Dual-Core-i3-7100U-Processor-2-40GHz-8GB-DDR4-RAM-1TB-HDD-HDMI-Bluetooth-Webcam-HD-Graphics-6/581946386'
p7
sS'price'
p8
S'N/A'
p9
sS'properties'
p10
(dp11
VRAM Memory
p12
V8.00 GB
p13
sVOperating System
p14
VWindows 10
p15
sVBrand
p16
VHP
p17
sVHard Drive Capacity
p18
V1.00 TB
p19
sVProcessor Type
p20
VIntel Core i3, Intel Core i3-7100u
p21
sVScreen Size
p22
V15.6 in
p23
sVProcessor Speed
p24
V2.40 GHz
p25
sVCondition
p26
VNew
p27
ssS'title'
p28
V2018 Newest Premium HP 15.6? Touchscreen HD Laptop, Intel Dual Core i3-7100U Processor 2.40GHz, 8GB DDR4 RAM, 1TB HDD, HDMI, Bluetooth, Webcam, HD Graphics 620, DVD-RW, 8-Hours Battery, Win 10
p29
sb.