ccopy_reg
_reconstructor
p0
(c__main__
ProductRecord
p1
c__builtin__
object
p2
Ntp3
Rp4
(dp5
S'product_url'
p6
S'http://www.walmart.com/ip/HP-ZBook-Studio-G4-Mobile-Workstation-15-6-Core-i7-7700HQ-16-GB-RAM-512-GB-SSD-US/508214218'
p7
sS'price'
p8
S'N/A'
p9
sS'properties'
p10
(dp11
sS'title'
p12
VHP ZBook Studio G4 Mobile Workstation - 15.6" - Core i7 7700HQ - 16 GB RAM - 512 GB SSD - US
p13
sb.