ccopy_reg
_reconstructor
p0
(c__main__
ProductRecord
p1
c__builtin__
object
p2
Ntp3
Rp4
(dp5
S'product_url'
p6
S'http://www.walmart.com/ip/2016-Newest-Model-HP-Envy-17-3-Full-HD-High-Performance-Touchscreen-Laptop-Computer-6th-Gen-i7-6700HQ-Quad-Core-Processor-16GB-RAM-1TB-HDD-DVD-Burner/193236532'
p7
sS'price'
p8
S'N/A'
p9
sS'properties'
p10
(dp11
VOperating System
p12
VMicrosoft Windows
p13
sVBrand
p14
VHP
p15
sVRAM Memory
p16
V16 GB
p17
sVScreen Size
p18
V17.3
p19
sVHard Drive Capacity
p20
V1000
p21
ssS'title'
p22
V2016 Newest Model HP Envy 17.3" Full HD High Performance Touchscreen Laptop Computer- 6th Gen i7-6700HQ Quad-Core Processor, 16GB RAM, 1TB HDD,DVD Burner, Backlit Keyboard, Wireless AC, Windows 10
p23
sb.