ccopy_reg
_reconstructor
p0
(c__main__
ProductRecord
p1
c__builtin__
object
p2
Ntp3
Rp4
(dp5
S'product_url'
p6
S'http://www.walmart.com/ip/HP-ENVY-15t-Touchsmart-i7-5500U-Dual-Core-Processor-4GB-NVIDIA-GeForce-GTX-850M-Graphics-16GB-Memory-1TB-HDD-Blu-ray-writer-SuperMulti-DVD-burner-15-/137726732'
p7
sS'price'
p8
S'N/A'
p9
sS'properties'
p10
(dp11
VBrand
p12
VHP
p13
ssS'title'
p14
VHP ENVY - 15t Touchsmart/ i7-5500U Dual Core Processor/4GB NVIDIA GeForce GTX 850M Graphics/16GB Memory/1TB HDD/Blu-ray writer and SuperMulti DVD burner/15.6-inch Full HD (1920x1080) Touchscreen/Windo
p15
sb.