ccopy_reg
_reconstructor
p0
(c__main__
ProductRecord
p1
c__builtin__
object
p2
Ntp3
Rp4
(dp5
S'product_url'
p6
S'http://www.walmart.com/ip/Refurbished-Dell-i3168-3270RED-11-6-HD-2-in-1-Laptop-Intel-1-6-GHz-4GB-500-GB-HDD-Red/450527610'
p7
sS'price'
p8
S'N/A'
p9
sS'properties'
p10
(dp11
VRAM Memory
p12
V4 GB
p13
sVOperating System
p14
VMicrosoft Windows
p15
sVFeatures
p16
VNo features description available
p17
sVBrand
p18
VDell
p19
sVManufacturer Part Number
p20
Vi3168-3270RED
p21
sVHard Drive Capacity
p22
V500 GB
p23
sVAssembled Product Dimensions (L x W x H)
p24
V11.50 x 7.80 x 0.80 Inches
p25
sVModel
p26
VVIPRB-i3168-3270RED
p27
sVScreen Size
p28
V11.6\u005c"
p29
sVCondition
p30
VRefurbished
p31
ssS'title'
p32
VRefurbished Dell i3168-3270RED 11.6" HD 2-in-1 Laptop Intel 1.6 GHz 4GB 500 GB HDD Red
p33
sb.