ccopy_reg
_reconstructor
p0
(c__main__
ProductRecord
p1
c__builtin__
object
p2
Ntp3
Rp4
(dp5
S'product_url'
p6
S'http://www.walmart.com/ip/Manufacturer-Refurbished-HP-ENVY-M6-AR004DX-15-6-Touch-Laptop-AMD-FX-9800P-2-7GHz-8GB-1TB-Windows-10/323551941'
p7
sS'price'
p8
S'N/A'
p9
sS'properties'
p10
(dp11
VBrand
p12
VHP
p13
sVModel
p14
VM6-AR004DX-RF
p15
sVManufacturer Part Number
p16
VM6-AR004DX-RF
p17
ssS'title'
p18
VManufacturer Refurbished - HP ENVY M6-AR004DX 15.6" Touch Laptop AMD FX-9800P 2.7GHz 8GB 1TB Windows 10
p19
sb.