ccopy_reg
_reconstructor
p0
(c__main__
ProductRecord
p1
c__builtin__
object
p2
Ntp3
Rp4
(dp5
S'product_url'
p6
S'http://www.walmart.com/ip/HP-Premium-Flagship-Laptop-15-6-Touchscreen-Intel-Core-i3-Dual-core-2-40-GHz-8GB-RAM-2TB-HDD-Intel-HD-DVDRW-WLAN-Webcam-USB-3-0-HDMI-Windows-10-Ameth/323694298'
p7
sS'price'
p8
S'N/A'
p9
sS'properties'
p10
(dp11
VRAM Memory
p12
V8.00 GB
p13
sVOperating System
p14
VWindows 10
p15
sVBrand
p16
VHP
p17
sVHard Drive Capacity
p18
V2.00 TB
p19
sVProcessor Type
p20
VIntel Core i3 Dual-core
p21
sVScreen Size
p22
V15.60 in
p23
sVProcessor Speed
p24
V2.40 GHz
p25
sVCondition
p26
VNew
p27
ssS'title'
p28
VHP Premium Flagship Laptop 15.6" Touchscreen Intel Core i3 Dual-core 2.40 GHz, 8GB RAM, 2TB HDD, Intel HD, DVDRW, WLAN, Webcam, USB 3.0, HDMI, Windows 10 - Amethyst Purple
p29
sb.