ccopy_reg
_reconstructor
p0
(c__main__
ProductRecord
p1
c__builtin__
object
p2
Ntp3
Rp4
(dp5
S'product_url'
p6
S'http://www.walmart.com/ip/Spin-5-SP513-52N-5621-13-3-Core-i5-8250U-8-GB-RAM-256-GB-SSD-Touch-Screen-Convertable-Notebook/751206055'
p7
sS'price'
p8
S'N/A'
p9
sS'properties'
p10
(dp11
VRAM Memory
p12
V8.00 GB
p13
sVOperating System
p14
VWindows 10
p15
sVFeatures
p16
V8GB 256GB SSD 13.3IN 11AC W10H
p17
sVBrand
p18
VAcer
p19
sVProcessor Speed
p20
V1.60 GHz
p21
sVManufacturer Part Number
p22
VNX.GR7AA.002
p23
sVMaximum RAM Supported
p24
V16 Gigabytes
p25
sVHard Drive Capacity
p26
V256.00 GB
p27
sVModel
p28
VSP51352N5621
p29
sVScreen Size
p30
V13.30 in
p31
sVProcessor Type
p32
VIntel Core i5
p33
ssS'title'
p34
VSpin 5 SP513-52N-5621 - 13.3" - Core i5 8250U - 8 GB RAM - 256 GB SSD Touch Screen Convertable Notebook
p35
sb.