ccopy_reg
_reconstructor
p0
(c__main__
ProductRecord
p1
c__builtin__
object
p2
Ntp3
Rp4
(dp5
S'product_url'
p6
S'http://www.walmart.com/ip/Manufacturer-Refurbished-HP-Pavilion-x360-14m-ba013dx-14-Touch-Laptop-Intel-i3-7100U-2-4GHz-6GB-500GB-W10/289406564'
p7
sS'price'
p8
S'N/A'
p9
sS'properties'
p10
(dp11
VRAM Memory
p12
V6 GB
p13
sVOperating System
p14
VMicrosoft Windows
p15
sVBrand
p16
VHP
p17
sVManufacturer Part Number
p18
V14m-ba013dx-RF
p19
sVHard Drive Capacity
p20
V500 GB
p21
sVModel
p22
V14m-ba013dx-RF
p23
sVScreen Size
p24
V14\u005c"
p25
sVCondition
p26
VRefurbished
p27
ssS'title'
p28
VManufacturer Refurbished - HP Pavilion x360 14m-ba013dx 14"Touch Laptop Intel i3-7100U 2.4GHz 6GB 500GB W10
p29
sb.