ccopy_reg
_reconstructor
p0
(c__main__
ProductRecord
p1
c__builtin__
object
p2
Ntp3
Rp4
(dp5
S'product_url'
p6
S'http://www.walmart.com/ip/Samsung-ATIV-Book-9-Spin-940X3L-Flip-design-Core-i7-6500U-2-5-GHz-Windows-10-Home-8-GB-RAM-256-GB-SSD-13-3-touchscreen-3200-x-1800-QHD-HD-Graphics-52/183459092'
p7
sS'price'
p8
S'N/A'
p9
sS'properties'
p10
(dp11
VRAM Memory
p12
V8 GB
p13
sVOperating System
p14
VMicrosoft Windows, Windows 10
p15
sVBrand
p16
VSamsung
p17
sVProcessor Speed
p18
V2.5 GHz
p19
sVManufacturer Part Number
p20
VNP940X3L-K01US
p21
sVMaximum RAM Supported
p22
V8 GB
p23
sVBattery Life
p24
V7.3 hours
p25
sVAssembled Product Dimensions (L x W x H)
p26
V8.70 x 12.40 x 0.60 Inches
p27
sVModel
p28
V940X3L
p29
sVScreen Size
p30
V13.3"
p31
sVProcessor Type
p32
VIntel Core i7
p33
sVCondition
p34
VNew
p35
ssS'title'
p36
VSamsung ATIV Book 9 Spin 940X3L - Flip design - Core i7 6500U / 2.5 GHz - Windows 10 Home - 8 GB RAM - 256 GB SSD - 13.3" touchscreen 3200 x 1800 (QHD+) - HD Graphics 520 - Wi-Fi, Bluetooth - pure black
p37
sb.