ccopy_reg
_reconstructor
p0
(c__main__
ProductRecord
p1
c__builtin__
object
p2
Ntp3
Rp4
(dp5
S'product_url'
p6
S'http://www.walmart.com/ip/Manufacturer-Refurbished-HP-x360-11-ae030nr-11-6-Touch-Screen-Laptop-N3350-1-10GHz-4GB-16GB-Chrome-OS/612316613'
p7
sS'price'
p8
S'N/A'
p9
sS'properties'
p10
(dp11
VBrand
p12
VHP
p13
sVScreen Size
p14
V11.6\u005c"
p15
sVModel
p16
V11-ae030nr-RF
p17
sVManufacturer Part Number
p18
V11-ae030nr-RF
p19
ssS'title'
p20
VManufacturer Refurbished - HP x360 11-ae030nr 11.6" Touch Screen Laptop N3350 1.10GHz 4GB 16GB Chrome OS
p21
sb.