ccopy_reg
_reconstructor
p0
(c__main__
ProductRecord
p1
c__builtin__
object
p2
Ntp3
Rp4
(dp5
S'product_url'
p6
S'http://www.walmart.com/ip/LG-gram-15-6-FHD-Ultra-light-Notebook-Intel-i5-7200U-8GB-RAM-256GB-SSD/516673161'
p7
sS'price'
p8
S'N/A'
p9
sS'properties'
p10
(dp11
VAssembled Product Dimensions (L x W x H)
p12
V14.10 x 9.00 x 0.60 Inches
p13
sVBrand
p14
VLG
p15
sVManufacturer Part Number
p16
V15Z970-U.AAS5U1
p17
sVHard Drive Capacity
p18
V256
p19
sVProcessor Type
p20
VIntel Core i5
p21
sVModel
p22
V15Z970-U.AAS5U1
p23
sVCondition
p24
VNew
p25
ssS'title'
p26
VLG gram 15.6" FHD Ultra-light Notebook Intel i5-7200U, 8GB RAM, 256GB SSD
p27
sb.