ccopy_reg
_reconstructor
p0
(c__main__
ProductRecord
p1
c__builtin__
object
p2
Ntp3
Rp4
(dp5
S'product_url'
p6
S'http://www.walmart.com/ip/Dell-XPS-13-9360-Notebook-with-Intel-i7-7560U-16GB-512GB-SSD/921686935'
p7
sS'price'
p8
S'N/A'
p9
sS'properties'
p10
(dp11
VRAM Memory
p12
V16.00 GB
p13
sVOperating System
p14
VWindows 10
p15
sVBrand
p16
VDell
p17
sVProcessor Speed
p18
V2.40 GHz
p19
sVManufacturer Part Number
p20
VXPS9360-7697SLV
p21
sVHard Drive Capacity
p22
V512.00 GB
p23
sVBattery Life
p24
V0 h
p25
sVAssembled Product Dimensions (L x W x H)
p26
V12.00 x 12.00 x 12.00 Inches
p27
sVModel
p28
VXPS9360-7697SLV
p29
sVScreen Size
p30
V13.30 in
p31
sVProcessor Type
p32
VIntel Core i7
p33
sVCondition
p34
VNew
p35
ssS'title'
p36
VDell XPS 13-9360 Notebook with Intel i7-7560U, 16GB 512GB SSD
p37
sb.