ccopy_reg
_reconstructor
p0
(c__main__
ProductRecord
p1
c__builtin__
object
p2
Ntp3
Rp4
(dp5
S'product_url'
p6
S'http://www.walmart.com/ip/HP-Flagship-High-Performance-15-6-HD-Touchscreen-Laptop-PC-Premium-Flagship-Intel-Quad-Core-Pentium-N3540-Processor-4GB-RAM-500GB-HDD-SuperMulti-DVD-/402957297'
p7
sS'price'
p8
S'N/A'
p9
sS'properties'
p10
(dp11
VRAM Memory
p12
V4.00 GB
p13
sVOperating System
p14
VWindows 10
p15
sVBrand
p16
VHP
p17
sVHard Drive Capacity
p18
V500.00 GB
p19
sVProcessor Type
p20
VIntel Pentium Processor N3540
p21
sVScreen Size
p22
V15.6\u005c"
p23
sVProcessor Speed
p24
V2.16 GHz
p25
ssS'title'
p26
VHP Flagship High Performance 15.6" HD Touchscreen Laptop PC, Premium Flagship Intel Quad-Core Pentium N3540 Processor, 4GB RAM, 500GB HDD, SuperMulti DVD Burner, Webcam, HDMI, Wi-Fi, USB 3.0, Windows
p27
sb.