ccopy_reg
_reconstructor
p0
(c__main__
ProductRecord
p1
c__builtin__
object
p2
Ntp3
Rp4
(dp5
S'product_url'
p6
S'http://www.walmart.com/ip/Dell-Inspiron-i5559-15-6-Inch-FHD-Touchscreen-Laptop-Intel-RealSense-3D-Camera-Intel-Core-i5-8-GB-RAM-1-TB-HDD/183716136'
p7
sS'price'
p8
S'N/A'
p9
sS'properties'
p10
(dp11
VRAM Memory
p12
V8 GB
p13
sVOperating System
p14
VWindows 10
p15
sVFeatures
p16
V8 GB DDR3L SDRAM, Windows 10 Operating System; Silver Matte Chassis, 15.6 Inch FHD (1920 x 1080 pixels) LED-lit Truelife Touchscreen, 1 TB HDD Storage; Tray load DVD Drive (Reads and Writes to DVD/CD), Intel Core i5-6200U Processor (2.30GHz 1866MHz 3MB)
p17
sVBrand
p18
VDell
p19
sVManufacturer Part Number
p20
Vi5559-4682SLV
p21
sVHard Drive Capacity
p22
V1000
p23
sVProcessor Type
p24
Vi5-6200U
p25
sVCondition
p26
VNew
p27
ssS'title'
p28
VDell Inspiron i5559 15.6 Inch FHD Touchscreen Laptop (Intel RealSense 3D Camera, Intel Core i5, 8 GB RAM, 1 TB HDD)
p29
sb.