ccopy_reg
_reconstructor
p0
(c__main__
ProductRecord
p1
c__builtin__
object
p2
Ntp3
Rp4
(dp5
S'product_url'
p6
S'http://www.walmart.com/ip/Refurbished-Dell-Inspiron-i5559-7080SLV-15-6-Inch-FHD-Touchscreen-Laptop-with-Intel-RealSense-6th-Generation-Intel-Core-i7-8-GB-RAM-1-TB/150093487'
p7
sS'price'
p8
S'N/A'
p9
sS'properties'
p10
(dp11
VBrand
p12
VDell
p13
sVOperating System
p14
VMicrosoft Windows
p15
sVHard Drive Capacity
p16
V1000
p17
sVmanufacturer_part_number
p18
Vi5559-7080slv
p19
ssS'title'
p20
VRefurbished Dell Inspiron i5559-7080SLV 15.6 Inch FHD Touchscreen Laptop with Intel RealSense (6th Generation Intel Core i7, 8 GB RAM, 1 TB
p21
sb.