ccopy_reg
_reconstructor
p0
(c__main__
ProductRecord
p1
c__builtin__
object
p2
Ntp3
Rp4
(dp5
S'product_url'
p6
S'http://www.walmart.com/ip/SP113-31-P0Y1-N4200-1-1G-4GB-128GB-SSD-13-3IN-11AC-BT4-1-W10H/873189433'
p7
sS'price'
p8
S'N/A'
p9
sS'properties'
p10
(dp11
VRAM Memory
p12
V4 Gigabytes
p13
sVOperating System
p14
VWindows 10
p15
sVFeatures
p16
V128GB SSD 13.3IN 11AC BT4.1 W10H
p17
sVVideo Game Platform
p18
VSee Description
p19
sVBrand
p20
VACER AMERICA - NOTEBOOKS
p21
sVProcessor Speed
p22
V1.1 Gigahertz
p23
sVManufacturer Part Number
p24
VNX.GL7AA.001
p25
sVMaximum RAM Supported
p26
V4 Gigabytes
p27
sVHard Drive Capacity
p28
V128 Gigabytes
p29
sVBattery Life
p30
V10 Hours
p31
sVAssembled Product Dimensions (L x W x H)
p32
V9.00 x 12.90 x 0.80 Inches
p33
sVModel
p34
VNX.GL7AA.001
p35
sVScreen Size
p36
V13.30 Inches
p37
sVProcessor Type
p38
VIntel N4200
p39
sVCondition
p40
VNew
p41
ssS'title'
p42
VSP113-31-P0Y1 N4200 1.1G 4GB 128GB SSD 13.3IN 11AC BT4.1 W10H
p43
sb.