ccopy_reg
_reconstructor
p0
(c__main__
ProductRecord
p1
c__builtin__
object
p2
Ntp3
Rp4
(dp5
S'product_url'
p6
S'http://www.walmart.com/ip/Acer-SW312-31-P4G1-12-2-Touchscreen-LCD-Pentium-N4200-4-GB-64-GB-Flash-Memory-Windows-10-Home-1920-x-1200-Iron-Gray-2-in-1-Notebook/573865765'
p7
sS'price'
p8
S'N/A'
p9
sS'properties'
p10
(dp11
VRAM Memory
p12
V4.00 GB
p13
sVOperating System
p14
VWindows 10
p15
sVBrand
p16
VAcer
p17
sVProcessor Speed
p18
V1.10 GHz
p19
sVManufacturer Part Number
p20
VNT.LDRAA.004
p21
sVHard Drive Capacity
p22
V64.00 GB
p23
sVBattery Life
p24
V8.00 h
p25
sVAssembled Product Dimensions (L x W x H)
p26
V15.00 x 10.00 x 3.00 Inches
p27
sVModel
p28
VSW31231P4G1
p29
sVScreen Size
p30
V12.20 in
p31
sVProcessor Type
p32
VPentium N4200
p33
sVCondition
p34
VNew
p35
ssS'title'
p36
VAcer SW312-31-P4G1 12.2" Touchscreen LCD - Pentium N4200 4 GB 64 GB Flash Memory - Windows 10 Home - 1920 x 1200 - Iron Gray 2 in 1 Notebook
p37
sb.