ccopy_reg
_reconstructor
p0
(c__main__
ProductRecord
p1
c__builtin__
object
p2
Ntp3
Rp4
(dp5
S'product_url'
p6
S'http://www.walmart.com/ip/Acer-Aspire-R-13-13-3-Notebook-w-Intel-i5-6200U-8GB-RAM-256GB-SSD/120476402'
p7
sS'price'
p8
S'N/A'
p9
sS'properties'
p10
(dp11
VRAM Memory
p12
V8 Gigabytes
p13
sVOperating System
p14
VWindows 10
p15
sVVideo Game Platform
p16
VSee Description
p17
sVBrand
p18
VAcer
p19
sVProcessor Speed
p20
V2.3 Gigahertz
p21
sVManufacturer Part Number
p22
VNX.G8SAA.003
p23
sVHard Drive Capacity
p24
V256 Gigabytes
p25
sVBattery Life
p26
V10 Hours
p27
sVModel
p28
VNX.G8SAA.003
p29
sVScreen Size
p30
V13.30 in
p31
sVProcessor Type
p32
VIntel i5-6200U
p33
sVCondition
p34
VNew
p35
ssS'title'
p36
VAcer Aspire R 13 13.3" Notebook w/ Intel i5-6200U, 8GB RAM & 256GB SSD
p37
sb.