ccopy_reg
_reconstructor
p0
(c__main__
ProductRecord
p1
c__builtin__
object
p2
Ntp3
Rp4
(dp5
S'product_url'
p6
S'http://www.walmart.com/ip/Dell-Silver-13-3-XPS-QHD-Laptop-PC-with-Intel-Core-i7-6560U-Processor-16GB-Memory-touch-screen-512GB-Solid-State-Drive-and-Windows-10-Home/49455389'
p7
sS'price'
p8
S'N/A'
p9
sS'properties'
p10
(dp11
VRAM Memory
p12
V16 GB
p13
sVOperating System
p14
VWindows 10
p15
sVColor Category
p16
VSilver
p17
sVVideo Game Platform
p18
VPC
p19
sVBrand
p20
VDell
p21
sVManufacturer Part Number
p22
VXPS9350-8008SLV
p23
sVLaptop Computer Type
p24
VPC Laptops
p25
sVProcessor Type
p26
VIntel Core i7
p27
sVScreen Size
p28
V13.3"
p29
sVModel
p30
VXPS9350-8008SLV
p31
sVCondition
p32
VNew
p33
sVManufacturer
p34
VDell Inc
p35
ssS'title'
p36
VDell Silver 13.3" XPS QHD+ Laptop PC with Intel Core i7-6560U Processor, 16GB Memory, touch screen, 512GB Solid State Drive and Windows 10 Home
p37
sb.