ccopy_reg
_reconstructor
p0
(c__main__
ProductRecord
p1
c__builtin__
object
p2
Ntp3
Rp4
(dp5
S'product_url'
p6
S'http://www.walmart.com/ip/Dell-Inspiron-13-2-in-1-Laptop-Core-i7-8550U-256GB-SSD-8GB-RAM-13-3-Full-HD-Touch-Display/652335863'
p7
sS'price'
p8
S'N/A'
p9
sS'properties'
p10
(dp11
VRAM Memory
p12
V8 GB
p13
sVOperating System
p14
VWindows 10
p15
sVFeatures
p16
VBacklit Keyboard / 802.11ac WiFi / Bluetooth 4.1 / 720p HD webcam, 256GB Solid State Drive / 8GB RAM, Windows 10 / 3-in-1 media card reader, 8th Generation Intel Core i7-8550U Processor (up to 4.00 GHz), 13.3 in Full HD IPS TrueLife LED-backlit touchscreen (1920 x 1080), 10-finger multi-touch support
p17
sVBrand
p18
VDell
p19
sVProcessor Speed
p20
V1800 MHz
p21
sVManufacturer Part Number
p22
Vi5379-7302GRY-PUS
p23
sVHard Drive Capacity
p24
V256 GB
p25
sVModel
p26
VInspiron 13
p27
sVScreen Size
p28
V13.3 in
p29
sVProcessor Type
p30
VIntel Core i7
p31
ssS'title'
p32
VDell Inspiron 13 2-in-1 Laptop: Core i7-8550U, 256GB SSD, 8GB RAM, 13.3" Full HD Touch Display
p33
sb.