ccopy_reg
_reconstructor
p0
(c__main__
ProductRecord
p1
c__builtin__
object
p2
Ntp3
Rp4
(dp5
S'product_url'
p6
S'http://www.walmart.com/ip/Acer-Spin-3-SP315-51-51L2-15-6-Core-i5-7200U-8-GB-RAM-256-GB-SSD-US-International/289178688'
p7
sS'price'
p8
S'N/A'
p9
sS'properties'
p10
(dp11
VRAM Memory
p12
V8 Gigabytes
p13
sVOperating System
p14
VWindows 10
p15
sVFeatures
p16
VWINDOWS 10 HOME (64-BIT), INTEL CORE I5-7200U, 8GB (4/4) DDR4, 11.6 (1366 X 768)
p17
sVBrand
p18
VAcer
p19
sVProcessor Speed
p20
V2.5 Gigahertz
p21
sVManufacturer Part Number
p22
VNX.GK9AA.013
p23
sVMaximum RAM Supported
p24
V12 Gigabytes
p25
sVHard Drive Capacity
p26
V256 Gigabytes
p27
sVBattery Life
p28
V9 Hours
p29
sVAssembled Product Dimensions (L x W x H)
p30
V5.00 x 5.00 x 5.00 Inches
p31
sVModel
p32
VNX.GK9AA.013
p33
sVScreen Size
p34
V15.60 Inches
p35
sVProcessor Type
p36
VIntel i5-7200U
p37
sVCondition
p38
VNew
p39
ssS'title'
p40
VAcer Spin 3 SP315-51-51L2 - 15.6" - Core i5 7200U - 8 GB RAM - 256 GB SSD - US International
p41
sb.