ccopy_reg
_reconstructor
p0
(c__main__
ProductRecord
p1
c__builtin__
object
p2
Ntp3
Rp4
(dp5
S'product_url'
p6
S'http://www.walmart.com/ip/HP-Envy-17t-Premium-17-3-inch-Touch-Laptop-Intel-8th-Gen-i7-Quad-Core-16GB-RAM-4TB-SSD-Solid-State-Drive-NVIDIA-GeForce-MX150-17-3-FHD-1920-x-1080-To/976193002'
p7
sS'price'
p8
S'N/A'
p9
sS'properties'
p10
(dp11
VRAM Memory
p12
V16 GB
p13
sVOperating System
p14
VMicrosoft Windows
p15
sVBrand
p16
VMichaelElectronics2
p17
sVManufacturer Part Number
p18
VHP-17-02401-FHD-ME15
p19
sVHard Drive Capacity
p20
V4 TB
p21
sVProcessor Type
p22
V8th Gen Intel Core i7-8550U (1.8 GHz, up to 4 GHz, 8 MB cache, 4 cores)
p23
sVScreen Size
p24
V17.3 in
p25
sVProcessor Speed
p26
V1.8 GHz
p27
ssS'title'
p28
VHP Envy 17t Premium 17.3 inch Touch Laptop (Intel 8th Gen i7 Quad Core, 16GB RAM, 4TB SSD (Solid State Drive), NVIDIA GeForce MX150, 17.3" FHD (1920 x 1080) Touchscreen, DVD, Win 10 Pro)
p29
sb.