ccopy_reg
_reconstructor
p0
(c__main__
ProductRecord
p1
c__builtin__
object
p2
Ntp3
Rp4
(dp5
S'product_url'
p6
S'http://www.walmart.com/ip/Manufacturer-Refurbished-HP-15-ba082nr-15-6-Touch-Lapotp-AMD-A8-7410-2-2GHz-4GB-1TB-Windows-10/124664223'
p7
sS'price'
p8
S'N/A'
p9
sS'properties'
p10
(dp11
VBrand
p12
VHP
p13
sVModel
p14
V15-ba082nr-RF
p15
sVCondition
p16
VRefurbished
p17
sVManufacturer Part Number
p18
V15-ba082nr-RF
p19
ssS'title'
p20
VManufacturer Refurbished - HP 15-ba082nr 15.6" Touch Lapotp AMD A8-7410 2.2GHz 4GB 1TB Windows 10
p21
sb.