ccopy_reg
_reconstructor
p0
(c__main__
ProductRecord
p1
c__builtin__
object
p2
Ntp3
Rp4
(dp5
S'product_url'
p6
S'http://www.walmart.com/ip/Dell-XPS9350-8009SLV-Laptop-PC-Intel-Core-i7-6560U-2-2-GHz-Refurbished/838213429'
p7
sS'price'
p8
S'N/A'
p9
sS'properties'
p10
(dp11
VRAM Memory
p12
V16 GB
p13
sVOperating System
p14
VWindows 10 Home 64-bit Edition
p15
sVBrand
p16
VDell
p17
sVProcessor Speed
p18
V2.2 GHz
p19
sVHard Drive Capacity
p20
V512 GB
p21
sVModel
p22
VXPS9350-8009SLV
p23
sVScreen Size
p24
V13.3 in
p25
sVProcessor Type
p26
VIntel Core i7
p27
sVCondition
p28
VRefurbished
p29
sVmanufacturer_part_number
p30
Vxps9350-8009slv
p31
ssS'title'
p32
VDell XPS9350-8009SLV Laptop PC - Intel Core i7-6560U 2.2 GHz (Refurbished)
p33
sb.