ccopy_reg
_reconstructor
p0
(c__main__
ProductRecord
p1
c__builtin__
object
p2
Ntp3
Rp4
(dp5
S'product_url'
p6
S'http://www.walmart.com/ip/Microsoft-Surface-Pro-12-3-Core-i5-7300U-8-GB-RAM-256-GB-SSD/219063523'
p7
sS'price'
p8
S'N/A'
p9
sS'properties'
p10
(dp11
VRAM Memory
p12
V8 GB
p13
sVOperating System
p14
VWindows 10
p15
sVFeatures
p16
VMicrosoft SPro 256GB i5 8GB Comm M1796 SC English,Canadian French US/Canada 1 License
p17
sVBrand
p18
VMicrosoft
p19
sVManufacturer Part Number
p20
VFJY-00001
p21
sVAssembled Product Dimensions (L x W x H)
p22
V12.00 x 12.00 x 12.00 Inches
p23
sVModel
p24
VFJY-00001
p25
sVScreen Size
p26
V12.3 Inches
p27
sVProcessor Type
p28
VIntel Core i5
p29
sVCondition
p30
VNew
p31
ssS'title'
p32
VMicrosoft Surface Pro - 12.3" - Core i5 7300U - 8 GB RAM - 256 GB SSD
p33
sb.