ccopy_reg
_reconstructor
p0
(c__main__
ProductRecord
p1
c__builtin__
object
p2
Ntp3
Rp4
(dp5
S'product_url'
p6
S'http://www.walmart.com/ip/Asus-C213SA-YS02-S-Dark-Grey-Chromebook-Celeron-N3350-4GB/669425257'
p7
sS'price'
p8
S'N/A'
p9
sS'properties'
p10
(dp11
VRAM Memory
p12
V4.00 GB
p13
sVOperating System
p14
VChrome OS
p15
sVColor Category
p16
VGray
p17
sVVideo Game Platform
p18
VSee Description
p19
sVBrand
p20
VASUS
p21
sVManufacturer Part Number
p22
VC213SA-YS02-S
p23
sVWireless Technology
p24
V802.11 ac
p25
sVHard Drive Capacity
p26
V32.00 GB
p27
sVLaptop Computer Type
p28
VTouchscreen
p29
sVProcessor Core Type
p30
VDual-core (2 Core)
p31
sVProcessor Type
p32
VIntel Dual-Core Celeron N3350
p33
sVScreen Size
p34
V11.60 in
p35
sVModel
p36
VC213SAYS02S
p37
sVCondition
p38
VNew
p39
sVManufacturer
p40
VAsus
p41
ssS'title'
p42
VAsus C213SA-YS02-S Dark Grey Chromebook, Celeron N3350, 4GB
p43
sb.