ccopy_reg
_reconstructor
p0
(c__main__
ProductRecord
p1
c__builtin__
object
p2
Ntp3
Rp4
(dp5
S'product_url'
p6
S'http://www.walmart.com/ip/Microsoft-Surface-Book-2-Intel-Core-i7-16GB-RAM-1TB-15/672294248'
p7
sS'price'
p8
S'N/A'
p9
sS'properties'
p10
(dp11
VRAM Memory
p12
V16 Gigabytes
p13
sVOperating System
p14
VWindows 10 Pro Creators Update
p15
sVFeatures
p16
VFour versatile modes of use and new USB-C port, Enhanced Graphics performance with NVIDIA GeForce GTX 1060 discrete GPU w/6GB GDDR5 Graphics Memory, The fastest Surface Book yet, with 4x more power, Vibrant PixelSense Display: now available with a new 15" touchscreen, Microsoft Surface Book 2 Features a 8th generation Intel Quad Core i7 Processor, 1 TB of storage, 16 GB RAM, and up to 17 hours of video playback
p17
sVBrand
p18
VMicrosoft
p19
sVProcessor Speed
p20
V0 Gigahertz
p21
sVManufacturer Part Number
p22
VFVH-00001
p23
sVHard Drive Capacity
p24
V1 Terabytes
p25
sVBattery Life
p26
V0 h
p27
sVAssembled Product Dimensions (L x W x H)
p28
V19.00 x 3.00 x 12.00 Inches
p29
sVModel
p30
VFVH-00001
p31
sVScreen Size
p32
V15.00 Inches
p33
sVProcessor Type
p34
VIntel i7-8650U
p35
sVCondition
p36
VNew
p37
ssS'title'
p38
VMicrosoft Surface Book 2 (Intel Core i7, 16GB RAM, 1TB) - 15"
p39
sb.