ccopy_reg
_reconstructor
p0
(c__main__
ProductRecord
p1
c__builtin__
object
p2
Ntp3
Rp4
(dp5
S'product_url'
p6
S'http://www.walmart.com/ip/Dell-XPS-13-9360-13-3-Touchscreen-Notebook-w-Intel-i5-8GB-RAM-128GB-SSD/313535902'
p7
sS'price'
p8
S'N/A'
p9
sS'properties'
p10
(dp11
VRAM Memory
p12
V8 Gigabytes
p13
sVOperating System
p14
VWindows 10
p15
sVColor Category
p16
VSilver
p17
sVLaptop Computer Type
p18
VPC Laptops
p19
sVBrand
p20
VDell
p21
sVManufacturer Part Number
p22
VXPS9360-1718SLV
p23
sVHard Drive Capacity
p24
V128 Gigabytes
p25
sVProcessor Core Type
p26
VDual-core (2 Core)
p27
sVProcessor Type
p28
VIntel i5-7200U
p29
sVScreen Size
p30
V13.30 Inches
p31
sVModel
p32
VXPS9360-1718SLV
p33
sVCondition
p34
VNew
p35
sVManufacturer
p36
VDell Consumer
p37
ssS'title'
p38
VDell XPS 13-9360 13.3" Touchscreen Notebook w/ Intel i5, 8GB RAM & 128GB SSD
p39
sb.