ccopy_reg
_reconstructor
p0
(c__main__
ProductRecord
p1
c__builtin__
object
p2
Ntp3
Rp4
(dp5
S'product_url'
p6
S'http://www.walmart.com/ip/Asus-GL702VM-DS74-Intel-Core-I7-7700Hq-2-8Ghz/348217164'
p7
sS'price'
p8
S'N/A'
p9
sS'properties'
p10
(dp11
VRAM Memory
p12
V0 Gigabytes
p13
sVOperating System
p14
VUnknown
p15
sVVideo Game Platform
p16
VPC
p17
sVBrand
p18
VASUS
p19
sVProcessor Speed
p20
V0 Gigahertz
p21
sVManufacturer Part Number
p22
VGL702VM-DS74
p23
sVHard Drive Capacity
p24
V0 Gigabytes
p25
sVModel
p26
VGL702VMDS74
p27
sVScreen Size
p28
V17.3"
p29
sVProcessor Type
p30
VIntel Core i7-7700HQ 2.8GHz (Turbo up to 3.8GHz)
p31
sVCondition
p32
VNew
p33
ssS'title'
p34
VAsus GL702VM-DS74 Intel Core I7-7700Hq 2.8Ghz
p35
sb.