ccopy_reg
_reconstructor
p0
(c__main__
ProductRecord
p1
c__builtin__
object
p2
Ntp3
Rp4
(dp5
S'product_url'
p6
S'http://www.walmart.com/ip/Lenovo-IdeaPad-320-15IKB-80XL-15-6-FHD-Laptop-i7-7500U-16GB-2TB-Win10/291030741'
p7
sS'price'
p8
S'N/A'
p9
sS'properties'
p10
(dp11
VRAM Memory
p12
V0 GB
p13
sVOperating System
p14
VMicrosoft Windows, Windows 10
p15
sVFeatures
p16
VLenovo 320-15IKB 80XL2-cell batteryPower adapter
p17
sVBrand
p18
VLenovo
p19
sVProcessor Speed
p20
V0 GHz
p21
sVManufacturer Part Number
p22
V80XL03J1US
p23
sVHard Drive Capacity
p24
V2 TB
p25
sVBattery Life
p26
V0 h
p27
sVModel
p28
V80XL03J1US
p29
sVScreen Size
p30
V15.6"
p31
sVProcessor Type
p32
VIntel Core i7
p33
sVCondition
p34
VNew
p35
ssS'title'
p36
VLenovo IdeaPad 320-15IKB 80XL 15.6" FHD Laptop i7-7500U 16GB 2TB Win10
p37
sb.