ccopy_reg
_reconstructor
p0
(c__main__
ProductRecord
p1
c__builtin__
object
p2
Ntp3
Rp4
(dp5
S'product_url'
p6
S'http://www.walmart.com/ip/Dell-Inspiron-11-3168-11-6-Laptop-Touchscreen-2-in-1-Windows-10-Home-Intel-Celeron-N3060-Processor-2GB-Memory-32GB-eMMC-Storage/52129267'
p7
sS'price'
p8
S'N/A'
p9
sS'properties'
p10
(dp11
VRAM Memory
p12
V2 GB
p13
sVOperating System
p14
VWindows 10
p15
sVVideo Game Platform
p16
VPC
p17
sVBrand
p18
VDell
p19
sVProcessor Speed
p20
V2.48 Hz
p21
sVManufacturer Part Number
p22
Vi3168-0027RED
p23
sVHard Drive Capacity
p24
V32 GB
p25
sVAssembled Product Dimensions (L x W x H)
p26
V11.32 x 7.81 x 0.82 Inches
p27
sVModel
p28
Vi3168-0027RED
p29
sVScreen Size
p30
V11.6 in
p31
sVProcessor Type
p32
VIntel Celeron Processor N3060
p33
sVCondition
p34
VNew
p35
ssS'title'
p36
VDell Inspiron 11 3168 11.6" Laptop, Touchscreen, 2-in-1, Windows 10 Home, Intel Celeron N3060 Processor, 2GB Memory, 32GB eMMC Storage
p37
sb.