ccopy_reg
_reconstructor
p0
(c__main__
ProductRecord
p1
c__builtin__
object
p2
Ntp3
Rp4
(dp5
S'product_url'
p6
S'http://www.walmart.com/ip/LATITUDE-5289-12-FHD-TOUCH-I7-7600U-VPRO-16GB-256GB-W10P-1YRPS/972956752'
p7
sS'price'
p8
S'N/A'
p9
sS'properties'
p10
(dp11
VRAM Memory
p12
V16 Gigabytes
p13
sVOperating System
p14
VWindows 10 Pro (English/French/Spanish)
p15
sVBrand
p16
VDell
p17
sVProcessor Speed
p18
V2.8 Gigahertz
p19
sVManufacturer Part Number
p20
VF9HJH
p21
sVHard Drive Capacity
p22
V256 Gigabytes
p23
sVBattery Life
p24
V17 Hours
p25
sVAssembled Product Dimensions (L x W x H)
p26
V12.00 x 12.00 x 12.00 Inches
p27
sVModel
p28
VLATI5289F9HJH
p29
sVScreen Size
p30
V12.50 Inches
p31
sVProcessor Type
p32
VIntel i7-7600U
p33
sVCondition
p34
VNew
p35
ssS'title'
p36
VLATITUDE 5289 12 FHD TOUCH I7-7600U VPRO 16GB 256GB W10P 1YRPS
p37
sb.