ccopy_reg
_reconstructor
p0
(c__main__
ProductRecord
p1
c__builtin__
object
p2
Ntp3
Rp4
(dp5
S'product_url'
p6
S'http://www.walmart.com/ip/Refurbished-Dell-XPS-15-9560-i5-7300HQ-8GB-256GB-PCIe-SSD-UHD-4K-Touch-screen-Infinity-Nvidia-GTX1050-4GB-Windows-10-Professional-Fingerprint-Reader-/722464634'
p7
sS'price'
p8
S'N/A'
p9
sS'properties'
p10
(dp11
VRAM Memory
p12
V8 Gigabytes
p13
sVOperating System
p14
VWindows 10
p15
sVBrand
p16
VDell
p17
sVHard Drive Capacity
p18
V256 Gigabytes
p19
sVModel
p20
VXPS15-9560-REF
p21
sVScreen Size
p22
V15.6 Inches
p23
sVProcessor Type
p24
VIntel Core i5
p25
sVmanufacturer_part_number
p26
Vgtx1050
p27
ssS'title'
p28
VRefurbished Dell XPS 15 9560 i5-7300HQ 8GB 256GB PCIe SSD UHD 4K Touch-screen Infinity Nvidia GTX1050 4GB Windows 10 Professional + Fingerprint Reader Laptop silver
p29
sb.