ccopy_reg
_reconstructor
p0
(c__main__
ProductRecord
p1
c__builtin__
object
p2
Ntp3
Rp4
(dp5
S'product_url'
p6
S'http://www.walmart.com/ip/Fujitsu-Lifebook-T937-13-3-Ultrabook-i5-7200U-256GB-8GB-Win10-Pro-64bit/288557626'
p7
sS'price'
p8
S'N/A'
p9
sS'properties'
p10
(dp11
VRAM Memory
p12
V0 Gigabytes
p13
sVOperating System
p14
VWindows 10
p15
sVFeatures
p16
VLIFEBOOK T937,I5-7200U,8GB,256G M.2,13.3 HD,HD CAM,65W,TPM 2.0,US,BL,KB,1YR,WIN1
p17
sVBrand
p18
VFujitsu
p19
sVProcessor Speed
p20
V0 Gigahertz
p21
sVManufacturer Part Number
p22
VXBUY-T937-002
p23
sVHard Drive Capacity
p24
V0 Gigabytes
p25
sVBattery Life
p26
V0 h
p27
sVAssembled Product Dimensions (L x W x H)
p28
V16.00 x 14.00 x 5.00 Inches
p29
sVModel
p30
VXBUY-T937-002
p31
sVScreen Size
p32
V13.3\u005c"
p33
sVProcessor Type
p34
VIntel i5-7200U
p35
sVCondition
p36
VNew
p37
ssS'title'
p38
VFujitsu Lifebook T937 13.3" Ultrabook  i5-7200U 256GB 8GB Win10 Pro 64bit
p39
sb.