ccopy_reg
_reconstructor
p0
(c__main__
ProductRecord
p1
c__builtin__
object
p2
Ntp3
Rp4
(dp5
S'product_url'
p6
S'http://www.walmart.com/ip/Newest-HP-Envy-15t-High-Performance-Laptop-PC-Full-HD-Touchscreen-Intel-i7-Processor-32GB-RAM-1TB-HDD-1TB-SSD-15-6-Inch-FHD-1920-x-1080-Touchscreen-W/163262226'
p7
sS'price'
p8
S'N/A'
p9
sS'properties'
p10
(dp11
VBrand
p12
VHP
p13
sVManufacturer Part Number
p14
VHP Envy 15t FHD Touch
p15
ssS'title'
p16
VNewest HP Envy 15t High Performance Laptop PC with Full HD Touchscreen ( Intel i7 Processor, 32GB RAM, 1TB HDD + 1TB SSD, 15.6 Inch FHD (1920 x 1080) Touchscreen, Windows 10)
p17
sb.