ccopy_reg
_reconstructor
p0
(c__main__
ProductRecord
p1
c__builtin__
object
p2
Ntp3
Rp4
(dp5
S'product_url'
p6
S'http://www.walmart.com/ip/ASUS-R518UA-RS51T-15-6-inch-Core-i5-7200U-Dual-Core-8GB-DDR4-Multi-Touch-1920-x-1080-2-in-1-Notebook/705057723'
p7
sS'price'
p8
S'N/A'
p9
sS'properties'
p10
(dp11
VRAM Memory
p12
V8.00 GB
p13
sVOperating System
p14
VWindows 10
p15
sVBrand
p16
VASUS
p17
sVProcessor Speed
p18
V2.50 GHz
p19
sVManufacturer Part Number
p20
V90NB0AI1-M02430
p21
sVMaximum RAM Supported
p22
V16.00 GB
p23
sVHard Drive Capacity
p24
V1.00 TB
p25
sVBattery Life
p26
V6.00 h
p27
sVAssembled Product Dimensions (L x W x H)
p28
V12.00 x 12.00 x 12.00 Inches
p29
sVModel
p30
VR518UARS51T
p31
sVScreen Size
p32
V15.60 in
p33
sVProcessor Type
p34
VIntel Core i5
p35
ssS'title'
p36
VASUS R518UA-RS51T 15.6 inch Core i5-7200U Dual-Core 8GB DDR4 Multi-Touch 1920 x 1080 2-in-1 Notebook
p37
sb.