ccopy_reg
_reconstructor
p0
(c__main__
ProductRecord
p1
c__builtin__
object
p2
Ntp3
Rp4
(dp5
S'product_url'
p6
S'http://www.walmart.com/ip/HP-EliteBook-820-G4-12-5-Core-i7-7500U-16-GB-RAM-256-GB-SSD/657404434'
p7
sS'price'
p8
S'N/A'
p9
sS'properties'
p10
(dp11
VRAM Memory
p12
V16.00 GB
p13
sVOperating System
p14
VUnknown
p15
sVVideo Game Platform
p16
VPC
p17
sVBrand
p18
VHP
p19
sVProcessor Speed
p20
V2.70 GHz
p21
sVManufacturer Part Number
p22
V1FX41UT#ABA
p23
sVHard Drive Capacity
p24
V256.00 GB
p25
sVBattery Life
p26
V0 h
p27
sVAssembled Product Dimensions (L x W x H)
p28
V5.00 x 5.00 x 5.00 Inches
p29
sVModel
p30
V1FX41UT
p31
sVScreen Size
p32
V12.50 in
p33
sVProcessor Type
p34
VIntel Core i7 i7-7500U
p35
sVCondition
p36
VNew
p37
ssS'title'
p38
VHP EliteBook 820 G4 - 12.5" - Core i7 7500U - 16 GB RAM - 256 GB SSD
p39
sb.