ccopy_reg
_reconstructor
p0
(c__main__
ProductRecord
p1
c__builtin__
object
p2
Ntp3
Rp4
(dp5
S'product_url'
p6
S'http://www.walmart.com/ip/Asus-15-6-i7-6700HQ-2-6GHz/700371036'
p7
sS'price'
p8
S'N/A'
p9
sS'properties'
p10
(dp11
VRAM Memory
p12
V0 Gigabytes
p13
sVOperating System
p14
VWindows 10
p15
sVBrand
p16
VASUS
p17
sVProcessor Speed
p18
V0 Gigahertz
p19
sVManufacturer Part Number
p20
V90NB0AU1-M04900
p21
sVHard Drive Capacity
p22
V0 Gigabytes
p23
sVModel
p24
V90NB0AU1-M04900
p25
sVScreen Size
p26
V15.6\u005c"
p27
sVProcessor Type
p28
VIntel i7-6700HQ
p29
sVCondition
p30
VNew
p31
ssS'title'
p32
VAsus 15.6" i7 6700HQ 2.6GHz
p33
sb.