ccopy_reg
_reconstructor
p0
(c__main__
ProductRecord
p1
c__builtin__
object
p2
Ntp3
Rp4
(dp5
S'product_url'
p6
S'http://www.walmart.com/ip/2017-HP-Newest-Laptop-Touchscreen-Flagship-High-Performance-15-6-inch-HD-Intel-i3-7100U-Dual-Core-8GB-1TB-HDD-DVD-Webcam-HDMI-Windows-10/448184023'
p7
sS'price'
p8
S'N/A'
p9
sS'properties'
p10
(dp11
VRAM Memory
p12
V8 Gigabytes
p13
sVOperating System
p14
VWindows 10
p15
sVBrand
p16
VHP
p17
sVProcessor Speed
p18
V2.4 Gigahertz
p19
sVHard Drive Capacity
p20
V1 Terabytes
p21
sVModel
p22
VHPTouch8GB
p23
sVScreen Size
p24
V15.6 Inches
p25
sVProcessor Type
p26
VIntel Core i3
p27
sVCondition
p28
VNew
p29
sVmanufacturer_part_number
p30
V2017
p31
ssS'title'
p32
V2017 HP Newest Laptop Touchscreen Flagship High Performance 15.6 inch HD, Intel i3-7100U Dual-Core, 8GB, 1TB HDD, DVD, Webcam, HDMI, Windows 10,
p33
sb.