ccopy_reg
_reconstructor
p0
(c__main__
ProductRecord
p1
c__builtin__
object
p2
Ntp3
Rp4
(dp5
S'product_url'
p6
S'http://www.walmart.com/ip/2016-Newest-Asus-Zenbook-13-3-inch-ultra-slim-Laptop-Intel-Core-M-CPU-8-GB-RAM-512-GB-Solid-State-Drive-with-Windows-10/861895463'
p7
sS'price'
p8
S'N/A'
p9
sS'properties'
p10
(dp11
VRAM Memory
p12
V8 GB
p13
sVOperating System
p14
VWindows 10
p15
sVLaptop Computer Type
p16
VPC Laptops
p17
sVBrand
p18
VASUS
p19
sVManufacturer Part Number
p20
VUX305CA-UBM1
p21
sVModel
p22
VUBM1
p23
sVScreen Size
p24
V48
p25
sVCondition
p26
VNew
p27
sVManufacturer
p28
VAsus
p29
ssS'title'
p30
V2016 Newest Asus Zenbook 13.3-inch ultra-slim Laptop (Intel Core M CPU, 8 GB RAM, 512 GB Solid State Drive) with Windows 10
p31
sb.