ccopy_reg
_reconstructor
p0
(c__main__
ProductRecord
p1
c__builtin__
object
p2
Ntp3
Rp4
(dp5
S'product_url'
p6
S'http://www.walmart.com/ip/Manufacturer-Recertified-Dell-XPS-15-9550-15-6-4K-Touch-Laptop-i7-6700HQ-NVIDA-GTX960M-16GB-1TB-PCIe-SSD/896634389'
p7
sS'price'
p8
S'N/A'
p9
sS'properties'
p10
(dp11
VRAM Memory
p12
V16.00 GB
p13
sVOperating System
p14
VWindows 10
p15
sVBrand
p16
VDell
p17
sVProcessor Speed
p18
V2.60 GHz
p19
sVManufacturer Part Number
p20
VXPS9550
p21
sVHard Drive Capacity
p22
V1.00 TB
p23
sVModel
p24
VXPS9550
p25
sVScreen Size
p26
V15.6 in
p27
sVProcessor Type
p28
VIntel Core i7, Intel Core i7 6th Gen - Skylake
p29
sVCondition
p30
VNew
p31
ssS'title'
p32
V(Manufacturer Recertified) Dell XPS 15 9550 - 15.6" 4K Touch Laptop- i7-6700HQ - NVIDA GTX960M - 16GB - 1TB PCIe SSD
p33
sb.