ccopy_reg
_reconstructor
p0
(c__main__
ProductRecord
p1
c__builtin__
object
p2
Ntp3
Rp4
(dp5
S'product_url'
p6
S'http://www.walmart.com/ip/Lenovo-FLEX-4-I7-2-7-14TCH-8GB-512GB-SSD-W10/55415734'
p7
sS'price'
p8
S'N/A'
p9
sS'properties'
p10
(dp11
VRAM Memory
p12
V8 Gigabytes
p13
sVOperating System
p14
VWindows 10
p15
sVColor Category
p16
VBlack
p17
sVVideo Game Platform
p18
VPC
p19
sVBrand
p20
VLenovo
p21
sVManufacturer Part Number
p22
V80VD000KUS
p23
sVHard Drive Capacity
p24
VGB
p25
sVLaptop Computer Type
p26
VTouchscreen
p27
sVProcessor Core Type
p28
VDual-core (2 Core)
p29
sVProcessor Type
p30
VIntel Core i7
p31
sVScreen Size
p32
V14 Inches
p33
sVModel
p34
V80VD000KUS
p35
sVCondition
p36
VNew
p37
sVManufacturer
p38
VLENOVO
p39
ssS'title'
p40
VLenovo FLEX 4 I7/2.7 14TCH 8GB 512GB SSD W10
p41
sb.