ccopy_reg
_reconstructor
p0
(c__main__
ProductRecord
p1
c__builtin__
object
p2
Ntp3
Rp4
(dp5
S'product_url'
p6
S'http://www.walmart.com/ip/Refurbished-Lenovo-Ultrabook-Yoga-12-5-Laptop-Touchscreen-Windows-10-Pro-Intel-Core-i5-4200U-Processor-8GB-RAM-240GB-Solid-State-Drive/54335003'
p7
sS'price'
p8
S'N/A'
p9
sS'properties'
p10
(dp11
VRAM Memory
p12
V8 GB
p13
sVOperating System
p14
VWindows 10
p15
sVVideo Game Platform
p16
VPC
p17
sVBrand
p18
VYoga
p19
sVProcessor Speed
p20
V1.60 GHz
p21
sVManufacturer Part Number
p22
VWA5-30100
p23
sVMaximum RAM Supported
p24
V8 GB
p25
sVHard Drive Capacity
p26
V240 GB
p27
sVBattery Life
p28
V1 hour
p29
sVAssembled Product Dimensions (L x W x H)
p30
V13.10 x 0.70 x 8.90 Inches
p31
sVModel
p32
VYOGA
p33
sVScreen Size
p34
V12.5"
p35
sVProcessor Type
p36
VIntel Core i5
p37
ssS'title'
p38
VRefurbished Lenovo Ultrabook Yoga 12.5" Laptop, Touchscreen, Windows 10 Pro, Intel Core i5-4200U Processor, 8GB RAM, 240GB Solid State Drive
p39
sb.