ccopy_reg
_reconstructor
p0
(c__main__
ProductRecord
p1
c__builtin__
object
p2
Ntp3
Rp4
(dp5
S'product_url'
p6
S'http://www.walmart.com/ip/Acer-Aspire-R5-471T-2-in-1-Notebook-with-Intel-17-6500U-8GB-512GB-SSD/183520167'
p7
sS'price'
p8
S'N/A'
p9
sS'properties'
p10
(dp11
VRAM Memory
p12
V8 Gigabytes
p13
sVOperating System
p14
VWindows 10
p15
sVBrand
p16
VAcer
p17
sVProcessor Speed
p18
V2.5 Gigahertz
p19
sVManufacturer Part Number
p20
VNX.G7WAA.009
p21
sVHard Drive Capacity
p22
V512 Gigabytes
p23
sVAssembled Product Dimensions (L x W x H)
p24
V19.00 x 12.00 x 3.00 Inches
p25
sVModel
p26
VNX.G7WAA.009
p27
sVScreen Size
p28
V14.00 Inches
p29
sVProcessor Type
p30
VIntel i7-6500U
p31
sVCondition
p32
VNew
p33
ssS'title'
p34
VAcer Aspire R5-471T 2-in-1 Notebook with Intel 17-6500U, 8GB 512GB SSD
p35
sb.