ccopy_reg
_reconstructor
p0
(c__main__
ProductRecord
p1
c__builtin__
object
p2
Ntp3
Rp4
(dp5
S'product_url'
p6
S'http://www.walmart.com/ip/Hp-15-ba000-15-ba082nr-15-6-Touchscreen-Notebook-Amd-A-series-A8-7410-Quad-core-4-Core-2-20-Ghz-Red-4-Gb-Ram-1-Tb-Hdd-Amd-Radeon-R5-Graphics-Windows-/54054040'
p7
sS'price'
p8
S'N/A'
p9
sS'properties'
p10
(dp11
VRAM Memory
p12
V4 GB
p13
sVOperating System
p14
VMicrosoft Windows
p15
sVBrand
p16
VHP
p17
sVProcessor Speed
p18
V2.20 GHz
p19
sVManufacturer Part Number
p20
VX0H91UA#ABA
p21
sVHard Drive Capacity
p22
V1 TB
p23
sVModel
p24
VX0H91UA#ABA
p25
sVScreen Size
p26
V15.6"
p27
sVProcessor Type
p28
VAMD A-Series
p29
ssS'title'
p30
VHp 15-ba000 15-ba082nr 15.6" Touchscreen Notebook - Amd A-series A8-7410 Quad-core [4 Core] 2.20 Ghz - Red - 4 Gb Ram - 1 Tb Hdd - Amd Radeon R5 Graphics - Windows 10 Home - 1366 X 768 (x0h91ua-aba)
p31
sb.