ccopy_reg
_reconstructor
p0
(c__main__
ProductRecord
p1
c__builtin__
object
p2
Ntp3
Rp4
(dp5
S'product_url'
p6
S'http://www.walmart.com/ip/Acer-Switch-V-10-SW5-017-117R-10-1-Atom-x5-Z8350-4-GB-RAM-64-GB-SSD-US-International/125768309'
p7
sS'price'
p8
S'N/A'
p9
sS'properties'
p10
(dp11
VRAM Memory
p12
V4 Gigabytes
p13
sVOperating System
p14
VWindows 10
p15
sVFeatures
p16
VModel SW5017117R  10.1" x5Z8300 4G 64eMMC Win10
p17
sVBrand
p18
VAcer
p19
sVProcessor Speed
p20
V1.44 Gigahertz
p21
sVManufacturer Part Number
p22
VNT.LCVAA.002
p23
sVHard Drive Capacity
p24
V64 Gigabytes
p25
sVModel
p26
VNT.LCVAA.002
p27
sVScreen Size
p28
V10.10 in
p29
sVProcessor Type
p30
VIntel x5-Z8350
p31
sVCondition
p32
VNew
p33
ssS'title'
p34
VAcer Switch V 10 SW5-017-117R - 10.1" - Atom x5 Z8350 - 4 GB RAM - 64 GB SSD - US International
p35
sb.