ccopy_reg
_reconstructor
p0
(c__main__
ProductRecord
p1
c__builtin__
object
p2
Ntp3
Rp4
(dp5
S'product_url'
p6
S'http://www.walmart.com/ip/Manufacturer-Refurbished-Asus-G752VL-UH71T-17-3-Touch-Laptop-Intel-i7-6700HQ-24GB-256GB-SSD-1TB-HDD-W10/586741266'
p7
sS'price'
p8
S'N/A'
p9
sS'properties'
p10
(dp11
VBrand
p12
VASUS
p13
sVScreen Size
p14
V17.3
p15
sVModel
p16
VG752VL-UH71T-RF
p17
sVManufacturer Part Number
p18
VG752VL-UH71T-RF
p19
ssS'title'
p20
VManufacturer Refurbished - Asus G752VL-UH71T 17.3" Touch Laptop Intel i7-6700HQ 24GB 256GB SSD+1TB HDD W10
p21
sb.