ccopy_reg
_reconstructor
p0
(c__main__
ProductRecord
p1
c__builtin__
object
p2
Ntp3
Rp4
(dp5
S'product_url'
p6
S'http://www.walmart.com/ip/HP-Carbon-12-5-EliteBook-725-G2-P0B93UT-Laptop-PC-AMD-A10-Pro-7350B-Processor-4GB-Memory-touch-screen-180GB-Solid-State-Drive-Windows-10-Professional/46691736'
p7
sS'price'
p8
S'N/A'
p9
sS'properties'
p10
(dp11
VRAM Memory
p12
V4 GB
p13
sVOperating System
p14
VWindows 10
p15
sVFeatures
p16
VEPEAT, ROHS Compliant
p17
sVVideo Game Platform
p18
VPC
p19
sVBrand
p20
VHP
p21
sVProcessor Speed
p22
V2.10 GHz
p23
sVManufacturer Part Number
p24
VP0B93UT#ABA
p25
sVMaximum RAM Supported
p26
V16 GB
p27
sVHard Drive Capacity
p28
V180 GB
p29
sVBattery Life
p30
V7 hours 45 minutes
p31
sVAssembled Product Dimensions (L x W x H)
p32
V18.90 x 13.40 x 3.30 Inches
p33
sVModel
p34
VP0B93UT#ABA
p35
sVScreen Size
p36
V12.5"
p37
sVProcessor Type
p38
VAMD A10 PRO-7350B Quad-Core Processor
p39
ssS'title'
p40
VHP Carbon 12.5" EliteBook 725 G2 P0B93UT Laptop PC with AMD A10 Pro-7350B Processor, 4GB Memory, touch screen, 180GB Solid State Drive and Windows 10 Professional
p41
sb.