ccopy_reg
_reconstructor
p0
(c__main__
ProductRecord
p1
c__builtin__
object
p2
Ntp3
Rp4
(dp5
S'product_url'
p6
S'http://www.walmart.com/ip/HP-Laptop-15z-touchscreen-15-6-inch-AMD-Dual-Core-A6-9220-APU-AMD-Radeon-R4-Graphics-4GB-RAM-1TB-HDD-15-6-HD-SVA-WLED-backlit-touch-1366-x-768-Displa/987109085'
p7
sS'price'
p8
S'N/A'
p9
sS'properties'
p10
(dp11
VRAM Memory
p12
V4 GB
p13
sVOperating System
p14
VMicrosoft Windows
p15
sVLaptop Computer Type
p16
VTouchscreen
p17
sVBrand
p18
VMichaelElectronics2
p19
sVManufacturer Part Number
p20
VHP-15-02342-HD-ME1
p21
sVHard Drive Capacity
p22
V1 TB
p23
sVProcessor Type
p24
VAMD Dual-Core A6-9220 APU
p25
sVScreen Size
p26
V15.6 in
p27
sVCondition
p28
VNew
p29
sVManufacturer
p30
VMichaelElectronics2
p31
ssS'title'
p32
VHP Laptop - 15z touchscreen 15.6-inch (AMD Dual-Core A6-9220 APU, AMD Radeon R4 Graphics, 4GB RAM, 1TB HDD, 15.6" HD SVA WLED-backlit touch (1366 x 768) Display, Windows 10 Home) Natural Silver
p33
sb.