ccopy_reg
_reconstructor
p0
(c__main__
ProductRecord
p1
c__builtin__
object
p2
Ntp3
Rp4
(dp5
S'product_url'
p6
S'http://www.walmart.com/ip/HP-ENVY-13-3-QHD-Touchscreen-Notebook-Intel-i7-7500U-8GB-RAM-256GB-SSD-Windows-10-13-ab077cl/745964553'
p7
sS'price'
p8
S'N/A'
p9
sS'properties'
p10
(dp11
VRAM Memory
p12
V8 GB
p13
sVOperating System
p14
VWindows 10
p15
sVBrand
p16
VHP
p17
sVProcessor Speed
p18
V3 GHz
p19
sVManufacturer Part Number
p20
VX7S61UA#ABA
p21
sVHard Drive Capacity
p22
V256 GB
p23
sVModel
p24
V13-ab077cl
p25
sVScreen Size
p26
V13.3 in
p27
sVProcessor Type
p28
VIntel Core i7
p29
sVCondition
p30
VNew
p31
ssS'title'
p32
VHP ENVY 13.3" QHD+ Touchscreen Notebook, Intel i7-7500U, 8GB RAM, 256GB SSD, Windows 10 - 13-ab077cl
p33
sb.