ccopy_reg
_reconstructor
p0
(c__main__
ProductRecord
p1
c__builtin__
object
p2
Ntp3
Rp4
(dp5
S'product_url'
p6
S'http://www.walmart.com/ip/Refurbished-Dell-Inspiron-i7559-7512GRY-15-6-Laptop-Touchscreen-Windows-10-Intel-Core-i7-6700HQ-Processor-16GB-RAM-128GB-Solid-State-Drive/55358410'
p7
sS'price'
p8
S'N/A'
p9
sS'properties'
p10
(dp11
VRAM Memory
p12
V16 GB
p13
sVOperating System
p14
VWindows 10
p15
sVColor Category
p16
VGray
p17
sVVideo Game Platform
p18
VPC
p19
sVBrand
p20
VDell
p21
sVManufacturer Part Number
p22
Vi7559-7512GRY
p23
sVLaptop Computer Type
p24
VTouchscreen
p25
sVProcessor Type
p26
VIntel Core i7
p27
sVScreen Size
p28
V15.6"
p29
sVModel
p30
Vi7559-7512GRY
p31
sVManufacturer
p32
VDell
p33
ssS'title'
p34
VRefurbished Dell Inspiron i7559-7512GRY 15.6" Laptop, Touchscreen, Windows 10, Intel Core i7-6700HQ Processor, 16GB RAM, 128GB Solid State Drive
p35
sb.