ccopy_reg
_reconstructor
p0
(c__main__
ProductRecord
p1
c__builtin__
object
p2
Ntp3
Rp4
(dp5
S'product_url'
p6
S'http://www.walmart.com/ip/Lenovo-ThinkPad-T570-15-6-Core-i7-7600U-8-GB-RAM-256-GB-SSD/988921167'
p7
sS'price'
p8
S'N/A'
p9
sS'properties'
p10
(dp11
VRAM Memory
p12
V8.00 GB
p13
sVOperating System
p14
VWindows 10 Pro (English)
p15
sVFeatures
p16
VT570,15.6INCH FHD (1920X1080) IPS,WIN10 PRO 64,10-POINT,INTEL CORE I7-7600U,8GBX
p17
sVVideo Game Platform
p18
VPC
p19
sVBrand
p20
VLenovo
p21
sVProcessor Speed
p22
V2.80 GHz
p23
sVManufacturer Part Number
p24
V20H9000TUS
p25
sVHard Drive Capacity
p26
V256.00 GB
p27
sVBattery Life
p28
V0 h
p29
sVAssembled Product Dimensions (L x W x H)
p30
V5.00 x 5.00 x 5.00 Inches
p31
sVModel
p32
V20H9000TUS
p33
sVScreen Size
p34
V15.60 in
p35
sVProcessor Type
p36
VCore i7-i7-6500U
p37
sVCondition
p38
VNew
p39
ssS'title'
p40
VLenovo ThinkPad T570 - 15.6" - Core i7 7600U - 8 GB RAM - 256 GB SSD
p41
sb.