ccopy_reg
_reconstructor
p0
(c__main__
ProductRecord
p1
c__builtin__
object
p2
Ntp3
Rp4
(dp5
S'product_url'
p6
S'http://www.walmart.com/ip/HP-Envy-X360-15t-Convertible-2-1-Premium-Laptop-Tablet-PC-Intel-8th-Gen-i7-Quad-Core-12GB-RAM-1TB-HDD-NVIDIA-GeForce-MX150-4GB-15-6-4K-UHD-3840x2160-/737645202'
p7
sS'price'
p8
S'N/A'
p9
sS'properties'
p10
(dp11
VRAM Memory
p12
V12 GB
p13
sVOperating System
p14
VMicrosoft Windows
p15
sVBrand
p16
VMichaelElectronics2
p17
sVManufacturer Part Number
p18
VHP-15-02373-UHD-ME2
p19
sVHard Drive Capacity
p20
V1 TB
p21
sVProcessor Type
p22
V8th-Generation Intel Core i7-8550U
p23
sVProcessor Speed
p24
V1.80 GHz
p25
ssS'title'
p26
VHP Envy X360 15t Convertible 2 in 1 Premium Laptop / Tablet PC (Intel 8th Gen i7 Quad Core, 12GB RAM, 1TB HDD, NVIDIA GeForce MX150 4GB, 15.6" 4K UHD (3840x2160) Touchscreen, Win 10 Pro)
p27
sb.