ccopy_reg
_reconstructor
p0
(c__main__
ProductRecord
p1
c__builtin__
object
p2
Ntp3
Rp4
(dp5
S'product_url'
p6
S'http://www.walmart.com/ip/2018-Newest-HP-Pavilion-X360-2-in-1-Notebook-Laptop-Computer-Touchscreen-Full-HD-Intel-Core-i7-8550U-1-8GHz-8GB-DDR4-RAM-1TB-HDD-2GB-Radeon-DSC-530-B/806844423'
p7
sS'price'
p8
S'N/A'
p9
sS'properties'
p10
(dp11
VRAM Memory
p12
V8 GB
p13
sVOperating System
p14
VMicrosoft Windows
p15
sVFeatures
p16
V8GB DDR4 SDRAM,1TB HDD, 1x Multi-format digital card reader, Backlit Keyboard, Bluetooth, Windows 10 Home 64 Bit, 3-cell Li-ion Battery,, 802.11ac (1x1), 2 x USB 3.1, 1 x USB 2.0, 1 x USB Type-C, HDMI, 1 x RJ45, Multi-Format Digital Media Reader, Headphone/Microphone combo jack, Wide Vision HD Webcam, 8th Generation Quad Core Intel Core i7-8550U Processor 1.8GHz (Up to 4.0GHz with Turbo Boost) with 8 MB Cache, 15.6" diagonal FHD IPS BrightView WLED-backlit display (1920x1080) Display, 2GB Radeon DSC 530
p17
sVBrand
p18
VHP
p19
sVManufacturer Part Number
p20
V2DT04UA#ABA
p21
sVHard Drive Capacity
p22
V1000 GB
p23
sVAssembled Product Dimensions (L x W x H)
p24
V14.87 x 9.68 x 0.84 Inches
p25
sVModel
p26
V15-br158cl
p27
sVProcessor Type
p28
VIntel Core i7
p29
sVCondition
p30
VNew
p31
ssS'title'
p32
V2018 Newest HP Pavilion X360 2-in-1 Notebook Laptop Computer Touchscreen Full HD Intel Core i7-8550U 1.8GHz, 8GB DDR4 RAM, 1TB HDD, 2GB Radeon DSC 530, Backlit Keyboard, Windows 10 Silk Gold
p33
sb.