ccopy_reg
_reconstructor
p0
(c__main__
ProductRecord
p1
c__builtin__
object
p2
Ntp3
Rp4
(dp5
S'product_url'
p6
S'http://www.walmart.com/ip/Lenovo-ThinkPad-Yoga-11e-Chromebook-11-6-Celeron-N3450-4-GB-RAM-32-GB-SSD/811100129'
p7
sS'price'
p8
S'N/A'
p9
sS'properties'
p10
(dp11
VRAM Memory
p12
V4 Gigabytes
p13
sVOperating System
p14
VChrome OS
p15
sVFeatures
p16
VTHINKPAD 11E 4TH GEN, INTEL N3450 (1.10GHZ, 2MB), 11.6 HD 1366X768, GOOGLE CHROM
p17
sVVideo Game Platform
p18
VSee Description
p19
sVBrand
p20
VLenovo
p21
sVProcessor Speed
p22
V1.1 Gigahertz
p23
sVManufacturer Part Number
p24
V20HY0000US
p25
sVHard Drive Capacity
p26
V32 Gigabytes
p27
sVAssembled Product Dimensions (L x W x H)
p28
V13.00 x 10.00 x 5.00 Inches
p29
sVModel
p30
V20J00000US
p31
sVScreen Size
p32
V11.60 Inches
p33
sVProcessor Type
p34
VIntel N3450
p35
sVCondition
p36
VNew
p37
ssS'title'
p38
VLenovo ThinkPad Yoga 11e Chromebook - 11.6" - Celeron N3450 - 4 GB RAM - 32 GB SSD
p39
sb.