ccopy_reg
_reconstructor
p0
(c__main__
ProductRecord
p1
c__builtin__
object
p2
Ntp3
Rp4
(dp5
S'product_url'
p6
S'http://www.walmart.com/ip/HP-Pavilion-15-6-FullHD-Touchscreen-Laptop-Core-i5-i5-7200U-8GB-1TB-Win10/683651567'
p7
sS'price'
p8
S'N/A'
p9
sS'properties'
p10
(dp11
VRAM Memory
p12
V8 Gigabytes
p13
sVOperating System
p14
VWindows 10
p15
sVBrand
p16
VHP
p17
sVProcessor Speed
p18
V2.5 Gigahertz
p19
sVManufacturer Part Number
p20
V1KU07UA#ABA
p21
sVHard Drive Capacity
p22
V1 Terabytes
p23
sVBattery Life
p24
V10 Hours
p25
sVModel
p26
V1KU07UA#ABA
p27
sVScreen Size
p28
V15.60 Inches
p29
sVProcessor Type
p30
VIntel i5-7200U
p31
ssS'title'
p32
VHP Pavilion 15.6" FullHD Touchscreen Laptop Core i5 i5-7200U 8GB 1TB Win10
p33
sb.