ccopy_reg
_reconstructor
p0
(c__main__
ProductRecord
p1
c__builtin__
object
p2
Ntp3
Rp4
(dp5
S'product_url'
p6
S'http://www.walmart.com/ip/Dell-XPS-13-9360-13-3-Core-i7-7500U-8-GB-RAM-256-GB-SSD/332472148'
p7
sS'price'
p8
S'N/A'
p9
sS'properties'
p10
(dp11
VRAM Memory
p12
V8.00 GB
p13
sVOperating System
p14
VWindows 10
p15
sVVideo Game Platform
p16
VSee Description
p17
sVBrand
p18
VDell
p19
sVProcessor Speed
p20
V2.70 GHz
p21
sVManufacturer Part Number
p22
V6TDJT
p23
sVHard Drive Capacity
p24
V256.00 GB
p25
sVAssembled Product Dimensions (L x W x H)
p26
V12.00 x 12.00 x 12.00 Inches
p27
sVModel
p28
V6TDJT
p29
sVScreen Size
p30
V13.30 in
p31
sVProcessor Type
p32
VIntel Core i7
p33
sVCondition
p34
VNew
p35
ssS'title'
p36
VDell XPS 13 9360 - 13.3" - Core i7 7500U - 8 GB RAM - 256 GB SSD
p37
sb.