ccopy_reg
_reconstructor
p0
(c__main__
ProductRecord
p1
c__builtin__
object
p2
Ntp3
Rp4
(dp5
S'product_url'
p6
S'http://www.walmart.com/ip/HP-17z-Laptop-17-3-HD-Touchscreen-AMD-Dual-Core-A6-9220-APU-AMD-Radeon-R4-Graphics-8GB-RAM-1TB-HDD-17-3inch-touch-screen-1600x900-Wi-Fi-Bluetooth-Win/599161449'
p7
sS'price'
p8
S'N/A'
p9
sS'properties'
p10
(dp11
VRAM Memory
p12
V8 GB
p13
sVOperating System
p14
VMicrosoft Windows
p15
sVBrand
p16
VMichaelElectronics2
p17
sVManufacturer Part Number
p18
VHP-17-02340-HDT-ME1
p19
sVHard Drive Capacity
p20
V1 TB
p21
sVProcessor Type
p22
VAMD Dual-Core A6-9220 APU
p23
sVScreen Size
p24
V17.3 in
p25
sVProcessor Speed
p26
V2.5 GHz
p27
ssS'title'
p28
VHP - 17z Laptop 17.3" with HD+ Touchscreen ( AMD Dual-Core A6-9220 APU, AMD Radeon R4 Graphics, 8GB RAM, 1TB HDD, 17.3inch touch screen (1600x900), Wi-Fi, Bluetooth, Windows 10 Home ) Silk Gold
p29
sb.