ccopy_reg
_reconstructor
p0
(c__main__
ProductRecord
p1
c__builtin__
object
p2
Ntp3
Rp4
(dp5
S'product_url'
p6
S'http://www.walmart.com/ip/Dell-XPS-13-Ultrabook-Core-i5-7200U-128GB-SSD-8GB-RAM-13-3-Full-HD-Touch-Display/328387140'
p7
sS'price'
p8
S'N/A'
p9
sS'properties'
p10
(dp11
VRAM Memory
p12
V8 GB
p13
sVOperating System
p14
VWindows 10
p15
sVBrand
p16
VDell
p17
sVProcessor Speed
p18
V2500 MHz
p19
sVManufacturer Part Number
p20
VXPS9360-5797SLV-PUS
p21
sVHard Drive Capacity
p22
V128 GB
p23
sVBattery Life
p24
V10 Hour
p25
sVModel
p26
VXPS 13
p27
sVScreen Size
p28
V13.3 in
p29
sVProcessor Type
p30
VIntel Core i5
p31
sVCondition
p32
VNew
p33
ssS'title'
p34
VDell XPS 13 Ultrabook : Core i5-7200U, 128GB SSD, 8GB RAM, 13.3" Full HD Touch Display
p35
sb.