ccopy_reg
_reconstructor
p0
(c__main__
ProductRecord
p1
c__builtin__
object
p2
Ntp3
Rp4
(dp5
S'product_url'
p6
S'http://www.walmart.com/ip/Lenovo-ThinkPad-X1-Yoga-14-Core-i7-7600U-16-GB-RAM-512-GB-SSD/321243088'
p7
sS'price'
p8
S'N/A'
p9
sS'properties'
p10
(dp11
VRAM Memory
p12
V16.00 GB
p13
sVOperating System
p14
VWindows 10 Pro (English)
p15
sVBrand
p16
VLenovo
p17
sVProcessor Speed
p18
V2.80 GHz
p19
sVManufacturer Part Number
p20
V20JF000DUS
p21
sVHard Drive Capacity
p22
V512.00 GB
p23
sVAssembled Product Dimensions (L x W x H)
p24
V5.00 x 5.00 x 5.00 Inches
p25
sVModel
p26
V20JF000DUS
p27
sVScreen Size
p28
V14.00 in
p29
sVProcessor Type
p30
VIntel Core i7
p31
sVCondition
p32
VNew
p33
ssS'title'
p34
VLenovo ThinkPad X1 Yoga - 14" - Core i7 7600U - 16 GB RAM - 512 GB SSD
p35
sb.