ccopy_reg
_reconstructor
p0
(c__main__
ProductRecord
p1
c__builtin__
object
p2
Ntp3
Rp4
(dp5
S'product_url'
p6
S'http://www.walmart.com/ip/Dell-11-6-m3-6Y30-4GB-500GB-Touchscreen-Laptop/140059073'
p7
sS'price'
p8
S'N/A'
p9
sS'properties'
p10
(dp11
VBrand
p12
VDell
p13
sVAssembled Product Dimensions (L x W x H)
p14
V5.00 x 5.00 x 5.00 Inches
p15
sVManufacturer Part Number
p16
Vi31690010BLU
p17
ssS'title'
p18
VDell 11.6" m3 6Y30 4GB 500GB Touchscreen Laptop
p19
sb.