ccopy_reg
_reconstructor
p0
(c__main__
ProductRecord
p1
c__builtin__
object
p2
Ntp3
Rp4
(dp5
S'product_url'
p6
S'http://www.walmart.com/ip/Samsung-DP710A4M-L01US-23-8-Intel-Core-i5-12GB-RAM-All-in-One-TouchScreen-Computer-Elite-Suite-17-Standard-Software-Bundle-Corel-WordPerfect-PC-Mover/832545585'
p7
sS'price'
p8
S'N/A'
p9
sS'properties'
p10
(dp11
VRAM Memory
p12
V12 GB
p13
sVOperating System
p14
VMicrosoft Windows
p15
sVBrand
p16
VSamsung
p17
sVManufacturer Part Number
p18
VE1SAMDP710A4ML01US
p19
sVAssembled Product Dimensions (L x W x H)
p20
V21.80 x 6.40 x 16.30 Inches
p21
sVScreen Size
p22
V23.8\u005c"
p23
sVCondition
p24
VNew
p25
ssS'title'
p26
VSamsung DP710A4M-L01US 23.8" Intel Core i5, 12GB RAM All-in-One TouchScreen Computer + Elite Suite 17 Standard Software Bundle (Corel WordPerfect, PC Mover, PDF Fusion, X9) + 1 Year Extended Warranty
p27
sb.