ccopy_reg
_reconstructor
p0
(c__main__
ProductRecord
p1
c__builtin__
object
p2
Ntp3
Rp4
(dp5
S'product_url'
p6
S'http://www.walmart.com/ip/Acer-Switch-Alpha-12-SA5-271P-38UZ-12-Core-i3-6100U-4-GB-RAM-128-GB-SSD-US-International/52385829'
p7
sS'price'
p8
S'N/A'
p9
sS'properties'
p10
(dp11
VRAM Memory
p12
V4 GB
p13
sVOperating System
p14
VWindows 10
p15
sVFeatures
p16
V12IN 128GB SSD W10P 11AC BT 4.0 KEY
p17
sVVideo Game Platform
p18
VPC
p19
sVBrand
p20
VAcer
p21
sVProcessor Speed
p22
V2.30 GHz
p23
sVManufacturer Part Number
p24
VNT.LCEAA.001
p25
sVHard Drive Capacity
p26
V128 GB
p27
sVBattery Life
p28
V8 hours
p29
sVAssembled Product Dimensions (L x W x H)
p30
V19.00 x 12.00 x 4.00 Inches
p31
sVModel
p32
VNT.LCEAA.001
p33
sVScreen Size
p34
V12.0"
p35
sVProcessor Type
p36
VIntel Core i3
p37
sVCondition
p38
VNew
p39
ssS'title'
p40
VAcer Switch Alpha 12 SA5-271P-38UZ - 12" - Core i3 6100U - 4 GB RAM - 128 GB SSD - US International
p41
sb.