ccopy_reg
_reconstructor
p0
(c__main__
ProductRecord
p1
c__builtin__
object
p2
Ntp3
Rp4
(dp5
S'product_url'
p6
S'http://www.walmart.com/ip/Manufacturer-Refurbished-HP-Pavilion-12-B017CA-12-Touch-Laptop-Intel-M3-6Y30-900MHz-4GB-128GB-W10/606526159'
p7
sS'price'
p8
S'N/A'
p9
sS'properties'
p10
(dp11
VRAM Memory
p12
V4 GB
p13
sVOperating System
p14
VMicrosoft Windows
p15
sVBrand
p16
VHP
p17
sVManufacturer Part Number
p18
V12-B017CA-RF
p19
sVHard Drive Capacity
p20
V128 GB
p21
sVModel
p22
V12-B017CA-RF
p23
sVScreen Size
p24
V12\u005c"
p25
sVCondition
p26
VRefurbished
p27
ssS'title'
p28
VManufacturer Refurbished - HP Pavilion 12-B017CA 12" Touch Laptop Intel M3-6Y30 900MHz 4GB 128GB W10
p29
sb.