ccopy_reg
_reconstructor
p0
(c__main__
ProductRecord
p1
c__builtin__
object
p2
Ntp3
Rp4
(dp5
S'product_url'
p6
S'http://www.walmart.com/ip/Acer-Chromebook-11-N7-C731T-C42N-11-6-Touchscreen-Chromebook-Refurbished/926424877'
p7
sS'price'
p8
S'N/A'
p9
sS'properties'
p10
(dp11
VRAM Memory
p12
V0 GB
p13
sVOperating System
p14
VChrome OS
p15
sVLaptop Computer Type
p16
VTouchscreen
p17
sVBrand
p18
VAcer
p19
sVHard Drive Capacity
p20
V0 GB
p21
sVModel
p22
VNX.GM9AA.001
p23
sVScreen Size
p24
V0 in
p25
sVmanufacturer_part_number
p26
Vc731t-c42n
p27
ssS'title'
p28
VAcer Chromebook 11 N7 C731T-C42N 11.6" Touchscreen Chromebook - (Refurbished)
p29
sb.