ccopy_reg
_reconstructor
p0
(c__main__
ProductRecord
p1
c__builtin__
object
p2
Ntp3
Rp4
(dp5
S'product_url'
p6
S'http://www.walmart.com/ip/Acer-SW512-52-55YD-Switch-5-12-0-Core-i5-7200U-8GB-256GB-SSD-QHD-Touch-2-in-1-Tablet/393963610'
p7
sS'price'
p8
S'N/A'
p9
sS'properties'
p10
(dp11
VOperating System
p12
VWindows 10
p13
sVAccessories Included
p14
V Switch SW512-52-55YD 2 in 1 Notebook Lithium Ion Battery AC Adapter Keyboard Dock 
p15
sVColor
p16
VIron Gray
p17
sVBrand
p18
VAcer
p19
sVManufacturer Part Number
p20
VNT.LDSAA.001
p21
sVBattery Life
p22
V10.50 h
p23
sVAssembled Product Dimensions (L x W x H)
p24
V12.00 x 12.00 x 12.00 Inches
p25
sVModel
p26
VSW5125255YD
p27
sVScreen Size
p28
V12.00 in
p29
sVCondition
p30
VNew
p31
ssS'title'
p32
VAcer SW512-52-55YD Switch 5, 12.0" Core i5-7200U, 8GB, 256GB SSD QHD Touch 2-in-1 Tablet
p33
sb.