ccopy_reg
_reconstructor
p0
(c__main__
ProductRecord
p1
c__builtin__
object
p2
Ntp3
Rp4
(dp5
S'product_url'
p6
S'http://www.walmart.com/ip/Dell-XPS-13-9360-13-3-Core-i5-7200U-8-GB-RAM-256-GB-SSD/258373384'
p7
sS'price'
p8
S'N/A'
p9
sS'properties'
p10
(dp11
VRAM Memory
p12
V8.00 GB
p13
sVOperating System
p14
VWindows 10
p15
sVFeatures
p16
VXPS 13 9360, 13.3 QHD TOUCH, I5-7200U, 8
p17
sVVideo Game Platform
p18
VSee Description
p19
sVBrand
p20
VDell
p21
sVProcessor Speed
p22
V2.50 GHz
p23
sVManufacturer Part Number
p24
VDJGG0
p25
sVHard Drive Capacity
p26
V256.00 GB
p27
sVBattery Life
p28
V0 h
p29
sVAssembled Product Dimensions (L x W x H)
p30
V17.00 x 3.20 x 11.30 Inches
p31
sVModel
p32
VXPS9360DJGG0
p33
sVScreen Size
p34
V13.30 in
p35
sVProcessor Type
p36
VIntel Core i5 i5-7200U
p37
sVCondition
p38
VNew
p39
ssS'title'
p40
VDell XPS 13 9360 - 13.3" - Core i5 7200U - 8 GB RAM - 256 GB SSD
p41
sb.