ccopy_reg
_reconstructor
p0
(c__main__
ProductRecord
p1
c__builtin__
object
p2
Ntp3
Rp4
(dp5
S'product_url'
p6
S'http://www.walmart.com/ip/Acer-Chromebook-R-13-CB5-312T-K6TF-13-3-MT8173-4-GB-RAM-32-GB-SSD-US/793884631'
p7
sS'price'
p8
S'N/A'
p9
sS'properties'
p10
(dp11
VRAM Memory
p12
V4 Gigabytes
p13
sVOperating System
p14
VChrome OS
p15
sVFeatures
p16
V32GB 13.3IN 11AC CHROME
p17
sVVideo Game Platform
p18
VPC
p19
sVBrand
p20
VAcer
p21
sVProcessor Speed
p22
V2.1 Gigahertz
p23
sVManufacturer Part Number
p24
VNX.GL4AA.010
p25
sVHard Drive Capacity
p26
V32 Gigabytes
p27
sVBattery Life
p28
V12 Hours
p29
sVAssembled Product Dimensions (L x W x H)
p30
V5.00 x 5.00 x 5.00 Inches
p31
sVModel
p32
VNX.GL4AA.010
p33
sVScreen Size
p34
V13.30 Inches
p35
sVProcessor Type
p36
VMediaTek M8173C
p37
sVCondition
p38
VNew
p39
ssS'title'
p40
VAcer Chromebook R 13 CB5-312T-K6TF - 13.3" - MT8173 - 4 GB RAM - 32 GB SSD - US
p41
sb.