ccopy_reg
_reconstructor
p0
(c__main__
ProductRecord
p1
c__builtin__
object
p2
Ntp3
Rp4
(dp5
S'product_url'
p6
S'http://www.walmart.com/ip/Refurbished-Dell-XPS-13-9360-i5-7200U-8GB-128GB-SSD-QHD-Touch-INFINITY-Windows-10-Home-laptop-silver/779714562'
p7
sS'price'
p8
S'N/A'
p9
sS'properties'
p10
(dp11
VRAM Memory
p12
V8 Gigabytes
p13
sVOperating System
p14
VWindows 10 Home Premium
p15
sVBrand
p16
VDell
p17
sVHard Drive Capacity
p18
V128 Gigabytes
p19
sVProcessor Type
p20
VIntel Core i5
p21
sVScreen Size
p22
V13.3 Inches
p23
ssS'title'
p24
VRefurbished Dell XPS 13 9360 i5-7200U 8GB 128GB SSD QHD+ Touch INFINITY Windows 10 Home laptop silver
p25
sb.