ccopy_reg
_reconstructor
p0
(c__main__
ProductRecord
p1
c__builtin__
object
p2
Ntp3
Rp4
(dp5
S'product_url'
p6
S'http://www.walmart.com/ip/Refurbished-HP-11-v020wm-11-6-Chromebook-Touchscreen-Chrome-Intel-Celeron-N3060-Processor/823272793'
p7
sS'price'
p8
S'N/A'
p9
sS'properties'
p10
(dp11
VOperating System
p12
VChrome OS
p13
sVFeatures
p14
VNo features description available
p15
sVBrand
p16
VHP
p17
sVManufacturer Part Number
p18
V11-v020wm
p19
sVAssembled Product Dimensions (L x W x H)
p20
V17.20 x 3.00 x 10.20 Inches
p21
sVModel
p22
VVIPRB-11-v020wm
p23
sVScreen Size
p24
V11.6
p25
ssS'title'
p26
VRefurbished HP 11-v020wm 11.6" Chromebook Touchscreen Chrome Intel Celeron N3060 Processor
p27
sb.