ccopy_reg
_reconstructor
p0
(c__main__
ProductRecord
p1
c__builtin__
object
p2
Ntp3
Rp4
(dp5
S'product_url'
p6
S'http://www.walmart.com/ip/2017-New-Flagship-HP-Laptop-15-6-HD-High-Performance-Premium-Touchscreen-Quad-Core-AMD-A10-3-0GHz-4GB-RAM-1TB-HDD-AMD-Radeon-R5-DVDRW-WLAN-Webcam-USB/778116018'
p7
sS'price'
p8
S'N/A'
p9
sS'properties'
p10
(dp11
VRAM Memory
p12
V4.00 GB
p13
sVOperating System
p14
VWindows 10
p15
sVBrand
p16
VHP
p17
sVProcessor Speed
p18
V2.20 GHz
p19
sVHard Drive Capacity
p20
V1.00 TB
p21
sVModel
p22
VHPTOUCHRED
p23
sVScreen Size
p24
V15.60 in
p25
sVProcessor Type
p26
VAMD A-Series A8-7410 Quad-core
p27
sVCondition
p28
VNew
p29
sVmanufacturer_part_number
p30
V2017
p31
ssS'title'
p32
V2017 New Flagship HP Laptop 15.6" HD High Performance Premium Touchscreen Quad-Core AMD A10 Up to 3.0GHz, 4GB RAM, 1TB HDD, AMD Radeon R5, DVDRW, WLAN, Webcam, USB 3.0, HDMI, Win 10 -Red Cardinal
p33
sb.