ccopy_reg
_reconstructor
p0
(c__main__
ProductRecord
p1
c__builtin__
object
p2
Ntp3
Rp4
(dp5
S'product_url'
p6
S'http://www.walmart.com/ip/Lenovo-ThinkPad-N24-81AF0000US-Notebook/887931110'
p7
sS'price'
p8
S'N/A'
p9
sS'properties'
p10
(dp11
VRAM Memory
p12
V4 Gigabytes
p13
sVOperating System
p14
VWindows 10 Pro (English)
p15
sVFeatures
p16
VK-12 ONLY N24 N3450 1.1G 4GB 64GB
p17
sVVideo Game Platform
p18
VSee Description
p19
sVBrand
p20
VLenovo
p21
sVProcessor Speed
p22
V1.1 Gigahertz
p23
sVHard Drive Capacity
p24
V64 Gigabytes
p25
sVModel
p26
V81AF0000US
p27
sVScreen Size
p28
V11.60 Inches
p29
sVProcessor Type
p30
VIntel N3450
p31
sVCondition
p32
VNew
p33
sVmanufacturer_part_number
p34
V81af0000us
p35
ssS'title'
p36
VLenovo ThinkPad N24 81AF0000US Notebook
p37
sb.