ccopy_reg
_reconstructor
p0
(c__main__
ProductRecord
p1
c__builtin__
object
p2
Ntp3
Rp4
(dp5
S'product_url'
p6
S'http://www.walmart.com/ip/Lenovo-80XE004JUS-Miix510-W10P-I5-8G-256G-1Yr/132218739'
p7
sS'price'
p8
S'N/A'
p9
sS'properties'
p10
(dp11
VRAM Memory
p12
V8 GB
p13
sVOperating System
p14
VMicrosoft Windows, Windows 10 Pro (English)
p15
sVFeatures
p16
VMIIX 510-12IKB, INTEL CORE I5-7200U (2.50GHZ, 3MB), WINDOWS 10 PRO 64, 8.0GB, 1X
p17
sVBrand
p18
VLenovo
p19
sVProcessor Speed
p20
V2.50 GHz
p21
sVManufacturer Part Number
p22
V80XE004JUS
p23
sVHard Drive Capacity
p24
V256 GB
p25
sVAssembled Product Dimensions (L x W x H)
p26
V16.00 x 13.00 x 7.00 Inches
p27
sVModel
p28
V80XE004JUS
p29
sVScreen Size
p30
V12.2"
p31
sVProcessor Type
p32
VIntel Core i5
p33
sVCondition
p34
VNew
p35
ssS'title'
p36
VLenovo 80XE004JUS Miix510,W10P,I5,8G,256G,1Yr
p37
sb.