ccopy_reg
_reconstructor
p0
(c__main__
ProductRecord
p1
c__builtin__
object
p2
Ntp3
Rp4
(dp5
S'product_url'
p6
S'http://www.walmart.com/ip/Refurbished-HP-Envy-x360-13-13-3-QHD-TouchScreen-Laptop-Notebook-Tablet-Convertible-Core-i7-7500U-2-7GHz-16GB-Memory-512GB-M-2-SSD-WiFi-AC-Bluetooth-/560259588'
p7
sS'price'
p8
S'N/A'
p9
sS'properties'
p10
(dp11
VRAM Memory
p12
V16.00 GB
p13
sVOperating System
p14
VWindows 10
p15
sVBrand
p16
VHP
p17
sVProcessor Speed
p18
V2.70 GHz
p19
sVManufacturer Part Number
p20
VW8Q33AAR-WP11
p21
sVHard Drive Capacity
p22
V512.00 GB
p23
sVModel
p24
VHP Envy x360 13T-Y000
p25
sVScreen Size
p26
V13.3 in
p27
sVProcessor Type
p28
VIntel Core i7
p29
ssS'title'
p30
VRefurbished HP Envy x360 13 13.3" QHD TouchScreen Laptop/Notebook/Tablet Convertible, Core i7-7500U 2.7GHz, 16GB Memory, 512GB M.2 SSD, WiFi AC, Bluetooth, Backlit Keyboard, Windows 10 Professional
p31
sb.