ccopy_reg
_reconstructor
p0
(c__main__
ProductRecord
p1
c__builtin__
object
p2
Ntp3
Rp4
(dp5
S'product_url'
p6
S'http://www.walmart.com/ip/Dell-Inspiron-15-5000-15-6-FHD-Touchscreen-Laptop-Intel-Core-i5-6200U-8-GB-RAM-1-TB-HDD-Windows-10-MaxxAudio-Pro-Silver/727542079'
p7
sS'price'
p8
S'N/A'
p9
sS'properties'
p10
(dp11
VBrand
p12
VLEGO
p13
sVScreen Size
p14
V15.6
p15
sVHard Drive Capacity
p16
V1000
p17
ssS'title'
p18
VDell Inspiron 15 5000 15.6" FHD Touchscreen Laptop ( Intel Core i5-6200U, 8 GB RAM, 1 TB HDD, Windows 10-MaxxAudio Pro), Silver
p19
sb.