ccopy_reg
_reconstructor
p0
(c__main__
ProductRecord
p1
c__builtin__
object
p2
Ntp3
Rp4
(dp5
S'product_url'
p6
S'http://www.walmart.com/ip/HP-15-aw007cy-Pavilion-15-6-Touch-Notebook-w-AMD-A9-6GB-RAM-1TB-HDD-Refurb/419572046'
p7
sS'price'
p8
S'N/A'
p9
sS'properties'
p10
(dp11
VRAM Memory
p12
V6 GB
p13
sVOperating System
p14
VMicrosoft Windows
p15
sVColor Category
p16
VMulticolor
p17
sVLaptop Computer Type
p18
VTouchscreen
p19
sVBrand
p20
VHP
p21
sVManufacturer Part Number
p22
VX3T17UAR#ABA
p23
sVHard Drive Capacity
p24
V1 TB
p25
sVProcessor Core Type
p26
VDual-core (2 Core)
p27
sVProcessor Type
p28
VAMD A-Series
p29
sVScreen Size
p30
V15.6"
p31
sVModel
p32
VX3T17UAR#ABA
p33
sVManufacturer
p34
VHewlett Packard
p35
ssS'title'
p36
VHP 15-aw007cy Pavilion 15.6" Touch Notebook w/ AMD A9, 6GB RAM & 1TB HDD, Refurb
p37
sb.