ccopy_reg
_reconstructor
p0
(c__main__
ProductRecord
p1
c__builtin__
object
p2
Ntp3
Rp4
(dp5
S'product_url'
p6
S'http://www.walmart.com/ip/HP-15-Core-i3-7100-2TB-HDD-15-6-HD-Touch-Screen-Laptop-Bundle-with-Office-365-Refurbished/611018718'
p7
sS'price'
p8
S'N/A'
p9
sS'properties'
p10
(dp11
sS'title'
p12
VHP 15 Core i3-7100 2TB HDD 15.6\u201d HD Touch Screen Laptop Bundle with Office 365 (Refurbished)
p13
sb.