ccopy_reg
_reconstructor
p0
(c__main__
ProductRecord
p1
c__builtin__
object
p2
Ntp3
Rp4
(dp5
S'product_url'
p6
S'http://www.walmart.com/ip/Panasonic-Toughbook-CF-31-Multi-TOUCH-13-3-Intel-Core-i5-520M-2-4GHz-2-9GHz-8GB-Memory-128GB-SSD-Bluetooth-9-Pin-Serial-Port-Windows-7-Professional-T/745788684'
p7
sS'price'
p8
S'N/A'
p9
sS'properties'
p10
(dp11
sS'title'
p12
VPanasonic Toughbook CF-31 Multi-TOUCH 13.3" Intel Core i5 520M (2.4GHz-2.9GHz) 8GB Memory 128GB SSD Bluetooth 9-Pin Serial Port Windows 7 Professional Touchscreen Laptop w Stylus Pen (Refurbished)
p13
sb.