ccopy_reg
_reconstructor
p0
(c__main__
ProductRecord
p1
c__builtin__
object
p2
Ntp3
Rp4
(dp5
S'product_url'
p6
S'http://www.walmart.com/ip/Refurbished-Dell-Latitude-E7240-12-5-Touch-Laptop-Intel-i7-4600U-2-1GHz-8GB-512GB-SSD-W8-1P/553570209'
p7
sS'price'
p8
S'N/A'
p9
sS'properties'
p10
(dp11
VRAM Memory
p12
V8 GB
p13
sVOperating System
p14
VMicrosoft Windows
p15
sVBrand
p16
VDell
p17
sVManufacturer Part Number
p18
VE7240TS-I721-SKN-FB-9C
p19
sVHard Drive Capacity
p20
V512 GB
p21
sVModel
p22
VLatitude E7240
p23
sVScreen Size
p24
V12.5\u005c"
p25
ssS'title'
p26
VRefurbished Dell Latitude E7240 12.5" Touch Laptop Intel i7-4600U 2.1GHz 8GB 512GB SSD W8.1P
p27
sb.