ccopy_reg
_reconstructor
p0
(c__main__
ProductRecord
p1
c__builtin__
object
p2
Ntp3
Rp4
(dp5
S'product_url'
p6
S'http://www.walmart.com/ip/Dell-Inspiron-15-5000-i5578-15-6-Laptop-Touchscreen-2-in-1-Windows-10-Home-Intel-Core-i7-7500U-Processor-16GB-RAM-512GB-Solid-State-Drive/54906450'
p7
sS'price'
p8
S'N/A'
p9
sS'properties'
p10
(dp11
VRAM Memory
p12
V16 GB
p13
sVOperating System
p14
VWindows 10
p15
sVVideo Game Platform
p16
VPC
p17
sVBrand
p18
VDell
p19
sVProcessor Speed
p20
V3.50 GHz
p21
sVManufacturer Part Number
p22
Vi5578-10050GRY
p23
sVHard Drive Capacity
p24
V512 GB
p25
sVAssembled Product Dimensions (L x W x H)
p26
V19.50 x 3.10 x 13.10 Inches
p27
sVModel
p28
Vi5578-10050GRY
p29
sVScreen Size
p30
V15.6"
p31
sVProcessor Type
p32
VIntel Core i7
p33
ssS'title'
p34
VDell Inspiron 15 5000 i5578 15.6" Laptop, Touchscreen, 2-in-1, Windows 10 Home, Intel Core i7-7500U Processor, 16GB RAM, 512GB Solid State Drive
p35
sb.