ccopy_reg
_reconstructor
p0
(c__main__
ProductRecord
p1
c__builtin__
object
p2
Ntp3
Rp4
(dp5
S'product_url'
p6
S'http://www.walmart.com/ip/Acer-C738t-c5r6-11-6-Touchscreen-Led-in-plane-Switching-ips-Technology-Chromebook-Intel-Celeron-N3150-Quad-core-4-Core-1-60-Ghz-4-Gb-Ddr3l-Sdram-Ram-/51083574'
p7
sS'price'
p8
S'N/A'
p9
sS'properties'
p10
(dp11
VRAM Memory
p12
V4 GB
p13
sVOperating System
p14
VChrome OS
p15
sVLaptop Computer Type
p16
VTouchscreen
p17
sVBrand
p18
VAcer
p19
sVManufacturer Part Number
p20
VNX.G55AA.003
p21
sVProcessor Core Type
p22
VCeleron
p23
sVProcessor Type
p24
VIntel Celeron
p25
sVScreen Size
p26
V11.6"
p27
sVModel
p28
VNX.G55AA.003
p29
sVCondition
p30
VNew
p31
sVManufacturer
p32
VAcer
p33
ssS'title'
p34
VAcer C738t-c5r6 11.6" Touchscreen Led [in-plane Switching [ips] Technology] Chromebook - Intel Celeron N3150 Quad-core [4 Core] 1.60 Ghz - 4 Gb Ddr3l Sdram Ram - Intel Hd Graphics Ddr3l (nx-g55aa-003)
p35
sb.