ccopy_reg
_reconstructor
p0
(c__main__
ProductRecord
p1
c__builtin__
object
p2
Ntp3
Rp4
(dp5
S'product_url'
p6
S'http://www.walmart.com/ip/Dell-Inspiron-15-6-Full-HD-1920x1080-Touchscreen-Laptop-Latest-Intel-Skylake-Core-i5-6200U-8GB-Memory-250GB-SSD-Solid-State-Drive-RealSense-3D-Camera/728636879'
p7
sS'price'
p8
S'N/A'
p9
sS'properties'
p10
(dp11
VBrand
p12
VDell
p13
sVScreen Size
p14
V15.6
p15
sVHard Drive Capacity
p16
V250
p17
ssS'title'
p18
VDell Inspiron 15.6" Full HD 1920x1080 Touchscreen Laptop Latest Intel Skylake Core i5-6200U 8GB Memory 250GB SSD Solid State Drive RealSense 3D Camera USB 3.0 Bluetooth Backlit Keyboard Windows 10
p19
sb.