ccopy_reg
_reconstructor
p0
(c__main__
ProductRecord
p1
c__builtin__
object
p2
Ntp3
Rp4
(dp5
S'product_url'
p6
S'http://www.walmart.com/ip/Asus-10-1-Netbook-w-Intel-Bay-Trail-T-TZ3775-2GB-RAM-64GB-SSD/49699099'
p7
sS'price'
p8
S'N/A'
p9
sS'properties'
p10
(dp11
VRAM Memory
p12
V2 Gigabytes
p13
sVOperating System
p14
VWindows 10
p15
sVVideo Game Platform
p16
VPC
p17
sVBrand
p18
VASUS
p19
sVProcessor Speed
p20
V1.46 Gigahertz
p21
sVManufacturer Part Number
p22
V90NB07H1-M02520
p23
sVHard Drive Capacity
p24
V64 Gigabytes
p25
sVModel
p26
V90NB07H1-M02520
p27
sVScreen Size
p28
V10.10 Inches
p29
sVProcessor Type
p30
VIntel Z3775
p31
sVCondition
p32
VNew
p33
ssS'title'
p34
VAsus 10.1" Netbook w/ Intel Bay Trail-T TZ3775, 2GB RAM & 64GB SSD
p35
sb.