ccopy_reg
_reconstructor
p0
(c__main__
ProductRecord
p1
c__builtin__
object
p2
Ntp3
Rp4
(dp5
S'product_url'
p6
S'http://www.walmart.com/ip/Refurbished-Acer-Aspire-Switch-10-1-Touchscreen-Intel-Z3735F-1-33GHz-32GB-Windows-10-Laptop/119593365'
p7
sS'price'
p8
S'N/A'
p9
sS'properties'
p10
(dp11
VBrand
p12
VAcer
p13
sVRAM Memory
p14
V32 GB
p15
sVOperating System
p16
VMicrosoft Windows
p17
sVManufacturer Part Number
p18
VSW5-015-12KL-PB-R
p19
ssS'title'
p20
VRefurbished Acer Aspire Switch 10.1: Touchscreen Intel Z3735F 1.33GHz 32GB Windows 10 Laptop
p21
sb.