ccopy_reg
_reconstructor
p0
(c__main__
ProductRecord
p1
c__builtin__
object
p2
Ntp3
Rp4
(dp5
S'product_url'
p6
S'http://www.walmart.com/ip/Panasonic-Toughbook-CF-C2-TOUCH-HD-12-4-Intel-Core-i5-4300U-1-9GHz-2-9GHz-8GB-Memory-180GB-SSD-Webcam-Windows-10-Professional-Touchscreen-Laptop-w-St/523833812'
p7
sS'price'
p8
S'N/A'
p9
sS'properties'
p10
(dp11
sS'title'
p12
VPanasonic Toughbook CF-C2 TOUCH HD 12.4" Intel Core i5 4300U (1.9GHz-2.9GHz) 8GB Memory 180GB SSD Webcam Windows 10 Professional Touchscreen Laptop w/ Stylus Pen (Refurbished)
p13
sb.