ccopy_reg
_reconstructor
p0
(c__main__
ProductRecord
p1
c__builtin__
object
p2
Ntp3
Rp4
(dp5
S'product_url'
p6
S'http://www.walmart.com/ip/HP-x2-210-G2-10-1-Atom-x5-Z8350-4-GB-RAM-64-GB-SSD/114706790'
p7
sS'price'
p8
S'N/A'
p9
sS'properties'
p10
(dp11
VRAM Memory
p12
V4 Gigabytes
p13
sVOperating System
p14
VWindows 10
p15
sVFeatures
p16
V64GB W10P 64BIT BT X5-Z8350
p17
sVBrand
p18
VHP
p19
sVProcessor Speed
p20
V1.44 Gigahertz
p21
sVManufacturer Part Number
p22
VX9V20UT#ABA
p23
sVHard Drive Capacity
p24
V64 Gigabytes
p25
sVBattery Life
p26
V0 h
p27
sVAssembled Product Dimensions (L x W x H)
p28
V5.00 x 5.00 x 5.00 Inches
p29
sVModel
p30
VX9V20UT#ABA
p31
sVScreen Size
p32
V10.10 Inches
p33
sVProcessor Type
p34
VIntel x5-Z8350
p35
sVCondition
p36
VNew
p37
ssS'title'
p38
VHP x2 210 G2 - 10.1" - Atom x5 Z8350 - 4 GB RAM - 64 GB SSD
p39
sb.