ccopy_reg
_reconstructor
p0
(c__main__
ProductRecord
p1
c__builtin__
object
p2
Ntp3
Rp4
(dp5
S'product_url'
p6
S'http://www.walmart.com/ip/Refurbished-Dell-XPS-13-XPS9350-8008SLV-Laptop-PC-Intel-Core-i7-6560U-2-2-GHz-Dual-Core-Processor-16-GB-LPDDR3-RAM-512-GB-Solid-State-Drive-13-3-inch/251830829'
p7
sS'price'
p8
S'N/A'
p9
sS'properties'
p10
(dp11
sS'title'
p12
VRefurbished Dell XPS 13 XPS9350-8008SLV Laptop PC - Intel Core i7-6560U 2.2 GHz Dual-Core Processor - 16 GB LPDDR3 RAM - 512 GB Solid State Drive - 13.3-inch Touchscreen Display - Windows 10 Home
p13
sb.