ccopy_reg
_reconstructor
p0
(c__main__
ProductRecord
p1
c__builtin__
object
p2
Ntp3
Rp4
(dp5
S'product_url'
p6
S'http://www.walmart.com/ip/EliteBook-x360-1020-G2-i5-7200U-8GB-256GB-12-5-Windows-10-Pro-Touch-Screen-Notebook/235293307'
p7
sS'price'
p8
S'N/A'
p9
sS'properties'
p10
(dp11
VRAM Memory
p12
V8.00 GB
p13
sVOperating System
p14
VWindows 10
p15
sVFeatures
p16
VI5-7200U 2.5G 12.5IN 8GB 256GB W10P
p17
sVBrand
p18
VHP
p19
sVProcessor Speed
p20
V2.50 GHz
p21
sVManufacturer Part Number
p22
V2UE38UT#ABA
p23
sVMaximum RAM Supported
p24
V16.00 GB
p25
sVHard Drive Capacity
p26
V256.00 GB
p27
sVBattery Life
p28
V16 Hours
p29
sVAssembled Product Dimensions (L x W x H)
p30
V18.11 x 11.57 x 2.99 Inches
p31
sVModel
p32
V2UE38UT
p33
sVScreen Size
p34
V12.50 in
p35
sVProcessor Type
p36
VIntel Core i5
p37
ssS'title'
p38
VEliteBook x360 1020 G2 i5-7200U 8GB 256GB 12.5" Windows 10 Pro Touch Screen Notebook
p39
sb.