ccopy_reg
_reconstructor
p0
(c__main__
ProductRecord
p1
c__builtin__
object
p2
Ntp3
Rp4
(dp5
S'product_url'
p6
S'http://www.walmart.com/ip/Acer-Aspire-Z24-880-UR12-Intel-Core-i3-7th-Gen-7100T-3-40-GHz-6-GB-DDR4-1-TB-HDD-23-8-Touchscreen-Windows-10-Home-All-in-One/911494647'
p7
sS'price'
p8
S'N/A'
p9
sS'properties'
p10
(dp11
VRAM Memory
p12
V6.00 GB
p13
sVOperating System
p14
VWindows 10
p15
sVBrand
p16
VAcer
p17
sVProcessor Speed
p18
V3.40 GHz
p19
sVManufacturer Part Number
p20
VDQ.B8UAA.002
p21
sVMaximum RAM Supported
p22
V32.00 GB
p23
sVHard Drive Capacity
p24
V1.00 TB
p25
sVBattery Life
p26
V0 h
p27
sVAssembled Product Dimensions (L x W x H)
p28
V24.10 x 17.60 x 5.60 Inches
p29
sVModel
p30
VZ24880UR12
p31
sVScreen Size
p32
V23.80 in
p33
sVProcessor Type
p34
VIntel Core i3
p35
ssS'title'
p36
VAcer Aspire Z24-880-UR12 Intel Core i3 7th Gen 7100T (3.40 GHz) 6 GB DDR4 1 TB HDD 23.8" Touchscreen Windows 10 Home All-in-One
p37
sb.