ccopy_reg
_reconstructor
p0
(c__main__
ProductRecord
p1
c__builtin__
object
p2
Ntp3
Rp4
(dp5
S'product_url'
p6
S'http://www.walmart.com/ip/2015-Tablet-Year-Microsoft-Surface-Book-Tablet-2-in-1-Laptop-13-5-touch-screen-3000x2000-3K-3-2-QHD-Digitizer-Stylus-Pen-Windows-10-Pro-Core-i5-6300U/144744030'
p7
sS'price'
p8
S'N/A'
p9
sS'properties'
p10
(dp11
VRAM Memory
p12
V8 GB
p13
sVOperating System
p14
VMicrosoft Windows
p15
sVFeatures
p16
V2 USB Ports. Mini Display Port, 3.5 mm Jack for headphone and Microphone
p17
sVBrand
p18
VMicrosoft
p19
sVManufacturer Part Number
p20
VCR9-00001
p21
sVHard Drive Capacity
p22
V128 GB
p23
sVAssembled Product Dimensions (L x W x H)
p24
V12.30 x 9.14 x 0.90 Inches
p25
sVScreen Size
p26
V13.5\u005c"
p27
sVAssembled Product Weight
p28
V3.48 Pounds
p29
ssS'title'
p30
V2015 Tablet of the Year Microsoft Surface Book Tablet 2-in-1 Laptop 13.5" touch screen 3000x2000 3K 3:2 QHD Digitizer Stylus Pen Windows 10 Pro (Core i5-6300U 8GB 128GB SSD Laptop Only)
p31
sb.