ccopy_reg
_reconstructor
p0
(c__main__
ProductRecord
p1
c__builtin__
object
p2
Ntp3
Rp4
(dp5
S'product_url'
p6
S'http://www.walmart.com/ip/Acer-Aspire-Switch-12-S-2-in-1-Notebook-with-Intel-M3-6Y30-4GB-128GB-SSD/123374932'
p7
sS'price'
p8
S'N/A'
p9
sS'properties'
p10
(dp11
VRAM Memory
p12
V4 Gigabytes
p13
sVOperating System
p14
VWindows 10
p15
sVVideo Game Platform
p16
VPC
p17
sVBrand
p18
VAcer
p19
sVProcessor Speed
p20
V900 Megahertz
p21
sVManufacturer Part Number
p22
VNT.GA9AA.001
p23
sVHard Drive Capacity
p24
V128 Gigabytes
p25
sVAssembled Product Dimensions (L x W x H)
p26
V5.00 x 5.00 x 5.00 Inches
p27
sVModel
p28
VNT.GA9AA.001
p29
sVScreen Size
p30
V12.50 in
p31
sVProcessor Type
p32
VIntel m3-6Y30
p33
sVCondition
p34
VNew
p35
ssS'title'
p36
VAcer Aspire Switch 12 S 2-in-1 Notebook with Intel M3-6Y30, 4GB 128GB SSD
p37
sb.