ccopy_reg
_reconstructor
p0
(c__main__
ProductRecord
p1
c__builtin__
object
p2
Ntp3
Rp4
(dp5
S'product_url'
p6
S'http://www.walmart.com/ip/Acer-Spin-7-SP714-51-M33X-14-Core-i7-7Y75-8-GB-RAM-256-GB-SSD/148713962'
p7
sS'price'
p8
S'N/A'
p9
sS'properties'
p10
(dp11
VRAM Memory
p12
V8 Gigabytes
p13
sVOperating System
p14
VWindows 10
p15
sVFeatures
p16
VModel SP71451 14" Ci77Y75 8G 256SSD Win10
p17
sVBrand
p18
VAcer
p19
sVProcessor Speed
p20
V1.3 Gigahertz
p21
sVManufacturer Part Number
p22
VNX.GKPAA.005
p23
sVHard Drive Capacity
p24
V256 Gigabytes
p25
sVBattery Life
p26
V8 Hours
p27
sVAssembled Product Dimensions (L x W x H)
p28
V5.00 x 5.00 x 5.00 Inches
p29
sVModel
p30
VNX.GKPAA.005
p31
sVScreen Size
p32
V14.00 Inches
p33
sVProcessor Type
p34
VIntel i7-7Y75
p35
sVCondition
p36
VNew
p37
ssS'title'
p38
VAcer Spin 7 SP714-51-M33X - 14" - Core i7 7Y75 - 8 GB RAM - 256 GB SSD
p39
sb.