ccopy_reg
_reconstructor
p0
(c__main__
ProductRecord
p1
c__builtin__
object
p2
Ntp3
Rp4
(dp5
S'product_url'
p6
S'http://www.walmart.com/ip/ProBook-x360-11-G2-EE-Notebook-PC/686080255'
p7
sS'price'
p8
S'N/A'
p9
sS'properties'
p10
(dp11
VRAM Memory
p12
V8 GB
p13
sVOperating System
p14
VWindows 10
p15
sVFeatures
p16
VI5-7Y54 8GB 256GB SSD 11.6IN W10P
p17
sVBrand
p18
VHP
p19
sVProcessor Speed
p20
V1.2 GHz
p21
sVManufacturer Part Number
p22
V2GT75UT
p23
sVHard Drive Capacity
p24
V256 GB
p25
sVBattery Life
p26
V13 h
p27
sVAssembled Product Dimensions (L x W x H)
p28
V14.40 x 7.60 x 2.00 Inches
p29
sVModel
p30
V2GT75UT
p31
sVScreen Size
p32
V11.6 in
p33
sVProcessor Type
p34
VCore i5-7Y54
p35
sVCondition
p36
VNew
p37
ssS'title'
p38
VProBook x360 11 G2 EE Notebook PC
p39
sb.