ccopy_reg
_reconstructor
p0
(c__main__
ProductRecord
p1
c__builtin__
object
p2
Ntp3
Rp4
(dp5
S'product_url'
p6
S'http://www.walmart.com/ip/Lenovo-Miix-320-10ICR-10-1-Atom-x5-Z8350-2-GB-RAM-64-GB-SSD/55777830'
p7
sS'price'
p8
S'N/A'
p9
sS'properties'
p10
(dp11
VRAM Memory
p12
V2 GB
p13
sVOperating System
p14
VWindows 10
p15
sVColor Category
p16
VSilver
p17
sVVideo Game Platform
p18
VPC
p19
sVBrand
p20
VLenovo
p21
sVManufacturer Part Number
p22
V80XF000DUS
p23
sVHard Drive Capacity
p24
V64 GB
p25
sVLaptop Computer Type
p26
VTouchscreen
p27
sVProcessor Core Type
p28
VQuad-core (4 Core)
p29
sVProcessor Type
p30
VIntel Atom x5-Z8350 Processor
p31
sVScreen Size
p32
V10.1"
p33
sVModel
p34
V80XF000DUS
p35
sVCondition
p36
VNew
p37
sVManufacturer
p38
VLENOVO
p39
ssS'title'
p40
VLenovo Miix 320-10ICR - 10.1" - Atom x5 Z8350 - 2 GB RAM - 64 GB SSD
p41
sb.