ccopy_reg
_reconstructor
p0
(c__main__
ProductRecord
p1
c__builtin__
object
p2
Ntp3
Rp4
(dp5
S'product_url'
p6
S'http://www.walmart.com/ip/HP-EliteBook-850-G4-15-6-Core-i5-7300U-8-GB-RAM-256-GB-SSD/573323221'
p7
sS'price'
p8
S'N/A'
p9
sS'properties'
p10
(dp11
VRAM Memory
p12
V8 GB
p13
sVOperating System
p14
VWindows 10
p15
sVFeatures
p16
VI5-7300U 8GB 256GB 15.6IN BT W10P
p17
sVVideo Game Platform
p18
VSee Description
p19
sVBrand
p20
VHP
p21
sVProcessor Speed
p22
V2.6 GHz
p23
sVManufacturer Part Number
p24
V1BS50UT#ABA
p25
sVHard Drive Capacity
p26
V256 GB
p27
sVBattery Life
p28
V14 Hours
p29
sVAssembled Product Dimensions (L x W x H)
p30
V5.00 x 5.00 x 5.00 Inches
p31
sVModel
p32
V1BS50UT
p33
sVScreen Size
p34
V15.6 in
p35
sVProcessor Type
p36
VIntel Core i5
p37
sVCondition
p38
VNew
p39
ssS'title'
p40
VHP EliteBook 850 G4 - 15.6" - Core i5 7300U - 8 GB RAM - 256 GB SSD
p41
sb.