ccopy_reg
_reconstructor
p0
(c__main__
ProductRecord
p1
c__builtin__
object
p2
Ntp3
Rp4
(dp5
S'product_url'
p6
S'http://www.walmart.com/ip/Refurbished-Dell-Inspiron-11-3000-11-3168-11-6-Touchscreen-2-1-Notebook-Intel-Pentium-N3710-Quad-core-4-Core-1-60-GHz-4-GB-DDR3L-SDRAM-500-GB-HDD-Win/119471075'
p7
sS'price'
p8
S'N/A'
p9
sS'properties'
p10
(dp11
sS'title'
p12
VRefurbished Dell Inspiron 11 3000 11-3168 11.6" Touchscreen 2 in 1 Notebook - Intel Pentium N3710 Quad-core (4 Core) 1.60 GHz - 4 GB DDR3L SDRAM - 500 GB HDD - Windows 10 Home 64-bit (English) -
p13
sb.