ccopy_reg
_reconstructor
p0
(c__main__
ProductRecord
p1
c__builtin__
object
p2
Ntp3
Rp4
(dp5
S'product_url'
p6
S'http://www.walmart.com/ip/HP-Chromebook-11-G5-Education-Edition-11-6-Celeron-N3060-2-GB-RAM-16-GB-SSD/380009248'
p7
sS'price'
p8
S'N/A'
p9
sS'properties'
p10
(dp11
VRAM Memory
p12
V2 Gigabytes
p13
sVOperating System
p14
VChrome OS
p15
sVFeatures
p16
VN3060 2GB 16GB 11.6IN BT
p17
sVVideo Game Platform
p18
VPC
p19
sVBrand
p20
VHP
p21
sVProcessor Speed
p22
V1.6 Gigahertz
p23
sVManufacturer Part Number
p24
V1FX81UT#ABA
p25
sVHard Drive Capacity
p26
V16 Gigabytes
p27
sVAssembled Product Dimensions (L x W x H)
p28
V12.00 x 12.00 x 12.00 Inches
p29
sVModel
p30
V1FX81UT#ABA
p31
sVScreen Size
p32
V11.60 Inches
p33
sVProcessor Type
p34
VIntel N3060
p35
sVCondition
p36
VNew
p37
ssS'title'
p38
VHP Chromebook 11 G5 - Education Edition - 11.6" - Celeron N3060 - 2 GB RAM - 16 GB SSD
p39
sb.