ccopy_reg
_reconstructor
p0
(c__main__
ProductRecord
p1
c__builtin__
object
p2
Ntp3
Rp4
(dp5
S'product_url'
p6
S'http://www.walmart.com/ip/Acer-Nitro-5-Spin-NP515-51-887W-Intel-Core-i7-8th-Gen-8550U-1-80-GHz-8-GB-Memory-1-TB-HDD-NVIDIA-GeForce-GTX-1050-15-6-Touchscreen-Notebook-Tablet/115957924'
p7
sS'price'
p8
S'N/A'
p9
sS'properties'
p10
(dp11
VRAM Memory
p12
V8 GB
p13
sVOperating System
p14
VMicrosoft Windows, Windows 10
p15
sVFeatures
p16
VBIOS Passwords:  User Supervisor HDD 
p17
sVBrand
p18
VAcer
p19
sVProcessor Speed
p20
V1.80 GHz
p21
sVManufacturer Part Number
p22
VNH.Q2YAA.002
p23
sVHard Drive Capacity
p24
V1 TB
p25
sVModel
p26
VGeForce GTX 1050, NP515-51, NP515-51-887W
p27
sVScreen Size
p28
V15.6"
p29
sVProcessor Type
p30
VIntel Core i7
p31
ssS'title'
p32
VAcer Nitro 5 Spin NP515-51-887W Intel Core i7 8th Gen 8550U (1.80 GHz) 8 GB Memory 1 TB HDD NVIDIA GeForce GTX 1050 15.6" Touchscreen Notebook Tablet
p33
sb.