ccopy_reg
_reconstructor
p0
(c__main__
ProductRecord
p1
c__builtin__
object
p2
Ntp3
Rp4
(dp5
S'product_url'
p6
S'http://www.walmart.com/ip/Refurbished-Lenovo-Flex-5-2-In-1-Laptop-15-6-Touch-Screen-Intel-Core-i5-8GB-Memory-1TB-Hard-Drive-Windows-10/468554539'
p7
sS'price'
p8
S'N/A'
p9
sS'properties'
p10
(dp11
VBrand
p12
VLenovo
p13
sVRAM Memory
p14
V8 GB
p15
sVOperating System
p16
VMicrosoft Windows
p17
sVHard Drive Capacity
p18
V1000 GB
p19
ssS'title'
p20
VRefurbished Lenovo Flex 5 2-In-1 Laptop, 15.6 Touch Screen, Intel Core i5, 8GB Memory, 1TB Hard Drive, Windows 10
p21
sb.