ccopy_reg
_reconstructor
p0
(c__main__
ProductRecord
p1
c__builtin__
object
p2
Ntp3
Rp4
(dp5
S'product_url'
p6
S'http://www.walmart.com/ip/HP-ENVY-x360-2-in-1-15-6-Touch-Screen-Laptop-Intel-Core-i5-12GB-Memory-1TB-Hard-Drive-SilverNotebook-Tablet-PC-Computer-Touchscreen-m6-aq103dx/691568446'
p7
sS'price'
p8
S'N/A'
p9
sS'properties'
p10
(dp11
VRAM Memory
p12
V12 GB
p13
sVOperating System
p14
VMicrosoft Windows
p15
sVColor Category
p16
VSilver
p17
sVLaptop Computer Type
p18
VTouchscreen
p19
sVBrand
p20
VHP
p21
sVManufacturer Part Number
p22
VW2K45UA#ABA
p23
sVHard Drive Capacity
p24
V1000
p25
sVModel
p26
VHP ENVY
p27
sVScreen Size
p28
V15.6
p29
sVManufacturer
p30
VHP
p31
ssS'title'
p32
VHP - ENVY x360 2-in-1 15.6" Touch-Screen Laptop - Intel Core i5 - 12GB Memory - 1TB Hard Drive - SilverNotebook Tablet PC Computer Touchscreen m6-aq103dx
p33
sb.