ccopy_reg
_reconstructor
p0
(c__main__
ProductRecord
p1
c__builtin__
object
p2
Ntp3
Rp4
(dp5
S'product_url'
p6
S'http://www.walmart.com/ip/Lenovo-X1-Lenovo-ThinkPad-Carbon-Touchscreen-LED-Ultrabook-Intel-Core-i7-i7-4600-8GB-ram-256GB-SSD-REFURBISHED/159448147'
p7
sS'price'
p8
S'N/A'
p9
sS'properties'
p10
(dp11
VRAM Memory
p12
V4 Gigabytes
p13
sVOperating System
p14
Vwindows  10 Professional
p15
sVBrand
p16
VLenovo
p17
sVProcessor Speed
p18
V2.10 GHz
p19
sVManufacturer Part Number
p20
V20A80034US
p21
sVMaximum RAM Supported
p22
V8 GB
p23
sVBattery Life
p24
V9 Hour
p25
sVAssembled Product Dimensions (L x W x H)
p26
V8.90 x 13.00 x 0.70 Inches
p27
sVModel
p28
VHD 4400, X1 Carbon 2nd Gen, 20A80034US
p29
sVScreen Size
p30
V14"
p31
sVProcessor Type
p32
VIntel
p33
ssS'title'
p34
VLenovo X1 Lenovo ThinkPad Carbon Touchscreen  LED Ultrabook - Intel Core i7 i7-4600 8GB ram 256GB SSD - REFURBISHED
p35
sb.