ccopy_reg
_reconstructor
p0
(c__main__
ProductRecord
p1
c__builtin__
object
p2
Ntp3
Rp4
(dp5
S'product_url'
p6
S'http://www.walmart.com/ip/Manufacturer-Refurbished-Asus-R518UA-RS51T-15-6-Touch-Laptop-Intel-i5-7200U-2-5GHz-8GB-1TB-Windows-10/754138885'
p7
sS'price'
p8
S'N/A'
p9
sS'properties'
p10
(dp11
VRAM Memory
p12
V8 GB
p13
sVOperating System
p14
VMicrosoft Windows
p15
sVBrand
p16
VASUS
p17
sVManufacturer Part Number
p18
VR518UA-RS51T-RF
p19
sVHard Drive Capacity
p20
V1000 GB
p21
sVModel
p22
VR518UA-RS51T-RF
p23
sVScreen Size
p24
V15.6\u005c"
p25
ssS'title'
p26
VManufacturer Refurbished - Asus R518UA-RS51T 15.6" Touch Laptop Intel i5-7200U 2.5GHz 8GB 1TB Windows 10
p27
sb.