ccopy_reg
_reconstructor
p0
(c__main__
ProductRecord
p1
c__builtin__
object
p2
Ntp3
Rp4
(dp5
S'product_url'
p6
S'http://www.walmart.com/ip/HP-Chromebook-14-G5-Celeron-N3350-1-1-GHz-Chrome-OS-4-GB-RAM-16-GB-eMMC-14-TN-touchscreen-1366-x-768-HD-HD-Graphics-500-Wi-Fi-Bluetooth-kbd-US/378258368'
p7
sS'price'
p8
S'N/A'
p9
sS'properties'
p10
(dp11
VRAM Memory
p12
V4 Gigabytes
p13
sVOperating System
p14
VChrome OS
p15
sVBrand
p16
VHP
p17
sVProcessor Speed
p18
V1.1 Gigahertz
p19
sVHard Drive Capacity
p20
V16 Gigabytes
p21
sVBattery Life
p22
V10 Hours
p23
sVAssembled Product Dimensions (L x W x H)
p24
V18.00 x 12.00 x 3.00 Inches
p25
sVModel
p26
V3PD95UT#ABA
p27
sVScreen Size
p28
V14.00 Inches
p29
sVProcessor Type
p30
VIntel N3350
p31
sVCondition
p32
VNew
p33
sVmanufacturer_part_number
p34
V3pd95utaba
p35
ssS'title'
p36
VHP Chromebook 14 G5 - Celeron N3350 / 1.1 GHz - Chrome OS - 4 GB RAM - 16 GB eMMC - 14" TN touchscreen 1366 x 768 (HD) - HD Graphics 500 - Wi-Fi, Bluetooth - kbd: US
p37
sb.