ccopy_reg
_reconstructor
p0
(c__main__
ProductRecord
p1
c__builtin__
object
p2
Ntp3
Rp4
(dp5
S'product_url'
p6
S'http://www.walmart.com/ip/HP-17-3-Touch-Screen-Core-i5-2TB-HD-Office-365-Laptop-Certified-Refurbished/778375538'
p7
sS'price'
p8
S'N/A'
p9
sS'properties'
p10
(dp11
VOperating System
p12
VMicrosoft Windows
p13
sVBrand
p14
VHP
p15
sVManufacturer Part Number
p16
V2PE27UAR#ABA
p17
sVHard Drive Capacity
p18
V2000 GB
p19
sVAssembled Product Dimensions (L x W x H)
p20
V22.10 x 13.50 x 2.60 Inches
p21
sVModel
p22
V2PE27UAR#ABA
p23
sVScreen Size
p24
V17.3\u005c"
p25
ssS'title'
p26
VHP 17.3\u201d Touch Screen Core i5 2TB HD Office 365 Laptop (Certified Refurbished)
p27
sb.