(lp0
ccopy_reg
_reconstructor
p1
(c__main__
ProductRecord
p2
c__builtin__
object
p3
Ntp4
Rp5
(dp6
S'product_url'
p7
S'http://www.walmart.com/ip/Refurbished-HP-Stream-Laptop-14-ax030wm-N3060-CPU-4GB-RAM-32GB-HD/56136485'
p8
sS'price'
p9
V$149.00
p10
sS'properties'
p11
(dp12
VLaptop Computer Type
p13
VPC Laptops
p14
sVBrand
p15
VHP
p16
sVManufacturer Part Number
p17
VRB 14-ax030wm
p18
sVHard Drive Capacity
p19
V32
p20
sVModel
p21
VRB 14-ax030wm
p22
sVCondition
p23
VRefurbished
p24
sVManufacturer
p25
VGeneric
p26
ssS'title'
p27
VRefurbished HP Stream Laptop 14-ax030wm N3060 CPU, 4GB RAM, 32GB HD
p28
sbag1
(g2
g3
Ntp29
Rp30
(dp31
g7
S'http://www.walmart.com/ip/Refurbished-HP-Stream-11-6-Laptop-Windows-10-Home-Intel-Celeron-N3060-Processor-4GB-RAM-32GB-eMMC-Storage/55358401'
p32
sg9
V$139.00
p33
sg11
(dp34
VRAM Memory
p35
V4 KB
p36
sVOperating System
p37
VWindows 10
p38
sVFeatures
p39
VEPEAT
p40
sVVideo Game Platform
p41
VPC
p42
sVBrand
p43
VHP
p44
sVProcessor Speed
p45
V1.6 Hz
p46
sVManufacturer Part Number
p47
V11-y020wm
p48
sVHard Drive Capacity
p49
V32 KB
p50
sVBattery Life
p51
V10 hours
p52
sVAssembled Product Dimensions (L x W x H)
p53
V10.24 x 17.13 x 4.69 Inches
p54
sVModel
p55
V11-y020wm
p56
sVScreen Size
p57
V11.6"
p58
sVProcessor Type
p59
VIntel Celeron
p60
ssg27
VRefurbished HP Stream 11.6" Laptop, Windows 10 Home, Intel Celeron N3060 Processor, 4GB RAM, 32GB eMMC Storage
p61
sbag1
(g2
g3
Ntp62
Rp63
(dp64
g7
S'http://www.walmart.com/ip/Dell-Inspiron-15-3000-15-6-inch-HD-Intel-Celeron-Processor-N3060-4GB-1600MHz-DDR-500GB-5400-RPM-HDD/151974702'
p65
sg9
V$249.00
p66
sg11
(dp67
VRAM Memory
p68
V4 GB
p69
sVOperating System
p70
VWindows 10 Home 64-bit English
p71
sVColor Category
p72
VBlack
p73
sVLaptop Computer Type
p74
VPC Laptops
p75
sVBrand
p76
VDell
p77
sVManufacturer Part Number
p78
VI3552-C137BLK
p79
sVWireless Technology
p80
V802.11ac; Bluetooth
p81
sVHard Drive Capacity
p82
V500 GB
p83
sVProcessor Core Type
p84
VDual-core (2 Core)
p85
sVProcessor Type
p86
VIntel Celeron
p87
sVScreen Size
p88
V15.6 in
p89
sVModel
p90
Vi3552-C137BLK-PUS
p91
sVCondition
p92
VNew
p93
sVManufacturer
p94
VDell
p95
ssg27
VDell Inspiron 15 3000, 15.6-inch HD, Intel Celeron Processor N3060, 4GB 1600MHz DDR, 500GB 5400 RPM HDD
p96
sbag1
(g2
g3
Ntp97
Rp98
(dp99
g7
S'http://www.walmart.com/ip/HP-15-bw011wm-15-6-Soft-Gold-Laptop-Windows-10-AMD-A9-9420-Processor-4GB-Memory-500GB-Hard-Drive-DVD/56153454'
p100
sg9
V$299.00
p101
sg11
(dp102
VRAM Memory
p103
V4 KB
p104
sVOperating System
p105
VWindows 10
p106
sVBrand
p107
VHP
p108
sVProcessor Speed
p109
V3 Hz
p110
sVMaximum RAM Supported
p111
V4 KB
p112
sVHard Drive Capacity
p113
V500 GB
p114
sVBattery Life
p115
V6.75 h
p116
sVAssembled Product Dimensions (L x W x H)
p117
V14.96 x 9.99 x 0.94 Inches
p118
sVModel
p119
V15-bw011wm
p120
sVScreen Size
p121
V15.6
p122
sVProcessor Type
p123
V7th Generation AMD A9-9420 APU
p124
sVmanufacturer_part_number
p125
V15-bw011wm
p126
ssg27
VHP 15-bw011wm 15.6" Soft Gold Laptop, Windows 10, AMD A9-9420 Processor, 4GB Memory, 500GB Hard Drive, DVD
p127
sbag1
(g2
g3
Ntp128
Rp129
(dp130
g7
S'http://www.walmart.com/ip/HP-Silver-Iridium-Ci5-15-cc050wm-15-6-Laptop-Touchscreen-Windows-10-Home-Intel-Core-i5-7200U-Processor-12GB-Memory-1TB-Hard-Drive/796266165'
p131
sg9
V$569.00
p132
sg11
(dp133
VRAM Memory
p134
V12 KB
p135
sVOperating System
p136
VWindows 10
p137
sVColor Category
p138
VSilver
p139
sVLaptop Computer Type
p140
VPC Laptops
p141
sVBrand
p142
VHP
p143
sVManufacturer Part Number
p144
V1KU11UA#ABA
p145
sVWireless Technology
p146
V802.11ac
p147
sVHard Drive Capacity
p148
V1 KB
p149
sVProcessor Type
p150
V??? 7th Generation Intel?? Core??? i5-7200U Processor??? 7th Generation Intel?? Core??? i5-7200U Processor
p151
sVScreen Size
p152
V15.6 in
p153
sVModel
p154
V15-cc050wm
p155
sVManufacturer
p156
VHP
p157
ssg27
VHP Silver Iridium Ci5 15-cc050wm 15.6" Laptop, Touchscreen, Windows 10 Home, Intel Core i5-7200U Processor, 12GB Memory, 1TB Hard Drive
p158
sbag1
(g2
g3
Ntp159
Rp160
(dp161
g7
S'http://www.walmart.com/ip/HP-Stream-14-ax030wm-14-Smoke-Gray-Windows-10-Home-Office-365-Personal-1-year-included-Intel-Celeron-Processor-N3060-4GB-Memory-32GB-Storage/441405265'
p162
sg9
V$219.00
p163
sg11
(dp164
VRAM Memory
p165
V4 KB
p166
sVOperating System
p167
VWindows 10
p168
sVColor Category
p169
VGray
p170
sVLaptop Computer Type
p171
VPC Laptops
p172
sVBrand
p173
VHP
p174
sVManufacturer Part Number
p175
VX7S51UA#ABA
p176
sVHard Drive Capacity
p177
V32 KB
p178
sVProcessor Type
p179
VIntel?? Celeron?? Processor N3060
p180
sVScreen Size
p181
V14 in
p182
sVModel
p183
V14-AX030WM
p184
sVManufacturer
p185
VHP
p186
ssg27
VHP Stream 14-ax030wm 14\u201d Smoke Gray, Windows 10 Home, Office 365 Personal 1-year included, Intel Celeron Processor N3060, 4GB Memory, 32GB Storage
p187
sbag1
(g2
g3
Ntp188
Rp189
(dp190
g7
S'http://www.walmart.com/ip/HP-Flyer-Red-15-6-15-f272wm-Laptop-PC-with-Intel-Pentium-N3540-Processor-4GB-Memory-500GB-Hard-Drive-and-Windows-10-Home/46429958'
p191
sg9
V$299.00
p192
sg11
(dp193
VRAM Memory
p194
V4 GB
p195
sVOperating System
p196
VWindows 10
p197
sVColor Category
p198
VRed
p199
sVVideo Game Platform
p200
VPC
p201
sVBrand
p202
VHP
p203
sVManufacturer Part Number
p204
VN5Y05UA#ABA
p205
sVWireless Technology
p206
VEthernet
p207
sVLaptop Computer Type
p208
Vnotebook
p209
sVProcessor Core Type
p210
VQuad-core (4 Core)
p211
sVProcessor Type
p212
VIntel Pentium
p213
sVScreen Size
p214
V15.6 in
p215
sVModel
p216
V15-f272wm
p217
sVCondition
p218
VNew
p219
sVManufacturer
p220
VHewlett Packard
p221
ssg27
VHP Flyer Red 15.6" 15-f272wm Laptop PC with Intel Pentium N3540 Processor, 4GB Memory, 500GB Hard Drive and Windows 10 Home
p222
sbag1
(g2
g3
Ntp223
Rp224
(dp225
g7
S'http://www.walmart.com/ip/HP-Jaguar-15-bs070wm-15-6-Natural-Silver-Touch-Laptop-Windows-10-Intel-Core-i5-7200U-Processor-8GB-Memory-1TB-Hard-Drive/291615728'
p226
sg9
V$489.00
p227
sg11
(dp228
VRAM Memory
p229
V8 KB
p230
sVOperating System
p231
VMicrosoft Windows
p232
sVColor Category
p233
VSilver
p234
sVLaptop Computer Type
p235
VPC Laptops
p236
sVBrand
p237
VHP
p238
sVManufacturer Part Number
p239
V1WP50UA#ABA
p240
sVHard Drive Capacity
p241
V1000 KB
p242
sVProcessor Type
p243
VIntel Core i5
p244
sVScreen Size
p245
V15.6
p246
sVModel
p247
V15-bs070wm
p248
sVManufacturer
p249
VHP
p250
ssg27
VHP Jaguar 15-bs070wm, 15.6" Natural Silver Touch Laptop, Windows 10, Intel Core i5-7200U Processor, 8GB Memory, 1TB Hard Drive
p251
sbag1
(g2
g3
Ntp252
Rp253
(dp254
g7
S'http://www.walmart.com/ip/HP-Stream-14-Laptop-Windows-10-Home-Office-365-Personal-1-year-included-Intel-Celeron-N3060-Processor-4GB-RAM-32GB-eMMC-Storage/54056480'
p255
sg9
S'N/A'
p256
sg11
(dp257
VRAM Memory
p258
V4 GB
p259
sVOperating System
p260
VWindows 10
p261
sVFeatures
p262
VEPEAT
p263
sVVideo Game Platform
p264
VPC
p265
sVBrand
p266
VHP
p267
sVProcessor Speed
p268
V1.60 GHz, with a Max Turbo Speed of 2.48 GHz
p269
sVManufacturer Part Number
p270
VX7S46UA#ABA
p271
sVHard Drive Capacity
p272
V32 Gigabytes
p273
sVBattery Life
p274
V10 hours
p275
sVAssembled Product Dimensions (L x W x H)
p276
V13.27 x 8.90 x 0.70 Inches
p277
sVModel
p278
V14-ax010wm
p279
sVScreen Size
p280
V14.0 in
p281
sVProcessor Type
p282
VIntel Celeron
p283
sVCondition
p284
VNew
p285
ssg27
VHP Stream 14" Laptop, Windows 10 Home, Office 365 Personal 1-year included, Intel Celeron N3060 Processor, 4GB RAM, 32GB eMMC Storage
p286
sbag1
(g2
g3
Ntp287
Rp288
(dp289
g7
S'http://www.walmart.com/ip/Acer-Aspire-5-A515-51-3509-15-6-Full-HD-1920-x-1080-7th-Gen-Intel-Core-i3-7100U-8GB-DDR4-1TB-HDD-Windows-10-Home/230736492'
p290
sg9
V$374.00
p291
sg11
(dp292
VRAM Memory
p293
V8 KB
p294
sVOperating System
p295
VWindows 10
p296
sVBrand
p297
VAcer
p298
sVProcessor Speed
p299
V2.4 Hz
p300
sVMaximum RAM Supported
p301
V8 KB
p302
sVHard Drive Capacity
p303
V1 KB
p304
sVBattery Life
p305
V7 h
p306
sVAssembled Product Dimensions (L x W x H)
p307
V15.02 x 10.35 x 0.85 Inches
p308
sVModel
p309
VA515-51-3509
p310
sVScreen Size
p311
V15.6 in
p312
sVProcessor Type
p313
VIntel Core i3
p314
sVCondition
p315
VNew
p316
sVmanufacturer_part_number
p317
Va515-51-3509
p318
ssg27
VAcer Aspire 5 A515-51-3509, 15.6" Full HD (1920 x 1080), 7th Gen Intel Core i3-7100U, 8GB DDR4, 1TB HDD, Windows 10 Home
p319
sba.