ccopy_reg
_reconstructor
p0
(c__main__
ProductRecord
p1
c__builtin__
object
p2
Ntp3
Rp4
(dp5
S'product_url'
p6
S'http://www.walmart.com/ip/Dell-Inspiron-15-5000-Series-2-in-1-Laptop-Intel-Core-i5-7200U-8GB-RAM-1TB-Hard-Drive/54748238'
p7
sS'price'
p8
S'N/A'
p9
sS'properties'
p10
(dp11
VRAM Memory
p12
V8 KB
p13
sVOperating System
p14
VWindows 10 Home 64bit English
p15
sVVideo Game Platform
p16
VPC
p17
sVBrand
p18
VDell
p19
sVProcessor Speed
p20
V3.1 Hz
p21
sVHard Drive Capacity
p22
V1000 KB
p23
sVAssembled Product Dimensions (L x W x H)
p24
V19.50 x 13.10 x 3.10 Inches
p25
sVModel
p26
VI55782451GRY
p27
sVScreen Size
p28
V15.6 in
p29
sVProcessor Type
p30
VIntel Core i5-7200U
p31
sVCondition
p32
VNew
p33
sVmanufacturer_part_number
p34
Vi55782451gry
p35
ssS'title'
p36
VDell Inspiron 15 5000 Series 2-in-1 Laptop - Intel Core i5-7200U - 8GB RAM -1TB Hard Drive
p37
sb.