ccopy_reg
_reconstructor
p0
(c__main__
ProductRecord
p1
c__builtin__
object
p2
Ntp3
Rp4
(dp5
S'product_url'
p6
S'http://www.walmart.com/ip/iView-i896QW-8-95-2-in-1-32GB-Tablet-Intel-Atom-Bay-Trail-Z3735F-processor-Windows-10/54188880'
p7
sS'price'
p8
S'N/A'
p9
sS'properties'
p10
(dp11
VOperating System
p12
VMicrosoft Windows
p13
sVAccessories Included
p14
VAC Adapter
p15
sVBrand
p16
VIVIEW
p17
sVModel
p18
VI896QW-BK
p19
sVScreen Size
p20
V8.95
p21
sVCondition
p22
VNew
p23
sVManufacturer
p24
VIview
p25
ssS'title'
p26
ViView i896QW 8.95" 2-in-1 32GB Tablet Intel Atom Bay Trail Z3735F processor Windows 10
p27
sb.