ccopy_reg
_reconstructor
p0
(c__main__
ProductRecord
p1
c__builtin__
object
p2
Ntp3
Rp4
(dp5
S'product_url'
p6
S'http://www.walmart.com/ip/Refurbished-80XB0001US-FB-RCB-Lenovo/499377826'
p7
sS'price'
p8
S'N/A'
p9
sS'properties'
p10
(dp11
VRAM Memory
p12
V8 GB
p13
sVOperating System
p14
VMicrosoft Windows
p15
sVBrand
p16
VLenovo
p17
sVHard Drive Capacity
p18
V1000 GB
p19
sVModel
p20
V80XB
p21
sVScreen Size
p22
V15.6 in
p23
sVProcessor Type
p24
VIntel Core i5
p25
sVCondition
p26
VNew
p27
sVmanufacturer_part_number
p28
V80xb0001us-fb-rcb
p29
ssS'title'
p30
VRefurbished 80XB0001US-FB-RCB Lenovo
p31
sb.