ccopy_reg
_reconstructor
p0
(c__main__
ProductRecord
p1
c__builtin__
object
p2
Ntp3
Rp4
(dp5
S'product_url'
p6
S'http://www.walmart.com/ip/Lenovo-Flex-5-14-IPS-FHD-1920-x-1080-Display-2-in-1-Touchscreen-Laptop-Intel-i5-8250U-8GB-RAM-256GB-SSD-2GB-NVIDIA-GeForce-940MX-Backlit-Keyboard-Win/467854876'
p7
sS'price'
p8
S'N/A'
p9
sS'properties'
p10
(dp11
VRAM Memory
p12
V8 GB
p13
sVOperating System
p14
VMicrosoft Windows
p15
sVBrand
p16
VLenovo
p17
sVManufacturer Part Number
p18
V81C9000EUS
p19
sVHard Drive Capacity
p20
V256 GB
p21
sVModel
p22
V81C9
p23
sVScreen Size
p24
V14\u005c"
p25
sVProcessor Type
p26
VIntel Core i5
p27
ssS'title'
p28
VLenovo Flex 5 14" IPS FHD (1920 x 1080) Display 2-in-1 Touchscreen Laptop Intel i5-8250U 8GB RAM 256GB SSD 2GB NVIDIA GeForce 940MX Backlit Keyboard Win 10 Home with Active Stylus Pen Tablet Notebook
p29
sb.