ccopy_reg
_reconstructor
p0
(c__main__
ProductRecord
p1
c__builtin__
object
p2
Ntp3
Rp4
(dp5
S'product_url'
p6
S'http://www.walmart.com/ip/Lenovo-IdeaPad-Flex-15-6-Touchscreen-2-in-1-Notebook-w-8GB-RAM-256GB-SSD/586349498'
p7
sS'price'
p8
S'N/A'
p9
sS'properties'
p10
(dp11
VRAM Memory
p12
V8 Gigabytes
p13
sVOperating System
p14
VWindows 10
p15
sVBrand
p16
VLenovo
p17
sVProcessor Speed
p18
V2.5 Gigahertz
p19
sVManufacturer Part Number
p20
V80VE000EUS
p21
sVMaximum RAM Supported
p22
V16.00 GB
p23
sVHard Drive Capacity
p24
V256 Gigabytes
p25
sVModel
p26
V80VE000EUS
p27
sVScreen Size
p28
V15.60 Inches
p29
sVProcessor Type
p30
VIntel i5-7200U
p31
ssS'title'
p32
VLenovo IdeaPad Flex 15.6" Touchscreen 2 in 1 Notebook w/ 8GB RAM & 256GB SSD
p33
sb.