ccopy_reg
_reconstructor
p0
(c__main__
ProductRecord
p1
c__builtin__
object
p2
Ntp3
Rp4
(dp5
S'product_url'
p6
S'http://www.walmart.com/ip/Lenovo-Ideapad-320-15-6-HD-Touchscreen-Notebook-Intel-Core-i5-8250U-Upto-3-4GHz-8GB-DDR4-512GB-SSD-HDMI-Card-Reader-DVD-RW-USB-Wifi-Bluetooth-Intel-U/696274548'
p7
sS'price'
p8
S'N/A'
p9
sS'properties'
p10
(dp11
VRAM Memory
p12
V8 GB
p13
sVOperating System
p14
VMicrosoft Windows
p15
sVBrand
p16
VLenovo
p17
sVManufacturer Part Number
p18
VLen320i58t-8512P
p19
sVHard Drive Capacity
p20
V512 GB
p21
sVModel
p22
VLen320i58t-8512P
p23
sVScreen Size
p24
V15.6\u005c"
p25
sVCondition
p26
VNew
p27
ssS'title'
p28
VLenovo Ideapad 320 15.6" HD Touchscreen Notebook, Intel Core i5-8250U Upto 3.4GHz, 8GB DDR4, 512GB SSD, HDMI, Card Reader, DVD-RW, USB, Wifi, Bluetooth, Intel UHD Graphics 620, Windows 10 Pro 64Bit
p29
sb.