ccopy_reg
_reconstructor
p0
(c__main__
ProductRecord
p1
c__builtin__
object
p2
Ntp3
Rp4
(dp5
S'product_url'
p6
S'http://www.walmart.com/ip/Refurbished-Dell-Chromebook-CRM3189-2NN30-Laptop-PC-Intel-Celeron-N3060-1-6-GHz-Dual-Core-Processor-4-GB-DDR3L-SDRAM-16-GB-Solid-State-Drive-11-6-inc/145879956'
p7
sS'price'
p8
S'N/A'
p9
sS'properties'
p10
(dp11
sS'title'
p12
VRefurbished Dell Chromebook CRM3189-2NN30 Laptop PC - Intel Celeron N3060 1.6 GHz Dual-Core Processor - 4 GB DDR3L SDRAM - 16 GB Solid State Drive - 11.6-inch Touchscreen Display - Chrome OS - Black
p13
sb.