ccopy_reg
_reconstructor
p0
(c__main__
ProductRecord
p1
c__builtin__
object
p2
Ntp3
Rp4
(dp5
S'product_url'
p6
S'http://www.walmart.com/ip/HP-15-AY009DX-15-6-HD-Touch-Core-i3-6100U-6GB-Memory-1TB-HDD-Black/121542178'
p7
sS'price'
p8
S'N/A'
p9
sS'properties'
p10
(dp11
VBrand
p12
VHP
p13
sVProcessor Speed
p14
V2.16 GHz
p15
sVHard Drive Capacity
p16
V1000
p17
sVModel
p18
V15-ay009dx
p19
sVScreen Size
p20
V15.6
p21
sVProcessor Type
p22
VIntel Pentium
p23
ssS'title'
p24
VHP 15-AY009DX - 15.6" HD Touch - Core i3-6100U - 6GB Memory - 1TB HDD - Black
p25
sb.