ccopy_reg
_reconstructor
p0
(c__main__
ProductRecord
p1
c__builtin__
object
p2
Ntp3
Rp4
(dp5
S'product_url'
p6
S'http://www.walmart.com/ip/Dell-Inspiron-15-5567-15-6-Touchscreen-Notebook-w-Intel-i5-8GB-RAM-1TB-HDD/726462200'
p7
sS'price'
p8
S'N/A'
p9
sS'properties'
p10
(dp11
VRAM Memory
p12
V8 Gigabytes
p13
sVOperating System
p14
VWindows 10
p15
sVVideo Game Platform
p16
VSee Description
p17
sVBrand
p18
VDell
p19
sVProcessor Speed
p20
V2.5 Gigahertz
p21
sVHard Drive Capacity
p22
V1 Terabytes
p23
sVModel
p24
Vi5567-3654GRY
p25
sVScreen Size
p26
V15.60 Inches
p27
sVProcessor Type
p28
VIntel i5-7200U
p29
sVCondition
p30
VNew
p31
sVmanufacturer_part_number
p32
V15-5567
p33
ssS'title'
p34
VDell Inspiron 15-5567 15.6" Touchscreen Notebook w/ Intel i5, 8GB RAM & 1TB HDD
p35
sb.