ccopy_reg
_reconstructor
p0
(c__main__
ProductRecord
p1
c__builtin__
object
p2
Ntp3
Rp4
(dp5
S'product_url'
p6
S'http://www.walmart.com/ip/Dell-XPS-13-9370-13-3-4K-Touchscreen-Laptop-i7-8550U-8GB-256GB-SSD-Win10-Pro/763681259'
p7
sS'price'
p8
S'N/A'
p9
sS'properties'
p10
(dp11
VRAM Memory
p12
V8 Gigabytes
p13
sVOperating System
p14
VWindows 10 Pro (English)
p15
sVBrand
p16
VDell
p17
sVProcessor Speed
p18
V1.8 Gigahertz
p19
sVManufacturer Part Number
p20
VFJ7FF
p21
sVHard Drive Capacity
p22
V256 Gigabytes
p23
sVAssembled Product Dimensions (L x W x H)
p24
V12.00 x 18.00 x 3.00 Inches
p25
sVModel
p26
VFJ7FF
p27
sVScreen Size
p28
V13.30 Inches
p29
sVProcessor Type
p30
VIntel i7-8550U
p31
sVCondition
p32
VNew
p33
ssS'title'
p34
VDell XPS 13-9370 13.3" 4K Touchscreen Laptop i7-8550U 8GB 256GB SSD Win10 Pro
p35
sb.