ccopy_reg
_reconstructor
p0
(c__main__
ProductRecord
p1
c__builtin__
object
p2
Ntp3
Rp4
(dp5
S'product_url'
p6
S'http://www.walmart.com/ip/Lenovo-ThinkPad-11e-20HY0000US-11-6-Touchscreen-LCD-Chromebook-Refurbished/963279384'
p7
sS'price'
p8
S'N/A'
p9
sS'properties'
p10
(dp11
VRAM Memory
p12
V0 GB
p13
sVOperating System
p14
VChrome OS
p15
sVBrand
p16
VLenovo
p17
sVHard Drive Capacity
p18
V0 GB
p19
sVModel
p20
V20HY0000US
p21
sVScreen Size
p22
V0 in
p23
sVProcessor Speed
p24
V0 GHz
p25
sVmanufacturer_part_number
p26
V20hy0000us
p27
ssS'title'
p28
VLenovo ThinkPad 11e 20HY0000US 11.6" Touchscreen LCD Chromebook - (Refurbished)
p29
sb.