ccopy_reg
_reconstructor
p0
(c__main__
ProductRecord
p1
c__builtin__
object
p2
Ntp3
Rp4
(dp5
S'product_url'
p6
S'http://www.walmart.com/ip/Refurbished-HP-Pavilion-x360-11-k064nr-Tablet-PC-11-6-Wireless-LAN-Intel-Pentium-N3700-Quad-core-4-Core-1-60-GHz-M1X20UA-ABA/263659104'
p7
sS'price'
p8
S'N/A'
p9
sS'properties'
p10
(dp11
VBrand
p12
VHP
p13
sVmanufacturer_part_number
p14
Vm1x20ua # aba
p15
ssS'title'
p16
VRefurbished HP Pavilion x360 11-k064nr Tablet PC - 11.6 - Wireless LAN - Intel Pentium N3700 Quad-core (4 Core) 1.60 GHz - M1X20UA#ABA
p17
sb.