ccopy_reg
_reconstructor
p0
(c__main__
ProductRecord
p1
c__builtin__
object
p2
Ntp3
Rp4
(dp5
S'product_url'
p6
S'http://www.walmart.com/ip/HP-Spectre-x360-15-BL010CA-15-6-UHD-TouchScreen-Laptop-i7-7500U-GeForce-940MX-256GB-SSD-Certified-Refurbished/690906707'
p7
sS'price'
p8
S'N/A'
p9
sS'properties'
p10
(dp11
VOperating System
p12
VMicrosoft Windows
p13
sVBrand
p14
VHP
p15
sVScreen Size
p16
V15.6\u005c"
p17
sVHard Drive Capacity
p18
V256 GB
p19
sVManufacturer Part Number
p20
V15-BL010CA
p21
ssS'title'
p22
VHP Spectre x360 15-BL010CA 15.6" UHD TouchScreen Laptop - i7-7500U, GeForce 940MX, 256GB SSD (Certified Refurbished)
p23
sb.