ccopy_reg
_reconstructor
p0
(c__main__
ProductRecord
p1
c__builtin__
object
p2
Ntp3
Rp4
(dp5
S'product_url'
p6
S'http://www.walmart.com/ip/Refurbished-Dell-Latitude-3189-2-in-1-Notebook-PC-Intel-Celeron-N3350-1-1-GHz-Dual-Core-Processor-4-GB-RAM-128-GB-Solid-State-Drive-11-6-inch-Touchsc/709042795'
p7
sS'price'
p8
S'N/A'
p9
sS'properties'
p10
(dp11
sS'title'
p12
VRefurbished Dell Latitude 3189 2-in-1 Notebook PC - Intel Celeron N3350 1.1 GHz Dual-Core Processor - 4 GB RAM - 128 GB Solid State Drive - 11.6-inch Touchscreen Display - Windows 10 Pro
p13
sb.