ccopy_reg
_reconstructor
p0
(c__main__
ProductRecord
p1
c__builtin__
object
p2
Ntp3
Rp4
(dp5
S'product_url'
p6
S'http://www.walmart.com/ip/Dell-Inspiron-11-3000-Series-I3168-290TRJ2-Notebook-PC-Intel-Refurbished/419289287'
p7
sS'price'
p8
S'N/A'
p9
sS'properties'
p10
(dp11
VRAM Memory
p12
V4 GB
p13
sVOperating System
p14
VWindows 10 Professional 64-bit Edition
p15
sVBrand
p16
VDell
p17
sVProcessor Speed
p18
V1.6 GHz
p19
sVHard Drive Capacity
p20
V500 GB
p21
sVModel
p22
VI3168-290TRJ2
p23
sVScreen Size
p24
V11.6 in
p25
sVProcessor Type
p26
VIntel Pentium N
p27
sVmanufacturer_part_number
p28
Vi3168-290trj2
p29
ssS'title'
p30
VDell Inspiron 11 3000 Series I3168-290TRJ2 Notebook PC - Intel (Refurbished)
p31
sb.