ccopy_reg
_reconstructor
p0
(c__main__
ProductRecord
p1
c__builtin__
object
p2
Ntp3
Rp4
(dp5
S'product_url'
p6
S'http://www.walmart.com/ip/Refurbished-ASUS-ZENBOOK-UX301LA-WS71T-Laptop-UX301LA-WS71T-ZENBOOK-UX301LA-WS71T-Laptop/841924652'
p7
sS'price'
p8
S'N/A'
p9
sS'properties'
p10
(dp11
VBrand
p12
VASUS
p13
sVOperating System
p14
VMicrosoft Windows
p15
ssS'title'
p16
VRefurbished ASUS ZENBOOK UX301LA-WS71T Laptop UX301LA-WS71T ZENBOOK UX301LA-WS71T Laptop
p17
sb.