ccopy_reg
_reconstructor
p0
(c__main__
ProductRecord
p1
c__builtin__
object
p2
Ntp3
Rp4
(dp5
S'product_url'
p6
S'http://www.walmart.com/ip/Hp-Elitebook-Revolve-810-G3-Tablet-Pc-11-6-Wireless-Lan-Intel-Core-I3-I3-5010u-2-10-Ghz-4-Gb-Ram-128-Gb-Ssd-Windows-8-1-Pro-64-bit-Convertible-1366-X/44499336'
p7
sS'price'
p8
S'N/A'
p9
sS'properties'
p10
(dp11
VOperating System
p12
VMicrosoft Windows
p13
sVFeatures
p14
VI3-5010U 2.1G 4GB 128GB SSD 11.6IN
p15
sVAccessories Included
p16
VPower Cord
p17
sVColor
p18
VMulticolor
p19
sVVideo Game Platform
p20
VPC
p21
sVBrand
p22
VHP
p23
sVManufacturer Part Number
p24
VL8D29UT#ABA
p25
sVMaximum RAM Supported
p26
V12 GB, SO DIMM 204-pin, 1600 MHz / PC3-12800
p27
sVBattery Life
p28
V6 Hours
p29
sVAssembled Product Dimensions (L x W x H)
p30
V18.11 x 11.60 x 3.00 Inches
p31
sVModel
p32
VL8D29UT#ABA
p33
sVScreen Size
p34
V11.6
p35
sVCondition
p36
VNew
p37
sVAssembled Product Weight
p38
V3.08 Pounds
p39
ssS'title'
p40
VHp Elitebook Revolve 810 G3 Tablet Pc - 11.6" - Wireless Lan - Intel Core I3 I3-5010u 2.10 Ghz - 4 Gb Ram - 128 Gb Ssd - Windows 8.1 Pro 64-bit - Convertible - 1366 X 768 Multi-touch (l8d29ut-aba)
p41
sb.