ccopy_reg
_reconstructor
p0
(c__main__
ProductRecord
p1
c__builtin__
object
p2
Ntp3
Rp4
(dp5
S'product_url'
p6
S'http://www.walmart.com/ip/NEW-NEW-HP-EliteBook-Revolve-810-G3-11-6-Touch-Laptop-i5-5200u-4GB-128GB-SSD-W10-Pro/924328137'
p7
sS'price'
p8
S'N/A'
p9
sS'properties'
p10
(dp11
VRAM Memory
p12
V4 GB
p13
sVOperating System
p14
VMicrosoft Windows
p15
sVBrand
p16
VHP
p17
sVManufacturer Part Number
p18
V810 G3-RF
p19
sVHard Drive Capacity
p20
V128 GB
p21
sVModel
p22
V810 G3-RF
p23
ssS'title'
p24
VNEW - NEW HP EliteBook Revolve 810 G3 11.6 Touch Laptop i5-5200u 4GB 128GB SSD W10 Pro
p25
sb.