ccopy_reg
_reconstructor
p0
(c__main__
ProductRecord
p1
c__builtin__
object
p2
Ntp3
Rp4
(dp5
S'product_url'
p6
S'http://www.walmart.com/ip/REFURBISHED-Alienware-13-ANW13-8636SLV-13-3-Touchscreen-Gaming-Laptop-Intel-Core-i7-Broadwell-16GB-RAM-512GB-SSD-NVIDIA-GeForce-GTX-860M-Windows-8-1-/146210379'
p7
sS'price'
p8
S'N/A'
p9
sS'properties'
p10
(dp11
VOperating System
p12
VMicrosoft Windows
p13
sVBrand
p14
VHP
p15
sVRAM Memory
p16
V16 GB
p17
sVScreen Size
p18
V13.3\u005c"
p19
ssS'title'
p20
VREFURBISHED Alienware 13 ANW13-8636SLV - 13.3" Touchscreen Gaming Laptop - Intel Core i7 Broadwell / 16GB RAM / 512GB SSD / NVIDIA GeForce GTX 860M / Windows 8.1 / Wi-Fi / Webcam
p21
sb.