ccopy_reg
_reconstructor
p0
(c__main__
ProductRecord
p1
c__builtin__
object
p2
Ntp3
Rp4
(dp5
S'product_url'
p6
S'http://www.walmart.com/ip/Refurbished-ASUS-X541UA-WB51T-RD-Touch-HD-Laptop-Intel-Core-i5-2-5GHz-8GB-RAM-1TB-HDD-Windows-10/408004542'
p7
sS'price'
p8
S'N/A'
p9
sS'properties'
p10
(dp11
VRAM Memory
p12
V8 GB
p13
sVOperating System
p14
VMicrosoft Windows
p15
sVFeatures
p16
VNo features description available
p17
sVBrand
p18
VASUS
p19
sVManufacturer Part Number
p20
VX541UA-WB51T-RD
p21
sVHard Drive Capacity
p22
V1000 GB
p23
sVAssembled Product Dimensions (L x W x H)
p24
V15.00 x 9.90 x 1.10 Inches
p25
sVModel
p26
VVIPRB-X541UA-WB51T-RD
p27
ssS'title'
p28
VRefurbished ASUS X541UA-WB51T-RD Touch HD Laptop, Intel Core i5 2.5GHz 8GB RAM 1TB HDD Windows 10
p29
sb.