ccopy_reg
_reconstructor
p0
(c__main__
ProductRecord
p1
c__builtin__
object
p2
Ntp3
Rp4
(dp5
S'product_url'
p6
S'http://www.walmart.com/ip/REFURBISHED-Dell-Laptop-XPS-15-9530-15-6-i7-4712HQ-GeForce-GT-750M-16GB-RAM-1TB-HD-Touch-Screen-Windows-8/523493427'
p7
sS'price'
p8
S'N/A'
p9
sS'properties'
p10
(dp11
VOperating System
p12
VMicrosoft Windows
p13
sVBrand
p14
VDell
p15
sVRAM Memory
p16
V16 GB
p17
sVScreen Size
p18
V15.6\u005c"
p19
sVHard Drive Capacity
p20
V1000 GB
p21
ssS'title'
p22
VREFURBISHED Dell Laptop XPS 15 - 9530 15.6" i7 4712HQ GeForce GT 750M 16GB RAM 1TB HD Touch Screen Windows 8
p23
sb.