ccopy_reg
_reconstructor
p0
(c__main__
ProductRecord
p1
c__builtin__
object
p2
Ntp3
Rp4
(dp5
S'product_url'
p6
S'http://www.walmart.com/ip/Microsoft-Surface-Laptop-13-5-Core-i7-7660U-16-GB-RAM-512-GB-SSD-English-North-America/679424508'
p7
sS'price'
p8
S'N/A'
p9
sS'properties'
p10
(dp11
VRAM Memory
p12
V16 Gigabytes
p13
sVOperating System
p14
VWindows 10 S
p15
sVBrand
p16
VMicrosoft
p17
sVProcessor Speed
p18
V2.80 Gigahertz
p19
sVManufacturer Part Number
p20
VDAM-00001
p21
sVHard Drive Capacity
p22
V512
p23
sVBattery Life
p24
V14
p25
sVAssembled Product Dimensions (L x W x H)
p26
V13.19 x 1.97 x 9.84 Inches
p27
sVModel
p28
VHD Graphics 640
p29
sVScreen Size
p30
V13.5 Inches
p31
sVProcessor Type
p32
VIntel Core i7
p33
sVCondition
p34
VNew
p35
ssS'title'
p36
VMicrosoft Surface Laptop - 13.5" - Core i7 7660U - 16 GB RAM - 512 GB SSD - English - North America
p37
sb.