ccopy_reg
_reconstructor
p0
(c__main__
ProductRecord
p1
c__builtin__
object
p2
Ntp3
Rp4
(dp5
S'product_url'
p6
S'http://www.walmart.com/ip/Refurbished-Dell-Inspiron-i5559-5347SLV-15-6-Inch-FHD-Touchscreen-Laptop-with-Intel-RealSense-6th-Generation-Intel-Core-i5-12-GB-RAM-1-TB/189940321'
p7
sS'price'
p8
S'N/A'
p9
sS'properties'
p10
(dp11
VBrand
p12
VDell
p13
sVRAM Memory
p14
V12 GB
p15
sVOperating System
p16
VMicrosoft Windows
p17
sVHard Drive Capacity
p18
V1000
p19
sVmanufacturer_part_number
p20
Vi5559-5347slv
p21
ssS'title'
p22
VRefurbished Dell Inspiron i5559-5347SLV 15.6 Inch FHD Touchscreen Laptop with Intel RealSense (6th Generation Intel Core i5, 12 GB RAM, 1 TB
p23
sb.