ccopy_reg
_reconstructor
p0
(c__main__
ProductRecord
p1
c__builtin__
object
p2
Ntp3
Rp4
(dp5
S'product_url'
p6
S'http://www.walmart.com/ip/Microsoft-Surface-Book-256-GB-8-GB-RAM-Intel-Core-i5-NVIDIA-GeForce-graphics-Refurbished/929081613'
p7
sS'price'
p8
S'N/A'
p9
sS'properties'
p10
(dp11
VBrand
p12
VMicrosoft
p13
sVOperating System
p14
VMicrosoft Windows
p15
ssS'title'
p16
VMicrosoft Surface Book (256 GB, 8 GB RAM, Intel Core i5, NVIDIA GeForce graphics)(Refurbished)
p17
sb.