ccopy_reg
_reconstructor
p0
(c__main__
ProductRecord
p1
c__builtin__
object
p2
Ntp3
Rp4
(dp5
S'product_url'
p6
S'http://www.walmart.com/ip/SURFACE-BOOK2-I7-16-512GPU-13IN/806456678'
p7
sS'price'
p8
S'N/A'
p9
sS'properties'
p10
(dp11
VRAM Memory
p12
V16 GB
p13
sVOperating System
p14
VMicrosoft Windows, Windows 10 Pro Creators
p15
sVBrand
p16
VMicrosoft
p17
sVProcessor Speed
p18
V1.90 GHz
p19
sVBattery Life
p20
V17 Hour
p21
sVModel
p22
VHNM-00001
p23
sVScreen Size
p24
V13.5"
p25
sVProcessor Type
p26
VIntel Core i7
p27
sVCondition
p28
VNew
p29
sVmanufacturer_part_number
p30
Vbook2
p31
ssS'title'
p32
VSURFACE BOOK2 I7/16/512GPU.13IN
p33
sb.