ccopy_reg
_reconstructor
p0
(c__main__
ProductRecord
p1
c__builtin__
object
p2
Ntp3
Rp4
(dp5
S'product_url'
p6
S'http://www.walmart.com/ip/REFURBISHED-Dell-XPS-15-9550-Laptop-15-6-4K-UHD-3840-x-2160-Touch-Intel-i7-6700HQ-3-5GHz-Quad-Core-32GB-RAM-1TB-SSD-NVIDIA-GeForce-GTX-960M-w-2GB-GDD/663994735'
p7
sS'price'
p8
S'N/A'
p9
sS'properties'
p10
(dp11
VOperating System
p12
VMicrosoft Windows
p13
sVBrand
p14
VDell
p15
sVRAM Memory
p16
V32 GB
p17
sVScreen Size
p18
V15.6
p19
sVHard Drive Capacity
p20
V1000
p21
ssS'title'
p22
VREFURBISHED Dell XPS 15 9550 Laptop 15.6" 4K UHD (3840 x 2160) Touch, Intel i7-6700HQ 3.5GHz Quad Core 32GB RAM 1TB SSD NVIDIA GeForce GTX 960M w/ 2GB GDDR5
p23
sb.