ccopy_reg
_reconstructor
p0
(c__main__
ProductRecord
p1
c__builtin__
object
p2
Ntp3
Rp4
(dp5
S'product_url'
p6
S'http://www.walmart.com/ip/Dell-Latitude-5175-L5175-5N6X0G2-Tablet-PC-Intel-Core-m3-6Y30-Refurbished/391733721'
p7
sS'price'
p8
S'N/A'
p9
sS'properties'
p10
(dp11
VRAM Memory
p12
V0 GB
p13
sVOperating System
p14
VMicrosoft Windows
p15
sVBrand
p16
VDell
p17
sVHard Drive Capacity
p18
V128 GB
p19
sVModel
p20
VL5175-5N6X0G2
p21
sVScreen Size
p22
V10.8 in
p23
sVProcessor Speed
p24
V0 GHz
p25
sVCondition
p26
VRefurbished
p27
sVmanufacturer_part_number
p28
Vl5175-5n6x0g2
p29
ssS'title'
p30
VDell Latitude 5175 L5175-5N6X0G2 Tablet PC - Intel Core m3-6Y30 (Refurbished)
p31
sb.