ccopy_reg
_reconstructor
p0
(c__main__
ProductRecord
p1
c__builtin__
object
p2
Ntp3
Rp4
(dp5
S'product_url'
p6
S'http://www.walmart.com/ip/Used-Like-New-Dell-Inspiron-17-3-Touch-Screen-Laptop-Intel-Core-i5-8GB-Memory-1TB-Hard-Drive-I7737T-3342SLV-Silver/692528516'
p7
sS'price'
p8
S'N/A'
p9
sS'properties'
p10
(dp11
VAssembled Product Dimensions (L x W x H)
p12
V16.24 x 10.61 x 1.10 Inches
p13
sVFeatures
p14
V8 GB 2 (2 x 4GB) DDR3L 1600Mhz RAM - 1 TB 5400rpm Hard Drive - Tray Load DVD Drive, Windows 8.1 64-bit - 4-cell Lithium-Ion Battery (58 WHr), 1.7 Ghz Intel Core i5-4210U processor (3M Cache, up to 2.7 GHz) - Intel HD Graphics 4400, 17.3-inch LED Backlit Touch Display with Truelife and FHD resolution (1920 x 1080), Intel Dual Band Wireless-N 7260 2x2 AGN + Bluetooth 4.0 - 3 x USB 3.0 - Backlit Keyboard
p15
sVBrand
p16
VDell
p17
sVManufacturer Part Number
p18
VI7737T-3342SLV
p19
sVHard Drive Capacity
p20
V1000
p21
sVScreen Size
p22
V17.3
p23
ssS'title'
p24
VUsed Like New Dell - Inspiron 17.3" Touch-Screen Laptop - Intel Core i5 - 8GB Memory - 1TB Hard Drive -I7737T-3342SLV Silver
p25
sb.