ccopy_reg
_reconstructor
p0
(c__main__
ProductRecord
p1
c__builtin__
object
p2
Ntp3
Rp4
(dp5
S'product_url'
p6
S'http://www.walmart.com/ip/REFURBISHED-Dell-XPS-15-UHD-15-6-Inch-Touchscreen-Laptop-Intel-Core-i7-4712HQ-2-3-GHz-Processor-16-GB-RAM-512-GB-SSD-Windows-8-1-OS-Silver/453761315'
p7
sS'price'
p8
S'N/A'
p9
sS'properties'
p10
(dp11
VOperating System
p12
VMicrosoft Windows
p13
sVBrand
p14
VDell
p15
sVRAM Memory
p16
V16 GB
p17
sVScreen Size
p18
V15.6\u005c"
p19
ssS'title'
p20
VREFURBISHED Dell XPS 15 UHD 15.6-Inch Touchscreen Laptop (Intel Core i7 4712HQ 2.3 GHz Processor, 16 GB RAM, 512 GB SSD,Windows 8.1 OS) Silver
p21
sb.