ccopy_reg
_reconstructor
p0
(c__main__
ProductRecord
p1
c__builtin__
object
p2
Ntp3
Rp4
(dp5
S'product_url'
p6
S'http://www.walmart.com/ip/HP-15-bs048cl-15-6-Touchscreen-Laptop-i3-7100U-12GB-1TB-Win10-Brown-Box/428800213'
p7
sS'price'
p8
S'N/A'
p9
sS'properties'
p10
(dp11
VRAM Memory
p12
V12 Gigabytes
p13
sVOperating System
p14
VWindows 10
p15
sVBrand
p16
VHP
p17
sVProcessor Speed
p18
V2.4 Gigahertz
p19
sVManufacturer Part Number
p20
V2DV73UA#ABA
p21
sVHard Drive Capacity
p22
V1 Terabytes
p23
sVAssembled Product Dimensions (L x W x H)
p24
V19.00 x 12.00 x 3.00 Inches
p25
sVModel
p26
V2DV73UA#ABA
p27
sVScreen Size
p28
V15.60 Inches
p29
sVProcessor Type
p30
VIntel i3-7100U
p31
ssS'title'
p32
VHP 15-bs048cl 15.6" Touchscreen Laptop i3-7100U 12GB 1TB Win10 Brown Box
p33
sb.