ccopy_reg
_reconstructor
p0
(c__main__
ProductRecord
p1
c__builtin__
object
p2
Ntp3
Rp4
(dp5
S'product_url'
p6
S'http://www.walmart.com/ip/LG-gram-13-FHD-Ultra-light-Multi-Touch-Notebook-Intel-i5-7200U-13Z970-A-AAS5U1-Elite-Suite-17-Standard-Software-Bundle-Corel-WordPerfect-PC-Mover-PDF/355710734'
p7
sS'price'
p8
S'N/A'
p9
sS'properties'
p10
(dp11
VOperating System
p12
VMicrosoft Windows
p13
sVBrand
p14
VLG
p15
sVManufacturer Part Number
p16
VE1LG13Z970AAAS5U1
p17
sVAssembled Product Dimensions (L x W x H)
p18
V12.10 x 8.30 x 0.60 Inches
p19
sVScreen Size
p20
V13\u005c"
p21
sVCondition
p22
VNew
p23
ssS'title'
p24
VLG gram 13" FHD Ultra-light Multi-Touch Notebook Intel i5-7200U (13Z970-A.AAS5U1) + Elite Suite 17 Standard Software Bundle (Corel WordPerfect, PC Mover, PDF Fusion, X9) + 1 Year Extended Warranty
p25
sb.