ccopy_reg
_reconstructor
p0
(c__main__
ProductRecord
p1
c__builtin__
object
p2
Ntp3
Rp4
(dp5
S'product_url'
p6
S'http://www.walmart.com/ip/XPS-13-3-Touchscreen-Laptop-w-Intel-Core-i5-8GB-RAM-256GB-SSD/46461686'
p7
sS'price'
p8
S'N/A'
p9
sS'properties'
p10
(dp11
VRAM Memory
p12
V8 GB
p13
sVOperating System
p14
VMicrosoft Windows, Windows 10
p15
sVBrand
p16
VDell
p17
sVProcessor Speed
p18
V2.20 GHz
p19
sVManufacturer Part Number
p20
VXPS9343-6365SLV
p21
sVHard Drive Capacity
p22
V256
p23
sVBattery Life
p24
V15 Hour
p25
sVAssembled Product Dimensions (L x W x H)
p26
V12.00 x 7.90 x 0.60 Inches
p27
sVModel
p28
V13, 13-9343, HD Graphics 5500
p29
sVScreen Size
p30
V13.3"
p31
sVProcessor Type
p32
VIntel Core i5
p33
sVCondition
p34
VNew
p35
ssS'title'
p36
VXPS 13.3" Touchscreen Laptop w/Intel Core i5, 8GB RAM, & 256GB SSD
p37
sb.