ccopy_reg
_reconstructor
p0
(c__main__
ProductRecord
p1
c__builtin__
object
p2
Ntp3
Rp4
(dp5
S'product_url'
p6
S'http://www.walmart.com/ip/Manufacturer-Refurbished-HP-Spectre-x360-13-AE091MS-13-3-Touch-Laptop-i7-8550U-1-8GHz-8GB-256GB-SSD-W10/914845603'
p7
sS'price'
p8
S'N/A'
p9
sS'properties'
p10
(dp11
VRAM Memory
p12
V8 GB
p13
sVOperating System
p14
VMicrosoft Windows
p15
sVBrand
p16
VHP
p17
sVManufacturer Part Number
p18
V13-AE091MS-RF
p19
sVHard Drive Capacity
p20
V256 GB
p21
sVModel
p22
V13-AE091MS-RF
p23
sVScreen Size
p24
V13.3\u005c"
p25
ssS'title'
p26
VManufacturer Refurbished - HP Spectre x360 13-AE091MS 13.3" Touch Laptop i7-8550U 1.8GHz 8GB 256GB SSD W10
p27
sb.