ccopy_reg
_reconstructor
p0
(c__main__
ProductRecord
p1
c__builtin__
object
p2
Ntp3
Rp4
(dp5
S'product_url'
p6
S'http://www.walmart.com/ip/Lenovo-300e-Chromebook-81H00000US-11-6-Touchscreen-LCD-2-1-Chromebook-MediaTek-M8173C-Quad-core-4-Core-2-10-GHz-4-GB-LPDDR3-32-GB-Flash-Memory-Chrome/581204818'
p7
sS'price'
p8
S'N/A'
p9
sS'properties'
p10
(dp11
VRAM Memory
p12
V4 Gigabytes
p13
sVOperating System
p14
VChrome OS
p15
sVBrand
p16
VLenovo
p17
sVProcessor Speed
p18
V2.1 Gigahertz
p19
sVManufacturer Part Number
p20
V81H00000US
p21
sVHard Drive Capacity
p22
V32 Gigabytes
p23
sVBattery Life
p24
V10 Hours
p25
sVModel
p26
V81H00000US
p27
sVScreen Size
p28
V11.60 Inches
p29
sVProcessor Type
p30
VMediaTek M8173C
p31
ssS'title'
p32
VLenovo 300e Chromebook 81H00000US 11.6" Touchscreen LCD 2 in 1 Chromebook - MediaTek M8173C Quad-core (4 Core) 2.10 GHz - 4 GB LPDDR3 - 32 GB Flash Memory - Chrome OS - 1366 x 768 - In-plane Swit
p33
sb.