ccopy_reg
_reconstructor
p0
(c__main__
ProductRecord
p1
c__builtin__
object
p2
Ntp3
Rp4
(dp5
S'product_url'
p6
S'http://www.walmart.com/ip/HP-Envy-x360-2-in-1-15-6-Touch-Screen-Laptop-Notebook-Tablet-PC-Computer-Touchscreen-16GB-1TB-Kaby-Lake-i7-7th-Gen-M6-AQ105DX/162254462'
p7
sS'price'
p8
S'N/A'
p9
sS'properties'
p10
(dp11
VBrand
p12
VHP
p13
sVManufacturer Part Number
p14
VW2K44UA#ABA
p15
sVHard Drive Capacity
p16
V1000
p17
sVModel
p18
Vm6-aq105dx
p19
sVScreen Size
p20
V15.6
p21
sVProcessor Type
p22
VIntel Core i7
p23
ssS'title'
p24
VHP Envy x360 2-in-1 15.6" Touch-Screen Laptop Notebook Tablet PC Computer Touchscreen 16GB 1TB Kaby Lake i7 7th Gen M6-AQ105DX
p25
sb.