ccopy_reg
_reconstructor
p0
(c__main__
ProductRecord
p1
c__builtin__
object
p2
Ntp3
Rp4
(dp5
S'product_url'
p6
S'http://www.walmart.com/ip/DELL-Recertified-XPS-13-9360-13-3-Inch-QHD-InfinityEdge-Touchscreen-Intel-Core-i7-7560U-3-8-GHz-16-GB-512-SSD-Windows-10-Home-1-Year-Dell-Warranty/798584678'
p7
sS'price'
p8
S'N/A'
p9
sS'properties'
p10
(dp11
VRAM Memory
p12
V16 GB
p13
sVOperating System
p14
VWindows 10
p15
sVBrand
p16
VDell
p17
sVHard Drive Capacity
p18
V512 GB
p19
sVModel
p20
VXPS 13-9360
p21
sVScreen Size
p22
V13.3 in
p23
sVProcessor Speed
p24
V3.8 GHz
p25
sVCondition
p26
VNew
p27
ssS'title'
p28
VDELL Recertified XPS 13- 9360 13.3-Inch QHD InfinityEdge Touchscreen (Intel Core i7 7560U 3.8 GHz , 16 GB , 512 SSD , Windows 10 Home , 1 Year Dell Warranty
p29
sb.