ccopy_reg
_reconstructor
p0
(c__main__
ProductRecord
p1
c__builtin__
object
p2
Ntp3
Rp4
(dp5
S'product_url'
p6
S'http://www.walmart.com/ip/REFURBISHED-Panasonic-Toughbook-19-Touchscreen-PC-version-Notebook/297864758'
p7
sS'price'
p8
S'N/A'
p9
sS'properties'
p10
(dp11
VBrand
p12
VHP
p13
sVCondition
p14
VRefurbished
p15
ssS'title'
p16
VREFURBISHED - Panasonic Toughbook 19 Touchscreen PC version Notebook
p17
sb.