ccopy_reg
_reconstructor
p0
(c__main__
ProductRecord
p1
c__builtin__
object
p2
Ntp3
Rp4
(dp5
S'product_url'
p6
S'http://www.walmart.com/ip/Dell-Inspiron-5379-2-in-1-Intel-Core-i7-8550U-X4-1-8GHz-8GB-256GB-SSD-13-3-Win10-Gray/108651260'
p7
sS'price'
p8
S'N/A'
p9
sS'properties'
p10
(dp11
VRAM Memory
p12
V8 Gigabytes
p13
sVOperating System
p14
VWindows 10
p15
sVFeatures
p16
V2 x USB 3.0, 1 x USB 2.0, 1 x HDMI, Intel Core i7-8550U Processor (Quad-Core, 1.8GHz, 8MB Cache), 1MP Webcam and Integrated Microphone, 0.8" x 12.76" x 8.85" (HxWxD); 3.6lbs, Energy Star Compliant, Silver EPEAT, 3-cell Lithium-Ion Battery, 13.3-inch (1920 x 1080) IPS Display, No Ethernet, 802.11AC and Bluetooth 4.1, Microsoft Windows 10 Home Operating System, Integrated Intel HD Graphics, Backlit Standard Keyboard and Touchpad, 8GB DDR4 System Memory, 256GB Solid State Drive (SSD)
p17
sVBrand
p18
VDell
p19
sVManufacturer Part Number
p20
V1515571463
p21
sVMaximum RAM Supported
p22
V16 Gigabytes
p23
sVHard Drive Capacity
p24
V256 Gigabytes
p25
sVBattery Life
p26
V8 Hours
p27
sVAssembled Product Dimensions (L x W x H)
p28
V12.80 x 8.90 x 0.80 Inches
p29
sVProcessor Type
p30
VIntel Core i7-8550U
p31
sVScreen Size
p32
V13.3 Inches
p33
sVProcessor Speed
p34
V1.8 Gigahertz
p35
sVCondition
p36
VNew
p37
ssS'title'
p38
VDell Inspiron 5379 2-in-1 Intel Core i7-8550U X4 1.8GHz 8GB 256GB SSD 13.3" Win10, Gray
p39
sb.