ccopy_reg
_reconstructor
p0
(c__main__
ProductRecord
p1
c__builtin__
object
p2
Ntp3
Rp4
(dp5
S'product_url'
p6
S'http://www.walmart.com/ip/Mightyskins-Protective-Skin-Decal-Cover-for-Asus-X200CA-11-6-Touchscreen-wrap-sticker-skins-Venezuela-Flag/184478148'
p7
sS'price'
p8
S'N/A'
p9
sS'properties'
p10
(dp11
VBrand
p12
VPcProfessional
p13
sVScreen Size
p14
V13.3
p15
sVCondition
p16
VNew
p17
ssS'title'
p18
VPcProfessional Screen Protector (Set of 2) for HP Spectre 13 13.3" 13-v021nr [Released after May 2016] Touch Screen Laptop Anti Glare Anti Scratch
p19
sb.