ccopy_reg
_reconstructor
p0
(c__main__
ProductRecord
p1
c__builtin__
object
p2
Ntp3
Rp4
(dp5
S'product_url'
p6
S'http://www.walmart.com/ip/Superb-Choice-6-cell-ACER-Aspire-E5-571P-36LU-15-6-Touchscreen-Notebook-E5-571P-55TL-Laptop-Battery/179450440'
p7
sS'price'
p8
S'N/A'
p9
sS'properties'
p10
(dp11
VBrand
p12
VSuperb Choice
p13
sVScreen Size
p14
V15.6
p15
sVCondition
p16
VNew
p17
ssS'title'
p18
VSuperb Choice 6-cell ACER Aspire E5-571P-36LU 15.6" Touchscreen Notebook, E5-571P-55TL Laptop Battery
p19
sb.