ccopy_reg
_reconstructor
p0
(c__main__
ProductRecord
p1
c__builtin__
object
p2
Ntp3
Rp4
(dp5
S'product_url'
p6
S'http://www.walmart.com/ip/HP-Active-Pen-digital-pen/51990109'
p7
sS'price'
p8
S'N/A'
p9
sS'properties'
p10
(dp11
VOperating System
p12
VMicrosoft Windows
p13
sVFeatures
p14
VACTIVE PEN WITH APP LAUNCH
p15
sVVideo Game Platform
p16
VPC
p17
sVBrand
p18
VHP
p19
sVManufacturer Part Number
p20
VT4Z24AA#ABA
p21
sVModel
p22
VT4Z24AA#ABA
p23
ssS'title'
p24
VHP Active Pen - digital pen
p25
sb.