ccopy_reg
_reconstructor
p0
(c__main__
ProductRecord
p1
c__builtin__
object
p2
Ntp3
Rp4
(dp5
S'product_url'
p6
S'http://www.walmart.com/ip/Acer-C738T-C7KD-11-6-Touchscreen-Active-Matrix-TFT-Color-LCD-Refurbished/666900832'
p7
sS'price'
p8
S'N/A'
p9
sS'properties'
p10
(dp11
VModel
p12
VNX.G55AA.010
p13
sVRAM Memory
p14
V4 GB
p15
sVOperating System
p16
VChrome OS
p17
sVBrand
p18
VAcer
p19
sVHard Drive Capacity
p20
V32 GB
p21
sVProcessor Type
p22
VIntel Celeron
p23
sVScreen Size
p24
V11.6 in
p25
sVProcessor Speed
p26
V1.6 GHz
p27
sVmanufacturer_part_number
p28
Vc738t-c7kd
p29
ssS'title'
p30
VAcer C738T-C7KD 11.6" Touchscreen Active Matrix TFT Color LCD (Refurbished)
p31
sb.