ccopy_reg
_reconstructor
p0
(c__main__
ProductRecord
p1
c__builtin__
object
p2
Ntp3
Rp4
(dp5
S'product_url'
p6
S'http://www.walmart.com/ip/Refurbished-Dell-XPS-15-9530-Precision-M3800-15-6-LCD-4K-UHD-3840-x-2160-Touch-Screen-Assembly-0YG20X-00YG20X/176590636'
p7
sS'price'
p8
S'N/A'
p9
sS'properties'
p10
(dp11
VBrand
p12
VHP
p13
ssS'title'
p14
VRefurbished Dell XPS 15 9530 Precision M3800 15.6" LCD 4K UHD 3840 x 2160 Touch Screen Assembly 0YG20X 00YG20X
p15
sb.