ccopy_reg
_reconstructor
p0
(c__main__
ProductRecord
p1
c__builtin__
object
p2
Ntp3
Rp4
(dp5
S'product_url'
p6
S'http://www.walmart.com/ip/Manufacturer-Refurbished-Asus-TP201SA-DB01T-11-6-Touch-Laptop-Intel-Celeron-N3060-1-6GHz-4GB-500GB-W10/849715418'
p7
sS'price'
p8
S'N/A'
p9
sS'properties'
p10
(dp11
VRAM Memory
p12
V4 GB
p13
sVOperating System
p14
VMicrosoft Windows
p15
sVBrand
p16
VASUS
p17
sVManufacturer Part Number
p18
VTP201SA-DB01T-RF
p19
sVHard Drive Capacity
p20
V500 GB
p21
sVModel
p22
VTP201SA-DB01T-RF
p23
sVScreen Size
p24
V11.6\u005c"
p25
ssS'title'
p26
VManufacturer Refurbished - Asus TP201SA-DB01T 11.6" Touch Laptop Intel Celeron N3060 1.6GHz 4GB 500GB W10
p27
sb.