ccopy_reg
_reconstructor
p0
(c__main__
ProductRecord
p1
c__builtin__
object
p2
Ntp3
Rp4
(dp5
S'product_url'
p6
S'http://www.walmart.com/ip/HP-Chromebook-11-G6-EE-11-6-Touchscreen-Chromebook-Celeron-N3350-4GB-16GB/794459305'
p7
sS'price'
p8
S'N/A'
p9
sS'properties'
p10
(dp11
VRAM Memory
p12
V4 Gigabytes
p13
sVOperating System
p14
VChrome OS
p15
sVBrand
p16
VHP
p17
sVProcessor Speed
p18
V1.1 Gigahertz
p19
sVManufacturer Part Number
p20
V3PD93UT#ABA
p21
sVHard Drive Capacity
p22
V16 Gigabytes
p23
sVAssembled Product Dimensions (L x W x H)
p24
V17.00 x 11.00 x 3.00 Inches
p25
sVModel
p26
V3PD93UT#ABA
p27
sVScreen Size
p28
V11.60 Inches
p29
sVProcessor Type
p30
VIntel N3350
p31
sVCondition
p32
VNew
p33
ssS'title'
p34
VHP Chromebook 11 G6 EE 11.6" Touchscreen Chromebook Celeron N3350 4GB 16GB
p35
sb.