ccopy_reg
_reconstructor
p0
(c__main__
ProductRecord
p1
c__builtin__
object
p2
Ntp3
Rp4
(dp5
S'product_url'
p6
S'http://www.walmart.com/ip/HP-Chromebook-11-G5-Education-Edition-11-6-Celeron-N3060-4-GB-RAM-32-GB-SSD-US/272004738'
p7
sS'price'
p8
S'N/A'
p9
sS'properties'
p10
(dp11
VRAM Memory
p12
V4 Gigabytes
p13
sVOperating System
p14
VChrome OS
p15
sVBrand
p16
VHP
p17
sVProcessor Speed
p18
V1.6 Gigahertz
p19
sVManufacturer Part Number
p20
V1FX83UT#ABA
p21
sVHard Drive Capacity
p22
V32 Gigabytes
p23
sVAssembled Product Dimensions (L x W x H)
p24
V12.00 x 12.00 x 12.00 Inches
p25
sVModel
p26
V1FX83UT#ABA
p27
sVScreen Size
p28
V11.60 Inches
p29
sVProcessor Type
p30
VIntel N3060
p31
sVCondition
p32
VNew
p33
ssS'title'
p34
VHP Chromebook 11 G5 - Education Edition - 11.6" - Celeron N3060 - 4 GB RAM - 32 GB SSD - US
p35
sb.