ccopy_reg
_reconstructor
p0
(c__main__
ProductRecord
p1
c__builtin__
object
p2
Ntp3
Rp4
(dp5
S'product_url'
p6
S'http://www.walmart.com/ip/Refurbished-HP-Black-Licorice-15-6-Touch-15-g059wm-Laptop-PC-AMD-Quad-Core-A8-6410-Processor-4GB-Memory-touch-screen-750GB-Hard-Drive-Windows-8-1/49332595'
p7
sS'price'
p8
S'N/A'
p9
sS'properties'
p10
(dp11
VRAM Memory
p12
V4 GB
p13
sVOperating System
p14
VWindows 8
p15
sVFeatures
p16
VEPEAT
p17
sVVideo Game Platform
p18
VPC
p19
sVBrand
p20
VHP
p21
sVProcessor Speed
p22
V2.00 GHz, with a Max Turbo Speed of 2.40 GHz
p23
sVManufacturer Part Number
p24
VRBJ8P60UA#ABA
p25
sVHard Drive Capacity
p26
V750 GB
p27
sVAssembled Product Dimensions (L x W x H)
p28
V12.24 x 2.99 x 20.35 Inches
p29
sVModel
p30
VRBJ8P60UA#ABA
p31
sVScreen Size
p32
V15.6"
p33
sVProcessor Type
p34
VAMD A-Series
p35
sVCondition
p36
VRefurbished
p37
ssS'title'
p38
VRefurbished HP Black Licorice 15.6" Touch 15-g059wm Laptop PC with AMD Quad-Core A8-6410 Processor, 4GB Memory, touch screen, 750GB Hard Drive and Windows 8.1
p39
sb.