ccopy_reg
_reconstructor
p0
(c__main__
ProductRecord
p1
c__builtin__
object
p2
Ntp3
Rp4
(dp5
S'product_url'
p6
S'http://www.walmart.com/ip/Refurbished-Microsoft-Surface-Pro-3-4YM-00001-12-Intel-Core-i3-4GB-Memory-64GB-Silver/712052424'
p7
sS'price'
p8
S'N/A'
p9
sS'properties'
p10
(dp11
VRAM Memory
p12
V4 GB
p13
sVOperating System
p14
VMicrosoft Windows
p15
sVFeatures
p16
VNo features description available
p17
sVBrand
p18
VMicrosoft
p19
sVManufacturer Part Number
p20
V4YM-00001
p21
sVHard Drive Capacity
p22
V64 GB
p23
sVAssembled Product Dimensions (L x W x H)
p24
V16.00 x 7.00 x 10.10 Inches
p25
sVModel
p26
VVIPRB-4YM-00001
p27
sVScreen Size
p28
V12\u005c"
p29
sVCondition
p30
VRefurbished
p31
ssS'title'
p32
VRefurbished Microsoft Surface Pro 3 4YM-00001 12" Intel Core i3 4GB Memory 64GB Silver
p33
sb.