ccopy_reg
_reconstructor
p0
(c__main__
ProductRecord
p1
c__builtin__
object
p2
Ntp3
Rp4
(dp5
S'product_url'
p6
S'http://www.walmart.com/ip/Refurbished-HP-15-ay041wm-15-6-Laptop-Touchscreen-Windows-10-Intel-Core-i3-6100U-Dual-Core-Processor-8GB-Memory-1TB-Hard-Drive/54476822'
p7
sS'price'
p8
S'N/A'
p9
sS'properties'
p10
(dp11
VRAM Memory
p12
V8 GB
p13
sVOperating System
p14
VWindows 10
p15
sVColor Category
p16
VSilver
p17
sVVideo Game Platform
p18
VPC
p19
sVBrand
p20
VHP
p21
sVManufacturer Part Number
p22
V15-ay041wm
p23
sVHard Drive Capacity
p24
V1 TB
p25
sVLaptop Computer Type
p26
VTouchscreen
p27
sVProcessor Type
p28
VIntel Core i3
p29
sVScreen Size
p30
V15.6"
p31
sVModel
p32
V15-ay041wm
p33
sVManufacturer
p34
VHP
p35
ssS'title'
p36
VRefurbished HP 15-ay041wm 15.6" Laptop, Touchscreen, Windows 10, Intel Core i3-6100U Dual-Core Processor, 8GB Memory, 1TB Hard Drive
p37
sb.