ccopy_reg
_reconstructor
p0
(c__main__
ProductRecord
p1
c__builtin__
object
p2
Ntp3
Rp4
(dp5
S'product_url'
p6
S'http://www.walmart.com/ip/Dell-Inspiron-7773-2-in-1-Intel-Core-i7-8550U-X4-1-8GHz-16GB-1TB-128GB-Certified-Refurbished/916887605'
p7
sS'price'
p8
S'N/A'
p9
sS'properties'
p10
(dp11
VRAM Memory
p12
V16 Gigabytes
p13
sVOperating System
p14
VWindows 10
p15
sVFeatures
p16
VDedicated NVIDIA GeForce MX150 Graphics (2.0GB Dedicated Video Memory), 4-cell Lithium-Ion Battery, 2 x USB 3.0, 1 x USB 2.0, 1 x HDMI, Intel Core i7-8550U Processor (Quad-Core, 1.8GHz, 8MB Cache), 1MP Webcam and Integrated Microphone, 1TB (5400RPM) SATA Hybrid Hard Disk Drive (H-HDD) w/128GB Solid State Drive, This Certified Refurbished product is tested and certified to look and work like new. The refurbishing process includes functionality testing, basic cleaning, inspection, and repackaging. The product ships with all relevant accessories, a minimum 90-day warranty, and may arrive in a generic box., Energy Star Compliant, Silver EPEAT, 16GB DDR4 System Memory, 0.87" x 16.24" x 10.93" (HxWxD); 6.1lbs, No Ethernet, 802.11AC and Bluetooth 4.2, Backlit Full Size (10 Key) Keyboard and Touchpad, 17.3-inch (1920 x 1080) IPS Display, Microsoft Windows 10 Home Operating System
p17
sVBrand
p18
VDell
p19
sVManufacturer Part Number
p20
V1516712339-RFB
p21
sVMaximum RAM Supported
p22
V32 Gigabytes
p23
sVHard Drive Capacity
p24
V1128 Gigabytes
p25
sVBattery Life
p26
V8 Hours
p27
sVAssembled Product Dimensions (L x W x H)
p28
V16.20 x 10.90 x 0.90 Inches
p29
sVProcessor Type
p30
VIntel Core i7-8550U
p31
sVScreen Size
p32
V17.3 Inches
p33
sVProcessor Speed
p34
V1.8 Gigahertz
p35
ssS'title'
p36
VDell Inspiron 7773 2-in-1 Intel Core i7-8550U X4 1.8GHz 16GB 1TB + 128GB (Certified Refurbished)
p37
sb.