ccopy_reg
_reconstructor
p0
(c__main__
ProductRecord
p1
c__builtin__
object
p2
Ntp3
Rp4
(dp5
S'product_url'
p6
S'http://www.walmart.com/ip/Refurbished-Dell-i3048-5143BLK-All-in-One-20-Intel-G3220T-2-6GHz-4GB-RAM-1TB-HDD-Win-8-1/877908683'
p7
sS'price'
p8
S'N/A'
p9
sS'properties'
p10
(dp11
VRAM Memory
p12
V4 GB
p13
sVOperating System
p14
VMicrosoft Windows
p15
sVFeatures
p16
VNo features description available
p17
sVBrand
p18
VDell
p19
sVManufacturer Part Number
p20
Vi3048-5143BLK
p21
sVHard Drive Capacity
p22
V1000 GB
p23
sVAssembled Product Dimensions (L x W x H)
p24
V19.10 x 2.67 x 12.90 Inches
p25
sVModel
p26
VVIPRB-i3048-5143BLK
p27
sVScreen Size
p28
V20\u005c"
p29
sVCondition
p30
VRefurbished
p31
ssS'title'
p32
VRefurbished Dell i3048-5143BLK All-in-One 20'' Intel G3220T 2.6GHz 4GB RAM 1TB HDD Win 8.1
p33
sb.