ccopy_reg
_reconstructor
p0
(c__main__
ProductRecord
p1
c__builtin__
object
p2
Ntp3
Rp4
(dp5
S'product_url'
p6
S'http://www.walmart.com/ip/Acer-TravelMate-Spin-B1-B118-RN-C6FD-11-6-Celeron-N3450-4-GB-RAM-64-GB-SSD-US-International/807327469'
p7
sS'price'
p8
S'N/A'
p9
sS'properties'
p10
(dp11
VRAM Memory
p12
V4 Gigabytes
p13
sVOperating System
p14
VWindows 10
p15
sVFeatures
p16
VWINDOWS 10 PRO EDUCATION (64-BIT) INTEL CELERON N3450 PROCESSOR 2MB L2 CACHE, 1.
p17
sVBrand
p18
VAcer
p19
sVProcessor Speed
p20
V1.1 Gigahertz
p21
sVManufacturer Part Number
p22
VNX.VG0AA.001
p23
sVHard Drive Capacity
p24
V64 Gigabytes
p25
sVBattery Life
p26
V13 Hours
p27
sVAssembled Product Dimensions (L x W x H)
p28
V15.60 x 3.40 x 9.70 Inches
p29
sVModel
p30
VNX.VG0AA.001
p31
sVScreen Size
p32
V11.60 Inches
p33
sVProcessor Type
p34
VIntel N3450
p35
sVCondition
p36
VNew
p37
ssS'title'
p38
VAcer TravelMate Spin B1 B118-RN-C6FD - 11.6" - Celeron N3450 - 4 GB RAM - 64 GB SSD - US International
p39
sb.