ccopy_reg
_reconstructor
p0
(c__main__
ProductRecord
p1
c__builtin__
object
p2
Ntp3
Rp4
(dp5
S'product_url'
p6
S'http://www.walmart.com/ip/Windows-10-Pro-Education-64-Bit-Intel-Atom-X5-Z8350-2Mb-Cache-1-44Ghz-Up-To/775372237'
p7
sS'price'
p8
S'N/A'
p9
sS'properties'
p10
(dp11
VRAM Memory
p12
V4 Gigabytes
p13
sVOperating System
p14
VWindows 10
p15
sVFeatures
p16
VWINDOWS 10 PRO EDUCATION (64-BIT) INTEL ATOM X5-Z8350 2MB CACHE, 1.44GHZ, UP TO
p17
sVBrand
p18
VAcer
p19
sVProcessor Speed
p20
V1.44 Gigahertz
p21
sVManufacturer Part Number
p22
VNT.LCWAA.001
p23
sVHard Drive Capacity
p24
V64 Gigabytes
p25
sVBattery Life
p26
V0 h
p27
sVModel
p28
VNT.LCWAA.001
p29
sVScreen Size
p30
V10.10 Inches
p31
sVProcessor Type
p32
VIntel x5-Z8350
p33
sVCondition
p34
VNew
p35
ssS'title'
p36
VWindows 10 Pro Education (64-Bit) Intel Atom X5-Z8350 2Mb Cache, 1.44Ghz, Up To
p37
sb.