ccopy_reg
_reconstructor
p0
(c__main__
ProductRecord
p1
c__builtin__
object
p2
Ntp3
Rp4
(dp5
S'product_url'
p6
S'http://www.walmart.com/ip/Lenovo-300e-Winbook-81FY000BUS-11-6-Touchscreen-LCD-2-1-Notebook-Intel-Celeron-N3450-Quad-core-4-Core-1-10-GHz-4-GB-128-GB-Flash-Memory-Windows-10-Pr/313691911'
p7
sS'price'
p8
S'N/A'
p9
sS'properties'
p10
(dp11
VRAM Memory
p12
V4 Gigabytes
p13
sVOperating System
p14
VWindows 10
p15
sVBrand
p16
VLenovo
p17
sVProcessor Speed
p18
V1.1 Gigahertz
p19
sVManufacturer Part Number
p20
V81FY000BUS
p21
sVHard Drive Capacity
p22
V128 Gigabytes
p23
sVAssembled Product Dimensions (L x W x H)
p24
V8.00 x 4.00 x 2.00 Inches
p25
sVModel
p26
V81FY000BUS
p27
sVScreen Size
p28
V11.60 Inches
p29
sVProcessor Type
p30
VIntel N3450
p31
ssS'title'
p32
VLenovo 300e Winbook 81FY000BUS 11.6" Touchscreen LCD 2 in 1 Notebook - Intel Celeron N3450 Quad-core [4 Core] 1.10 GHz - 4 GB - 128 GB Flash Memory - Windows 10 Pro - 1366 x 768 - In-plane Switching
p33
sb.