ccopy_reg
_reconstructor
p0
(c__main__
ProductRecord
p1
c__builtin__
object
p2
Ntp3
Rp4
(dp5
S'product_url'
p6
S'http://www.walmart.com/ip/Acer-Switch-V-10-SW5-017P-17JJ-10-1-Atom-x5-Z8350-4-GB-RAM-64-GB-SSD-US-International/417996854'
p7
sS'price'
p8
S'N/A'
p9
sS'properties'
p10
(dp11
VRAM Memory
p12
V4 Gigabytes
p13
sVOperating System
p14
VWindows 10
p15
sVFeatures
p16
VWINDOWS 10 PRO (64-BIT) INTEL ATOM X5-Z8350 2MB CACHE, 1.44GHZ, UP TO 1.92GHZ BU
p17
sVBrand
p18
VAcer
p19
sVProcessor Speed
p20
V1.44 Gigahertz
p21
sVManufacturer Part Number
p22
VNT.LCWAA.002
p23
sVHard Drive Capacity
p24
V64 Gigabytes
p25
sVAssembled Product Dimensions (L x W x H)
p26
V10.30 x 7.40 x 0.40 Inches
p27
sVModel
p28
VNT.LCWAA.002
p29
sVScreen Size
p30
V10.10 Inches
p31
sVProcessor Type
p32
VIntel x5-Z8350
p33
sVCondition
p34
VNew
p35
ssS'title'
p36
VAcer Switch V 10 SW5-017P-17JJ - 10.1" - Atom x5 Z8350 - 4 GB RAM - 64 GB SSD - US International
p37
sb.