ccopy_reg
_reconstructor
p0
(c__main__
ProductRecord
p1
c__builtin__
object
p2
Ntp3
Rp4
(dp5
S'product_url'
p6
S'http://www.walmart.com/ip/Refurbished-Aspire-E1-572p-6480-Touchscreen-Laptop-Intel-Core-i5-4200u-1-6GHz-4GB-500GB-15-6in-W8-1/170900841'
p7
sS'price'
p8
S'N/A'
p9
sS'properties'
p10
(dp11
VBrand
p12
VAcer
p13
sVOperating System
p14
VMicrosoft Windows
p15
sVHard Drive Capacity
p16
V500
p17
ssS'title'
p18
VRefurbished Aspire E1-572p-6480 Touchscreen Laptop Intel Core i5-4200u 1.6GHz 4GB 500GB 15.6in W8.1
p19
sb.