ccopy_reg
_reconstructor
p0
(c__main__
ProductRecord
p1
c__builtin__
object
p2
Ntp3
Rp4
(dp5
S'product_url'
p6
S'http://www.walmart.com/ip/Refurbished-HP-Pavilion-15-aw000-15-aw053nr-15-6-Touchscreen-LCD-Notebook-AMD-A-Series-A12-9700P-Quad-core-4-Core-2-50-GHz-8-X3T20UAR/670924927'
p7
sS'price'
p8
S'N/A'
p9
sS'properties'
p10
(dp11
VBrand
p12
VHP
p13
sVOperating System
p14
VMicrosoft Windows
p15
ssS'title'
p16
VRefurbished HP Pavilion 15-aw000 15-aw053nr 15.6 Touchscreen LCD Notebook - AMD A-Series A12-9700P Quad-core (4 Core) 2.50 GHz - 8 X3T20UAR#
p17
sb.