ccopy_reg
_reconstructor
p0
(c__main__
ProductRecord
p1
c__builtin__
object
p2
Ntp3
Rp4
(dp5
S'product_url'
p6
S'http://www.walmart.com/ip/Refurbished-Inspiron-13-i7347-7550sLv-Laptop-PC-i5-4210U-8GB-500GB-WiFi-BT-13-3-Windows-8-1-Silver-Touchscreen/155349043'
p7
sS'price'
p8
S'N/A'
p9
sS'properties'
p10
(dp11
VBrand
p12
VDell
p13
sVAssembled Product Dimensions (L x W x H)
p14
V21.00 x 13.50 x 3.50 Inches
p15
sVManufacturer Part Number
p16
VI7347-7550SLV-FB-RCC
p17
ssS'title'
p18
VRefurbished Inspiron 13 i7347-7550sLv Laptop PC i5-4210U 8GB 500GB WiFi BT 13.3 Windows 8.1 - Silver - Touchscreen
p19
sb.