ccopy_reg
_reconstructor
p0
(c__main__
ProductRecord
p1
c__builtin__
object
p2
Ntp3
Rp4
(dp5
S'product_url'
p6
S'http://www.walmart.com/ip/HP-Envy-360-Degree-15in-Convertible-2-in-1-Full-HD-IPS-15-6-Inch/425277813'
p7
sS'price'
p8
S'N/A'
p9
sS'properties'
p10
(dp11
VRAM Memory
p12
V1 TB
p13
sVOperating System
p14
VWindows 10
p15
sVBrand
p16
VHP
p17
sVManufacturer Part Number
p18
VX7U25UA#ABA
p19
sVHard Drive Capacity
p20
V256 GB
p21
sVBattery Life
p22
V7 h
p23
sVModel
p24
V15-w267cl
p25
sVScreen Size
p26
V15.6 in
p27
sVProcessor Type
p28
VIntel Core i7
p29
ssS'title'
p30
VHP Envy 360-Degree 15in Convertible 2-in-1 Full HD IPS 15.6 Inch
p31
sb.