ccopy_reg
_reconstructor
p0
(c__main__
ProductRecord
p1
c__builtin__
object
p2
Ntp3
Rp4
(dp5
S'product_url'
p6
S'http://www.walmart.com/ip/Refurbished-Acer-Notebook-15-6-Touch-Screen-1-70-GHz-500-GB-E5-571P-55TL/211552384'
p7
sS'price'
p8
S'N/A'
p9
sS'properties'
p10
(dp11
VRAM Memory
p12
V4 GB
p13
sVOperating System
p14
VWindows 8
p15
sVBrand
p16
VAcer
p17
sVManufacturer Part Number
p18
VNX.MMSAA.012
p19
sVHard Drive Capacity
p20
V500 GB
p21
sVModel
p22
VE5-571P-55TL
p23
sVScreen Size
p24
V15.6 in
p25
sVProcessor Speed
p26
V1.70 GHz
p27
sVCondition
p28
VRefurbished
p29
ssS'title'
p30
VRefurbished Acer Notebook 15.6" Touch Screen 1.70 GHz  500 GB |E5-571P-55TL
p31
sb.