ccopy_reg
_reconstructor
p0
(c__main__
ProductRecord
p1
c__builtin__
object
p2
Ntp3
Rp4
(dp5
S'product_url'
p6
S'http://www.walmart.com/ip/DELL-XPSU12-5327CR-12-Core-i5-4-128GB-12-5-Touchscreen-2-in-1-Ultrabook-Tablet-Win-8-New-Open-Box/100833176'
p7
sS'price'
p8
S'N/A'
p9
sS'properties'
p10
(dp11
VBrand
p12
VDell
p13
sVmanufacturer_part_number
p14
Vxpsu12-5327cr
p15
ssS'title'
p16
VDELL XPSU12-5327CR 12 Core i5 4/128GB 12.5" Touchscreen 2-in-1 Ultrabook/Tablet- Win 8  - New Open Box
p17
sb.