ccopy_reg
_reconstructor
p0
(c__main__
ProductRecord
p1
c__builtin__
object
p2
Ntp3
Rp4
(dp5
S'product_url'
p6
S'http://www.walmart.com/ip/Panasonic-Toughbook-CF-52NKE102M-15-4-Notebook-Intel-Core-i5-i5-540M-2-53-GHz-Refurbished/102566380'
p7
sS'price'
p8
S'N/A'
p9
sS'properties'
p10
(dp11
VRAM Memory
p12
V4 GB
p13
sVOperating System
p14
VMicrosoft Windows
p15
sVBrand
p16
VPanasonic
p17
sVProcessor Speed
p18
V2.53 GHz
p19
sVMaximum RAM Supported
p20
V8 GB
p21
sVHard Drive Capacity
p22
V250 GB
p23
sVBattery Life
p24
V4 Hour
p25
sVModel
p26
VCF-52NKE102M, Mobility Radeon HD 5650, 52, QM57 Express
p27
sVScreen Size
p28
V15.4"
p29
sVProcessor Type
p30
VIntel Core i5
p31
sVmanufacturer_part_number
p32
VCF-52NKE102M
p33
ssS'title'
p34
VPanasonic Toughbook CF-52NKE102M 15.4" Notebook - Intel Core i5 i5-540M 2.53 GHz Refurbished
p35
sb.