ccopy_reg
_reconstructor
p0
(c__main__
ProductRecord
p1
c__builtin__
object
p2
Ntp3
Rp4
(dp5
S'product_url'
p6
S'http://www.walmart.com/ip/Dell-Latitude-5175-L5175-9K7FJC2-Tablet-PC-Intel-Core-m5-6Y57-Refurbished/278851082'
p7
sS'price'
p8
S'N/A'
p9
sS'properties'
p10
(dp11
VRAM Memory
p12
V0 GB
p13
sVOperating System
p14
VMicrosoft Windows
p15
sVBrand
p16
VDell
p17
sVHard Drive Capacity
p18
V128 GB
p19
sVModel
p20
VL5175-9K7FJC2
p21
sVScreen Size
p22
V10.8 in
p23
sVProcessor Speed
p24
V0 GHz
p25
sVCondition
p26
VRefurbished
p27
ssS'title'
p28
VDell Latitude 5175 L5175-9K7FJC2 Tablet PC - Intel Core m5-6Y57 (Refurbished)
p29
sb.