ccopy_reg
_reconstructor
p0
(c__main__
ProductRecord
p1
c__builtin__
object
p2
Ntp3
Rp4
(dp5
S'product_url'
p6
S'http://www.walmart.com/ip/Refurbished-HP-15-BS012CY-Laptop-15-BS012CY-Laptop/774189119'
p7
sS'price'
p8
S'N/A'
p9
sS'properties'
p10
(dp11
VOperating System
p12
VMicrosoft Windows
p13
sVBrand
p14
VHP
p15
sVHard Drive Capacity
p16
V2 TB
p17
sVModel
p18
V2KV95UAR#ABA
p19
sVScreen Size
p20
V15.6 in
p21
sVCondition
p22
VRefurbished
p23
sVmanufacturer_part_number
p24
V15-bs012cy
p25
ssS'title'
p26
VRefurbished "HP 15-BS012CY Laptop 15-BS012CY Laptop"
p27
sb.