ccopy_reg
_reconstructor
p0
(c__main__
ProductRecord
p1
c__builtin__
object
p2
Ntp3
Rp4
(dp5
S'product_url'
p6
S'http://www.walmart.com/ip/Refurbished-HP-15-BS010CY-Laptop-15-BS010CY-Laptop/741571704'
p7
sS'price'
p8
S'N/A'
p9
sS'properties'
p10
(dp11
VOperating System
p12
VMicrosoft Windows
p13
sVBrand
p14
VHP
p15
sVHard Drive Capacity
p16
V2 TB
p17
sVAssembled Product Dimensions (L x W x H)
p18
V12.20 x 20.70 x 2.60 Inches
p19
sVModel
p20
V2KV93UAR#ABA
p21
sVScreen Size
p22
V15.6 in
p23
sVCondition
p24
VRefurbished
p25
sVmanufacturer_part_number
p26
V15-bs010cy
p27
ssS'title'
p28
VRefurbished "HP 15-BS010CY Laptop 15-BS010CY Laptop"
p29
sb.