ccopy_reg
_reconstructor
p0
(c__main__
ProductRecord
p1
c__builtin__
object
p2
Ntp3
Rp4
(dp5
S'product_url'
p6
S'http://www.walmart.com/ip/Dell-Latitude-13-7000-13-7350-13-3-Touchscreen-In-plane-Switching-IPS-Technology-2-1-Ultrabook-Intel-Core-M-5Y71-Dual-core-2-Core-1-20-GHz-Hybrid-Bla/44894224'
p7
sS'price'
p8
S'N/A'
p9
sS'properties'
p10
(dp11
VRAM Memory
p12
V4 Gigabytes
p13
sVOperating System
p14
VMicrosoft Windows
p15
sVVideo Game Platform
p16
VPC
p17
sVBrand
p18
VDell
p19
sVProcessor Speed
p20
V1.20 Gigahertz
p21
sVManufacturer Part Number
p22
VGVY32
p23
sVMaximum RAM Supported
p24
V8 GB
p25
sVHard Drive Capacity
p26
V128 Gigabytes
p27
sVModel
p28
VGVY32
p29
sVScreen Size
p30
V13.3 Inches
p31
sVProcessor Type
p32
VCore M
p33
sVCondition
p34
VNew
p35
ssS'title'
p36
VDell Latitude 13 7000 13-7350 13.3" Touchscreen (In-plane Switching (IPS) Technology) 2 in 1 Ultrabook - Intel Core M 5Y71 Dual-core (2 Core) 1.20 GHz - Hybrid - Black - 4 GB DDR3L SDRAM RAM
p37
sb.