ccopy_reg
_reconstructor
p0
(c__main__
ProductRecord
p1
c__builtin__
object
p2
Ntp3
Rp4
(dp5
S'product_url'
p6
S'http://www.walmart.com/ip/Refurbished-Dell-XPS-12-12-5-Inch-Convertible-2-in-1-Touchscreen-Ultrabook/937435402'
p7
sS'price'
p8
S'N/A'
p9
sS'properties'
p10
(dp11
VBrand
p12
VHP
p13
ssS'title'
p14
VRefurbished Dell XPS 12 12.5-Inch Convertible 2-in-1 Touchscreen Ultrabook
p15
sb.