ccopy_reg
_reconstructor
p0
(c__main__
ProductRecord
p1
c__builtin__
object
p2
Ntp3
Rp4
(dp5
S'product_url'
p6
S'http://www.walmart.com/ip/Manufacturer-Refurbished-Acer-Aspire-R5-471T-79YN-14-Laptop-Touchscreen-2-in-1-Windows-10-Home-Intel-Core-i7-6500U-Processor-8GB-RAM-512GB-Solid-Stat/55429946'
p7
sS'price'
p8
S'N/A'
p9
sS'properties'
p10
(dp11
VRAM Memory
p12
V8 GB
p13
sVOperating System
p14
VWindows 10
p15
sVVideo Game Platform
p16
VPC
p17
sVBrand
p18
VAcer
p19
sVProcessor Speed
p20
V2.5 GHz
p21
sVManufacturer Part Number
p22
VNX.G7WAA.009
p23
sVHard Drive Capacity
p24
V512 GB
p25
sVBattery Life
p26
V9 hours
p27
sVAssembled Product Dimensions (L x W x H)
p28
V19.00 x 14.00 x 3.00 Inches
p29
sVModel
p30
VR5-471T-79YN
p31
sVScreen Size
p32
V14.0"
p33
sVProcessor Type
p34
VIntel Core i7
p35
ssS'title'
p36
VManufacturer Refurbished Acer Aspire R5-471T-79YN 14" Laptop, Touchscreen, 2-in-1, Windows 10 Home, Intel Core i7-6500U Processor, 8GB RAM, 512GB Solid State Drive
p37
sb.