ccopy_reg
_reconstructor
p0
(c__main__
ProductRecord
p1
c__builtin__
object
p2
Ntp3
Rp4
(dp5
S'product_url'
p6
S'http://www.walmart.com/ip/Manufacturer-Refurbished-HP-24-G011LA-24-AlO-PC-Intel-Core-i5-6200U-2-30GHz-8GB-1TB-HDD-Windows-10/233591769'
p7
sS'price'
p8
S'N/A'
p9
sS'properties'
p10
(dp11
VRAM Memory
p12
V8 GB
p13
sVOperating System
p14
VMicrosoft Windows
p15
sVBrand
p16
VHP
p17
sVManufacturer Part Number
p18
V24-g011la-RF
p19
sVModel
p20
V24-g011la-RF
p21
sVScreen Size
p22
V27\u005c"
p23
ssS'title'
p24
VManufacturer Refurbished - HP 24-G011LA 24" AlO PC Intel Core i5-6200U 2.30GHz 8GB 1TB HDD Windows 10
p25
sb.