ccopy_reg
_reconstructor
p0
(c__main__
ProductRecord
p1
c__builtin__
object
p2
Ntp3
Rp4
(dp5
S'product_url'
p6
S'http://www.walmart.com/ip/Refurbished-HP-EliteBook-Revolve-810-G1-11-6-Touchscreen-LED-2-in-1-Netbook-Intel-Core-i7/897827716'
p7
sS'price'
p8
S'N/A'
p9
sS'properties'
p10
(dp11
VBrand
p12
VHP
p13
ssS'title'
p14
VRefurbished HP EliteBook Revolve 810 G1 11.6" Touchscreen LED 2 in 1 Netbook - Intel Core i7
p15
sb.