ccopy_reg
_reconstructor
p0
(c__main__
ProductRecord
p1
c__builtin__
object
p2
Ntp3
Rp4
(dp5
S'product_url'
p6
S'http://www.walmart.com/ip/REFURBISHED-HP-EliteBook-Revolve-810-G1-11-6-Touchscreen-LED-2-in-1-Netbook/514885388'
p7
sS'price'
p8
S'N/A'
p9
sS'properties'
p10
(dp11
VBrand
p12
VSony
p13
sVCondition
p14
VRefurbished
p15
ssS'title'
p16
VREFURBISHED - HP EliteBook Revolve 810 G1 11.6" Touchscreen LED 2 in 1 Netbook -
p17
sb.