ccopy_reg
_reconstructor
p0
(c__main__
ProductRecord
p1
c__builtin__
object
p2
Ntp3
Rp4
(dp5
S'product_url'
p6
S'http://www.walmart.com/ip/Microsoft-Surface-Pro-4/47309584'
p7
sS'price'
p8
S'N/A'
p9
sS'properties'
p10
(dp11
VOperating System
p12
VMicrosoft Windows
p13
sVFeatures
p14
VAmbient Light Sensor, Webcam, Gyro Sensor
p15
sVAccessories Included
p16
VSurface Pen, Power Supply
p17
sVColor
p18
VSilver
p19
sVVideo Game Platform
p20
VPC
p21
sVBrand
p22
VMicrosoft
p23
sVManufacturer Part Number
p24
VTH2-00001
p25
sVMaximum RAM Supported
p26
V16 GB
p27
sVBattery Life
p28
V9 hours
p29
sVAssembled Product Dimensions (L x W x H)
p30
V9.21 x 15.17 x 1.58 Inches
p31
sVModel
p32
VTH2-00001
p33
sVScreen Size
p34
V12.3 in
p35
sVCondition
p36
VNew
p37
ssS'title'
p38
VMicrosoft Surface Pro 4
p39
sb.