ccopy_reg
_reconstructor
p0
(c__main__
ProductRecord
p1
c__builtin__
object
p2
Ntp3
Rp4
(dp5
S'product_url'
p6
S'http://www.walmart.com/ip/Dell-Silver-15-6-Inspiron-5559-FHD-Touch-Laptop-PC-Intel-Core-i7-6500U-Processor-8GB-Memory-touch-screen-1TB-Hard-Drive-Windows-10-Home-Refurbished/233347433'
p7
sS'price'
p8
S'N/A'
p9
sS'properties'
p10
(dp11
VRAM Memory
p12
V8 GB
p13
sVOperating System
p14
VMicrosoft Windows
p15
sVFeatures
p16
VEPEAT
p17
sVVideo Game Platform
p18
VPC
p19
sVBrand
p20
VDell
p21
sVManufacturer Part Number
p22
Vi5559-7081SLV
p23
sVHard Drive Capacity
p24
V1000 GB
p25
sVAssembled Product Dimensions (L x W x H)
p26
V14.90 x 0.95 x 10.25 Inches
p27
sVModel
p28
Vi5559-7081SLV
p29
sVScreen Size
p30
V15.6\u005c"
p31
ssS'title'
p32
VDell Silver 15.6" Inspiron 5559 FHD Touch Laptop PC with Intel Core i7-6500U Processor, 8GB Memory, touch screen, 1TB Hard Drive and Windows 10 Home (Refurbished)
p33
sb.