ccopy_reg
_reconstructor
p0
(c__main__
ProductRecord
p1
c__builtin__
object
p2
Ntp3
Rp4
(dp5
S'product_url'
p6
S'http://www.walmart.com/ip/Lenovo-IdeaPad-310-15-6-HD-Touchscreen-Notebook-Intel-Dual-Core-i3-7100U-2-4GHz-8GB-DDR4-256GB-SSD-DVD-RW-Card-Reader-HDMI-VGA-Wifi-Bluetooth-USB-Web/124587994'
p7
sS'price'
p8
S'N/A'
p9
sS'properties'
p10
(dp11
VRAM Memory
p12
V8 GB
p13
sVOperating System
p14
VMicrosoft Windows
p15
sVBrand
p16
VLenovo
p17
sVManufacturer Part Number
p18
VLen310i37t-8256P
p19
sVHard Drive Capacity
p20
V256 GB
p21
sVModel
p22
VLen310i37t-8256P
p23
sVScreen Size
p24
V15.6\u005c"
p25
sVCondition
p26
VNew
p27
ssS'title'
p28
VLenovo IdeaPad 310 15.6" HD Touchscreen Notebook, Intel Dual-Core i3-7100U 2.4GHz, 8GB DDR4, 256GB SSD, DVD-RW, Card Reader, HDMI, VGA, Wifi, Bluetooth, USB, Webcam, Windows 10 Professional 64Bit
p29
sb.