ccopy_reg
_reconstructor
p0
(c__main__
ProductRecord
p1
c__builtin__
object
p2
Ntp3
Rp4
(dp5
S'product_url'
p6
S'http://www.walmart.com/ip/HP-EliteBook-725-G3-A10-8730B-X4-2-4GHz-4GB-500GB-12-5-Win10-Silver/541757507'
p7
sS'price'
p8
S'N/A'
p9
sS'properties'
p10
(dp11
VScreen Size
p12
V12.5 Inches
p13
sVOperating System
p14
VMicrosoft Windows 10Professional
p15
sVFeatures
p16
V500GB (7200RPM) SATA Hard Disk Drive (HDD), 4GB DDR3 System Memory, Microsoft Windows 10 Professional Operating System, 12.2" x 8.6" x 0.74" (HxWxD); 3.6lbs, Backlit Standard Keyboard and Multi-touch Trackpad, 1MP Webcam and Integrated Microphone, 2 x USB 3.0, 1 x HDMI, 3-cell Lithium-Ion Battery, Integrated AMD Radeon R5 M335 Graphics, A10-8730B Processor (Quad-Core, 2.4GHz, 2MB Cache), Energy Star Compliant, 10/100/1000 Gigabit Ethernet, 802.11AC and Bluetooth 4.0 + HS, 12.5-inch (1366 x 768) LED Display
p17
sVBrand
p18
VHP
p19
sVResolution
p20
VHD (720P)
p21
sVDisplay Technology
p22
VLED
p23
sVRAM Memory
p24
V4 Gigabytes
p25
sVGraphics Information
p26
VAMD Radeon R5 M335 Graphics
p27
sVAssembled Product Dimensions (L x W x H)
p28
V8.60 x 0.70 x 12.20 Inches
p29
sVManufacturer Part Number
p30
V5045775
p31
sVMaximum RAM Supported
p32
V16 Gigabytes
p33
sVHard Drive Capacity
p34
V500 Gigabytes
p35
sVBattery Life
p36
V9 Hours
p37
sVHas Bluetooth
p38
VY
p39
sVProcessor Type
p40
VA10-8730B
p41
sVForm Factor
p42
VNotebook
p43
sVProcessor Speed
p44
V2.4 Gigahertz
p45
sVAssembled Product Weight
p46
V3.61 Pounds
p47
ssS'title'
p48
VHP EliteBook 725-G3 A10-8730B X4 2.4GHz 4GB 500GB 12.5" Win10, Silver
p49
sb.