ccopy_reg
_reconstructor
p0
(c__main__
ProductRecord
p1
c__builtin__
object
p2
Ntp3
Rp4
(dp5
S'product_url'
p6
S'http://www.walmart.com/ip/Refurbished-Dell-Inspiron-i5559-15-6-Inch-Laptop-Intel-Core-i7-8-GB-RAM-1-TB-HDD-Silver-Matte/976134716'
p7
sS'price'
p8
S'N/A'
p9
sS'properties'
p10
(dp11
VBrand
p12
VDell
p13
sVRAM Memory
p14
V8 GB
p15
sVOperating System
p16
VMicrosoft Windows
p17
sVHard Drive Capacity
p18
V1000 GB
p19
ssS'title'
p20
VRefurbished Dell Inspiron i5559 15.6 Inch Laptop (Intel Core i7, 8 GB RAM, 1 TB HDD, Silver Matte)
p21
sb.