ccopy_reg
_reconstructor
p0
(c__main__
ProductRecord
p1
c__builtin__
object
p2
Ntp3
Rp4
(dp5
S'product_url'
p6
S'http://www.walmart.com/ip/Refurbished-HP-Elite-x2-1012-G1-12-Touchscreen-LCD-2-1-Notebook-Intel-Core-M-6th-Gen-m5-6Y54-Dual-core-2-Core-1-10-GHz-8-GB-LPDDR3-256-GB-SSD-Windows/567101676'
p7
sS'price'
p8
S'N/A'
p9
sS'properties'
p10
(dp11
sS'title'
p12
VRefurbished HP Elite x2 1012 G1 12" Touchscreen LCD 2 in 1 Notebook - Intel Core M (6th Gen) m5-6Y54 Dual-core (2 Core) 1.10 GHz - 8 GB LPDDR3 - 256 GB SSD - Windows 10 Pro 64-bit (English) - 1920
p13
sb.