ccopy_reg
_reconstructor
p0
(c__main__
ProductRecord
p1
c__builtin__
object
p2
Ntp3
Rp4
(dp5
S'product_url'
p6
S'http://www.walmart.com/ip/Dell-Inspiron-13-5000-13-5378-13-3-Touchscreen-2-in-1-Notebook-Refurbished/930625633'
p7
sS'price'
p8
S'N/A'
p9
sS'properties'
p10
(dp11
VRAM Memory
p12
V8 GB
p13
sVOperating System
p14
VWindows 10 Home 64-bit Edition
p15
sVBrand
p16
VDell
p17
sVProcessor Speed
p18
V2.5 GHz
p19
sVHard Drive Capacity
p20
V256 GB
p21
sVModel
p22
VI5378-4314GRY
p23
sVScreen Size
p24
V13.3 in
p25
sVProcessor Type
p26
VIntel Core i5
p27
sVCondition
p28
VRefurbished
p29
ssS'title'
p30
VDell Insprion 13-5378 I5378-4314GRY 2-in-1 Notebook PC - Intel (Refurbished)
p31
sb.