ccopy_reg
_reconstructor
p0
(c__main__
ProductRecord
p1
c__builtin__
object
p2
Ntp3
Rp4
(dp5
S'product_url'
p6
S'http://www.walmart.com/ip/Used-Like-New-ASUS-VivoBook-Flip-14-Thin-Light-2-in-1-HD-Touchscreen-Laptop-Intel-Quad-Core-Pentium-N4200-Processor-2-5GHz-4GB-RAM-64GB-EMMC-Storage-/322648796'
p7
sS'price'
p8
S'N/A'
p9
sS'properties'
p10
(dp11
VAssembled Product Dimensions (L x W x H)
p12
V12.90 x 8.90 x 0.80 Inches
p13
sVBrand
p14
VASUS
p15
sVRAM Memory
p16
V4 GB
p17
sVOperating System
p18
VMicrosoft Windows
p19
sVManufacturer Part Number
p20
VTP401NA-WH21T
p21
ssS'title'
p22
VUsed Like New ASUS VivoBook Flip 14 Thin and Light 2-in-1 HD Touchscreen Laptop, Intel Quad-Core Pentium N4200 Processor (2.5GHz), 4GB RAM, 64GB EMMC Storage, Windows 10 Home
p23
sb.