ccopy_reg
_reconstructor
p0
(c__main__
ProductRecord
p1
c__builtin__
object
p2
Ntp3
Rp4
(dp5
S'product_url'
p6
S'http://www.walmart.com/ip/HP-Elite-x2-1012-G1-12-Touchscreen-LCD-2-in-1-Notebook-Intel-Refurbished/343812127'
p7
sS'price'
p8
S'N/A'
p9
sS'properties'
p10
(dp11
VRAM Memory
p12
V8 GB
p13
sVOperating System
p14
VWindows 10 Professional 64-bit Edition
p15
sVBrand
p16
VHP
p17
sVProcessor Speed
p18
V1.1 GHz
p19
sVHard Drive Capacity
p20
V256 GB
p21
sVModel
p22
VT8Z05UT
p23
sVScreen Size
p24
V12 in
p25
sVProcessor Type
p26
VIntel Pentium M
p27
ssS'title'
p28
VHP Elite x2 1012 G1 12" Touchscreen LCD 2 in 1 Notebook - Intel (Refurbished)
p29
sb.