ccopy_reg
_reconstructor
p0
(c__main__
ProductRecord
p1
c__builtin__
object
p2
Ntp3
Rp4
(dp5
S'product_url'
p6
S'http://www.walmart.com/ip/HP-Notebook-15-6-Inch-Touchscreen-Premium-Laptop-PC-AMD-A-Series-A8-7410-Quad-core-2-20-GHz-4GB-RAM-1TB-HDD-SuperMulti-DVD-Burner-Bluetooth-Windows-1/517184112'
p7
sS'price'
p8
S'N/A'
p9
sS'properties'
p10
(dp11
VRAM Memory
p12
V4.00 GB
p13
sVOperating System
p14
VWindows 10
p15
sVBrand
p16
VHP
p17
sVHard Drive Capacity
p18
V1.00 TB
p19
sVProcessor Type
p20
VAMD A-Series A8-7410 Quad-core
p21
sVScreen Size
p22
V15.60 in
p23
sVProcessor Speed
p24
V2.20 GHz
p25
ssS'title'
p26
VHP Notebook 15.6 Inch Touchscreen Premium Laptop PC, AMD A-Series A8-7410 Quad-core 2.20 GHz, 4GB RAM, 1TB HDD, SuperMulti DVD Burner, Bluetooth, Windows 10 - Dreamy Teal
p27
sb.