ccopy_reg
_reconstructor
p0
(c__main__
ProductRecord
p1
c__builtin__
object
p2
Ntp3
Rp4
(dp5
S'product_url'
p6
S'http://www.walmart.com/ip/Acer-Aspire-Switch-Alpha-12-SA5-271P-5972-12-Touchscreen-LCD-2-Refurbished/152685372'
p7
sS'price'
p8
S'N/A'
p9
sS'properties'
p10
(dp11
VRAM Memory
p12
V0 GB
p13
sVBrand
p14
VAcer
p15
sVHard Drive Capacity
p16
V256 GB
p17
sVModel
p18
VNT.LCEAA.004
p19
sVScreen Size
p20
V12 in
p21
sVProcessor Speed
p22
V0 GHz
p23
sVmanufacturer_part_number
p24
Vsa5-271p-5972
p25
ssS'title'
p26
VAcer Aspire Switch Alpha 12 SA5-271P-5972 12" Touchscreen LCD 2 (Refurbished)
p27
sb.