ccopy_reg
_reconstructor
p0
(c__main__
ProductRecord
p1
c__builtin__
object
p2
Ntp3
Rp4
(dp5
S'product_url'
p6
S'http://www.walmart.com/ip/INTEL-N3050-4GB-64GB-11-6IN-TOUCH-SCREEN-W10P/187719134'
p7
sS'price'
p8
S'N/A'
p9
sS'properties'
p10
(dp11
VAssembled Product Dimensions (L x W x H)
p12
V15.50 x 9.40 x 2.50 Inches
p13
sVBrand
p14
VASUS - NOTEBOOKS
p15
sVRAM Memory
p16
V64 GB
p17
sVScreen Size
p18
V11.6
p19
sVCondition
p20
VNew
p21
ssS'title'
p22
VINTEL N3050 4GB 64GB 11.6IN TOUCH SCREEN W10P
p23
sb.