ccopy_reg
_reconstructor
p0
(c__main__
ProductRecord
p1
c__builtin__
object
p2
Ntp3
Rp4
(dp5
S'product_url'
p6
S'http://www.walmart.com/ip/HP-15-6-Premium-Touchscreen-Notebook-AMD-Quad-Core-A12-9720P-Upto-3-60GHz-8GB-DDR4-256GB-SSD-DVD-RW-Webcam-Card-Reader-Wifi-Windows-10-Home-Wireless-/451745532'
p7
sS'price'
p8
S'N/A'
p9
sS'properties'
p10
(dp11
VRAM Memory
p12
V8 GB
p13
sVOperating System
p14
VMicrosoft Windows
p15
sVBrand
p16
VHP
p17
sVManufacturer Part Number
p18
VHP15BW032A12N-8-256
p19
sVHard Drive Capacity
p20
V256 GB
p21
sVModel
p22
VHP15BW032A12N-8-256
p23
sVScreen Size
p24
V15.6\u005c"
p25
ssS'title'
p26
VHP 15.6" Premium Touchscreen Notebook, AMD Quad-Core A12-9720P Upto 3.60GHz, 8GB DDR4, 256GB SSD,  DVD-RW, Webcam, Card Reader, Wifi, Windows 10 Home + Wireless Mouse and Backpack
p27
sb.