ccopy_reg
_reconstructor
p0
(c__main__
ProductRecord
p1
c__builtin__
object
p2
Ntp3
Rp4
(dp5
S'product_url'
p6
S'http://www.walmart.com/ip/13-3-Mt8173-4GB-64GB-Chromeos/164022649'
p7
sS'price'
p8
S'N/A'
p9
sS'properties'
p10
(dp11
VOperating System
p12
VMicrosoft Windows
p13
sVBrand
p14
VAcer
p15
sVRAM Memory
p16
V4 GB
p17
sVScreen Size
p18
V13.3
p19
sVCondition
p20
VNew
p21
ssS'title'
p22
V13.3" Mt8173 4GB 64GB Chromeos
p23
sb.