ccopy_reg
_reconstructor
p0
(c__main__
ProductRecord
p1
c__builtin__
object
p2
Ntp3
Rp4
(dp5
S'product_url'
p6
S'http://www.walmart.com/ip/Refurbished-Dell-Inspiron-15-5000-I5558-6434SLV-Notebook-PC-Intel-Core-i5-5200U-2-2-GHz-Dual-Core-Processor-12-GB-DDR3L-SDRAM-1-TB-Hard-Drive-15-6-in/578011066'
p7
sS'price'
p8
S'N/A'
p9
sS'properties'
p10
(dp11
sS'title'
p12
VRefurbished Dell Inspiron 15 5000 I5558-6434SLV Notebook PC - Intel Core i5-5200U 2.2 GHz Dual-Core Processor - 12 GB DDR3L SDRAM - 1 TB Hard Drive - 15.6-inch Touchscreen Display - Windows 10 Home
p13
sb.