ccopy_reg
_reconstructor
p0
(c__main__
ProductRecord
p1
c__builtin__
object
p2
Ntp3
Rp4
(dp5
S'product_url'
p6
S'http://www.walmart.com/ip/Acer-CB5-312T-K0YQ-13-3-34-16-9-Chromebook-1920-x-1080-Touchscreen-In-plane-Switching-IPS-Technology-MediaTek-M8173C-Quad-core-4-Core-2-10-GHz-4-GB-L/764961830'
p7
sS'price'
p8
S'N/A'
p9
sS'properties'
p10
(dp11
VAssembled Product Dimensions (L x W x H)
p12
V12.80 x 9.00 x 0.60 Inches
p13
sVBrand
p14
VACER- CHROME PRODUCTS
p15
sVScreen Size
p16
V13.3
p17
ssS'title'
p18
VAcer CB5-312T-K0YQ 13.3" 16:9 Chromebook - 1920 x 1080 Touchscreen - In-plane Switching (IPS) Technology - MediaTek M8173C Quad-core (4 Core) 2.10 GHz - 4 GB LPDDR3 - 64 GB Flash Memory Capac
p19
sb.