ccopy_reg
_reconstructor
p0
(c__main__
ProductRecord
p1
c__builtin__
object
p2
Ntp3
Rp4
(dp5
S'product_url'
p6
S'http://www.walmart.com/ip/Lenovo-Ideapad-320-15-6-HD-Touchscreen-Notebook-Intel-Dual-Core-i3-7100U-2-4GHz-12GB-DDR4-512GB-SSD-HDMI-Card-Reader-DVD-RW-USB-Wifi-Bluetooth-Intel-/323788336'
p7
sS'price'
p8
S'N/A'
p9
sS'properties'
p10
(dp11
VRAM Memory
p12
V12 GB
p13
sVOperating System
p14
VMicrosoft Windows
p15
sVBrand
p16
VLenovo
p17
sVManufacturer Part Number
p18
VLen320i37t-12512P
p19
sVModel
p20
VLen320i37t-12512P
p21
sVScreen Size
p22
V15.6\u005c"
p23
sVCondition
p24
VNew
p25
ssS'title'
p26
VLenovo Ideapad 320 15.6" HD Touchscreen Notebook, Intel Dual-Core i3-7100U 2.4GHz, 12GB DDR4, 512GB SSD, HDMI, Card Reader, DVD-RW, USB, Wifi, Bluetooth, Intel UHD Graphics 620, Windows 10 Pro 64Bit
p27
sb.