ccopy_reg
_reconstructor
p0
(c__main__
ProductRecord
p1
c__builtin__
object
p2
Ntp3
Rp4
(dp5
S'product_url'
p6
S'http://www.walmart.com/ip/HP-17-Touchscreen-Laptop-AMD-A10-2GB-Graphics-17-ak092cl-Notebook-PC-Computer-12GB-1TB/864617882'
p7
sS'price'
p8
S'N/A'
p9
sS'properties'
p10
(dp11
VBrand
p12
VHP
p13
sVOperating System
p14
VMicrosoft Windows
p15
sVHard Drive Capacity
p16
V1000 GB
p17
sVCondition
p18
VNew
p19
ssS'title'
p20
VHP 17 Touchscreen Laptop - AMD A10 - 2GB Graphics 17-ak092cl Notebook PC Computer 12GB 1TB
p21
sb.