ccopy_reg
_reconstructor
p0
(c__main__
ProductRecord
p1
c__builtin__
object
p2
Ntp3
Rp4
(dp5
S'product_url'
p6
S'http://www.walmart.com/ip/Manufacturer-Refurbished-ASUS-TP301UA-IB74T-13-3-Touch-Laptop-i7-6500U-2-50GHz-8GB-512GB-SSD-W10/599722702'
p7
sS'price'
p8
S'N/A'
p9
sS'properties'
p10
(dp11
VRAM Memory
p12
V8 GB
p13
sVOperating System
p14
VMicrosoft Windows
p15
sVBrand
p16
VASUS
p17
sVManufacturer Part Number
p18
Vi7-6500U-RF
p19
sVHard Drive Capacity
p20
V512 GB
p21
sVModel
p22
Vi7-6500U-RF
p23
sVScreen Size
p24
V13.3\u005c"
p25
ssS'title'
p26
VManufacturer Refurbished - ASUS TP301UA-IB74T 13.3" Touch Laptop i7-6500U 2.50GHz 8GB 512GB SSD W10
p27
sb.