ccopy_reg
_reconstructor
p0
(c__main__
ProductRecord
p1
c__builtin__
object
p2
Ntp3
Rp4
(dp5
S'product_url'
p6
S'http://www.walmart.com/ip/Refurbished-Dell-Inspiron-i3168-3272GRY-11-6-HD-2-in-1-Laptop-Tablet-Intel-Pentium-N3710-4GB-500GB-eMMC-HDD/897449771'
p7
sS'price'
p8
S'N/A'
p9
sS'properties'
p10
(dp11
VBrand
p12
VDell
p13
sVHard Drive Capacity
p14
V500
p15
ssS'title'
p16
VRefurbished Dell Inspiron i3168-3272GRY 11.6 HD 2-in-1 Laptop/Tablet (Intel Pentium N3710, 4GB, 500GB eMMC HDD)
p17
sb.