ccopy_reg
_reconstructor
p0
(c__main__
ProductRecord
p1
c__builtin__
object
p2
Ntp3
Rp4
(dp5
S'product_url'
p6
S'http://www.walmart.com/ip/HP-15-6-Premium-Touchscreen-Notebook-Intel-Dual-Core-i7-7500U-2-7GHz-Upto-3-5GHz-8GB-DDR4-128GB-SSD-Card-Reader-HDMI-RJ-45-USB-Wifi-Bluetooth-Windows/438919644'
p7
sS'price'
p8
S'N/A'
p9
sS'properties'
p10
(dp11
VRAM Memory
p12
V8 GB
p13
sVOperating System
p14
VMicrosoft Windows
p15
sVBrand
p16
VHP
p17
sVManufacturer Part Number
p18
VHP15ti77t-8128P
p19
sVHard Drive Capacity
p20
V128 GB
p21
sVModel
p22
VHP15ti77t-8128P
p23
sVScreen Size
p24
V15.6\u005c"
p25
sVCondition
p26
VNew
p27
ssS'title'
p28
VHP 15.6" Premium Touchscreen Notebook, Intel Dual-Core i7-7500U 2.7GHz Upto 3.5GHz, 8GB DDR4, 128GB SSD, Card Reader, HDMI, RJ-45, USB, Wifi, Bluetooth, Windows 10 Professional 64Bit
p29
sb.