ccopy_reg
_reconstructor
p0
(c__main__
ProductRecord
p1
c__builtin__
object
p2
Ntp3
Rp4
(dp5
S'product_url'
p6
S'http://www.walmart.com/ip/Refurbished-HP-Pro-P3E15UT-Tablet-PC-Intel-Core-i5-4302Y-1-6-GHz-Dual-Core-Processor-8-GB-DDR3-SDRAM-256-GB-Solid-State-Drive-12-5-inch-Touchscreen-D/390290090'
p7
sS'price'
p8
S'N/A'
p9
sS'properties'
p10
(dp11
sS'title'
p12
VRefurbished HP Pro P3E15UT Tablet PC - Intel Core i5-4302Y 1.6 GHz Dual-Core Processor - 8 GB DDR3 SDRAM - 256 GB Solid State Drive - 12.5-inch Touchscreen Display - Windows 10 Pro 64-bit - Black
p13
sb.