ccopy_reg
_reconstructor
p0
(c__main__
ProductRecord
p1
c__builtin__
object
p2
Ntp3
Rp4
(dp5
S'product_url'
p6
S'http://www.walmart.com/ip/ASUS-VivoBook-Flip-14-14-FHD-Touchscreen-Laptop-Intel-Core-i5-8250U-8GB-1TB-W10/533217896'
p7
sS'price'
p8
S'N/A'
p9
sS'properties'
p10
(dp11
VRAM Memory
p12
V8 Gigabytes
p13
sVOperating System
p14
VWindows 10
p15
sVBrand
p16
VASUS
p17
sVProcessor Speed
p18
V1.6 Gigahertz
p19
sVManufacturer Part Number
p20
V90NB0FS1M08080
p21
sVHard Drive Capacity
p22
V1 Terabytes
p23
sVBattery Life
p24
V0 h
p25
sVAssembled Product Dimensions (L x W x H)
p26
V18.00 x 3.00 x 11.00 Inches
p27
sVModel
p28
V90NB0FS1M08080
p29
sVScreen Size
p30
V14.00 Inches
p31
sVProcessor Type
p32
VIntel i5-8250U
p33
sVCondition
p34
VNew
p35
ssS'title'
p36
VASUS VivoBook Flip 14 14" FHD Touchscreen Laptop Intel Core i5-8250U 8GB 1TB W10
p37
sb.