ccopy_reg
_reconstructor
p0
(c__main__
ProductRecord
p1
c__builtin__
object
p2
Ntp3
Rp4
(dp5
S'product_url'
p6
S'http://www.walmart.com/ip/Refurbished-HP-Elitebook-840-G3-W5L83UP-Notebook-PC-Intel-Core-i7-6600U-2-6-GHz-Dual-Core-Processor-8-GB-DDR4-SDRAM-512-GB-SSD-14-inch-Touchscreen-Di/450657102'
p7
sS'price'
p8
S'N/A'
p9
sS'properties'
p10
(dp11
sS'title'
p12
VRefurbished HP Elitebook 840 G3 W5L83UP Notebook PC - Intel Core i7-6600U 2.6 GHz Dual-Core Processor - 8 GB DDR4 SDRAM - 512 GB SSD - 14-inch Touchscreen Display - Windows 10 Pro 64-bit - Silver
p13
sb.