ccopy_reg
_reconstructor
p0
(c__main__
ProductRecord
p1
c__builtin__
object
p2
Ntp3
Rp4
(dp5
S'product_url'
p6
S'http://www.walmart.com/ip/Microsoft-Surface-Pro/212651014'
p7
sS'price'
p8
S'N/A'
p9
sS'properties'
p10
(dp11
VOperating System
p12
VMicrosoft Windows
p13
sVBrand
p14
VMicrosoft
p15
sVWireless Technology
p16
V802.11ac; Bluetooth
p17
sVBattery Life
p18
V13.50 h
p19
sVProcessor Core Type
p20
VDual-core (2 Core)
p21
sVProduct Line
p22
VSurface Pro
p23
sVModel
p24
VFKH00001
p25
sVScreen Size
p26
V12.30 in
p27
sVCondition
p28
VNew
p29
sVManufacturer
p30
VMicrosoft Corporation
p31
ssS'title'
p32
VMicrosoft Surface Pro
p33
sb.