ccopy_reg
_reconstructor
p0
(c__main__
ProductRecord
p1
c__builtin__
object
p2
Ntp3
Rp4
(dp5
S'product_url'
p6
S'http://www.walmart.com/ip/REFURBISHED-Dell-Precision-M3800-i7-4712HQ-2-3GHz-TouchScreen-500GB-HDD-8GB-RAM-WINDOWS-7/922273798'
p7
sS'price'
p8
S'N/A'
p9
sS'properties'
p10
(dp11
VBrand
p12
VDell
p13
sVOperating System
p14
VMicrosoft Windows
p15
sVHard Drive Capacity
p16
V500 GB
p17
sVCondition
p18
VNew
p19
ssS'title'
p20
VREFURBISHED-Dell Precision M3800 i7 4712HQ 2.3GHz TouchScreen 500GB HDD 8GB RAM WINDOWS 7
p21
sb.