ccopy_reg
_reconstructor
p0
(c__main__
ProductRecord
p1
c__builtin__
object
p2
Ntp3
Rp4
(dp5
S'product_url'
p6
S'http://www.walmart.com/ip/REFURBISHED-Dell-Precision-M3800-Intel-i7-4702HQ-Touchscreen-500GB-HDD-8GB-Ram-Windows-7-Pro/579043391'
p7
sS'price'
p8
S'N/A'
p9
sS'properties'
p10
(dp11
VBrand
p12
VDell
p13
sVOperating System
p14
VMicrosoft Windows
p15
sVHard Drive Capacity
p16
V500
p17
sVCondition
p18
VNew
p19
ssS'title'
p20
VREFURBISHED-Dell Precision M3800 Intel i7-4702HQ Touchscreen 500GB HDD 8GB Ram Windows 7 Pro
p21
sb.