ccopy_reg
_reconstructor
p0
(c__main__
ProductRecord
p1
c__builtin__
object
p2
Ntp3
Rp4
(dp5
S'product_url'
p6
S'http://www.walmart.com/ip/HP-Pavilion-15t-15-cd022cl-Touchscreen-Touch-screen-Laptop-Notebook-PC-Comptuer-AMD-A10-2GB-Graphic-Radeon-535DX-16GB-1TB-DVD-RW/838793972'
p7
sS'price'
p8
S'N/A'
p9
sS'properties'
p10
(dp11
VBrand
p12
VHP
p13
sVRAM Memory
p14
V16 GB, 2 GB
p15
sVOperating System
p16
VMicrosoft Windows
p17
sVHard Drive Capacity
p18
V1000 GB
p19
sVCondition
p20
VNew
p21
ssS'title'
p22
VHP Pavilion 15t 15-cd022cl Touchscreen Touch screen Laptop Notebook PC Comptuer AMD A10 2GB Graphic Radeon 535DX 16GB 1TB DVD-RW
p23
sb.