ccopy_reg
_reconstructor
p0
(c__main__
ProductRecord
p1
c__builtin__
object
p2
Ntp3
Rp4
(dp5
S'product_url'
p6
S'http://www.walmart.com/ip/Toshiba-Portg-A30T-C1300ED-Celeron-3855U-1-6-GHz-Windows-10-Pro-National-Academic-4-GB-RAM-128-GB-SSD-13-3-touchscreen-1920-x-1080-Full-HD-HD-Graphic/327267703'
p7
sS'price'
p8
S'N/A'
p9
sS'properties'
p10
(dp11
VRAM Memory
p12
V0 GB
p13
sVOperating System
p14
VMicrosoft Windows
p15
sVBrand
p16
VToshiba
p17
sVProcessor Speed
p18
V0 GHz
p19
sVManufacturer Part Number
p20
VPT361U-02401C
p21
sVMaximum RAM Supported
p22
V16 GB
p23
sVBattery Life
p24
V0 h
p25
sVAssembled Product Dimensions (L x W x H)
p26
V9.00 x 12.40 x 1.00 Inches
p27
sVModel
p28
VPT361U-02401C
p29
sVScreen Size
p30
V13.3"
p31
sVProcessor Type
p32
VIntel Celeron
p33
sVCondition
p34
VNew
p35
ssS'title'
p36
VToshiba Portg A30T-C1300ED - Celeron 3855U / 1.6 GHz - Windows 10 Pro National Academic - 4 GB RAM - 128 GB SSD - 13.3" touchscreen 1920 x 1080 (Full HD) - HD Graphics 510 - Wi-Fi - graphite black metallic
p37
sb.