ccopy_reg
_reconstructor
p0
(c__main__
ProductRecord
p1
c__builtin__
object
p2
Ntp3
Rp4
(dp5
S'product_url'
p6
S'http://www.walmart.com/ip/Acer-Spin-5-13-3-FullHD-Touchscreen-Laptop-i5-8250U-8GB-25GB-SSD-Win10-Pro/436973776'
p7
sS'price'
p8
S'N/A'
p9
sS'properties'
p10
(dp11
VRAM Memory
p12
V8 Gigabytes
p13
sVOperating System
p14
VWindows 10
p15
sVBrand
p16
VAcer
p17
sVProcessor Speed
p18
V1.6 Gigahertz
p19
sVManufacturer Part Number
p20
VNX.GR7AA.008
p21
sVMaximum RAM Supported
p22
V16 Gigabytes
p23
sVHard Drive Capacity
p24
V256 Gigabytes
p25
sVBattery Life
p26
V0 h
p27
sVModel
p28
VNX.GR7AA.008
p29
sVScreen Size
p30
V13.30 Inches
p31
sVProcessor Type
p32
VIntel i5-8250U
p33
sVCondition
p34
VNew
p35
ssS'title'
p36
VAcer Spin 5 13.3" FullHD Touchscreen Laptop i5-8250U 8GB 25GB SSD Win10 Pro
p37
sb.