ccopy_reg
_reconstructor
p0
(c__main__
ProductRecord
p1
c__builtin__
object
p2
Ntp3
Rp4
(dp5
S'product_url'
p6
S'http://www.walmart.com/ip/Asus-VivoBook-Flip-14-2-in-1-Notebook-with-Intel-i5-8250U-8GB-256GB-SSD/337871036'
p7
sS'price'
p8
S'N/A'
p9
sS'properties'
p10
(dp11
VRAM Memory
p12
V0 Gigabytes
p13
sVOperating System
p14
VUnknown
p15
sVFeatures
p16
V256GB 14IN W10
p17
sVBrand
p18
VASUS
p19
sVManufacturer Part Number
p20
V90NB0FS1-M06250
p21
sVHard Drive Capacity
p22
V0 Gigabytes
p23
sVAssembled Product Dimensions (L x W x H)
p24
V45.72 x 7.11 x 27.94 Inches
p25
sVModel
p26
VTP410UA-DH54T
p27
sVScreen Size
p28
V14\u005c"
p29
sVProcessor Speed
p30
V0 Gigahertz
p31
sVCondition
p32
VNew
p33
ssS'title'
p34
VAsus VivoBook Flip 14 2-in-1 Notebook with Intel i5-8250U, 8GB 256GB SSD
p35
sb.