ccopy_reg
_reconstructor
p0
(c__main__
ProductRecord
p1
c__builtin__
object
p2
Ntp3
Rp4
(dp5
S'product_url'
p6
S'http://www.walmart.com/ip/Microsoft-Surface-Pro-3-512GB-Intel-Core-i7-4650U-X2-1-7GHz-12-Silver-3rd-Party-Refurbished/398442742'
p7
sS'price'
p8
S'N/A'
p9
sS'properties'
p10
(dp11
VRAM Memory
p12
V8 Gigabytes
p13
sVOperating System
p14
VWindows 8
p15
sVFeatures
p16
V0.36" x 11.50" x 7.93" (HxWxD); 1.8lbs, Intel Core i7-4650U Processor (Dual-Core, 1.7GHz), Lithium-Polymer Battery; 9HRS Battery Life, 8GB Memory, 802.11AC and Bluetooth 4.0 + HS, 12-inch 1920 x 1080 LED Display, 512GB (512GB Capacity) Storage, Built-in speakers, Touch screen, Accelerometer, Ambient Light Sensor, Gyroscope, Windows 8.1 Pro Operating System, Intel HD Graphics 4400
p17
sVBrand
p18
VMicrosoft
p19
sVManufacturer Part Number
p20
VPU2-00001-RFB
p21
sVHard Drive Capacity
p22
V512 Gigabytes
p23
sVBattery Life
p24
V9 Hours
p25
sVAssembled Product Dimensions (L x W x H)
p26
V11.50 x 7.90 x 0.40 Inches
p27
sVProcessor Type
p28
VIntel Core i7-4650U
p29
sVScreen Size
p30
V12 Inches
p31
sVProcessor Speed
p32
V1.7 Gigahertz
p33
ssS'title'
p34
VMicrosoft Surface Pro 3 512GB Intel Core i7-4650U X2 1.7GHz 12", Silver (3rd Party (Refurbished)
p35
sb.