ccopy_reg
_reconstructor
p0
(c__main__
ProductRecord
p1
c__builtin__
object
p2
Ntp3
Rp4
(dp5
S'product_url'
p6
S'http://www.walmart.com/ip/REFURBISHED-Alienware-WQXGA-13-Inch-Touchscreen-Gaming-Laptop-Intel-Core-i7-5500U-16-GB-RAM-256-GB-SSD-Silver-Black-NVIDIA-GeForce-GTX-960M-2GB-GDDR5/979274081'
p7
sS'price'
p8
S'N/A'
p9
sS'properties'
p10
(dp11
VBrand
p12
VHP
p13
sVRAM Memory
p14
V16 GB
p15
sVOperating System
p16
VMicrosoft Windows
p17
ssS'title'
p18
VREFURBISHED Alienware WQXGA+ 13-Inch Touchscreen Gaming Laptop (Intel Core i7 5500U, 16 GB RAM, 256 GB SSD, Silver and Black) NVIDIA GeForce GTX 960M with 2GB GDDR5
p19
sb.