ccopy_reg
_reconstructor
p0
(c__main__
ProductRecord
p1
c__builtin__
object
p2
Ntp3
Rp4
(dp5
S'product_url'
p6
S'http://www.walmart.com/ip/REFURBISHED-Dell-XPS-XPS9350-5341SLV-13-3-Inch-QHD-Touchscreen-Laptop-Intel-Core-i7-with-Iris-Graphics-8-GB-RAM-256-GB-SSD-Silver/230260900'
p7
sS'price'
p8
S'N/A'
p9
sS'properties'
p10
(dp11
VBrand
p12
VHP
p13
sVRAM Memory
p14
V8 GB
p15
sVOperating System
p16
VMicrosoft Windows
p17
ssS'title'
p18
VREFURBISHED Dell XPS XPS9350-5341SLV 13.3 Inch QHD Touchscreen Laptop (Intel Core i7 with Iris Graphics, 8 GB RAM, 256 GB SSD, Silver)
p19
sb.