ccopy_reg
_reconstructor
p0
(c__main__
ProductRecord
p1
c__builtin__
object
p2
Ntp3
Rp4
(dp5
S'product_url'
p6
S'http://www.walmart.com/ip/Lenovo-Yoga-700-2-in-1-11-6-Core-M5-1-1Ghz-8-GB-256-GB-Windows-10-Laptop-NEW/607255690'
p7
sS'price'
p8
S'N/A'
p9
sS'properties'
p10
(dp11
VOperating System
p12
VMicrosoft Windows
p13
sVBrand
p14
VLenovo
p15
sVManufacturer Part Number
p16
V80KE004YUS
p17
sVModel
p18
V80QE
p19
sVScreen Size
p20
V11.6
p21
sVProcessor Type
p22
VCore m5
p23
sVCondition
p24
VLIKE NEW
p25
ssS'title'
p26
VLenovo Yoga 700 2-in-1 11.6" Core M5 1.1Ghz 8 GB 256 GB  Windows 10 Laptop NEW
p27
sb.