ccopy_reg
_reconstructor
p0
(c__main__
ProductRecord
p1
c__builtin__
object
p2
Ntp3
Rp4
(dp5
S'product_url'
p6
S'http://www.walmart.com/ip/HP-EliteBook-740-G1-Notebook-PC-Intel-Core-i3-4030U-1-9GHz-4GB-DDR3L-500GB-HDD-14-0-Touchscreen-HD-Display-Windo/39989109'
p7
sS'price'
p8
S'N/A'
p9
sS'properties'
p10
(dp11
sS'title'
p12
VHP EliteBook 740 G1 Notebook PC - Intel Core i3 4030U 1.9GHz, 4GB DDR3L, 500GB HDD, 14.0" Touchscreen HD+ Display, Windo
p13
sb.