ccopy_reg
_reconstructor
p0
(c__main__
ProductRecord
p1
c__builtin__
object
p2
Ntp3
Rp4
(dp5
S'product_url'
p6
S'http://www.walmart.com/ip/Acer-Aspire-R7-372T-758Q-13-3-Core-i7-6500U-8-GB-RAM-256-GB-SSD-US-International/160835804'
p7
sS'price'
p8
S'N/A'
p9
sS'properties'
p10
(dp11
VRAM Memory
p12
V8 Gigabytes
p13
sVOperating System
p14
VWindows 10
p15
sVBrand
p16
VAcer
p17
sVProcessor Speed
p18
V2.50 Gigahertz
p19
sVManufacturer Part Number
p20
VNX.G8SAA.005
p21
sVHard Drive Capacity
p22
V256
p23
sVModel
p24
VNX.G8SAA.005
p25
sVScreen Size
p26
V13.30 in
p27
sVProcessor Type
p28
VIntel Core i7
p29
sVCondition
p30
VNew
p31
ssS'title'
p32
VAcer Aspire R7-372T-758Q - 13.3" - Core i7 6500U - 8 GB RAM - 256 GB SSD - US International
p33
sb.