ccopy_reg
_reconstructor
p0
(c__main__
ProductRecord
p1
c__builtin__
object
p2
Ntp3
Rp4
(dp5
S'product_url'
p6
S'http://www.walmart.com/ip/HP-Pavilion-15-6-HD-Touchscreen-Notebook-Intel-Core-i7-6500U-Upto-3-1GHz-16GB-DDR4-256GB-SSD-NVIDIA-GeForce-940MX-2GB-DVD-RW-Wifi-Bluetooth-Windows-1/117331289'
p7
sS'price'
p8
S'N/A'
p9
sS'properties'
p10
(dp11
VOperating System
p12
VMicrosoft Windows
p13
sVBrand
p14
VHP
p15
sVManufacturer Part Number
p16
VHPPavi76t-16-256P
p17
sVHard Drive Capacity
p18
V256 GB
p19
sVModel
p20
VHPPavi76t-16-256P
p21
sVScreen Size
p22
V15.6\u005c"
p23
ssS'title'
p24
VHP Pavilion 15.6" HD Touchscreen Notebook, Intel Core i7-6500U Upto 3.1GHz, 16GB DDR4, 256GB SSD, NVIDIA GeForce 940MX 2GB, DVD-RW, Wifi, Bluetooth, Windows 10 Professional 64Bit
p25
sb.