ccopy_reg
_reconstructor
p0
(c__main__
ProductRecord
p1
c__builtin__
object
p2
Ntp3
Rp4
(dp5
S'product_url'
p6
S'http://www.walmart.com/ip/Lenovo-ThinkPad-Yoga-260-12-5-Core-i5-6300U-8-GB-RAM-256-GB-SSD/50629635'
p7
sS'price'
p8
S'N/A'
p9
sS'properties'
p10
(dp11
VRAM Memory
p12
V8
p13
sVOperating System
p14
VWindows 10 Pro (English)
p15
sVColor Category
p16
VMulticolor
p17
sVVideo Game Platform
p18
VPC
p19
sVBrand
p20
VLenovo
p21
sVManufacturer Part Number
p22
V20FD002HUS
p23
sVWireless Technology
p24
VBluetooth
p25
sVHard Drive Capacity
p26
V256
p27
sVLaptop Computer Type
p28
VTouchscreen
p29
sVProcessor Core Type
p30
VDual-core (2 Core)
p31
sVProcessor Type
p32
VIntel i5-6300U
p33
sVScreen Size
p34
V12.50
p35
sVModel
p36
V20FD002HUS
p37
sVCondition
p38
VNew
p39
sVManufacturer
p40
VLENOVO
p41
ssS'title'
p42
VLenovo ThinkPad Yoga 260 - 12.5" - Core i5 6300U - 8 GB RAM - 256 GB SSD
p43
sb.