ccopy_reg
_reconstructor
p0
(c__main__
ProductRecord
p1
c__builtin__
object
p2
Ntp3
Rp4
(dp5
S'product_url'
p6
S'http://www.walmart.com/ip/Lenovo-Gaming-Laptop-15-6-FHD-Screen-Intel-core-i7-7700hq-2-8-3-8-GHZ-Nvidia-GeForce-GTX-1050-Ti-Graphic-Card-16GB-DDR4-Memory-1TB-HDD-128GB-SSD-Wind/105165320'
p7
sS'price'
p8
S'N/A'
p9
sS'properties'
p10
(dp11
VRAM Memory
p12
V16 KB
p13
sVOperating System
p14
VWindows 10
p15
sVColor Category
p16
VBlack
p17
sVLaptop Computer Type
p18
VGaming Laptops
p19
sVBrand
p20
VLenovo
p21
sVManufacturer Part Number
p22
V80WK00T3US
p23
sVWireless Technology
p24
V802.11ac
p25
sVHard Drive Capacity
p26
V1 KB
p27
sVProcessor Type
p28
VIntel Core i7-7700HQ
p29
sVScreen Size
p30
V15.60 in
p31
sVModel
p32
V80WK00T3US
p33
sVCondition
p34
VNew
p35
sVManufacturer
p36
VLENOVO
p37
ssS'title'
p38
VLenovo Gaming Laptop 15.6", FHD Screen, Intel core i7-7700hq, 2.8-3.8 GHZ, Nvidia GeForce GTX 1050 Ti Graphic Card, 16GB DDR4 Memory, 1TB HDD + 128GB SSD, Windows 10, 80WK00T3US
p39
sb.