ccopy_reg
_reconstructor
p0
(c__main__
ProductRecord
p1
c__builtin__
object
p2
Ntp3
Rp4
(dp5
S'product_url'
p6
S'http://www.walmart.com/ip/MSI-GL62M-7RDX-1096-15-6-Notebook-w-Intel-i7-7700HQ-16GB-RAM-1TB-HDD/854728297'
p7
sS'price'
p8
S'N/A'
p9
sS'properties'
p10
(dp11
VRAM Memory
p12
V16 Gigabytes
p13
sVOperating System
p14
VWindows 10
p15
sVColor Category
p16
VMulticolor
p17
sVLaptop Computer Type
p18
VPC Laptops
p19
sVBrand
p20
VMSI
p21
sVHard Drive Capacity
p22
V1 Terabytes
p23
sVProcessor Core Type
p24
VQuad-core (4 Core)
p25
sVProcessor Type
p26
VIntel i7-7700HQ
p27
sVmanufacturer_part_number
p28
Vgl62m 7rdx-1096
p29
sVScreen Size
p30
V15.60 Inches
p31
sVModel
p32
VGL62MX1096
p33
sVCondition
p34
VNew
p35
sVManufacturer
p36
VMSI - SYSTEMS
p37
ssS'title'
p38
VMSI GL62M 7RDX-1096 15.6" Notebook w/ Intel i7-7700HQ, 16GB RAM & 1TB HDD
p39
sb.