ccopy_reg
_reconstructor
p0
(c__main__
ProductRecord
p1
c__builtin__
object
p2
Ntp3
Rp4
(dp5
S'product_url'
p6
S'http://www.walmart.com/ip/Dell-Inspiron-15-6-Laptop-Intel-Core-i5-8GB-Memory-NVIDIA-GeForce-GTX-1050-1TB-8GB-Hybrid-Hard-Drive-Black-I7567-5000BLK-PUS-Notebook-PC-Computer-Gam/493189197'
p7
sS'price'
p8
S'N/A'
p9
sS'properties'
p10
(dp11
VOperating System
p12
VMicrosoft Windows
p13
sVLaptop Computer Type
p14
VPC Laptops
p15
sVBrand
p16
VDell
p17
sVModel
p18
V15 7567 Gaming
p19
sVManufacturer
p20
VDell
p21
sVScreen Size
p22
V15.6
p23
sVmanufacturer_part_number
p24
Vi7567-5000blk-pus
p25
ssS'title'
p26
VDell - Inspiron 15.6" Laptop - Intel Core i5 - 8GB Memory - NVIDIA GeForce GTX 1050 - 1TB + 8GB Hybrid Hard Drive - Black I7567-5000BLK-PUS Notebook PC Computer Gaming
p27
sb.