ccopy_reg
_reconstructor
p0
(c__main__
ProductRecord
p1
c__builtin__
object
p2
Ntp3
Rp4
(dp5
S'product_url'
p6
S'http://www.walmart.com/ip/Dell-Recertified-Alienware-15-R2-Intel-Core-i7-6700HQ-X4-2-6GHz-16GB-256SSD-1TB-HDD-15-6-IPS-Panel-Display-Touch-Technology-NVidia-GTX-970M-3GB-Win10/392721434'
p7
sS'price'
p8
S'N/A'
p9
sS'properties'
p10
(dp11
VRAM Memory
p12
V16 Gigabytes
p13
sVOperating System
p14
VWINDOWS 10 PROFESSIONAL
p15
sVBrand
p16
VAlienware
p17
sVHard Drive Capacity
p18
V256 Gigabytes
p19
sVScreen Size
p20
V15.6 Inches
p21
sVCondition
p22
VNew
p23
ssS'title'
p24
VDell Recertified Alienware 15 R2 Intel Core i7-6700HQ X4 ,2.6GHz 16GB 256SSD + 1TB HDD 15.6'' IPS-Panel Display with Touch Technology, NVidia GTX 970M 3GB, Win10 PRO , 1 Year Dell Warranty
p25
sb.