ccopy_reg
_reconstructor
p0
(c__main__
ProductRecord
p1
c__builtin__
object
p2
Ntp3
Rp4
(dp5
S'product_url'
p6
S'http://www.walmart.com/ip/Dell-Inspiron-15-6-Laptop-Intel-Core-i5-8GB-Memory-NVIDIA-GeForce-GTX-1050-Ti-256GB-SSD-I7567-5650BLK-PUS-Gaming-Notebook-Computer/305635796'
p7
sS'price'
p8
S'N/A'
p9
sS'properties'
p10
(dp11
VRAM Memory
p12
V8 GB
p13
sVOperating System
p14
VMicrosoft Windows
p15
sVLaptop Computer Type
p16
VPC Laptops
p17
sVBrand
p18
VDell
p19
sVManufacturer Part Number
p20
VI7567-5650BLK-PUS
p21
sVHard Drive Capacity
p22
V256
p23
sVModel
p24
V15 7567 Gaming
p25
sVScreen Size
p26
V15.6
p27
sVManufacturer
p28
VDell
p29
ssS'title'
p30
VDell - Inspiron 15.6" Laptop - Intel Core i5 - 8GB Memory - NVIDIA GeForce GTX 1050 Ti - 256GB SSD I7567-5650BLK-PUS Gaming Notebook Computer
p31
sb.