ccopy_reg
_reconstructor
p0
(c__main__
ProductRecord
p1
c__builtin__
object
p2
Ntp3
Rp4
(dp5
S'product_url'
p6
S'http://www.walmart.com/ip/REFURBISHED-Alienware-13-ANW13-7275SLV-13-Inch-Gaming-Laptop-Discontinued-By-Manufacturer/920776974'
p7
sS'price'
p8
S'N/A'
p9
sS'properties'
p10
(dp11
VBrand
p12
VDell
p13
ssS'title'
p14
VREFURBISHED Alienware 13 ANW13-7275SLV 13-Inch Gaming Laptop [Discontinued By Manufacturer]
p15
sb.