ccopy_reg
_reconstructor
p0
(c__main__
ProductRecord
p1
c__builtin__
object
p2
Ntp3
Rp4
(dp5
S'product_url'
p6
S'http://www.walmart.com/ip/Refurbished-Acer-Aspire-R5-571TG-7229-15-6-Touch-2-in-1-Laptop-Intel-i7-12GB-256GB-SSD/283919407'
p7
sS'price'
p8
S'N/A'
p9
sS'properties'
p10
(dp11
VHard Drive Capacity
p12
V256 GB
p13
sVBrand
p14
VAcer
p15
sVRAM Memory
p16
V12 GB
p17
sVModel
p18
VR5-571TG-7229
p19
sVManufacturer Part Number
p20
VR5-571TG-7229-PB-R
p21
ssS'title'
p22
VRefurbished Acer Aspire R5-571TG-7229 15.6" Touch 2-in-1 Laptop Intel i7 12GB 256GB SSD
p23
sb.