ccopy_reg
_reconstructor
p0
(c__main__
ProductRecord
p1
c__builtin__
object
p2
Ntp3
Rp4
(dp5
S'product_url'
p6
S'http://www.walmart.com/ip/Alienware-17-3-Gaming-Laptop-Intel-Core-i7-7820HK-Quad-core-2-9-GHz-16-GB-DDR4-SDRAM-1-TB-HDD-256-GB-SSD/698917277'
p7
sS'price'
p8
S'N/A'
p9
sS'properties'
p10
(dp11
VRAM Memory
p12
V16.00 GB
p13
sVOperating System
p14
VWindows 10
p15
sVBrand
p16
VAlienware
p17
sVProcessor Speed
p18
V2.90 GHz
p19
sVManufacturer Part Number
p20
VAW17R4-7004SLV
p21
sVHard Drive Capacity
p22
V1.00 TB
p23
sVModel
p24
VAW17R47004SLV
p25
sVScreen Size
p26
V17.30 in
p27
sVProcessor Type
p28
VIntel Core i7
p29
sVCondition
p30
VNew
p31
ssS'title'
p32
VAlienware 17.3" Gaming Laptop - Intel Core i7-7820HK Quad-core 2.9 GHz - 16 GB DDR4 SDRAM - 1 TB HDD - 256 GB SSD
p33
sb.