ccopy_reg
_reconstructor
p0
(c__main__
ProductRecord
p1
c__builtin__
object
p2
Ntp3
Rp4
(dp5
S'product_url'
p6
S'http://www.walmart.com/ip/REFURBISHED-Alienware-13-ANW13-13-Inch-HD-Gaming-Laptop-4th-Gen-Intel-Core-i5-TouchScreen-256GB-SSD-16GB-RAM-Windows-10/120254957'
p7
sS'price'
p8
S'N/A'
p9
sS'properties'
p10
(dp11
VRAM Memory
p12
V16 GB
p13
sVOperating System
p14
VMicrosoft Windows
p15
sVLaptop Computer Type
p16
VGaming Laptops
p17
sVBrand
p18
VAlienware
p19
sVHard Drive Capacity
p20
V256 GB
p21
sVScreen Size
p22
V13
p23
sVCondition
p24
VRefurbished
p25
ssS'title'
p26
VREFURBISHED - Alienware 13 ANW13 13-Inch HD Gaming Laptop, 4th Gen Intel Core i5 TouchScreen 256GB SSD 16GB RAM Windows 10
p27
sb.