ccopy_reg
_reconstructor
p0
(c__main__
ProductRecord
p1
c__builtin__
object
p2
Ntp3
Rp4
(dp5
S'product_url'
p6
S'http://www.walmart.com/ip/MSI-GF62-7RE-1452-15-6-Gaming-Laptop-i7-7700HQ-GTX1050TI-16GB-1TB-Win10/648669358'
p7
sS'price'
p8
S'N/A'
p9
sS'properties'
p10
(dp11
VModel
p12
VGF621452
p13
sVBrand
p14
VMSI
p15
sVFeatures
p16
Vi7-7700HQ GTX1050TI 16G 1T WIN10
p17
sVCondition
p18
VNew
p19
sVManufacturer Part Number
p20
VGF621452
p21
ssS'title'
p22
VMSI GF62 7RE-1452 15.6" Gaming Laptop i7-7700HQ GTX1050TI 16GB 1TB Win10
p23
sb.