ccopy_reg
_reconstructor
p0
(c__main__
ProductRecord
p1
c__builtin__
object
p2
Ntp3
Rp4
(dp5
S'product_url'
p6
S'http://www.walmart.com/ip/Samsung-Notebook-Odyssey-15-6-White/307393323'
p7
sS'price'
p8
S'N/A'
p9
sS'properties'
p10
(dp11
VRAM Memory
p12
V16 GB
p13
sVOperating System
p14
VMicrosoft Windows, Windows 10
p15
sVBrand
p16
VSamsung
p17
sVProcessor Speed
p18
V2.80 GHz
p19
sVManufacturer Part Number
p20
VNP800G5M-X02US
p21
sVHard Drive Capacity
p22
V1 TB
p23
sVBattery Life
p24
V7 Hour
p25
sVAssembled Product Dimensions (L x W x H)
p26
V14.88 x 10.24 x 0.94 Inches
p27
sVModel
p28
VNP800G5M-X02US
p29
sVScreen Size
p30
V15.6"
p31
sVProcessor Type
p32
VIntel Core i7
p33
sVCondition
p34
VNew
p35
ssS'title'
p36
VSamsung Notebook Odyssey 15.6" - White
p37
sb.