ccopy_reg
_reconstructor
p0
(c__main__
ProductRecord
p1
c__builtin__
object
p2
Ntp3
Rp4
(dp5
S'product_url'
p6
S'http://www.walmart.com/ip/HP-OMEN-17-Intel-i7-6700HQ-Quad-Core-IPS-FHD-1920-x-1080-1TB-HDD-256GB-SSD-4GB-NVIDIA-GTX-965M-12GB-RAM-Backlit-Keyboard-17-3-Gaming-Laptop-Notebook-/912410167'
p7
sS'price'
p8
S'N/A'
p9
sS'properties'
p10
(dp11
VOperating System
p12
VMicrosoft Windows
p13
sVBrand
p14
VHP
p15
sVManufacturer Part Number
p16
VW2N48UA#ABA
p17
sVHard Drive Capacity
p18
V1000
p19
sVModel
p20
V17-w053dx
p21
sVScreen Size
p22
V17.3
p23
sVProcessor Type
p24
VIntel Core i7
p25
ssS'title'
p26
VHP OMEN 17 (Intel i7-6700HQ Quad Core, IPS FHD 1920 x 1080, 1TB HDD+256GB SSD, 4GB NVIDIA GTX 965M, 12GB RAM, Backlit Keyboard) 17.3" Gaming Laptop Notebook PC Computer 17-w053dx
p27
sb.