ccopy_reg
_reconstructor
p0
(c__main__
ProductRecord
p1
c__builtin__
object
p2
Ntp3
Rp4
(dp5
S'product_url'
p6
S'http://www.walmart.com/ip/Manufacturer-Refurbished-Acer-Predator-G9-793-79PE-17-3-Intel-Core-i7-6700HQ-2-6-GHz-16GB-Ram-1TB-HDD-256GB-SSD-Windows-10-Home/984077778'
p7
sS'price'
p8
S'N/A'
p9
sS'properties'
p10
(dp11
VRAM Memory
p12
V16 GB
p13
sVOperating System
p14
VWindows 10
p15
sVBrand
p16
VAcer
p17
sVProcessor Speed
p18
V2.6 GHz
p19
sVManufacturer Part Number
p20
VNH.Q1AAA.001
p21
sVHard Drive Capacity
p22
V1000 GB
p23
sVAssembled Product Dimensions (L x W x H)
p24
V20.00 x 15.00 x 6.00 Inches
p25
sVModel
p26
VG9-793-79PE
p27
sVScreen Size
p28
V17.3 in
p29
sVProcessor Type
p30
VIntel Core i7
p31
ssS'title'
p32
VManufacturer Refurbished Acer Predator G9-793-79PE 17.3" Intel Core i7-6700HQ 2.6 GHz 16GB Ram 1TB HDD + 256GB SSD Windows 10 Home
p33
sb.