ccopy_reg
_reconstructor
p0
(c__main__
ProductRecord
p1
c__builtin__
object
p2
Ntp3
Rp4
(dp5
S'product_url'
p6
S'http://www.walmart.com/ip/HP-OMEN-17-17-3-UHD-4K-VR-Ready-Gaming-Business-Laptop-Intel-i7-Quad-Core-4TB-SSD-17-3-inch-UHD-3840-x-2160-16GB-RAM-GeForce-GTX-1070-Win-10-Pro/136649851'
p7
sS'price'
p8
S'N/A'
p9
sS'properties'
p10
(dp11
VOperating System
p12
VMicrosoft Windows
p13
sVBrand
p14
VHP
p15
sVRAM Memory
p16
V16 GB
p17
sVScreen Size
p18
V17.3
p19
sVHard Drive Capacity
p20
V4000
p21
ssS'title'
p22
VHP OMEN 17 17.3'' UHD 4K VR Ready Gaming and Business Laptop (Intel i7 Quad Core, 4TB SSD, 17.3 inch UHD 3840 x 2160, 16GB RAM, GeForce GTX 1070, Win 10 Pro)
p23
sb.