ccopy_reg
_reconstructor
p0
(c__main__
ProductRecord
p1
c__builtin__
object
p2
Ntp3
Rp4
(dp5
S'product_url'
p6
S'http://www.walmart.com/ip/ASUS-ROG-Zephyrus-15-6-FHD-120Hz-Gaming-Laptop-i7-7700HQ-16GB-512GB-SSD-GTX1080/573930442'
p7
sS'price'
p8
S'N/A'
p9
sS'properties'
p10
(dp11
VRAM Memory
p12
V16 Gigabytes
p13
sVOperating System
p14
VWindows 10
p15
sVBrand
p16
VASUS
p17
sVProcessor Speed
p18
V2.8 Gigahertz
p19
sVManufacturer Part Number
p20
VGX501VI-XS74
p21
sVMaximum RAM Supported
p22
V64.00 GB
p23
sVHard Drive Capacity
p24
V512 Gigabytes
p25
sVAssembled Product Dimensions (L x W x H)
p26
V22.00 x 6.00 x 15.00 Inches
p27
sVModel
p28
VGX501VI-XS74
p29
sVScreen Size
p30
V15.60 Inches
p31
sVProcessor Type
p32
VIntel i7-7700HQ
p33
sVCondition
p34
VNew
p35
ssS'title'
p36
VASUS ROG Zephyrus 15.6" FHD 120Hz Gaming Laptop i7-7700HQ 16GB 512GB SSD GTX1080
p37
sb.