ccopy_reg
_reconstructor
p0
(c__main__
ProductRecord
p1
c__builtin__
object
p2
Ntp3
Rp4
(dp5
S'product_url'
p6
S'http://www.walmart.com/ip/Lenovo-ThinkPad-P50-15-6-Core-i7-6700HQ-8-GB-RAM-500-GB-HDD/49222717'
p7
sS'price'
p8
S'N/A'
p9
sS'properties'
p10
(dp11
VRAM Memory
p12
V8 GB
p13
sVOperating System
p14
VWindows 10
p15
sVFeatures
p16
VEPEAT, ROHS Compliant
p17
sVVideo Game Platform
p18
VPC
p19
sVBrand
p20
VLenovo
p21
sVProcessor Speed
p22
V2.60 GHz
p23
sVManufacturer Part Number
p24
V20EN0013US
p25
sVMaximum RAM Supported
p26
V64 GB
p27
sVHard Drive Capacity
p28
V500 GB
p29
sVBattery Life
p30
V9 hours 42 minutes
p31
sVAssembled Product Dimensions (L x W x H)
p32
V9.00 x 15.00 x 3.00 Inches
p33
sVModel
p34
V20EN0013US
p35
sVScreen Size
p36
V15.6"
p37
sVProcessor Type
p38
VIntel Core i7
p39
ssS'title'
p40
VLenovo ThinkPad P50 - 15.6" - Core i7 6700HQ - 8 GB RAM - 500 GB HDD
p41
sb.