ccopy_reg
_reconstructor
p0
(c__main__
ProductRecord
p1
c__builtin__
object
p2
Ntp3
Rp4
(dp5
S'product_url'
p6
S'http://www.walmart.com/ip/2015-Newest-Acer-Nitro-17-3-FULL-HD-Gaming-Laptop-intel-i7-6700HQ-Quad-core-2-60-GHz-NVIDIA-GeForce-GTX-960M-16GB-DDR4-SDRAM-1TB-HDD-Windows-10-Home/109354976'
p7
sS'price'
p8
S'N/A'
p9
sS'properties'
p10
(dp11
VRAM Memory
p12
V16 GB
p13
sVOperating System
p14
VMicrosoft Windows
p15
sVColor Category
p16
VBlack
p17
sVLaptop Computer Type
p18
VPC Laptops
p19
sVBrand
p20
VAcer
p21
sVManufacturer Part Number
p22
VVN7-792G
p23
sVWireless Technology
p24
VEthernet
p25
sVHard Drive Capacity
p26
V1 TB
p27
sVProcessor Core Type
p28
VQuad-core (4 Core)
p29
sVProcessor Type
p30
VIntel Core i7
p31
sVScreen Size
p32
V17.3"
p33
sVModel
p34
VGeForce GTX 960M
p35
sVCondition
p36
VNew
p37
sVManufacturer
p38
VAcer
p39
ssS'title'
p40
V2015 Newest Acer Nitro 17.3 FULL HD Gaming Laptop,intel i7-6700HQ Quad-core 2.60 GHz NVIDIA GeForce GTX 960M 16GB DDR4 SDRAM 1TB HDD Windows 10 Home
p41
sb.