ccopy_reg
_reconstructor
p0
(c__main__
ProductRecord
p1
c__builtin__
object
p2
Ntp3
Rp4
(dp5
S'product_url'
p6
S'http://www.walmart.com/ip/Dell-13-3-Epic-Silver-Alienware-13-R2-Laptop-PC-with-Intel-Core-i7-6500U-Dual-Core-Processor-16GB-Memory-500GB-Hard-Drive-and-Windows-10/47431711'
p7
sS'price'
p8
S'N/A'
p9
sS'properties'
p10
(dp11
VRAM Memory
p12
V16 GB
p13
sVOperating System
p14
VWindows 10
p15
sVVideo Game Platform
p16
VPC
p17
sVBrand
p18
VDell
p19
sVProcessor Speed
p20
V3.10 GHz
p21
sVManufacturer Part Number
p22
VAW13R2-8900SLV
p23
sVMaximum RAM Supported
p24
V16 GB
p25
sVHard Drive Capacity
p26
V500 GB
p27
sVBattery Life
p28
V10
p29
sVAssembled Product Dimensions (L x W x H)
p30
V12.91 x 1.14 x 9.25 Inches
p31
sVModel
p32
VAW13R2-8900SLV
p33
sVScreen Size
p34
V13.0"
p35
sVProcessor Type
p36
VIntel Core i7
p37
sVCondition
p38
VNew
p39
ssS'title'
p40
VDell 13.3" Epic Silver Alienware 13 R2 Laptop PC with Intel Core i7-6500U Dual-Core Processor, 16GB Memory, 500GB Hard Drive and Windows 10
p41
sb.