ccopy_reg
_reconstructor
p0
(c__main__
ProductRecord
p1
c__builtin__
object
p2
Ntp3
Rp4
(dp5
S'product_url'
p6
S'http://www.walmart.com/ip/Msi-GS73009-Gs73-Stealth-PRO-009-17-3-in-Laptop/112457813'
p7
sS'price'
p8
S'N/A'
p9
sS'properties'
p10
(dp11
VRAM Memory
p12
V16 Gigabytes
p13
sVOperating System
p14
VWindows 10
p15
sVBrand
p16
VMSI
p17
sVProcessor Speed
p18
V2.8 Gigahertz
p19
sVManufacturer Part Number
p20
VGS73009
p21
sVHard Drive Capacity
p22
V1 Terabytes
p23
sVAssembled Product Dimensions (L x W x H)
p24
V0.80 x 16.20 x 11.20 Inches
p25
sVModel
p26
VGS73009
p27
sVScreen Size
p28
V17.30 Inches
p29
sVProcessor Type
p30
VIntel i7-7700HQ
p31
sVCondition
p32
VNew
p33
ssS'title'
p34
VMsi GS73009 Gs73 Stealth PRO 009 17.3 in Laptop
p35
sb.