ccopy_reg
_reconstructor
p0
(c__main__
ProductRecord
p1
c__builtin__
object
p2
Ntp3
Rp4
(dp5
S'product_url'
p6
S'http://www.walmart.com/ip/Acer-Predator-17-G9-791-78CE-Notebook-Notebooks/116883580'
p7
sS'price'
p8
S'N/A'
p9
sS'properties'
p10
(dp11
VRAM Memory
p12
V16 Gigabytes
p13
sVOperating System
p14
VWindows 10
p15
sVVideo Game Platform
p16
VPC
p17
sVBrand
p18
VAcer
p19
sVProcessor Speed
p20
V2.6 Gigahertz
p21
sVManufacturer Part Number
p22
VNX.Q02AA.001
p23
sVMaximum RAM Supported
p24
V64 Gigabytes
p25
sVHard Drive Capacity
p26
V1 Terabytes
p27
sVBattery Life
p28
V8
p29
sVModel
p30
VNX.Q02AA.001
p31
sVScreen Size
p32
V17.30 Inches
p33
sVProcessor Type
p34
VIntel i7-6700HQ
p35
ssS'title'
p36
VAcer Predator 17 G9-791-78CE Notebook Notebooks
p37
sb.