ccopy_reg
_reconstructor
p0
(c__main__
ProductRecord
p1
c__builtin__
object
p2
Ntp3
Rp4
(dp5
S'product_url'
p6
S'http://www.walmart.com/ip/Acer-R5-2-in-1-Notebook-with-Intel-i5-7200U-8GB-256GB-SSD/328515930'
p7
sS'price'
p8
S'N/A'
p9
sS'properties'
p10
(dp11
VRAM Memory
p12
V8 Gigabytes
p13
sVOperating System
p14
VWindows 10
p15
sVBrand
p16
VAcer
p17
sVProcessor Speed
p18
V2.5 Gigahertz
p19
sVManufacturer Part Number
p20
VNX.GP7AA.002
p21
sVMaximum RAM Supported
p22
V12 Gigabytes
p23
sVHard Drive Capacity
p24
V256 Gigabytes
p25
sVBattery Life
p26
V9 Hours
p27
sVAssembled Product Dimensions (L x W x H)
p28
V20.00 x 12.00 x 3.00 Inches
p29
sVModel
p30
VNX.GP7AA.002
p31
sVScreen Size
p32
V15.60 Inches
p33
sVProcessor Type
p34
VIntel i5-7200U
p35
sVCondition
p36
VNew
p37
ssS'title'
p38
VAcer R5 2-in-1 Notebook with Intel i5-7200U, 8GB 256GB SSD
p39
sb.