ccopy_reg
_reconstructor
p0
(c__main__
ProductRecord
p1
c__builtin__
object
p2
Ntp3
Rp4
(dp5
S'product_url'
p6
S'http://www.walmart.com/ip/HP-Pavilion-15t-Gaming-Laptop-UHD-4K-Touchscreen-Intel-i7-Quad-Core-32GB-NVIDIA-GeForce-960M-512GB-SSD-15-6-Inch-UHD-3840-x-2160-Touchscreen-Windows-/120309630'
p7
sS'price'
p8
S'N/A'
p9
sS'properties'
p10
(dp11
VBrand
p12
VHP
p13
sVManufacturer Part Number
p14
VHP Pavilion Gaming 15t T9Y85AV
p15
ssS'title'
p16
VHP Pavilion 15t Gaming Laptop with UHD 4K Touchscreen ( Intel i7 Quad Core, 32GB, NVIDIA GeForce 960M, 512GB SSD, 15.6 Inch UHD (3840 x 2160) Touchscreen, Windows 10) T9Y85AV
p17
sb.