ccopy_reg
_reconstructor
p0
(c__main__
ProductRecord
p1
c__builtin__
object
p2
Ntp3
Rp4
(dp5
S'product_url'
p6
S'http://www.walmart.com/ip/Refurbished-Dell-Alienware-15-R2-15-6-TouchScreen-Intel-Core-i7-6700HQ-X4-2-6GHz-16GB-Nvidia-GTX-980M-1TB-15-6-Win10-Silver/340031794'
p7
sS'price'
p8
S'N/A'
p9
sS'properties'
p10
(dp11
VBrand
p12
VDell
p13
sVScreen Size
p14
V15.6
p15
sVHard Drive Capacity
p16
V1000 GB
p17
ssS'title'
p18
VRefurbished Dell Alienware 15 R2 15.6" TouchScreen Intel Core i7-6700HQ X4 2.6GHz 16GB Nvidia GTX 980M 1TB 15.6" Win10,Silver
p19
sb.