ccopy_reg
_reconstructor
p0
(c__main__
ProductRecord
p1
c__builtin__
object
p2
Ntp3
Rp4
(dp5
S'product_url'
p6
S'http://www.walmart.com/ip/ROG-Strix-GL702VS-DS74-17-3-LCD-Gaming-Notebook-Intel-Core-i7-7th-Gen-Quad-core-4-Core-16-GB-DDR4-SDRAM-1-TB-HDD-512-GB-SSD-1920-x-1080-193011/590884003'
p7
sS'price'
p8
S'N/A'
p9
sS'properties'
p10
(dp11
VRAM Memory
p12
V16.00 GB
p13
sVOperating System
p14
VWindows 10
p15
sVBrand
p16
VASUS
p17
sVProcessor Speed
p18
V3.80 GHz
p19
sVManufacturer Part Number
p20
VGL702VSDS74
p21
sVMaximum RAM Supported
p22
V32.00 GB
p23
sVHard Drive Capacity
p24
V2.00 TB
p25
sVModel
p26
VGL702VSDS74
p27
sVScreen Size
p28
V17.30 in
p29
sVProcessor Type
p30
VIntel Core i7 7700HQ
p31
sVCondition
p32
VNew
p33
ssS'title'
p34
VROG Strix GL702VS-DS74 17.3" LCD Gaming Notebook - Intel Core i7 [7th Gen] Quad-core [4 Core] - 16 GB DDR4 SDRAM - 1 TB HDD - 512 GB SSD - 1920 x 1080 (193011)
p35
sb.