ccopy_reg
_reconstructor
p0
(c__main__
ProductRecord
p1
c__builtin__
object
p2
Ntp3
Rp4
(dp5
S'product_url'
p6
S'http://www.walmart.com/ip/Refurbished-Alienware-15-ANW15-7493SLV-15-6-Inch-Gaming-Laptop-2-50GHz-4th-Generation-In/792713629'
p7
sS'price'
p8
S'N/A'
p9
sS'properties'
p10
(dp11
VBrand
p12
VAlienware
p13
sVScreen Size
p14
V15.6
p15
sVCondition
p16
VRefurbished
p17
sVmanufacturer_part_number
p18
Vanw15-7493slv
p19
ssS'title'
p20
VRefurbished Alienware 15 ANW15-7493SLV 15.6-Inch Gaming Laptop (2.50GHz 4th Generation In...
p21
sb.