ccopy_reg
_reconstructor
p0
(c__main__
ProductRecord
p1
c__builtin__
object
p2
Ntp3
Rp4
(dp5
S'product_url'
p6
S'http://www.walmart.com/ip/MSI-GL62M-7RD-058-15-6-Intel-Core-i5-7th-Gen-7300HQ-2-50-GHz-NVIDIA-GeForce-GTX-1050-8-GB-Memory-128-GB-SSD-1-TB-HDD-Windows-10-Home-64-Bit-Gaming-La/426229453'
p7
sS'price'
p8
S'N/A'
p9
sS'properties'
p10
(dp11
VOperating System
p12
VMicrosoft Windows
p13
sVBrand
p14
VMSI
p15
sVManufacturer Part Number
p16
VGL62M 7RD-058
p17
sVHard Drive Capacity
p18
V1000
p19
sVModel
p20
V058
p21
sVScreen Size
p22
V15.6
p23
sVProcessor Type
p24
VIntel Core i5
p25
sVCondition
p26
VNew
p27
ssS'title'
p28
VMSI GL62M 7RD-058 15.6" Intel Core i5 7th Gen 7300HQ (2.50 GHz) NVIDIA GeForce GTX 1050 8 GB Memory 128 GB SSD 1 TB HDD Windows 10 Home 64-Bit Gaming Laptop Notebook PC Computer
p29
sb.