ccopy_reg
_reconstructor
p0
(c__main__
ProductRecord
p1
c__builtin__
object
p2
Ntp3
Rp4
(dp5
S'product_url'
p6
S'http://www.walmart.com/ip/REFURBISHED-Dell-Flagship-Alienware-Gaming-Laptop-13-3-QHD-3200-x-1800-Tou/704155443'
p7
sS'price'
p8
S'N/A'
p9
sS'properties'
p10
(dp11
VBrand
p12
VAlienware
p13
sVScreen Size
p14
V13.3
p15
sVCondition
p16
VRefurbished
p17
ssS'title'
p18
VREFURBISHED - Dell Flagship Alienware Gaming Laptop 13.3" QHD+ (3200 x 1800) Tou
p19
sb.