ccopy_reg
_reconstructor
p0
(c__main__
ProductRecord
p1
c__builtin__
object
p2
Ntp3
Rp4
(dp5
S'product_url'
p6
S'http://www.walmart.com/ip/Msi-GS63VR002-Gs63Vr-Stealth-Pro-002-Notebook/975686392'
p7
sS'price'
p8
S'N/A'
p9
sS'properties'
p10
(dp11
VRAM Memory
p12
V32 Gigabytes
p13
sVOperating System
p14
VWindows 10
p15
sVFeatures
p16
Vi7-7700HQ GTX1070 32G 512G 1T WIN10PRO
p17
sVBrand
p18
VMSI
p19
sVProcessor Speed
p20
V2.8 Gigahertz
p21
sVManufacturer Part Number
p22
VGS63VR002
p23
sVMaximum RAM Supported
p24
V32.00 GB
p25
sVHard Drive Capacity
p26
V1 Terabytes
p27
sVAssembled Product Dimensions (L x W x H)
p28
V0.69 x 14.96 x 9.80 Inches
p29
sVModel
p30
VGS63VR002
p31
sVScreen Size
p32
V15.60 Inches
p33
sVProcessor Type
p34
VIntel i7-7700HQ
p35
sVCondition
p36
VNew
p37
ssS'title'
p38
VMsi GS63VR002 Gs63Vr Stealth Pro-002 Notebook
p39
sb.