ccopy_reg
_reconstructor
p0
(c__main__
ProductRecord
p1
c__builtin__
object
p2
Ntp3
Rp4
(dp5
S'product_url'
p6
S'http://www.walmart.com/ip/Gigabyte-Notebook-Aorus-X5-v6-PC3K3D-15-6inch-Core-i7-6820HK-8GBx2-256GB-1TB-GeForce-GTX-1070-Retail/195629360'
p7
sS'price'
p8
S'N/A'
p9
sS'properties'
p10
(dp11
VRAM Memory
p12
V16 Gigabytes
p13
sVOperating System
p14
VWindows 10
p15
sVVideo Game Platform
p16
VWindows
p17
sVBrand
p18
VGIGABYTE
p19
sVProcessor Speed
p20
V2.6 Gigahertz
p21
sVManufacturer Part Number
p22
VX5 V6-PC3K3D
p23
sVHard Drive Capacity
p24
V1024 Gigabytes
p25
sVAssembled Product Dimensions (L x W x H)
p26
V15.30 x 8.66 x 0.90 Inches
p27
sVModel
p28
VX5 V6-PC3K3D
p29
sVScreen Size
p30
V15.6
p31
sVProcessor Type
p32
VIntel Core i7-6820HK 2.6GHz-3.5GHz
p33
ssS'title'
p34
VGigabyte Notebook Aorus X5 v6-PC3K3D 15.6inch Core i7-6820HK 8GBx2 256GB+1TB GeForce GTX 1070 Retail
p35
sb.