ccopy_reg
_reconstructor
p0
(c__main__
ProductRecord
p1
c__builtin__
object
p2
Ntp3
Rp4
(dp5
S'product_url'
p6
S'http://www.walmart.com/ip/HP-OMEN-17-17-3-UHD-4K-VR-Ready-Gaming-Business-Laptop-Intel-i7-Quad-Core-4TB-SSD-17-3-inch-UHD-3840-x-2160-32GB-RAM-GeForce-GTX-1070-Win-10-Pro/114383512'
p7
sS'price'
p8
S'N/A'
p9
sS'properties'
p10
(dp11
VRAM Memory
p12
V32 GB
p13
sVOperating System
p14
VMicrosoft Windows
p15
sVColor Category
p16
VGray
p17
sVLaptop Computer Type
p18
VPC Laptops
p19
sVBrand
p20
VHP
p21
sVHard Drive Capacity
p22
V4000
p23
sVScreen Size
p24
V17.3
p25
sVManufacturer
p26
VHP
p27
ssS'title'
p28
VHP OMEN 17 17.3'' UHD 4K VR Ready Gaming and Business Laptop (Intel i7 Quad Core, 4TB SSD, 17.3 inch UHD 3840 x 2160, 32GB RAM, GeForce GTX 1070, Win 10 Pro)
p29
sb.