ccopy_reg
_reconstructor
p0
(c__main__
ProductRecord
p1
c__builtin__
object
p2
Ntp3
Rp4
(dp5
S'product_url'
p6
S'http://www.walmart.com/ip/MSI-15-6-inch-Notebook-GE63VR-RAIDER-075-15-6-inch-GE63VR-RAIDER-075-Notebook/390417476'
p7
sS'price'
p8
S'N/A'
p9
sS'properties'
p10
(dp11
VBrand
p12
VMSI USA
p13
ssS'title'
p14
V"MSI 15.6-inch Notebook GE63VR RAIDER-075 15.6-inch GE63VR RAIDER-075 Notebook"
p15
sb.