ccopy_reg
_reconstructor
p0
(c__main__
ProductRecord
p1
c__builtin__
object
p2
Ntp3
Rp4
(dp5
S'product_url'
p6
S'http://www.walmart.com/ip/Acer-Predator-Helios-300-G3-572-72YF-Gaming-Laptop-w-FREE-BUNDLE-15-6-Intel-Core-i7-7700HQ-NVIDIA-GeForce-GTX-1060-16GB-DDR4-1TB-WD-Blue-M-2-SSD-1TB-/562108912'
p7
sS'price'
p8
S'N/A'
p9
sS'properties'
p10
(dp11
VCount
p12
V1
p13
sVRAM Memory
p14
V16.00 GB
p15
sVOperating System
p16
VWindows 10
p17
sVScreen Size
p18
V15.60 in
p19
sVDisplay Technology
p20
VLCD
p21
sVModel
p22
VG3-572-72YF
p23
sVGraphics Information
p24
VNVIDIA GeForce GTX 1060
p25
sVManufacturer Part Number
p26
VG3-572-72YF VAR M2 2
p27
sVMaximum RAM Supported
p28
V32.00 GB
p29
sVHard Drive Capacity
p30
V2.00 TB
p31
sVBrand
p32
VAcer
p33
sVMultipack Quantity
p34
V1
p35
sVProcessor Type
p36
VIntel Core i7 7700HQ
p37
sVResolution
p38
VFHD (1080P)
p39
sVProcessor Speed
p40
V3.80 GHz
p41
ssS'title'
p42
VAcer Predator Helios 300 G3-572-72YF Gaming Laptop w/ FREE BUNDLE! 15.6\u201d Intel Core i7-7700HQ NVIDIA GeForce GTX 1060 16GB DDR4 1TB WD Blue M.2 SSD 1TB HDD
p43
sb.