ccopy_reg
_reconstructor
p0
(c__main__
ProductRecord
p1
c__builtin__
object
p2
Ntp3
Rp4
(dp5
S'product_url'
p6
S'http://www.walmart.com/ip/Refurbished-Acer-17-3-Intel-Core-i7-2-60-GHz-16-GB-Ram-1-TB-HDD-Windows-10-Home-G9-792-79VJ/387944637'
p7
sS'price'
p8
S'N/A'
p9
sS'properties'
p10
(dp11
VRAM Memory
p12
V16 GB
p13
sVOperating System
p14
VWindows 10
p15
sVBrand
p16
VAcer
p17
sVManufacturer Part Number
p18
VNX.Q0PAA.002
p19
sVModel
p20
VG9-792-79VJ
p21
sVScreen Size
p22
V17.3 in
p23
sVProcessor Speed
p24
V2.60 GHz
p25
ssS'title'
p26
VRefurbished Acer 17.3" Intel Core i7 2.60 GHz 16 GB Ram 1 TB HDD Windows 10 Home|G9-792-79VJ
p27
sb.