ccopy_reg
_reconstructor
p0
(c__main__
ProductRecord
p1
c__builtin__
object
p2
Ntp3
Rp4
(dp5
S'product_url'
p6
S'http://www.walmart.com/ip/MSI-GT73VR-TITAN-427-17-3-inch-Intel-Core-i7-7820HK-2-9GHz-16GB-DDR4-1TB-HDD-GTX-1070-USB3-0-Windows-10-Notebook-Aluminum-Black/752335135'
p7
sS'price'
p8
S'N/A'
p9
sS'properties'
p10
(dp11
VBrand
p12
VMSI
p13
sVHard Drive Capacity
p14
V1000
p15
sVmanufacturer_part_number
p16
Vgt73vr
p17
ssS'title'
p18
VMSI GT73VR TITAN-427 17.3 inch Intel Core i7-7820HK 2.9GHz/ 16GB DDR4/ 1TB HDD/ GTX 1070/ USB3.0/ Windows 10 Notebook (Aluminum Black)
p19
sb.