ccopy_reg
_reconstructor
p0
(c__main__
ProductRecord
p1
c__builtin__
object
p2
Ntp3
Rp4
(dp5
S'product_url'
p6
S'http://www.walmart.com/ip/MSI-USA-PL60-7RD-013-15-6-Inch-Notebook-PL60013-Ultrabook-Laptop/914035046'
p7
sS'price'
p8
S'N/A'
p9
sS'properties'
p10
(dp11
VRAM Memory
p12
V8 Gigabytes
p13
sVOperating System
p14
VWindows 10 (Multi Language)
p15
sVBrand
p16
VMSI USA
p17
sVProcessor Speed
p18
V2.7 Gigahertz
p19
sVManufacturer Part Number
p20
VPL60013
p21
sVMaximum RAM Supported
p22
V32.00 GB
p23
sVHard Drive Capacity
p24
V1 Terabytes
p25
sVModel
p26
VPL60013
p27
sVScreen Size
p28
V15.60 Inches
p29
sVProcessor Type
p30
VIntel i7-7500U
p31
ssS'title'
p32
V"MSI USA PL60 7RD-013 15.6 Inch Notebook PL60013 Ultrabook Laptop"
p33
sb.