ccopy_reg
_reconstructor
p0
(c__main__
ProductRecord
p1
c__builtin__
object
p2
Ntp3
Rp4
(dp5
S'product_url'
p6
S'http://www.walmart.com/ip/REFURBISHED-Alienware-15-FHD-15-6-Inch-Gaming-Laptop-Intel-Core-i5-4210-8-GB-RAM-1-TB-HDD-Silver-Black-NVIDIA-GeForce-GTX-965M-2GB-GDDR5/582142272'
p7
sS'price'
p8
S'N/A'
p9
sS'properties'
p10
(dp11
VOperating System
p12
VMicrosoft Windows
p13
sVBrand
p14
VDell
p15
sVRAM Memory
p16
V8 GB
p17
sVScreen Size
p18
V15.6
p19
sVHard Drive Capacity
p20
V1000
p21
ssS'title'
p22
VREFURBISHED Alienware 15 FHD 15.6-Inch Gaming Laptop (Intel Core i5 4210, 8 GB RAM, 1 TB HDD, Silver and Black) NVIDIA GeForce GTX 965M with 2GB GDDR5
p23
sb.