ccopy_reg
_reconstructor
p0
(c__main__
ProductRecord
p1
c__builtin__
object
p2
Ntp3
Rp4
(dp5
S'product_url'
p6
S'http://www.walmart.com/ip/REFURBISHED-Alienware-ALW17-8751sLV-17-3-Inch-Gaming-Laptop-Discontinued-By-Manufacturer/170357522'
p7
sS'price'
p8
S'N/A'
p9
sS'properties'
p10
(dp11
VBrand
p12
VDell
p13
sVScreen Size
p14
V17.3
p15
sVHard Drive Capacity
p16
V128
p17
sVCondition
p18
VRefurbished
p19
ssS'title'
p20
VREFURBISHED Alienware ALW17-8751sLV 17.3-Inch Gaming Laptop [Discontinued By Manufacturer]
p21
sb.