ccopy_reg
_reconstructor
p0
(c__main__
ProductRecord
p1
c__builtin__
object
p2
Ntp3
Rp4
(dp5
S'product_url'
p6
S'http://www.walmart.com/ip/REFURBISHED-Alienware-17-R2-ANW17-2136SLV-17-3-i7-4710HQ-16GB-128GB-SSD-1TB-HDD-NVIDIA-GTX-970M-3GB-Full-HD-Windows-8-1-Gaming-Laptop-Computer/992196069'
p7
sS'price'
p8
S'N/A'
p9
sS'properties'
p10
(dp11
VOperating System
p12
VMicrosoft Windows
p13
sVBrand
p14
VDell
p15
sVRAM Memory
p16
V16 GB
p17
sVScreen Size
p18
V17.3
p19
sVHard Drive Capacity
p20
V128
p21
ssS'title'
p22
VREFURBISHED Alienware 17-R2 ANW17-2136SLV 17.3" i7-4710HQ 16GB 128GB SSD + 1TB HDD NVIDIA GTX 970M 3GB Full HD Windows 8.1 Gaming Laptop Computer
p23
sb.