ccopy_reg
_reconstructor
p0
(c__main__
ProductRecord
p1
c__builtin__
object
p2
Ntp3
Rp4
(dp5
S'product_url'
p6
S'http://www.walmart.com/ip/iView-MAXIMUS-III-11-6-Convertible-Touchscreen-Laptop-2-1-Windows-10-Intel-Atom-Processor-2GB-memory-32GB-storage-2MP-Front-Camera-2MP-Rear-Camera-10/56123850'
p7
sS'price'
p8
S'N/A'
p9
sS'properties'
p10
(dp11
VOperating System
p12
VMicrosoft Windows
p13
sVColor Category
p14
VBlack
p15
sVLaptop Computer Type
p16
VTouchscreen
p17
sVBrand
p18
VIVIEW
p19
sVManufacturer Part Number
p20
VIVMAX3-BL
p21
sVModel
p22
VIVMAX3-BL
p23
sVScreen Size
p24
V11.6
p25
sVManufacturer
p26
VIview
p27
ssS'title'
p28
ViView MAXIMUS III - 11.6" Convertible Touchscreen Laptop (2 in 1) with Windows 10, Intel Atom Processor, 2GB memory, 32GB storage, 2MP Front Camera, 2MP Rear Camera, 10 hour battery - Blue
p29
sb.