ccopy_reg
_reconstructor
p0
(c__main__
ProductRecord
p1
c__builtin__
object
p2
Ntp3
Rp4
(dp5
S'product_url'
p6
S'http://www.walmart.com/ip/Refurbished-Dell-XPS-13-9365-2-in-1-i7-7Y75-8GB-256GB-PCIe-SSD-FHD-Touch-screen-INFINITY-Windows-10-Home-laptop-silver-Fingerprint/941238903'
p7
sS'price'
p8
S'N/A'
p9
sS'properties'
p10
(dp11
VRAM Memory
p12
V8 Gigabytes
p13
sVBrand
p14
VDell
p15
sVHard Drive Capacity
p16
V256 Gigabytes
p17
sVModel
p18
VXPS13-9365-REF
p19
sVScreen Size
p20
V13.3 Inches
p21
sVProcessor Type
p22
VIntel Core i7
p23
sVCondition
p24
VRefurbished
p25
ssS'title'
p26
VRefurbished Dell XPS 13 9365 2-in-1 i7-7Y75 8GB 256GB PCIe SSD FHD Touch-screen INFINITY Windows 10 Home laptop silver +Fingerprint
p27
sb.