ccopy_reg
_reconstructor
p0
(c__main__
ProductRecord
p1
c__builtin__
object
p2
Ntp3
Rp4
(dp5
S'product_url'
p6
S'http://www.walmart.com/ip/Dell-Alienware-17-3-inch-7th-Gen-Intel-Core-i7-7820HK-16GB-DDR4-AW17R4-7004SLV-Elite-Suite-17-Standard-Software-Bundle-Corel-WordPerfect-PC-Mover-PDF/992072605'
p7
sS'price'
p8
V$2,399.00
p9
sS'properties'
p10
(dp11
VBrand
p12
VDell
p13
sVAssembled Product Dimensions (L x W x H)
p14
V0.70 x 13.10 x 1.20 Inches
p15
sVManufacturer Part Number
p16
VE1DELAW17R47004SLV
p17
sVAssembled Product Weight
p18
V9.74 Pounds
p19
ssS'title'
p20
VDell Alienware 17.3-inch 7th Gen Intel Core i7-7820HK 16GB DDR4 AW17R4-7004SLV+ Elite Suite 17 Standard Software Bundle (Corel WordPerfect, PC Mover, PDF Fusion, X9) + 1 Year Extended Warranty
p21
sb.