ccopy_reg
_reconstructor
p0
(c__main__
ProductRecord
p1
c__builtin__
object
p2
Ntp3
Rp4
(dp5
S'product_url'
p6
S'http://www.walmart.com/ip/NEW-Dell-Precision-15-M5520-i7-7820HQ-up-to-3-90GHz-8GB-500GB-FHD-Nvidia-M1200/819531261'
p7
sS'price'
p8
V$1,399.00
p9
sS'properties'
p10
(dp11
VRAM Memory
p12
V8.00 GB
p13
sVOperating System
p14
VWindows 10 professional
p15
sVColor
p16
VSilver
p17
sVResolution
p18
VFHD
p19
sVDisplay Technology
p20
VUltraSharp FHD IPS (1920x1080) (72% color gamut)
p21
sVScreen Size
p22
V15.6 in
p23
sVGraphics Information
p24
VNVIDIA Quadro M1200 4GB GDDR5
p25
sVHard Drive Capacity
p26
V500.00 GB
p27
sVBrand
p28
VDell
p29
sVProcessor Type
p30
VIntel Core i7
p31
sVForm Factor
p32
Vlaptop
p33
sVModel
p34
VPrecision 5520
p35
ssS'title'
p36
VNEW Dell Precision 15 M5520 i7-7820HQ up to 3.90GHz 8GB 500GB FHD Nvidia M1200
p37
sb.