ccopy_reg
_reconstructor
p0
(c__main__
ProductRecord
p1
c__builtin__
object
p2
Ntp3
Rp4
(dp5
S'product_url'
p6
S'http://www.walmart.com/ip/Acer-CB5-132T-C9KK-R-11-2-in-1-11-6-Touch-Screen-Chromebook-Tablet-Laptop-Notebook-Celeron-4GB-32GB-White/739832295'
p7
sS'price'
p8
S'N/A'
p9
sS'properties'
p10
(dp11
VRAM Memory
p12
V4 GB
p13
sVOperating System
p14
VChrome OS
p15
sVBrand
p16
VAcer
p17
sVProcessor Speed
p18
V1.60 GHz
p19
sVManufacturer Part Number
p20
V1.91E+11
p21
sVAssembled Product Dimensions (L x W x H)
p22
V11.57 x 8.03 x 0.76 Inches
p23
sVModel
p24
VCB5-132T-C9KK
p25
sVScreen Size
p26
V11.6"
p27
sVProcessor Type
p28
VIntel Celeron
p29
ssS'title'
p30
VAcer CB5-132T-C9KK R 11 2-in-1 11.6" Touch-Screen Chromebook Tablet Laptop Notebook Celeron 4GB 32GB White
p31
sb.