ccopy_reg
_reconstructor
p0
(c__main__
ProductRecord
p1
c__builtin__
object
p2
Ntp3
Rp4
(dp5
S'product_url'
p6
S'http://www.walmart.com/ip/REFURBISHED-2016-ALIENWARE-17-3-FHD-Gaming-Laptop-Intel-Core-i7-6700HQ-3-5GHz-NVIDIA-GeForce-GTX-1060-8GB-DDR4-1TB-HDD-802-11ac-Bluetooth-HDMI-Window/949447366'
p7
sS'price'
p8
V$1,395.00
p9
sS'properties'
p10
(dp11
VOperating System
p12
VMicrosoft Windows
p13
sVBrand
p14
VDell
p15
sVRAM Memory
p16
V8 GB
p17
sVScreen Size
p18
V17.3
p19
sVHard Drive Capacity
p20
V1000
p21
ssS'title'
p22
VREFURBISHED 2016 ALIENWARE 17.3" FHD Gaming Laptop, Intel Core i7-6700HQ up to 3.5GHz, NVIDIA GeForce GTX 1060, 8GB DDR4, 1TB HDD, 802.11ac, Bluetooth, HDMI, Windows 10
p23
sb.