ccopy_reg
_reconstructor
p0
(c__main__
ProductRecord
p1
c__builtin__
object
p2
Ntp3
Rp4
(dp5
S'product_url'
p6
S'http://www.walmart.com/ip/REFURBISHED-Alienware-15-ANW15-5350SLV-15-6-Gaming-Laptop-Intel-Core-i7-4710HQ-Processor-16GB-RAM-1TB-HDD-128GB-SSD-NVIDIA-GeForce-GTX-970M-3GB-Windo/401134454'
p7
sS'price'
p8
V$1,499.95
p9
sS'properties'
p10
(dp11
VOperating System
p12
VMicrosoft Windows
p13
sVBrand
p14
VDell
p15
sVRAM Memory
p16
V16 GB
p17
sVScreen Size
p18
V15.6
p19
sVHard Drive Capacity
p20
V128
p21
ssS'title'
p22
VREFURBISHED Alienware 15 ANW15-5350SLV 15.6" Gaming Laptop - Intel Core i7-4710HQ Processor, 16GB RAM, 1TB HDD + 128GB SSD, NVIDIA GeForce GTX 970M 3GB, Windows 8.1
p23
sb.