ccopy_reg
_reconstructor
p0
(c__main__
ProductRecord
p1
c__builtin__
object
p2
Ntp3
Rp4
(dp5
S'product_url'
p6
S'http://www.walmart.com/ip/Acer-Predator-15-15-6-Notebook-w-Intel-i7-16GB-RAM-1TB-HDD-256GB-SSD/261031759'
p7
sS'price'
p8
V$1,879.99
p9
sS'properties'
p10
(dp11
VRAM Memory
p12
V16 Gigabytes
p13
sVOperating System
p14
VWindows 10
p15
sVFeatures
p16
V15.6" Ci77700 16G 1TB win10
p17
sVVideo Game Platform
p18
VPC
p19
sVBrand
p20
VAcer
p21
sVProcessor Speed
p22
V2.8 Gigahertz
p23
sVMaximum RAM Supported
p24
V64 Gigabytes
p25
sVHard Drive Capacity
p26
V1 Terabytes
p27
sVBattery Life
p28
V3 Hours
p29
sVModel
p30
VNH.Q1ZAA.001
p31
sVScreen Size
p32
V15.60 Inches
p33
sVProcessor Type
p34
VIntel i7-7700HQ
p35
sVmanufacturer_part_number
p36
Vg9-593-71eh
p37
ssS'title'
p38
VAcer Predator 15 15.6" Notebook w/ Intel i7, 16GB RAM, 1TB HDD & 256GB SSD
p39
sb.