ccopy_reg
_reconstructor
p0
(c__main__
ProductRecord
p1
c__builtin__
object
p2
Ntp3
Rp4
(dp5
S'product_url'
p6
S'http://www.walmart.com/ip/REFURBISHED-Dell-Alienware-18-4-Laptop-ALW18-34490sLV-Intel-Core-i7-4940MX-3-2GHz-32GB-RAM-4x256GB-SSD-s-Dual-NVIDIA-GTX-880M-Windows-7-Home-Premium/883382733'
p7
sS'price'
p8
V$2,999.95
p9
sS'properties'
p10
(dp11
VOperating System
p12
VMicrosoft Windows
p13
sVBrand
p14
VDell
p15
sVRAM Memory
p16
V32 GB
p17
sVScreen Size
p18
V18.4 in
p19
sVHard Drive Capacity
p20
V256 GB
p21
ssS'title'
p22
VREFURBISHED Dell Alienware 18.4" Laptop ALW18-34490sLV (Intel Core i7-4940MX 3.2GHz, 32GB RAM, 4x256GB SSD's, Dual NVIDIA GTX 880M, Windows 7 Home Premium)
p23
sb.