ccopy_reg
_reconstructor
p0
(c__main__
ProductRecord
p1
c__builtin__
object
p2
Ntp3
Rp4
(dp5
S'product_url'
p6
S'http://www.walmart.com/ip/PROSTAR-Clevo-N855HJ-15-6-Full-HD-IPS-1920x1080-Matte-Display-Gaming-Laptop-Intel-Core-i7-7700HQ-16GB-DDR4-GTX-1050-250GB-SSD-Windows-10-Home-Wi-Fi-B/179455423'
p7
sS'price'
p8
V$949.00
p9
sS'properties'
p10
(dp11
VRAM Memory
p12
V16 Gigabytes
p13
sVOperating System
p14
VMicrosoft Windows 10
p15
sVBrand
p16
VPROSTAR
p17
sVMaximum RAM Supported
p18
V32 Gigabytes
p19
sVAssembled Product Dimensions (L x W x H)
p20
V10.51 x 14.88 x 0.98 Inches
p21
sVProcessor Type
p22
VIntel Core i7-7700HQ
p23
sVScreen Size
p24
V15.6
p25
sVProcessor Speed
p26
V2.8 Gigahertz
p27
sVCondition
p28
VNew
p29
sVmanufacturer_part_number
p30
Vn855hj
p31
ssS'title'
p32
VPROSTAR Clevo N855HJ 15.6\u201d Full HD IPS (1920x1080) Matte Display Gaming Laptop, Intel Core i7-7700HQ, 16GB DDR4, GTX 1050, 250GB SSD, Windows 10 Home, Wi-Fi+Bluetooth, 1-Year Warranty
p33
sb.