ccopy_reg
_reconstructor
p0
(c__main__
ProductRecord
p1
c__builtin__
object
p2
Ntp3
Rp4
(dp5
S'product_url'
p6
S'http://www.walmart.com/ip/Refurbished-Alienware-ANW17-2143SLV-17-3-Inch-FHD-Gaming-Laptop-Intel-Core-i7-4710HQ-8-GB-RAM-1-TB-HDD-NVIDIA-GeForce-GTX-970M-3GB-GDDR5-Windows-8-1-/539198506'
p7
sS'price'
p8
V$1,749.95
p9
sS'properties'
p10
(dp11
VRAM Memory
p12
V8 GB
p13
sVOperating System
p14
VMicrosoft Windows
p15
sVBrand
p16
VAlienware
p17
sVManufacturer Part Number
p18
Vanw17-2143slv
p19
sVHard Drive Capacity
p20
V1000
p21
sVScreen Size
p22
V17.3
p23
ssS'title'
p24
VRefurbished Alienware ANW17-2143SLV 17.3-Inch FHD Gaming Laptop (Intel Core i7 4710HQ, 8 GB RAM, 1 TB HDD, NVIDIA GeForce GTX 970M with 3GB GDDR5, Windows 8.1), Black-Silver
p25
sb.