ccopy_reg
_reconstructor
p0
(c__main__
ProductRecord
p1
c__builtin__
object
p2
Ntp3
Rp4
(dp5
S'product_url'
p6
S'http://www.walmart.com/ip/REFURBISHED-EliteBook-C6Z90UA-14-LED-Notebook-Intel-Core-i7-i7-3520M-2-90-GHz-Platinum/240551999'
p7
sS'price'
p8
V$849.00
p9
sS'properties'
p10
(dp11
VBrand
p12
VHP
p13
ssS'title'
p14
VREFURBISHED EliteBook C6Z90UA 14" LED Notebook - Intel Core i7 i7-3520M 2.90 GHz - Platinum
p15
sb.