ccopy_reg
_reconstructor
p0
(c__main__
ProductRecord
p1
c__builtin__
object
p2
Ntp3
Rp4
(dp5
S'product_url'
p6
S'http://www.walmart.com/ip/REFURBISHED-EliteBook-8560w-LW930AA-15-6-LED-Notebook-Core-i7-i7-2820QM-2-3GHz-Gunmetal/252595458'
p7
sS'price'
p8
V$895.00
p9
sS'properties'
p10
(dp11
VBrand
p12
VHP
p13
ssS'title'
p14
VREFURBISHED EliteBook 8560w LW930AA 15.6" LED Notebook - Core i7 i7-2820QM 2.3GHz - Gunmetal
p15
sb.