ccopy_reg
_reconstructor
p0
(c__main__
ProductRecord
p1
c__builtin__
object
p2
Ntp3
Rp4
(dp5
S'product_url'
p6
S'http://www.walmart.com/ip/REFURBISHED-Alienware-14-ALW14-2814sLV-14-Inch-Gaming-Laptop-Discontinued-By-Manufacturer/586058159'
p7
sS'price'
p8
V$949.00
p9
sS'properties'
p10
(dp11
VBrand
p12
VDell
p13
ssS'title'
p14
VREFURBISHED Alienware 14 ALW14-2814sLV 14-Inch Gaming Laptop [Discontinued By Manufacturer]
p15
sb.