ccopy_reg
_reconstructor
p0
(c__main__
ProductRecord
p1
c__builtin__
object
p2
Ntp3
Rp4
(dp5
S'product_url'
p6
S'http://www.walmart.com/ip/PROSTAR-Clevo-Gaming-Laptop-N855HJ-15-6-Full-HD-1920x1080-Matte-Type-Display-Intel-Core-i7-7700HQ-16GB-DDR4-GTX-1050-256GB-SSD-1TB-HDD-Windows-10-Hom/271428590'
p7
sS'price'
p8
V$999.00
p9
sS'properties'
p10
(dp11
VRAM Memory
p12
V16 Gigabytes
p13
sVOperating System
p14
VMicrosoft?? Windows 10 (64-bit)??
p15
sVColor Category
p16
VBlack
p17
sVLaptop Computer Type
p18
VPC Laptops
p19
sVBrand
p20
VPROSTAR
p21
sVWireless Technology
p22
VIntel Wireless-AC 3168 + Bluetooth
p23
sVHard Drive Capacity
p24
V1 Terabytes
p25
sVProcessor Type
p26
VIntel Core i7-7700HQ
p27
sVManufacturer
p28
VPROSTAR
p29
sVScreen Size
p30
V15.6
p31
sVCondition
p32
VNew
p33
sVmanufacturer_part_number
p34
Vn855hj
p35
ssS'title'
p36
VPROSTAR Clevo Gaming Laptop N855HJ 15.6\u201d Full HD (1920x1080) Matte Type Display, Intel Core i7-7700HQ, 16GB DDR4, GTX 1050, 256GB SSD, 1TB HDD, Windows 10 Home, Wi-Fi+Bluetooth, 1-Year Warranty
p37
sb.