ccopy_reg
_reconstructor
p0
(c__main__
ProductRecord
p1
c__builtin__
object
p2
Ntp3
Rp4
(dp5
S'product_url'
p6
S'http://www.walmart.com/ip/Refurbished-Dell-Flagship-Alienware-Gaming-Laptop-13-3-Intel-Core-i5-4210U-1-7Ghz/661330165'
p7
sS'price'
p8
V$999.95
p9
sS'properties'
p10
(dp11
VBrand
p12
VAlienware
p13
sVScreen Size
p14
V13.3
p15
sVProcessor Speed
p16
V1
p17
ssS'title'
p18
VRefurbished Dell Flagship Alienware Gaming Laptop 13.3" Intel Core i5 4210U 1.7Ghz
p19
sb.