ccopy_reg
_reconstructor
p0
(c__main__
ProductRecord
p1
c__builtin__
object
p2
Ntp3
Rp4
(dp5
S'product_url'
p6
S'http://www.walmart.com/ip/REFURBISHED-Dell-Precision-M4800-Mobile-Work-Station-i7-4810MQ-Quad-Core-32GB-RAM-512GB-SSD-15-6-High-Definition-with-NVIDIA-K1100/948437206'
p7
sS'price'
p8
V$1,109.00
p9
sS'properties'
p10
(dp11
VBrand
p12
VDell
p13
ssS'title'
p14
VREFURBISHED Dell Precision M4800 Mobile Work Station i7-4810MQ Quad Core 32GB RAM 512GB SSD 15.6" High Definition with NVIDIA K1100
p15
sb.