ccopy_reg
_reconstructor
p0
(c__main__
ProductRecord
p1
c__builtin__
object
p2
Ntp3
Rp4
(dp5
S'product_url'
p6
S'http://www.walmart.com/ip/Acer-NX-VDFAA-009-TravelMate-Notebook/410156413'
p7
sS'price'
p8
V$1,175.85
p9
sS'properties'
p10
(dp11
VBrand
p12
VAcer
p13
ssS'title'
p14
V"Acer NX.VDFAA.009 TravelMate Notebook"
p15
sb.