ccopy_reg
_reconstructor
p0
(c__main__
ProductRecord
p1
c__builtin__
object
p2
Ntp3
Rp4
(dp5
S'product_url'
p6
S'http://www.walmart.com/ip/REFURBISHED-Alienware-15-FHD-15-6-Inch-Gaming-Laptop-Intel-Core-i7-4710HQ-16-GB-RAM-1-TB-HDD-128-GB-SSD-Silver-Black-NVIDIA-GeForce-GTX-970M-3GB-GDDR5/611502624'
p7
sS'price'
p8
V$1,199.00
p9
sS'properties'
p10
(dp11
VRAM Memory
p12
V16 GB
p13
sVOperating System
p14
VMicrosoft Windows
p15
sVBrand
p16
VDell
p17
sVHard Drive Capacity
p18
V1 TB
p19
sVProcessor Speed
p20
V3
p21
sVScreen Size
p22
V15.6 in
p23
ssS'title'
p24
VREFURBISHED Alienware 15 FHD 15.6-Inch Gaming Laptop (Intel Core i7 4710HQ, 16 GB RAM, 1 TB HDD + 128 GB SSD, Silver and Black) NVIDIA GeForce GTX 970M with 3GB GDDR5
p25
sb.