ccopy_reg
_reconstructor
p0
(c__main__
ProductRecord
p1
c__builtin__
object
p2
Ntp3
Rp4
(dp5
S'product_url'
p6
S'http://www.walmart.com/ip/Refurbished-Dell-Inspiron-13-7359-I7359-8404SLV-2-in-1-Notebook-PC-Intel-Core-i7-6500U-2-5-GHz-Dual-Core-Processor-8-GB-DDR3L-SDRAM-256-GB-Solid-Stat/847788945'
p7
sS'price'
p8
S'N/A'
p9
sS'properties'
p10
(dp11
sS'title'
p12
VRefurbished Dell Inspiron 13-7359 I7359-8404SLV 2-in-1 Notebook PC - Intel Core i7-6500U 2.5 GHz Dual-Core Processor - 8 GB DDR3L SDRAM - 256 GB Solid State Drive - 13.3-inch Touchscreen Display -
p13
sb.