ccopy_reg
_reconstructor
p0
(c__main__
ProductRecord
p1
c__builtin__
object
p2
Ntp3
Rp4
(dp5
S'product_url'
p6
S'http://www.walmart.com/ip/REFURBISHED-Dell-XPS9560-7001SLV-PUS-15-6-Laptop-7th-Gen-Core-i7-up-to-3-8-GHz-16GB-512GB-SSD-Nvidia-Gaming-GPU-GTX-1050/976326803'
p7
sS'price'
p8
V$1,449.95
p9
sS'properties'
p10
(dp11
VOperating System
p12
VMicrosoft Windows
p13
sVBrand
p14
VDell
p15
sVRAM Memory
p16
V16 GB
p17
sVScreen Size
p18
V15.6
p19
ssS'title'
p20
VREFURBISHED Dell XPS9560-7001SLV-PUS 15.6" Laptop, 7th Gen Core i7 (up to 3.8 GHz), 16GB, 512GB SSD, Nvidia Gaming GPU GTX 1050
p21
sb.