ccopy_reg
_reconstructor
p0
(c__main__
ProductRecord
p1
c__builtin__
object
p2
Ntp3
Rp4
(dp5
S'product_url'
p6
S'http://www.walmart.com/ip/REFURBISHED-Alienware-18-i7-4700MQ-Dual-NVIDIA-GeForce-GTX-770M-3GB-GDDR5-16-GB-750-GB-64-GB-SSD-Caching-18-4-Inch-WLED-FHD-1920-X-1080-TrueLife-Disp/295538903'
p7
sS'price'
p8
V$1,490.00
p9
sS'properties'
p10
(dp11
VBrand
p12
VDell
p13
ssS'title'
p14
VREFURBISHED Alienware 18 - i7-4700MQ - Dual NVIDIA GeForce GTX 770M with 3GB GDDR5 - 16 GB - 750 GB + 64 GB SSD Caching - 18.4 Inch WLED FHD (1920 X 1080) TrueLife Display
p15
sb.