ccopy_reg
_reconstructor
p0
(c__main__
ProductRecord
p1
c__builtin__
object
p2
Ntp3
Rp4
(dp5
S'product_url'
p6
S'http://www.walmart.com/ip/Dell-Recertified-Alienware-15R2-15-6-IPS-Intel-Core-i7-6700HQ-Gaming-Laptop-1TB-HDD-16GB-Memory-Windows-10-Home-Laptop-Touch-1-Year-Dell-Warranty/182152573'
p7
sS'price'
p8
V$1,499.55
p9
sS'properties'
p10
(dp11
VOperating System
p12
VWindows 10
p13
sVBrand
p14
VAlienware
p15
sVRAM Memory
p16
V16 GB
p17
sVScreen Size
p18
V15.6 in
p19
sVHard Drive Capacity
p20
V1 TB
p21
ssS'title'
p22
VDell Recertified Alienware 15R2 15.6" IPS Intel Core i7-6700HQ Gaming Laptop ,1TB HDD  16GB Memory ,Windows 10 Home Laptop Touch, 1 Year  Dell Warranty
p23
sb.