ccopy_reg
_reconstructor
p0
(c__main__
ProductRecord
p1
c__builtin__
object
p2
Ntp3
Rp4
(dp5
S'product_url'
p6
S'http://www.walmart.com/ip/Refurbished-Alienware-15-UHD-15-6-Inch-Touchscreen-Gaming-Laptop-Intel-Core-i7-4710HQ-1/906629756'
p7
sS'price'
p8
V$1,499.95
p9
sS'properties'
p10
(dp11
VOperating System
p12
VMicrosoft Windows
p13
sVBrand
p14
VAlienware
p15
sVScreen Size
p16
V15.6
p17
ssS'title'
p18
VRefurbished Alienware 15 UHD 15.6-Inch Touchscreen Gaming Laptop (Intel Core i7 4710HQ, 1...
p19
sb.