ccopy_reg
_reconstructor
p0
(c__main__
ProductRecord
p1
c__builtin__
object
p2
Ntp3
Rp4
(dp5
S'product_url'
p6
S'http://www.walmart.com/ip/REFURBISHED-2016-ALIENWARE-17-3-FHD-Display-Tobii-IR-Eye-tracking-Gaming-Laptop-Intel-Core-i7-6700HQ-3-5GHz-NVIDIA-GeForce-GTX-1060-16GB-DDR4/778774063'
p7
sS'price'
p8
V$1,499.95
p9
sS'properties'
p10
(dp11
VOperating System
p12
VMicrosoft Windows
p13
sVBrand
p14
VDell
p15
sVScreen Size
p16
V17.3
p17
ssS'title'
p18
VREFURBISHED 2016 ALIENWARE 17.3" FHD Display with Tobii IR Eye-tracking Gaming Laptop, Intel Core i7-6700HQ up to 3.5GHz, NVIDIA GeForce GTX 1060, 16GB DDR4
p19
sb.