ccopy_reg
_reconstructor
p0
(c__main__
ProductRecord
p1
c__builtin__
object
p2
Ntp3
Rp4
(dp5
S'product_url'
p6
S'http://www.walmart.com/ip/REFURBISHED-Alienware-15-ANW15-15-6-4K-UHDTouchScreen-Gaming-Laptop-4th-Gen-Intel-Core-i7-4710HQ-3-5GHz-8GB-Memory-3GB-GeForce-GTX-970M-Graphics/277220911'
p7
sS'price'
p8
V$1,499.95
p9
sS'properties'
p10
(dp11
VBrand
p12
VDell
p13
sVRAM Memory
p14
V8 GB
p15
sVOperating System
p16
VMicrosoft Windows
p17
ssS'title'
p18
VREFURBISHED Alienware 15 ANW15 15.6 in 4K UHDTouchScreen Gaming Laptop, 4th Gen Intel Core i7-4710HQ UP to 3.5GHz, 8GB Memory,3GB GeForce GTX 970M Graphics,
p19
sb.