ccopy_reg
_reconstructor
p0
(c__main__
ProductRecord
p1
c__builtin__
object
p2
Ntp3
Rp4
(dp5
S'product_url'
p6
S'http://www.walmart.com/ip/REFURBISHED-Alienware-ANW17-2143SLV-17-3-Inch-FHD-Gaming-Laptop-Intel-Core-i7-4710HQ-8-GB-RAM-1-TB-HDD-NVIDIA-GeForce-GTX-970M-with-3GB-GDDR5/188362396'
p7
sS'price'
p8
V$1,499.95
p9
sS'properties'
p10
(dp11
VOperating System
p12
VMicrosoft Windows
p13
sVBrand
p14
VDell
p15
sVRAM Memory
p16
V8 GB
p17
sVScreen Size
p18
V17.3
p19
sVHard Drive Capacity
p20
V1000
p21
ssS'title'
p22
VREFURBISHED Alienware ANW17-2143SLV 17.3-Inch FHD Gaming Laptop (Intel Core i7 4710HQ, 8 GB RAM, 1 TB HDD, NVIDIA GeForce GTX 970M with 3GB GDDR5
p23
sb.