ccopy_reg
_reconstructor
p0
(c__main__
ProductRecord
p1
c__builtin__
object
p2
Ntp3
Rp4
(dp5
S'product_url'
p6
S'http://www.walmart.com/ip/REFURBISHED-Alienware-15-ANW15-15-6-4K-UHD-IPS-Panel-TouchScreen-Gaming-Laptop-4th-Gen-Intel-Core-i7-4710HQ-3-5GHz-8GB-Memory-512GB-SSD-1TB-Hard-Driv/120771416'
p7
sS'price'
p8
V$1,499.95
p9
sS'properties'
p10
(dp11
VBrand
p12
VDell
p13
sVRAM Memory
p14
V8 GB
p15
sVOperating System
p16
VMicrosoft Windows
p17
sVHard Drive Capacity
p18
V1000
p19
ssS'title'
p20
VREFURBISHED Alienware 15 ANW15 15.6 in 4K UHD IPS-Panel TouchScreen Gaming Laptop, 4th Gen Intel Core i7-4710HQ UP to 3.5GHz, 8GB Memory, 512GB SSD + 1TB Hard Drive, 3GB GeForce GTX 970M Graphics
p21
sb.