ccopy_reg
_reconstructor
p0
(c__main__
ProductRecord
p1
c__builtin__
object
p2
Ntp3
Rp4
(dp5
S'product_url'
p6
S'http://www.walmart.com/ip/MSI-15-6-Gaming-Laptop-Core-i7-GTX1060-16GB-DDR4-1TB-HDD-Aluminum-Black/434210570'
p7
sS'price'
p8
V$1,502.08
p9
sS'properties'
p10
(dp11
VRAM Memory
p12
V16 Gigabytes
p13
sVOperating System
p14
VWindows 10 (Multi Language)
p15
sVFeatures
p16
V2.6G GTX1060 16G 1TB 15.6IN
p17
sVVideo Game Platform
p18
VPC
p19
sVBrand
p20
VMSI
p21
sVProcessor Speed
p22
V2.6 Gigahertz
p23
sVManufacturer Part Number
p24
VAPACHE PRO-650
p25
sVHard Drive Capacity
p26
V1 Terabytes
p27
sVModel
p28
VGE62VR650
p29
sVScreen Size
p30
V15.60 Inches
p31
sVProcessor Type
p32
VIntel i7-6700HQ
p33
sVCondition
p34
VNew
p35
ssS'title'
p36
VMSI 15.6" Gaming Laptop Core i7 GTX1060 16GB DDR4 1TB HDD Aluminum Black
p37
sb.