ccopy_reg
_reconstructor
p0
(c__main__
ProductRecord
p1
c__builtin__
object
p2
Ntp3
Rp4
(dp5
S'product_url'
p6
S'http://www.walmart.com/ip/HP-Elite-x2-1012-G1-12-Core-m7-6Y75-8-GB-RAM-512-GB-SSD-with-HP-Elite-x2-1012-G1-Travel-Keyboard-HP-Active-Pen/50278202'
p7
sS'price'
p8
S'N/A'
p9
sS'properties'
p10
(dp11
VOperating System
p12
VWindows 10
p13
sVFeatures
p14
VHP SmartBuy 1012 M7-6Y75 12 8GB/512 HSPA PC U.S.
p15
sVAccessories Included
p16
VPower Cord, Battery, Stylus
p17
sVColor
p18
VSilver
p19
sVVideo Game Platform
p20
VPC
p21
sVBrand
p22
VHP
p23
sVManufacturer Part Number
p24
VV2V91UT#ABA
p25
sVMaximum RAM Supported
p26
V8 GB
p27
sVBattery Life
p28
V10 hours 15 minutes
p29
sVAssembled Product Dimensions (L x W x H)
p30
V18.10 x 11.50 x 3.00 Inches
p31
sVModel
p32
VV2V91UT#ABA
p33
sVScreen Size
p34
V12.0"
p35
sVCondition
p36
VNew
p37
ssS'title'
p38
VHP Elite x2 1012 G1 - 12" - Core m7 6Y75 - 8 GB RAM - 512 GB SSD - with HP Elite x2 1012 G1 Travel Keyboard HP Active Pen
p39
sb.