ccopy_reg
_reconstructor
p0
(c__main__
ProductRecord
p1
c__builtin__
object
p2
Ntp3
Rp4
(dp5
S'product_url'
p6
S'http://www.walmart.com/ip/TP-P52S-I7-8650U-1-9G-8GB-256GB-SSD-15-6IN-1920X1080-W10P-64BIT/961775637'
p7
sS'price'
p8
V$1,567.11
p9
sS'properties'
p10
(dp11
VRAM Memory
p12
V0 GB
p13
sVFeatures
p14
VEnterprise-level securityConnect with speed, Enterprise-level securityThe ThinkPad P52s boasts business-class security, manageability, and productivity-enhancing features. Trusted Platform Module technology, an enhanced fingerprint reader, IR face-recognition login with Windows Hello or an HD camera with ThinkShutter: all ensure data security and personal privacy. The renowned ergonomic, backlit ThinkPad keyboard is optimized for Windows and fuels productivity - even in low-light conditions.Connect with speedMove data between the ThinkPad P52s and your other devices quickly with USB-C Thunderbolt 3 technology - simultaneously supporting high-resolution displays and high-performance data devices. And you won't be short on connectors with two USB 3.0 and two USB-C ports. For true mobility, add the option of WWAN connectivity. By subscribing to a third-party cellular phone service company, you can then access LTE-A networks and connect to the Internet wherever you go.
p15
sVBrand
p16
VLenovo
p17
sVManufacturer Part Number
p18
V20LB0018US
p19
sVBattery Life
p20
V0 h
p21
sVProcessor Speed
p22
V0 GHz
p23
sVModel
p24
V20LB0018US
p25
sVAssembled Product Weight
p26
V3016.3892605 Grams
p27
ssS'title'
p28
VTP P52S I7-8650U 1.9G 8GB 256GB SSD 15.6IN 1920X1080 W10P 64BIT
p29
sb.