ccopy_reg
_reconstructor
p0
(c__main__
ProductRecord
p1
c__builtin__
object
p2
Ntp3
Rp4
(dp5
S'product_url'
p6
S'http://www.walmart.com/ip/PROSTAR-Clevo-P650HS-G-VR-ready-Gaming-Laptop-15-6-IPS-FHD-Matte-w-NVIDIA-G-Sync-Intel-Core-i7-7700HQ-16GB-DDR4-GTX-1070-1TB-HDD-Windows-10-Home-Wi-F/794599434'
p7
sS'price'
p8
V$1,599.00
p9
sS'properties'
p10
(dp11
VRAM Memory
p12
V16 Gigabytes
p13
sVOperating System
p14
VMicrosoft Windows 10 (64-bit)
p15
sVBrand
p16
VPROSTAR
p17
sVMaximum RAM Supported
p18
V64 Gigabytes
p19
sVHard Drive Capacity
p20
V1 Terabytes
p21
sVAssembled Product Dimensions (L x W x H)
p22
V10.67 x 15.16 x 1.13 Inches
p23
sVProcessor Type
p24
VIntel Core i7-7700HQ
p25
sVScreen Size
p26
V15.6
p27
sVProcessor Speed
p28
V2.8 Gigahertz
p29
ssS'title'
p30
VPROSTAR Clevo P650HS-G VR ready Gaming Laptop 15.6" IPS FHD Matte w/ NVIDIA G-Sync, Intel Core i7-7700HQ, 16GB DDR4, GTX 1070, 1TB HDD, Windows 10 Home, Wi-Fi + Bluetooth, 1-year Warranty
p31
sb.