ccopy_reg
_reconstructor
p0
(c__main__
ProductRecord
p1
c__builtin__
object
p2
Ntp3
Rp4
(dp5
S'product_url'
p6
S'http://www.walmart.com/ip/XOTIC-PC-G63-Valkyrie-Gaming-Laptop-w-FREE-BUNDLE-15-6-FHD-w-G-SYNC-Intel-Core-i5-7500-NVIDIA-GeForce-GTX1060-16GB-DDR4-256GB-M-2-SSD-1TB-HDD-Win10-K/254823146'
p7
sS'price'
p8
V$1,649.00
p9
sS'properties'
p10
(dp11
VRAM Memory
p12
V16.00 GB
p13
sVOperating System
p14
VWindows 10
p15
sVBrand
p16
VXotic PC
p17
sVProcessor Speed
p18
V3.80 GHz
p19
sVMaximum RAM Supported
p20
V32.00 GB
p21
sVHard Drive Capacity
p22
V1.25 TB
p23
sVModel
p24
VG63 Valkyrie
p25
sVScreen Size
p26
V15.6 in
p27
sVProcessor Type
p28
VIntel Core i5, Intel Core i5 7500
p29
sVCondition
p30
VNew
p31
ssS'title'
p32
VXOTIC PC G63 Valkyrie Gaming Laptop w/ FREE BUNDLE! 15.6" FHD w/ G-SYNC Intel Core i5-7500 NVIDIA GeForce GTX1060 16GB DDR4 256GB M.2 SSD 1TB HDD Win10 Kabylake Backlit Keyboard
p33
sb.