ccopy_reg
_reconstructor
p0
(c__main__
ProductRecord
p1
c__builtin__
object
p2
Ntp3
Rp4
(dp5
S'product_url'
p6
S'http://www.walmart.com/ip/Refurbished-Dell-Alienware-17-R4-i7-6700HQ-16GB-1TB-128GB-SSD-QHD-120Hz-G-Sync-Nvidia-GTX1070-8GB-VR-Ready-Tobii-Eye-Windows-10-Home-laptop/197423857'
p7
sS'price'
p8
V$1,669.00
p9
sS'properties'
p10
(dp11
VRAM Memory
p12
V16 Gigabytes
p13
sVOperating System
p14
VWindows 10
p15
sVBrand
p16
VDell
p17
sVHard Drive Capacity
p18
V1.1 Terabytes
p19
sVProcessor Type
p20
VIntel Core i7
p21
sVScreen Size
p22
V17.3 Inches
p23
sVmanufacturer_part_number
p24
Vgtx1070
p25
ssS'title'
p26
VRefurbished Dell Alienware 17 R4 i7-6700HQ 16GB 1TB + 128GB SSD QHD 120Hz G-Sync Nvidia GTX1070 8GB VR-Ready +Tobii Eye Windows 10 Home laptop
p27
sb.