ccopy_reg
_reconstructor
p0
(c__main__
ProductRecord
p1
c__builtin__
object
p2
Ntp3
Rp4
(dp5
S'product_url'
p6
S'http://www.walmart.com/ip/Refurbished-Alienware-ANW17-2143SLV-17-3-4710HQ-8GB-RAM-1-TB-HDD-GeForce-GTX-970M-Windows-8/629944102'
p7
sS'price'
p8
V$1,749.95
p9
sS'properties'
p10
(dp11
VBrand
p12
VAlienware
p13
sVRAM Memory
p14
V8 GB
p15
sVScreen Size
p16
V17.3
p17
sVHard Drive Capacity
p18
V1000
p19
sVManufacturer Part Number
p20
Vanw17-2143slv
p21
ssS'title'
p22
VRefurbished Alienware ANW17-2143SLV 17.3" 4710HQ 8GB RAM 1 TB HDD GeForce GTX 970M Windows 8
p23
sb.