ccopy_reg
_reconstructor
p0
(c__main__
ProductRecord
p1
c__builtin__
object
p2
Ntp3
Rp4
(dp5
S'product_url'
p6
S'http://www.walmart.com/ip/Razer-Blade-GeForce-GTX-1060-14-HD-Gaming-Laptop-7th-Gen-Intel-Core-i7-16GB-RAM-512GB-SSD-VR-Ready-Ultra-Thin-Light-Aluminum-Chassis/739986978'
p7
sS'price'
p8
V$1,790.99
p9
sS'properties'
p10
(dp11
VRAM Memory
p12
V16 GB
p13
sVOperating System
p14
VMicrosoft Windows
p15
sVFeatures
p16
VGet the best gaming experience with an incredible 14" IPS Full HD display, World's most advanced gaming notebook with Chroma anti-ghosting keyboard and Killer Wireless AC, NVIDIA GeForce GTX 1060, 512GB PCIe SSD and 16GB RAM provides desktop-grade performance in a laptop for even the most intensive gaming - even on the Oculus Rift and HTC Vive, Thunderbolt 3 - The one port that does it all with Thunderbolt, USB, and DisplayPort over USB-C
p17
sVBrand
p18
VRazer
p19
sVManufacturer Part Number
p20
VRZ09-01953E72-R3U1
p21
sVAssembled Product Dimensions (L x W x H)
p22
V9.30 x 13.60 x 0.70 Inches
p23
sVProcessor Type
p24
VIntel Core i7
p25
sVScreen Size
p26
V14
p27
sVCondition
p28
VNew
p29
ssS'title'
p30
VThe Razer Blade (GeForce GTX 1060) 14" HD Gaming Laptop (7th Gen Intel Core i7, 16GB RAM, 512GB SSD) - VR Ready - Ultra Thin and Light Aluminum Chassis
p31
sb.