ccopy_reg
_reconstructor
p0
(c__main__
ProductRecord
p1
c__builtin__
object
p2
Ntp3
Rp4
(dp5
S'product_url'
p6
S'http://www.walmart.com/ip/Dragon-Army-Gs30-Shadow-001-13-3-Notebook-Intel-Core-I7-I7-4870hq-2-50-Ghz-Aluminum-Black-16-Gb-Ram-256-Gb-Ssd-Intel-Iris-Pro-Graphics-5200-Windows-8/43532993'
p7
sS'price'
p8
V$1,899.00
p9
sS'properties'
p10
(dp11
VRAM Memory
p12
V16 GB
p13
sVOperating System
p14
VWindows 8
p15
sVColor Category
p16
VBlack
p17
sVLaptop Computer Type
p18
Vnotebook
p19
sVBrand
p20
VMSI
p21
sVManufacturer Part Number
p22
VGS30 SHADOW-001
p23
sVWireless Technology
p24
VGigabit Ethernet
p25
sVHard Drive Capacity
p26
V256 GB
p27
sVProcessor Core Type
p28
VQuad-Core
p29
sVProcessor Type
p30
VIntel Core i7
p31
sVScreen Size
p32
V13.3"
p33
sVModel
p34
VShadow-001
p35
sVCondition
p36
VNew
p37
sVManufacturer
p38
VMSI
p39
ssS'title'
p40
VDragon Army Gs30 Shadow-001 13.3" Notebook - Intel Core I7 I7-4870hq 2.50 Ghz - Aluminum Black - 16 Gb Ram - 256 Gb Ssd - Intel Iris Pro Graphics 5200 - Windows 8.1 - 1920 X 1080 (gs30shadow-001)
p41
sb.