ccopy_reg
_reconstructor
p0
(c__main__
ProductRecord
p1
c__builtin__
object
p2
Ntp3
Rp4
(dp5
S'product_url'
p6
S'http://www.walmart.com/ip/Asus-ROG-GL702VM-DS74-17-3-inch-Intel-Core-i7-7700HQ-2-8GHz-16GB-DDR4-1TB-HDD-128GB-SSD-GTX-1060M-USB3-1-Windows-10-Notebook-ROG-Metallic-Copper-Style/116967685'
p7
sS'price'
p8
V$1,953.60
p9
sS'properties'
p10
(dp11
VBrand
p12
VASUS
p13
sVOperating System
p14
VMicrosoft Windows
p15
sVHard Drive Capacity
p16
V1000
p17
sVCondition
p18
VNew
p19
ssS'title'
p20
VAsus ROG GL702VM-DS74 17.3 inch Intel Core i7-7700HQ 2.8GHz/ 16GB DDR4/ 1TB HDD + 128GB SSD/ GTX 1060M/ USB3.1/ Windows 10 Notebook (ROG Metallic Copper Style)
p21
sb.