ccopy_reg
_reconstructor
p0
(c__main__
ProductRecord
p1
c__builtin__
object
p2
Ntp3
Rp4
(dp5
S'product_url'
p6
S'http://www.walmart.com/ip/GE73VR-Raider-067-i7-7700HQ-16GB-1T-GTX1060-17-3-Windows-10-Notebook/908477959'
p7
sS'price'
p8
V$1,979.26
p9
sS'properties'
p10
(dp11
VRAM Memory
p12
V16.00 GB
p13
sVOperating System
p14
VWindows 10
p15
sVVideo Game Platform
p16
VSee Description
p17
sVBrand
p18
VMSI
p19
sVProcessor Speed
p20
V2.80 GHz
p21
sVManufacturer Part Number
p22
VGE73VR067
p23
sVMaximum RAM Supported
p24
V32.00 GB
p25
sVHard Drive Capacity
p26
V1.00 TB
p27
sVModel
p28
VGE73VR067
p29
sVScreen Size
p30
V17.30 in
p31
sVProcessor Type
p32
VIntel Core i7
p33
sVCondition
p34
VNew
p35
ssS'title'
p36
VGE73VR Raider-067 i7-7700HQ 16GB 1T GTX1060 17.3" Windows 10 Notebook
p37
sb.