ccopy_reg
_reconstructor
p0
(c__main__
ProductRecord
p1
c__builtin__
object
p2
Ntp3
Rp4
(dp5
S'product_url'
p6
S'http://www.walmart.com/ip/Monster-Gaming-Dell-XPS-15-Touch-Screen-Laptop-with-4th-Generation-Intel-Core-i7-4702HQ-processor-16GB-DDR3L-Ram-1TB-5/137211380'
p7
sS'price'
p8
V$1,999.98
p9
sS'properties'
p10
(dp11
VBrand
p12
VDell
p13
sVRAM Memory
p14
V16 GB
p15
sVOperating System
p16
VMicrosoft Windows
p17
sVHard Drive Capacity
p18
V1000
p19
sVCondition
p20
VNew
p21
ssS'title'
p22
VMonster Gaming Dell XPS 15 Touch Screen Laptop with 4th Generation Intel Core i7-4702HQ processor 16GB DDR3L Ram 1TB + 5
p23
sb.