ccopy_reg
_reconstructor
p0
(c__main__
ProductRecord
p1
c__builtin__
object
p2
Ntp3
Rp4
(dp5
S'product_url'
p6
S'http://www.walmart.com/ip/Dell-Inspiron-11-3168-2-in-1-Notebook-with-Intel-Pentium-N3710-4GB-500GB-HDD/52824410'
p7
sS'price'
p8
S'N/A'
p9
sS'properties'
p10
(dp11
VRAM Memory
p12
V4 Gigabytes
p13
sVOperating System
p14
VUnknown
p15
sVVideo Game Platform
p16
VSee Description
p17
sVBrand
p18
VDell
p19
sVProcessor Speed
p20
V1.6 Gigahertz
p21
sVManufacturer Part Number
p22
Vi3168-3271BLU
p23
sVHard Drive Capacity
p24
V500 Gigabytes
p25
sVAssembled Product Dimensions (L x W x H)
p26
V12.00 x 12.00 x 12.00 Inches
p27
sVModel
p28
Vi3168-3271BLU
p29
sVScreen Size
p30
V11.60 Inches
p31
sVProcessor Type
p32
VIntel N3710
p33
sVCondition
p34
VNew
p35
ssS'title'
p36
VDell Inspiron 11-3168 2-in-1 Notebook with Intel Pentium N3710, 4GB 500GB HDD
p37
sb.