ccopy_reg
_reconstructor
p0
(c__main__
ProductRecord
p1
c__builtin__
object
p2
Ntp3
Rp4
(dp5
S'product_url'
p6
S'http://www.walmart.com/ip/MSI-GS63VR-STEALTH-PRO-229-15-6-inch-Intel-Core-i7-7700HQ-2-8GHz-32GB-DDR4-1TB-HDD-512GB-PCI-E-SSD-GTX-1060-USB3-0-Windows-10-Pro-Ultrabook-Aluminum-/909375324'
p7
sS'price'
p8
V$2,577.58
p9
sS'properties'
p10
(dp11
VBrand
p12
VMSI
p13
sVOperating System
p14
VMicrosoft Windows
p15
sVCondition
p16
VNew
p17
ssS'title'
p18
VMSI GS63VR STEALTH PRO-229 15.6 inch Intel Core i7-7700HQ 2.8GHz/ 32GB DDR4/ 1TB HDD + 512GB PCI-E SSD/ GTX 1060/ USB3.0/ Windows 10 Pro Ultrabook (Aluminum Black)
p19
sb.