ccopy_reg
_reconstructor
p0
(c__main__
ProductRecord
p1
c__builtin__
object
p2
Ntp3
Rp4
(dp5
S'product_url'
p6
S'http://www.walmart.com/ip/Newest-HP-OMEN-17-17-3-UHD-4K-VR-Ready-Gaming-Business-Laptop-Intel-i7-2TB-HDD-512GB-SSD-17-3-inch-UHD-3840-x-2160-32GB-RAM-GeForce-GTX-1070-Win-10-P/119744023'
p7
sS'price'
p8
V$2,671.45
p9
sS'properties'
p10
(dp11
VRAM Memory
p12
V32 GB
p13
sVOperating System
p14
VMicrosoft Windows
p15
sVLaptop Computer Type
p16
VPC Laptops
p17
sVBrand
p18
VHP
p19
sVHard Drive Capacity
p20
V2000
p21
sVScreen Size
p22
V17.3
p23
sVManufacturer
p24
VHP
p25
ssS'title'
p26
VNewest HP OMEN 17 17.3'' UHD 4K VR Ready Gaming and Business Laptop (Intel i7, 2TB HDD + 512GB SSD, 17.3 inch UHD 3840 x 2160, 32GB RAM, GeForce GTX 1070, Win 10 Pro)
p27
sb.