ccopy_reg
_reconstructor
p0
(c__main__
ProductRecord
p1
c__builtin__
object
p2
Ntp3
Rp4
(dp5
S'product_url'
p6
S'http://www.walmart.com/ip/MSI-GS73VR-STEALTH-PRO-4K-223-17-3-inch-Intel-Core-i7-7700HQ-2-8GHz-16GB-DDR4-2TB-HDD-512GB-PCI-E-SSD-GTX-1060-USB3-0-Windows-10-Ultrabook-Aluminum-B/357707949'
p7
sS'price'
p8
V$2,912.33
p9
sS'properties'
p10
(dp11
VBrand
p12
VMSI
p13
sVHard Drive Capacity
p14
V2000
p15
sVCondition
p16
VNew
p17
ssS'title'
p18
VMSI GS73VR STEALTH PRO 4K-223 17.3 inch Intel Core i7-7700HQ 2.8GHz/ 16GB DDR4/ 2TB HDD + 512GB PCI-E SSD/ GTX 1060/ USB3.0/ Windows 10 Ultrabook (Aluminum Black)
p19
sb.