ccopy_reg
_reconstructor
p0
(c__main__
ProductRecord
p1
c__builtin__
object
p2
Ntp3
Rp4
(dp5
S'product_url'
p6
S'http://www.walmart.com/ip/MSI-Black-17-3-GT70-0ND-492US-Laptop-PC-with-Intel-Core-i7-3630QM-Processor-and-Windows-8/21978036'
p7
sS'price'
p8
S'N/A'
p9
sS'properties'
p10
(dp11
VRAM Memory
p12
V16 GB
p13
sVOperating System
p14
VMicrosoft Windows
p15
sVVideo Game Platform
p16
VPC
p17
sVBrand
p18
VMSI
p19
sVProcessor Speed
p20
V2.40 GHz, with a Max Turbo Speed of 3.40 GHz
p21
sVManufacturer Part Number
p22
VGT70 0ND-492US
p23
sVMaximum RAM Supported
p24
V32 GB
p25
sVHard Drive Capacity
p26
V750 GB, 128 GB
p27
sVAssembled Product Dimensions (L x W x H)
p28
V16.85 x 11.34 x 2.17 Inches
p29
sVModel
p30
VGT70 0ND-492US
p31
sVScreen Size
p32
V17.3"
p33
sVProcessor Type
p34
VIntel Core i7-3630QM Processor
p35
ssS'title'
p36
VMSI Black 17.3" GT70 0ND-492US Laptop PC with Intel Core i7-3630QM Processor and Windows 8
p37
sb.