ccopy_reg
_reconstructor
p0
(c__main__
ProductRecord
p1
c__builtin__
object
p2
Ntp3
Rp4
(dp5
S'product_url'
p6
S'http://www.walmart.com/ip/Samsung-11-6-Chromebook-3-4GB-Memory-16GB-SSD/796891786'
p7
sS'price'
p8
S'N/A'
p9
sS'properties'
p10
(dp11
VRAM Memory
p12
V4 Gigabytes
p13
sVOperating System
p14
VChrome OS
p15
sVVideo Game Platform
p16
VPC
p17
sVBrand
p18
VSamsung
p19
sVProcessor Speed
p20
V1.6 Gigahertz
p21
sVManufacturer Part Number
p22
VXE500C13-K04US
p23
sVHard Drive Capacity
p24
V16 Gigabytes
p25
sVAssembled Product Dimensions (L x W x H)
p26
V2.36 x 14.70 x 12.99 Inches
p27
sVModel
p28
VXE500C13-K04US
p29
sVScreen Size
p30
V11.60 Inches
p31
sVProcessor Type
p32
VIntel N3060
p33
sVCondition
p34
VNew
p35
ssS'title'
p36
VSamsung 11.6" Chromebook 3, 4GB Memory, 16GB SSD
p37
sb.