ccopy_reg
_reconstructor
p0
(c__main__
ProductRecord
p1
c__builtin__
object
p2
Ntp3
Rp4
(dp5
S'product_url'
p6
S'http://www.walmart.com/ip/Acer-Denim-White-11-6-CB3-131-C3SZ-Chromebook-11-PC-with-Intel-Celeron-N2840-Dual-Core-Processor-2GB-Memory-16GB-Flash-Storage-and-Google-Chrome/49680746'
p7
sS'price'
p8
V$183.99
p9
sS'properties'
p10
(dp11
VRAM Memory
p12
V2 KB
p13
sVOperating System
p14
VChrome
p15
sVFeatures
p16
V2 GB DDR3L SDRAM, Intel Celeron N2840 2.16 GHz, Patterned Aluminum Cover, Google Chrome, Up to 9-hour battery life, 16 GB Internal Storage, 11.6-Inch HD IPS Screen, Intel HD Graphics
p17
sVVideo Game Platform
p18
VUnknown
p19
sVBrand
p20
VAcer
p21
sVProcessor Speed
p22
V2.16 Hz
p23
sVManufacturer Part Number
p24
VNX.G85AA.001
p25
sVHard Drive Capacity
p26
V16 KB
p27
sVBattery Life
p28
V9 h
p29
sVAssembled Product Dimensions (L x W x H)
p30
V11.57 x 8.03 x 0.73 Inches
p31
sVModel
p32
VCB3-131-C3SZ
p33
sVScreen Size
p34
V11.6 in
p35
sVProcessor Type
p36
VIntel Celeron
p37
sVCondition
p38
VNew
p39
ssS'title'
p40
VAcer Denim White 11.6" CB3-131-C3SZ Chromebook 11 PC with Intel Celeron N2840 Dual-Core Processor, 2GB Memory, 16GB Flash Storage and Google Chrome
p41
sb.