ccopy_reg
_reconstructor
p0
(c__main__
ProductRecord
p1
c__builtin__
object
p2
Ntp3
Rp4
(dp5
S'product_url'
p6
S'http://www.walmart.com/ip/Samsung-Chromebook-Pro-510C24I-12-3-Core-m3-6Y30-4-GB-RAM-32-GB-SSD/573276085'
p7
sS'price'
p8
S'N/A'
p9
sS'properties'
p10
(dp11
VRAM Memory
p12
V4 KB
p13
sVOperating System
p14
VChrome OS
p15
sVColor Category
p16
VMulticolor
p17
sVLaptop Computer Type
p18
VChromebooks
p19
sVBrand
p20
VSamsung
p21
sVHard Drive Capacity
p22
V32 KB
p23
sVProcessor Core Type
p24
VDual-core (2 Core)
p25
sVProcessor Type
p26
VIntel m3-6Y30
p27
sVmanufacturer_part_number
p28
V510c24i
p29
sVScreen Size
p30
V12.3 in
p31
sVModel
p32
VXE510C24-K01US
p33
sVCondition
p34
VNew
p35
sVManufacturer
p36
VSamsung
p37
ssS'title'
p38
VSamsung Chromebook Pro 510C24I - 12.3" - Core m3 6Y30 - 4 GB RAM - 32 GB SSD
p39
sb.