ccopy_reg
_reconstructor
p0
(c__main__
ProductRecord
p1
c__builtin__
object
p2
Ntp3
Rp4
(dp5
S'product_url'
p6
S'http://www.walmart.com/ip/Dell-Chromebook-11-3180/512383295'
p7
sS'price'
p8
V$202.55
p9
sS'properties'
p10
(dp11
VRAM Memory
p12
V4.00 GB
p13
sVOperating System
p14
VChrome
p15
sVFeatures
p16
V1.6G 4GB 16GB 11.6IN NONTOUCH 1YR M
p17
sVVideo Game Platform
p18
VPC
p19
sVBrand
p20
VDell
p21
sVProcessor Speed
p22
V1.60 GHz
p23
sVManufacturer Part Number
p24
V83C80
p25
sVHard Drive Capacity
p26
V16.00 GB
p27
sVBattery Life
p28
V10 Hours
p29
sVAssembled Product Dimensions (L x W x H)
p30
V17.00 x 2.30 x 11.00 Inches
p31
sVModel
p32
V83C80
p33
sVScreen Size
p34
V11.60 in
p35
sVProcessor Type
p36
VIntel Celeron
p37
sVCondition
p38
VNew
p39
ssS'title'
p40
VDell Chromebook 11 3180
p41
sb.