ccopy_reg
_reconstructor
p0
(c__main__
ProductRecord
p1
c__builtin__
object
p2
Ntp3
Rp4
(dp5
S'product_url'
p6
S'http://www.walmart.com/ip/HP-14-ak040wm-14-Chromebook-Chrome-Full-HD-IPS-Display-Intel-Celeron-N2940-Processor-4GB-RAM-16GB-eMMC-Drive/885628763'
p7
sS'price'
p8
V$279.00
p9
sS'properties'
p10
(dp11
VRAM Memory
p12
V4 KB
p13
sVOperating System
p14
VChrome
p15
sVFeatures
p16
VEPEAT
p17
sVBrand
p18
VHP
p19
sVProcessor Speed
p20
V1.83 Hz
p21
sVHard Drive Capacity
p22
V16 KB
p23
sVBattery Life
p24
V8 hours
p25
sVAssembled Product Dimensions (L x W x H)
p26
V13.54 x 9.45 x 0.70 Inches
p27
sVModel
p28
V14-ak040wm
p29
sVScreen Size
p30
V14.0"
p31
sVProcessor Type
p32
VIntel Celeron
p33
sVmanufacturer_part_number
p34
V14-ak040wm
p35
ssS'title'
p36
VHP 14-ak040wm 14" Chromebook, Chrome, Full HD IPS Display, Intel Celeron N2940 Processor, 4GB RAM, 16GB eMMC Drive
p37
sb.