ccopy_reg
_reconstructor
p0
(c__main__
ProductRecord
p1
c__builtin__
object
p2
Ntp3
Rp4
(dp5
S'product_url'
p6
S'http://www.walmart.com/ip/HP-Chromebook-14-G1-14-Notebook-Celeron-Dual-Core-1-4GHz-4GB-SDRAM-16GB-SSD-Snow-White-Grade-C-Certified-Refurbished/33120737'
p7
sS'price'
p8
V$189.00
p9
sS'properties'
p10
(dp11
VRAM Memory
p12
V2 GB
p13
sVOperating System
p14
VChrome OS
p15
sVFeatures
p16
VSecurity Lock Slot (cable lock sold separately)
p17
sVVideo Game Platform
p18
VPC
p19
sVBrand
p20
VONLINE
p21
sVProcessor Speed
p22
V1.40 GHz
p23
sVManufacturer Part Number
p24
VW-HP-CMBK-14-C
p25
sVAssembled Product Dimensions (L x W x H)
p26
V13.56 x 13.70 x 0.81 Inches
p27
sVModel
p28
V14-q000
p29
sVScreen Size
p30
V14"
p31
sVProcessor Type
p32
VIntel Celeron
p33
sVCondition
p34
VNew
p35
ssS'title'
p36
VHP Chromebook 14 G1 14" Notebook Celeron Dual Core 1.4GHz 4GB SDRAM 16GB SSD - Snow White ( Grade C - Certified Refurbished)
p37
sb.