ccopy_reg
_reconstructor
p0
(c__main__
ProductRecord
p1
c__builtin__
object
p2
Ntp3
Rp4
(dp5
S'product_url'
p6
S'http://www.walmart.com/ip/Acer-Chromebook-14-CB3-431-C6ZB-14-Celeron-N3160-4-GB-RAM-32-GB-SSD-US/55303451'
p7
sS'price'
p8
V$279.00
p9
sS'properties'
p10
(dp11
VRAM Memory
p12
V4 KB
p13
sVOperating System
p14
VChrome
p15
sVFeatures
p16
V32GB 14IN 11AC CHROME OS
p17
sVVideo Game Platform
p18
VPC
p19
sVBrand
p20
VAcer
p21
sVProcessor Speed
p22
V1.6 Hz
p23
sVManufacturer Part Number
p24
VNX.GJEAA.002
p25
sVHard Drive Capacity
p26
V32 KB
p27
sVModel
p28
VNX.GJEAA.002
p29
sVScreen Size
p30
V14 in
p31
sVProcessor Type
p32
VIntel Celeron
p33
sVCondition
p34
VNew
p35
ssS'title'
p36
VAcer Chromebook 14 CB3-431-C6ZB - 14" - Celeron N3160 - 4 GB RAM - 32 GB SSD - US
p37
sb.