ccopy_reg
_reconstructor
p0
(c__main__
ProductRecord
p1
c__builtin__
object
p2
Ntp3
Rp4
(dp5
S'product_url'
p6
S'http://www.walmart.com/ip/Manufacturer-Refurbished-HP-14-AK040NR-14-Chromebook-Intel-Celeron-N2840-2-16GHz-4GB-16GB-Chrome-OS/790327112'
p7
sS'price'
p8
V$169.99
p9
sS'properties'
p10
(dp11
VRAM Memory
p12
V4 Gigabytes
p13
sVOperating System
p14
VChrome OS
p15
sVColor Category
p16
VWhite
p17
sVLaptop Computer Type
p18
VChromebooks
p19
sVBrand
p20
VHP
p21
sVManufacturer Part Number
p22
V14-ak040nr-RF
p23
sVWireless Technology
p24
VWLAN 802.11ac
p25
sVHard Drive Capacity
p26
V16 Gigabytes
p27
sVProcessor Type
p28
VIntel Celeron
p29
sVScreen Size
p30
V14 Inches
p31
sVModel
p32
V14-ak040nr-RF
p33
sVManufacturer
p34
VHP
p35
ssS'title'
p36
VManufacturer Refurbished - HP 14-AK040NR 14" Chromebook Intel Celeron N2840 2.16GHz 4GB 16GB Chrome OS
p37
sb.