ccopy_reg
_reconstructor
p0
(c__main__
ProductRecord
p1
c__builtin__
object
p2
Ntp3
Rp4
(dp5
S'product_url'
p6
S'http://www.walmart.com/ip/Google-Chromebook-Pixel-64GB-WiFi-LTE-Laptop-Certified-Refurbished/388117773'
p7
sS'price'
p8
V$399.99
p9
sS'properties'
p10
(dp11
VBrand
p12
VGoogle
p13
sVOperating System
p14
VChrome OS
p15
ssS'title'
p16
VGoogle Chromebook Pixel 64GB WiFi + LTE Laptop (Certified Refurbished)
p17
sb.