ccopy_reg
_reconstructor
p0
(c__main__
ProductRecord
p1
c__builtin__
object
p2
Ntp3
Rp4
(dp5
S'product_url'
p6
S'http://www.walmart.com/ip/Manufacturer-Refurbished-Acer-CB3-532-C47C-15-6-Chromebook-Chrome-OS-Intel-Celeron-N3060-Processor-2GB-RAM-16GB-Flash-Drive/55429976'
p7
sS'price'
p8
V$145.99
p9
sS'properties'
p10
(dp11
VRAM Memory
p12
V2 KB
p13
sVOperating System
p14
VChrome
p15
sVColor Category
p16
VBlack
p17
sVLaptop Computer Type
p18
VChromebooks
p19
sVBrand
p20
VAcer
p21
sVManufacturer Part Number
p22
VNX.GHJAA.002
p23
sVHard Drive Capacity
p24
V16 KB
p25
sVProcessor Type
p26
VIntel Celeron
p27
sVScreen Size
p28
V15.6"
p29
sVModel
p30
VCB3-532-C47C
p31
sVManufacturer
p32
VAcer
p33
ssS'title'
p34
VManufacturer Refurbished Acer CB3-532-C47C 15.6" Chromebook, Chrome OS, Intel Celeron N3060 Processor, 2GB RAM, 16GB Flash Drive
p35
sb.