ccopy_reg
_reconstructor
p0
(c__main__
ProductRecord
p1
c__builtin__
object
p2
Ntp3
Rp4
(dp5
S'product_url'
p6
S'http://www.walmart.com/ip/C201PA-DS02-11-6IN-1-8G-4GB-16GB-NO-TOUCH-CHROME-OS-NAVY-BLUE/44932130'
p7
sS'price'
p8
V$249.97
p9
sS'properties'
p10
(dp11
VRAM Memory
p12
V4 GB
p13
sVOperating System
p14
VChrome OS
p15
sVVideo Game Platform
p16
VPC
p17
sVBrand
p18
VASUS
p19
sVProcessor Speed
p20
V1.80 GHz
p21
sVManufacturer Part Number
p22
VC201PA-DS02
p23
sVHard Drive Capacity
p24
V16 Gigabytes
p25
sVBattery Life
p26
V10 hours
p27
sVAssembled Product Dimensions (L x W x H)
p28
V11.30 x 7.60 x 0.70 Inches
p29
sVModel
p30
VASUS C201PA-DS02
p31
sVScreen Size
p32
V11.6 in
p33
sVProcessor Type
p34
VARM Rockchip Cortex A17-RK3288 Quad-Core Processor
p35
sVCondition
p36
VNew
p37
ssS'title'
p38
VC201PA-DS02 11.6IN 1.8G 4GB 16GB NO TOUCH CHROME OS NAVY BLUE
p39
sb.