ccopy_reg
_reconstructor
p0
(c__main__
ProductRecord
p1
c__builtin__
object
p2
Ntp3
Rp4
(dp5
S'product_url'
p6
S'http://www.walmart.com/ip/HP-Chromebook-11-G4-Education-Edition-11-6-Celeron-N2840-4-GB-RAM-16-GB-SSD/176293710'
p7
sS'price'
p8
V$222.22
p9
sS'properties'
p10
(dp11
VRAM Memory
p12
V4 KB
p13
sVOperating System
p14
VChrome
p15
sVColor Category
p16
VBlack
p17
sVVideo Game Platform
p18
VPC
p19
sVBrand
p20
VHP
p21
sVManufacturer Part Number
p22
VV2W30UT#ABA
p23
sVWireless Technology
p24
VIEEE 802.11g
p25
sVHard Drive Capacity
p26
V16 KB
p27
sVLaptop Computer Type
p28
VChromebooks
p29
sVProcessor Core Type
p30
VDual-core (2 Core)
p31
sVProcessor Type
p32
VIntel Celeron
p33
sVScreen Size
p34
V11.6"
p35
sVModel
p36
V11 G4
p37
sVCondition
p38
VNew
p39
sVManufacturer
p40
VHP
p41
ssS'title'
p42
VHP Chromebook 11 G4 - Education Edition - 11.6" - Celeron N2840 - 4 GB RAM - 16 GB SSD
p43
sb.