ccopy_reg
_reconstructor
p0
(c__main__
ProductRecord
p1
c__builtin__
object
p2
Ntp3
Rp4
(dp5
S'product_url'
p6
S'http://www.walmart.com/ip/Refurbished-Acer-CB3-431-C5FM-14-Chromebook-Chrome-Intel-Celeron-N3160-Processor-4GB-RAM-32GB-Solid-State-Drive/54947634'
p7
sS'price'
p8
V$195.29
p9
sS'properties'
p10
(dp11
VRAM Memory
p12
V4 GB
p13
sVOperating System
p14
VChrome
p15
sVVideo Game Platform
p16
VPC
p17
sVBrand
p18
VAcer
p19
sVProcessor Speed
p20
V1.60 GHz
p21
sVManufacturer Part Number
p22
VNX.GC2AA.007
p23
sVMaximum RAM Supported
p24
V8 GB
p25
sVHard Drive Capacity
p26
V32 GB
p27
sVBattery Life
p28
V8 hours
p29
sVAssembled Product Dimensions (L x W x H)
p30
V19.00 x 14.00 x 3.00 Inches
p31
sVModel
p32
VCB3-431-C5FM-US
p33
sVScreen Size
p34
V14.0"
p35
sVProcessor Type
p36
VIntel Celeron
p37
ssS'title'
p38
VRefurbished Acer CB3-431-C5FM 14" Chromebook, Chrome, Intel Celeron N3160 Processor, 4GB RAM, 32GB Solid State Drive
p39
sb.