ccopy_reg
_reconstructor
p0
(c__main__
ProductRecord
p1
c__builtin__
object
p2
Ntp3
Rp4
(dp5
S'product_url'
p6
S'http://www.walmart.com/ip/Acer-Chromebook-C910-54M1-15-6-Core-i5-5200U-4-GB-RAM-32-GB-SSD-US/44508345'
p7
sS'price'
p8
V$479.00
p9
sS'properties'
p10
(dp11
VRAM Memory
p12
V4 GB
p13
sVOperating System
p14
VChrome 64-bit
p15
sVBrand
p16
VAcer
p17
sVProcessor Speed
p18
V2.20 GHz
p19
sVManufacturer Part Number
p20
VNX.EF3AA.011
p21
sVHard Drive Capacity
p22
V32 GB
p23
sVBattery Life
p24
V0 h
p25
sVAssembled Product Dimensions (L x W x H)
p26
V19.50 x 2.90 x 12.00 Inches
p27
sVModel
p28
VNX.EF3AA.011
p29
sVScreen Size
p30
V15.6"
p31
sVProcessor Type
p32
VIntel Core i5
p33
sVCondition
p34
VNew
p35
ssS'title'
p36
VAcer Chromebook C910-54M1 - 15.6" - Core i5 5200U - 4 GB RAM - 32 GB SSD - US
p37
sb.