ccopy_reg
_reconstructor
p0
(c__main__
ProductRecord
p1
c__builtin__
object
p2
Ntp3
Rp4
(dp5
S'product_url'
p6
S'http://www.walmart.com/ip/HP-14-Chromebook-Intel-Celeron-4GB-Memory-16GB-eMMC-Flash-Memory-Silver/974262939'
p7
sS'price'
p8
V$189.99
p9
sS'properties'
p10
(dp11
VRAM Memory
p12
V4 GB
p13
sVOperating System
p14
VChrome OS
p15
sVLaptop Computer Type
p16
VChromebooks
p17
sVBrand
p18
VHP
p19
sVManufacturer Part Number
p20
V1KD89UA#ABA
p21
sVHard Drive Capacity
p22
V16
p23
sVModel
p24
V14-ak041dx
p25
sVScreen Size
p26
V14
p27
sVManufacturer
p28
VHP INC.
p29
ssS'title'
p30
VHP - 14" Chromebook - Intel Celeron 4GB Memory 16GB eMMC Flash Memory - Silver
p31
sb.