ccopy_reg
_reconstructor
p0
(c__main__
ProductRecord
p1
c__builtin__
object
p2
Ntp3
Rp4
(dp5
S'product_url'
p6
S'http://www.walmart.com/ip/Refurbished-Acer-C720-2103-Chromebook-11-6-Inch-Netbook-Gray/765945802'
p7
sS'price'
p8
V$129.99
p9
sS'properties'
p10
(dp11
VOperating System
p12
VChrome OS
p13
sVLaptop Computer Type
p14
VChromebooks
p15
sVBrand
p16
VAcer
p17
sVManufacturer
p18
VAcer
p19
sVScreen Size
p20
V11.6\u005c"
p21
sVCondition
p22
VRefurbished
p23
sVmanufacturer_part_number
p24
Vc720-2103
p25
ssS'title'
p26
VRefurbished Acer C720-2103 Chromebook 11.6-Inch Netbook (Gray)
p27
sb.