ccopy_reg
_reconstructor
p0
(c__main__
ProductRecord
p1
c__builtin__
object
p2
Ntp3
Rp4
(dp5
S'product_url'
p6
S'http://www.walmart.com/ip/Dell-Chromebook-13-3380-13-3-Celeron-3855U-4-GB-RAM-32-GB-SSD/748708313'
p7
sS'price'
p8
V$319.00
p9
sS'properties'
p10
(dp11
VRAM Memory
p12
V4 Gigabytes
p13
sVOperating System
p14
VChrome OS
p15
sVFeatures
p16
VCELERON C3855 4GB 32GB 1YR MI
p17
sVBrand
p18
VDell
p19
sVProcessor Speed
p20
V1.6 Gigahertz
p21
sVManufacturer Part Number
p22
VVNPVR
p23
sVHard Drive Capacity
p24
V32 Gigabytes
p25
sVBattery Life
p26
V0 h
p27
sVAssembled Product Dimensions (L x W x H)
p28
V18.40 x 11.50 x 3.00 Inches
p29
sVModel
p30
VVNPVR
p31
sVScreen Size
p32
V13.30 Inches
p33
sVProcessor Type
p34
VIntel 3855U
p35
sVCondition
p36
VNew
p37
ssS'title'
p38
VDell Chromebook 13 3380 - 13.3" - Celeron 3855U - 4 GB RAM - 32 GB SSD
p39
sb.