ccopy_reg
_reconstructor
p0
(c__main__
ProductRecord
p1
c__builtin__
object
p2
Ntp3
Rp4
(dp5
S'product_url'
p6
S'http://www.walmart.com/ip/Refurbished-Hisense-C11-11-6-Chromebook-Chrome-ARM-Cortex-A17-Quad-Core-Processor-2GB-RAM-16GB-eMMC-Drive/55206721'
p7
sS'price'
p8
V$140.27
p9
sS'properties'
p10
(dp11
VRAM Memory
p12
V2 GB
p13
sVOperating System
p14
VChrome OS
p15
sVLaptop Computer Type
p16
VChromebooks
p17
sVBrand
p18
VHisense
p19
sVManufacturer Part Number
p20
VC11
p21
sVModel
p22
VC11
p23
sVScreen Size
p24
V11.6
p25
sVManufacturer
p26
VHISENSE
p27
ssS'title'
p28
VRefurbished Hisense C11 11.6" Chromebook, Chrome, ARM Cortex-A17 Quad-Core Processor, 2GB RAM, 16GB eMMC Drive
p29
sb.