ccopy_reg
_reconstructor
p0
(c__main__
ProductRecord
p1
c__builtin__
object
p2
Ntp3
Rp4
(dp5
S'product_url'
p6
S'http://www.walmart.com/ip/Acer-Chromebook-14-CB3-431-C7VZ-14-Celeron-N3160-4-GB-RAM-32-GB-SSD-US/55303453'
p7
sS'price'
p8
V$327.01
p9
sS'properties'
p10
(dp11
VRAM Memory
p12
V4 GB
p13
sVOperating System
p14
VChrome
p15
sVFeatures
p16
VCHROMEBOOKS,CB3-431-C7VZ,14IN,1920X1080,CHROME OS,INTEL CELERON N3160,4GB LPDDR3
p17
sVBrand
p18
VAcer
p19
sVProcessor Speed
p20
V1.60 GHz, with a Max Turbo Speed of 2.24 GHz
p21
sVManufacturer Part Number
p22
VNX.GC2AA.010
p23
sVHard Drive Capacity
p24
V32 GB
p25
sVAssembled Product Dimensions (L x W x H)
p26
V17.90 x 11.50 x 2.60 Inches
p27
sVModel
p28
VNX.GC2AA.010
p29
sVScreen Size
p30
V14.0"
p31
sVProcessor Type
p32
VIntel Celeron
p33
sVCondition
p34
VNew
p35
ssS'title'
p36
VAcer Chromebook 14 CB3-431-C7VZ - 14" - Celeron N3160 - 4 GB RAM - 32 GB SSD - US
p37
sb.