ccopy_reg
_reconstructor
p0
(c__main__
ProductRecord
p1
c__builtin__
object
p2
Ntp3
Rp4
(dp5
S'product_url'
p6
S'http://www.walmart.com/ip/Lenovo-N22-11-6-Chromebook-Chrome-Intel-Celeron-N3050-Processor-4GB-Memory-16GB-eMMC-Drive/162249152'
p7
sS'price'
p8
V$309.99
p9
sS'properties'
p10
(dp11
VRAM Memory
p12
V4 GB
p13
sVOperating System
p14
VChrome
p15
sVColor Category
p16
VBlack
p17
sVVideo Game Platform
p18
VPC
p19
sVBrand
p20
VLenovo
p21
sVManufacturer Part Number
p22
V80SF0001US
p23
sVWireless Technology
p24
VIEEE 802.11n
p25
sVHard Drive Capacity
p26
V16 GB
p27
sVLaptop Computer Type
p28
VChromebooks
p29
sVProcessor Core Type
p30
VDual-core (2 Core)
p31
sVProcessor Type
p32
VIntel Celeron
p33
sVScreen Size
p34
V11.6"
p35
sVModel
p36
V80SF0001US
p37
sVCondition
p38
VNew
p39
sVManufacturer
p40
VLENOVO
p41
ssS'title'
p42
VLenovo N22 11.6" Chromebook, Chrome, Intel Celeron N3050 Processor, 4GB Memory, 16GB eMMC Drive
p43
sb.