ccopy_reg
_reconstructor
p0
(c__main__
ProductRecord
p1
c__builtin__
object
p2
Ntp3
Rp4
(dp5
S'product_url'
p6
S'http://www.walmart.com/ip/Hewlett-Packard-P0B79UT-ABA-Chromebook/46499411'
p7
sS'price'
p8
V$199.95
p9
sS'properties'
p10
(dp11
VRAM Memory
p12
V2
p13
sVOperating System
p14
VChrome OS (English)
p15
sVColor Category
p16
VBlack
p17
sVVideo Game Platform
p18
VPC
p19
sVBrand
p20
VHP
p21
sVWireless Technology
p22
VIEEE 802.11g
p23
sVLaptop Computer Type
p24
VChromebooks
p25
sVProcessor Core Type
p26
VDual-core (2 Core)
p27
sVProcessor Type
p28
VIntel Celeron
p29
sVmanufacturer_part_number
p30
VP0B79UT # ABA
p31
sVScreen Size
p32
V11.6 in
p33
sVModel
p34
VP0B79UT#ABA
p35
sVCondition
p36
VNew
p37
sVManufacturer
p38
VHewlett Packard
p39
ssS'title'
p40
VHewlett Packard P0B79UT#ABA Chromebook
p41
sb.