ccopy_reg
_reconstructor
p0
(c__main__
ProductRecord
p1
c__builtin__
object
p2
Ntp3
Rp4
(dp5
S'product_url'
p6
S'http://www.walmart.com/ip/REFURB-14-N2840-4G-16G/392318889'
p7
sS'price'
p8
V$160.73
p9
sS'properties'
p10
(dp11
VRAM Memory
p12
V4 GB
p13
sVOperating System
p14
VChrome OS
p15
sVColor Category
p16
VSilver
p17
sVLaptop Computer Type
p18
VChromebooks
p19
sVBrand
p20
VHP
p21
sVManufacturer Part Number
p22
V1KD89UA#ABA-RF-IM
p23
sVHard Drive Capacity
p24
V16
p25
sVModel
p26
V1KD89UA#ABA-RF-IM
p27
sVScreen Size
p28
V14
p29
sVManufacturer
p30
VHP Refurbished IM
p31
ssS'title'
p32
VREFURB 14 N2840 4G 16G
p33
sb.