ccopy_reg
_reconstructor
p0
(c__main__
ProductRecord
p1
c__builtin__
object
p2
Ntp3
Rp4
(dp5
S'product_url'
p6
S'http://www.walmart.com/ip/Refurbished-HP-Pavilion-x360-15-bk117cl-Notebooks/600624247'
p7
sS'price'
p8
S'N/A'
p9
sS'properties'
p10
(dp11
VRAM Memory
p12
V8 GB
p13
sVOperating System
p14
VMicrosoft Windows, Windows 10
p15
sVBrand
p16
VHP
p17
sVProcessor Speed
p18
V2.50 GHz
p19
sVManufacturer Part Number
p20
VX7U09UAR#ABA
p21
sVHard Drive Capacity
p22
V1 TB
p23
sVModel
p24
V15-bk100, HD Graphics 620, 15-bk117cl
p25
sVScreen Size
p26
V15.6"
p27
sVProcessor Type
p28
VIntel Core i5
p29
sVCondition
p30
VRefurbished
p31
ssS'title'
p32
VRefurbished "HP Pavilion x360 - 15-bk117cl Notebooks"
p33
sb.