ccopy_reg
_reconstructor
p0
(c__main__
ProductRecord
p1
c__builtin__
object
p2
Ntp3
Rp4
(dp5
S'product_url'
p6
S'http://www.walmart.com/ip/Manufacturer-Refurbished-HP-11-V010NR-11-6-Laptop-Intel-Celeron-N3060-1-6GHz-4GB-16GB-Chrome-OS/709346847'
p7
sS'price'
p8
V$164.99
p9
sS'properties'
p10
(dp11
VRAM Memory
p12
V4 Gigabytes
p13
sVOperating System
p14
VChrome OS
p15
sVColor Category
p16
VGray
p17
sVLaptop Computer Type
p18
VPC Laptops
p19
sVBrand
p20
VHP
p21
sVManufacturer Part Number
p22
V11-V010NR-RF
p23
sVHard Drive Capacity
p24
V16 Gigabytes
p25
sVProcessor Type
p26
VIntel Celeron
p27
sVScreen Size
p28
V11.6
p29
sVModel
p30
V11-V010NR-RF
p31
sVManufacturer
p32
VHP
p33
ssS'title'
p34
VManufacturer Refurbished - HP 11-V010NR 11.6" Laptop Intel Celeron N3060 1.6GHz 4GB 16GB Chrome OS
p35
sb.