ccopy_reg
_reconstructor
p0
(c__main__
ProductRecord
p1
c__builtin__
object
p2
Ntp3
Rp4
(dp5
S'product_url'
p6
S'http://www.walmart.com/ip/HP-Chromebook-14-G4-14-Celeron-N2840-4-GB-RAM-32-GB-SSD/48896261'
p7
sS'price'
p8
V$304.47
p9
sS'properties'
p10
(dp11
VRAM Memory
p12
V4 GB
p13
sVOperating System
p14
VChrome
p15
sVFeatures
p16
V2.58 GHz), 32GB eMMC, TV HD webcam, HP SmartBuy Chromebook 14 G4, Intel 802.11 a/b/g/n +BT 4.0TPM 1.2, 4GB 1600 (4 GB On Mb), No Optical, Chrome OS, 14.0 LED HD SVA AG, UMA: HD, 3-Cell 37 WHr, Celeron Processor N2840 (1M Cache, 1/1/0
p17
sVVideo Game Platform
p18
VPC
p19
sVBrand
p20
VHP
p21
sVProcessor Speed
p22
V2.16 GHz, with a Max Turbo Speed of 2.58 GHz
p23
sVManufacturer Part Number
p24
VT4M33UT#ABA
p25
sVMaximum RAM Supported
p26
V4 GB
p27
sVHard Drive Capacity
p28
V32 GB
p29
sVBattery Life
p30
V8 hours 15 minutes
p31
sVAssembled Product Dimensions (L x W x H)
p32
V18.50 x 11.60 x 3.00 Inches
p33
sVModel
p34
VT4M33UT#ABA
p35
sVScreen Size
p36
V14.0"
p37
sVProcessor Type
p38
VIntel Celeron
p39
sVCondition
p40
VNew
p41
ssS'title'
p42
VHP Chromebook 14 G4 - 14" - Celeron N2840 - 4 GB RAM - 32 GB SSD
p43
sb.