ccopy_reg
_reconstructor
p0
(c__main__
ProductRecord
p1
c__builtin__
object
p2
Ntp3
Rp4
(dp5
S'product_url'
p6
S'http://www.walmart.com/ip/Asus-Flip-C101-C101PA-DB02-10-1-Rockchip-RK3399-4GB-16GB-Flash-Memory-Chrome-OS-Convertible-Silver-Chromebook/772942952'
p7
sS'price'
p8
V$299.00
p9
sS'properties'
p10
(dp11
VRAM Memory
p12
V4.00 GB
p13
sVOperating System
p14
VChrome OS
p15
sVColor Category
p16
VSilver
p17
sVLaptop Computer Type
p18
VChromebooks
p19
sVBrand
p20
VASUS
p21
sVManufacturer Part Number
p22
V90NB0EP1-M00120
p23
sVWireless Technology
p24
VBluetooth; 802.11ac
p25
sVHard Drive Capacity
p26
V64.00 GB
p27
sVProcessor Core Type
p28
VHexa-core (6 Core)
p29
sVProcessor Type
p30
VRK3399
p31
sVScreen Size
p32
V10.10 in
p33
sVModel
p34
VC101PADB02
p35
sVCondition
p36
VNew
p37
sVManufacturer
p38
VASUS Computer International
p39
ssS'title'
p40
VAsus Flip C101 C101PA-DB02 10.1" Rockchip RK3399 4GB 16GB Flash Memory - Chrome OS Convertible - Silver Chromebook
p41
sb.