ccopy_reg
_reconstructor
p0
(c__main__
ProductRecord
p1
c__builtin__
object
p2
Ntp3
Rp4
(dp5
S'product_url'
p6
S'http://www.walmart.com/ip/HP-Chromebook-13-G1-13-3-Pentium-4405Y-4-GB-RAM-32-GB-SSD/52274107'
p7
sS'price'
p8
V$496.99
p9
sS'properties'
p10
(dp11
VRAM Memory
p12
V4 GB
p13
sVOperating System
p14
VChrome
p15
sVColor Category
p16
VMulticolor
p17
sVVideo Game Platform
p18
VPC
p19
sVBrand
p20
VHP
p21
sVManufacturer Part Number
p22
VW0S99UT#ABA
p23
sVHard Drive Capacity
p24
V32 GB
p25
sVLaptop Computer Type
p26
VChromebooks
p27
sVProcessor Core Type
p28
VDual-core (2 Core)
p29
sVProcessor Type
p30
VIntel Pentium 4405Y Dual-Core ProcessorIntel Pentium 4405Y Dual-Core Processor
p31
sVScreen Size
p32
V13.3"
p33
sVModel
p34
VW0S99UT#ABA
p35
sVCondition
p36
VNew
p37
sVManufacturer
p38
VHP
p39
ssS'title'
p40
VHP Chromebook 13 G1 - 13.3" - Pentium 4405Y - 4 GB RAM - 32 GB SSD
p41
sb.