ccopy_reg
_reconstructor
p0
(c__main__
ProductRecord
p1
c__builtin__
object
p2
Ntp3
Rp4
(dp5
S'product_url'
p6
S'http://www.walmart.com/ip/Dell-Inspiron-11-3000-11-3168-11-6-Touchscreen-2-1-Netbook-Intel-Pentium-N3710-Quad-core-4-Core-1-60-Ghz-Convertible-Blue-4-Gb-Ddr3l-Sdram-Ram-500-Gb/52507237'
p7
sS'price'
p8
S'N/A'
p9
sS'properties'
p10
(dp11
VRAM Memory
p12
V4 GB
p13
sVOperating System
p14
VMicrosoft Windows
p15
sVColor Category
p16
VBlue
p17
sVLaptop Computer Type
p18
VInspiron
p19
sVBrand
p20
VDell
p21
sVManufacturer Part Number
p22
Vi31683271BLU
p23
sVHard Drive Capacity
p24
V500 GB
p25
sVProcessor Core Type
p26
VPentium
p27
sVProcessor Type
p28
VIntel Pentium
p29
sVScreen Size
p30
V11.6"
p31
sVModel
p32
Vi31683271BLU
p33
sVCondition
p34
VNew
p35
sVManufacturer
p36
VDell Computer
p37
ssS'title'
p38
VDell Inspiron 11 3000 11-3168 11.6" Touchscreen 2 In 1 Netbook - Intel Pentium N3710 Quad-core [4 Core] 1.60 Ghz - Convertible - Blue - 4 Gb Ddr3l Sdram Ram - 500 Gb Hdd - Hd Graphics (i3168-3271blu)
p39
sb.