ccopy_reg
_reconstructor
p0
(c__main__
ProductRecord
p1
c__builtin__
object
p2
Ntp3
Rp4
(dp5
S'product_url'
p6
S'http://www.walmart.com/ip/C202SA-YS02-N3060-1-6G-4GB-16GB-11-6IN-CHROME-OS/52051887'
p7
sS'price'
p8
V$224.99
p9
sS'properties'
p10
(dp11
VRAM Memory
p12
V4 GB
p13
sVOperating System
p14
VChrome
p15
sVFeatures
p16
V16GB 11.6IN CHROME OS
p17
sVVideo Game Platform
p18
VPC
p19
sVBrand
p20
VASUS
p21
sVProcessor Speed
p22
V1.60 GHz, with a Max Turbo Speed of 2.48 GHz
p23
sVManufacturer Part Number
p24
VC202SA-YS02
p25
sVHard Drive Capacity
p26
V16 GB
p27
sVBattery Life
p28
V10 hours
p29
sVAssembled Product Dimensions (L x W x H)
p30
V11.60 x 0.90 x 7.90 Inches
p31
sVModel
p32
VC202SA-YS02
p33
sVScreen Size
p34
V11.6 in
p35
sVProcessor Type
p36
VIntel Celeron
p37
sVCondition
p38
VNew
p39
ssS'title'
p40
VC202SA-YS02 N3060 1.6G 4GB 16GB 11.6IN CHROME OS
p41
sb.