ccopy_reg
_reconstructor
p0
(c__main__
ProductRecord
p1
c__builtin__
object
p2
Ntp3
Rp4
(dp5
S'product_url'
p6
S'http://www.walmart.com/ip/N3160-INTEL-CELERON-4GB-64GB-13-3IN-NO-TOUCH-SCREEN-CHROME-OS/54808089'
p7
sS'price'
p8
V$353.67
p9
sS'properties'
p10
(dp11
VRAM Memory
p12
V4 GB
p13
sVOperating System
p14
VChrome
p15
sVColor Category
p16
VMulticolor
p17
sVVideo Game Platform
p18
VPC
p19
sVBrand
p20
VASUS
p21
sVManufacturer Part Number
p22
VC301SA-DB04
p23
sVHard Drive Capacity
p24
V64 GB
p25
sVLaptop Computer Type
p26
VChromebooks
p27
sVProcessor Core Type
p28
VQuad-core (4 Core)
p29
sVProcessor Type
p30
VIntel Celeron
p31
sVScreen Size
p32
V13.3"
p33
sVModel
p34
V90NB0BL7-M00670
p35
sVCondition
p36
VNew
p37
sVManufacturer
p38
VASUS - NOTEBOOKS
p39
ssS'title'
p40
VN3160 INTEL CELERON 4GB 64GB 13.3IN NO TOUCH SCREEN/CHROME OS
p41
sb.