ccopy_reg
_reconstructor
p0
(c__main__
ProductRecord
p1
c__builtin__
object
p2
Ntp3
Rp4
(dp5
S'product_url'
p6
S'http://www.walmart.com/ip/Acer-CB3431C5FM-NX-GC2AA-007-14-Intel-Celeron-4GB-32-GB-Chromebook/684136718'
p7
sS'price'
p8
V$309.00
p9
sS'properties'
p10
(dp11
VRAM Memory
p12
V4 GB
p13
sVOperating System
p14
VChrome OS
p15
sVColor Category
p16
VBlack
p17
sVLaptop Computer Type
p18
VChromebooks
p19
sVBrand
p20
VAcer
p21
sVManufacturer Part Number
p22
V118737
p23
sVHard Drive Capacity
p24
V32
p25
sVModel
p26
VCB3431C5FM
p27
sVScreen Size
p28
V14
p29
sVCondition
p30
VNew
p31
sVManufacturer
p32
VAcer
p33
ssS'title'
p34
VAcer CB3431C5FM NX.GC2AA.007 14" Intel Celeron, 4GB, 32 GB Chromebook
p35
sb.