ccopy_reg
_reconstructor
p0
(c__main__
ProductRecord
p1
c__builtin__
object
p2
Ntp3
Rp4
(dp5
S'product_url'
p6
S'http://www.walmart.com/ip/HP-11-v010wm-11-6-Chromebook-Chrome-Intel-Celeron-N3060-Processor-4GB-RAM-16GB-eMMC-Drive-Refurbished/442490975'
p7
sS'price'
p8
V$149.99
p9
sS'properties'
p10
(dp11
VRAM Memory
p12
V4 GB
p13
sVOperating System
p14
VChrome OS, Chrome
p15
sVBrand
p16
VHP
p17
sVProcessor Speed
p18
V1.60 Hz
p19
sVManufacturer Part Number
p20
VX7T69UA#ABA
p21
sVHard Drive Capacity
p22
V16 GB
p23
sVBattery Life
p24
V12 h
p25
sVModel
p26
V11-v010wm
p27
sVScreen Size
p28
V11.6 in
p29
sVProcessor Type
p30
VIntel Celeron
p31
ssS'title'
p32
VHP 11-v010wm 11.6" Chromebook, Chrome, Intel Celeron N3060 Processor, 4GB RAM, 16GB eMMC Drive (Refurbished)
p33
sb.