ccopy_reg
_reconstructor
p0
(c__main__
ProductRecord
p1
c__builtin__
object
p2
Ntp3
Rp4
(dp5
S'product_url'
p6
S'http://www.walmart.com/ip/Acer-Chromebook-14-for-Work-CP5-471-C0EX-14-Celeron-3855U-4-GB-RAM-16-GB-SSD-US/52467866'
p7
sS'price'
p8
V$259.99
p9
sS'properties'
p10
(dp11
VRAM Memory
p12
V4 GB
p13
sVOperating System
p14
VChrome
p15
sVFeatures
p16
V16GB 14IN BT 4.2 CHROME OS
p17
sVVideo Game Platform
p18
VPC
p19
sVBrand
p20
VAcer
p21
sVProcessor Speed
p22
V1.60 GHz
p23
sVManufacturer Part Number
p24
VNX.GDDAA.001
p25
sVHard Drive Capacity
p26
V16 GB
p27
sVAssembled Product Dimensions (L x W x H)
p28
V0.90 x 8.90 x 13.00 Inches
p29
sVModel
p30
VNX.GDDAA.001
p31
sVScreen Size
p32
V14.0"
p33
sVProcessor Type
p34
VIntel Celeron
p35
sVCondition
p36
VNew
p37
ssS'title'
p38
VAcer Chromebook 14 for Work CP5-471-C0EX - 14" - Celeron 3855U - 4 GB RAM - 16 GB SSD - US
p39
sb.