ccopy_reg
_reconstructor
p0
(c__main__
ProductRecord
p1
c__builtin__
object
p2
Ntp3
Rp4
(dp5
S'product_url'
p6
S'http://www.walmart.com/ip/Google-Pixelbook-Pen-Smart-Responsive-Stylus-GA00209/677132502'
p7
sS'price'
p8
V$99.00
p9
sS'properties'
p10
(dp11
VAssembled Product Dimensions (L x W x H)
p12
V1.02 x 2.32 x 8.07 Inches
p13
sVBrand
p14
VGoogle
p15
sVOperating System
p16
VChrome OS
p17
sVModel
p18
VGA00209
p19
sVCondition
p20
VNew
p21
sVmanufacturer_part_number
p22
Vga00209
p23
ssS'title'
p24
VGoogle Pixelbook Pen, Smart Responsive Stylus, GA00209
p25
sb.