ccopy_reg
_reconstructor
p0
(c__main__
ProductRecord
p1
c__builtin__
object
p2
Ntp3
Rp4
(dp5
S'product_url'
p6
S'http://www.walmart.com/ip/Lenovo-N22-80SF001FUS-with-Celeron-N3060-4-GB-RAM/861128546'
p7
sS'price'
p8
V$215.95
p9
sS'properties'
p10
(dp11
VBrand
p12
VLenovo
p13
sVRAM Memory
p14
V4 GB
p15
sVCondition
p16
VNew
p17
ssS'title'
p18
VLenovo N22 80SF001FUS with Celeron N3060 & 4 GB RAM
p19
sb.