ccopy_reg
_reconstructor
p0
(c__main__
ProductRecord
p1
c__builtin__
object
p2
Ntp3
Rp4
(dp5
S'product_url'
p6
S'http://www.walmart.com/ip/Lenovo-80SF001FUS-N22-Chrome-N3060-11-6-in-Chromebook/198518691'
p7
sS'price'
p8
V$219.21
p9
sS'properties'
p10
(dp11
VRAM Memory
p12
V4 Gigabytes
p13
sVOperating System
p14
VChrome OS
p15
sVColor Category
p16
VMulticolor
p17
sVVideo Game Platform
p18
VPC
p19
sVBrand
p20
VLenovo
p21
sVManufacturer Part Number
p22
V80SF001FUS
p23
sVHard Drive Capacity
p24
V16 Gigabytes
p25
sVLaptop Computer Type
p26
VChromebooks
p27
sVProcessor Core Type
p28
VDual-core (2 Core)
p29
sVProcessor Type
p30
VIntel N3060
p31
sVScreen Size
p32
V11.60 in
p33
sVModel
p34
V80SF001FUS
p35
sVManufacturer
p36
VLENOVO
p37
ssS'title'
p38
VLenovo 80SF001FUS N22,Chrome N3060 11.6 in Chromebook
p39
sb.