ccopy_reg
_reconstructor
p0
(c__main__
ProductRecord
p1
c__builtin__
object
p2
Ntp3
Rp4
(dp5
S'product_url'
p6
S'http://www.walmart.com/ip/Chromebook-11-N7-C731T-C0X8-Celeron-N3060-4GB-32GB-11-6-Chrome-OS-Multi-touch-Screen-Notebook/136101351'
p7
sS'price'
p8
V$294.97
p9
sS'properties'
p10
(dp11
VRAM Memory
p12
V4.00 GB
p13
sVOperating System
p14
VChrome OS
p15
sVBrand
p16
VAcer
p17
sVProcessor Speed
p18
V1.60 GHz
p19
sVManufacturer Part Number
p20
VNX.GM9AA.003
p21
sVMaximum RAM Supported
p22
V4.00 GB
p23
sVHard Drive Capacity
p24
V32.00 GB
p25
sVBattery Life
p26
V0 h
p27
sVAssembled Product Dimensions (L x W x H)
p28
V12.00 x 12.00 x 12.00 Inches
p29
sVModel
p30
VC731TC0X8
p31
sVScreen Size
p32
V11.60 in
p33
sVProcessor Type
p34
VIntel Celeron
p35
sVCondition
p36
VNew
p37
ssS'title'
p38
VChromebook 11 N7 C731T-C0X8 - Celeron N3060 - 4GB 32GB - 11.6" - Chrome OS - Multi-touch Screen Notebook
p39
sb.