ccopy_reg
_reconstructor
p0
(c__main__
ProductRecord
p1
c__builtin__
object
p2
Ntp3
Rp4
(dp5
S'product_url'
p6
S'http://www.walmart.com/ip/Refurbished-Acer-C720-Chromebook-11-6-Inch-2GB/155615539'
p7
sS'price'
p8
V$129.99
p9
sS'properties'
p10
(dp11
VBrand
p12
VAcer
p13
sVScreen Size
p14
V11.6
p15
sVCondition
p16
VRefurbished
p17
ssS'title'
p18
VRefurbished Acer C720 Chromebook (11.6-Inch, 2GB)
p19
sb.