ccopy_reg
_reconstructor
p0
(c__main__
ProductRecord
p1
c__builtin__
object
p2
Ntp3
Rp4
(dp5
S'product_url'
p6
S'http://www.walmart.com/ip/HP-Chromebook-11-G4-Intel-Celeron-N2840-2-16-GHz-2-GB-DDR3L-1600-SDRAM/46369263'
p7
sS'price'
p8
V$205.90
p9
sS'properties'
p10
(dp11
VRAM Memory
p12
V4, 4 Gigabytes
p13
sVOperating System
p14
VChrome OS (English), Android
p15
sVFeatures
p16
V1/1/0
p17
sVVideo Game Platform
p18
VPC
p19
sVBrand
p20
VHP
p21
sVProcessor Speed
p22
V2.16 Gigahertz, 2.16
p23
sVMaximum RAM Supported
p24
V4 Gigabytes
p25
sVHard Drive Capacity
p26
V16  GB
p27
sVBattery Life
p28
V11 Hours
p29
sVModel
p30
VP0B78UT#ABA
p31
sVScreen Size
p32
V11.6 in
p33
sVProcessor Type
p34
VIntel Celeron, Intel N2840
p35
sVCondition
p36
VNew
p37
sVmanufacturer_part_number
p38
Vp0b78ut # aba
p39
ssS'title'
p40
VHP Chromebook 11 G4 Intel Celeron N2840 2.16 GHz 2 GB DDR3L-1600 SDRAM
p41
sb.