ccopy_reg
_reconstructor
p0
(c__main__
ProductRecord
p1
c__builtin__
object
p2
Ntp3
Rp4
(dp5
S'product_url'
p6
S'http://www.walmart.com/ip/Asus-13-3-Laptop-w-Intel-Celeron-N3060-4GB-RAM-16GB-eMMC-Red/980730684'
p7
sS'price'
p8
V$241.78
p9
sS'properties'
p10
(dp11
VRAM Memory
p12
V4 Gigabytes
p13
sVOperating System
p14
VChrome OS
p15
sVColor Category
p16
VRed
p17
sVLaptop Computer Type
p18
VTouchscreen
p19
sVBrand
p20
VASUS
p21
sVManufacturer Part Number
p22
V90NB0BL3-M01210
p23
sVHard Drive Capacity
p24
V16 Gigabytes
p25
sVProcessor Core Type
p26
VDual-core (2 Core)
p27
sVProcessor Type
p28
VIntel N3060
p29
sVScreen Size
p30
V13.30 Inches
p31
sVModel
p32
V90NB0BL3-M01210
p33
sVCondition
p34
VRefurbished
p35
sVManufacturer
p36
VAsus
p37
ssS'title'
p38
VAsus 13.3" Laptop w/ Intel Celeron N3060, 4GB RAM & 16GB eMMC - Red
p39
sb.