ccopy_reg
_reconstructor
p0
(c__main__
ProductRecord
p1
c__builtin__
object
p2
Ntp3
Rp4
(dp5
S'product_url'
p6
S'http://www.walmart.com/ip/iView-MEGATRON-II-14-1-Convertible-Touchscreen-Laptop-2-1-Windows-10-Intel-Atom-Processor-2GB-memory-32GB-storage-2MP-Front-Camera-5MP-Rear-Camera-10/56123852'
p7
sS'price'
p8
S'N/A'
p9
sS'properties'
p10
(dp11
VOperating System
p12
VMicrosoft Windows
p13
sVColor Category
p14
VBlack
p15
sVLaptop Computer Type
p16
VTouchscreen
p17
sVBrand
p18
VIVIEW
p19
sVManufacturer Part Number
p20
VIVMEG2-BK
p21
sVModel
p22
VIVMEG2-BK
p23
sVScreen Size
p24
V14.1
p25
sVManufacturer
p26
VIview
p27
ssS'title'
p28
ViView MEGATRON II - 14.1" Convertible Touchscreen Laptop (2 in 1) with Windows 10, Intel Atom Processor, 2GB memory, 32GB storage, 2MP Front Camera and 5MP Rear Camera, 10 hour battery - Black
p29
sb.