ccopy_reg
_reconstructor
p0
(c__main__
ProductRecord
p1
c__builtin__
object
p2
Ntp3
Rp4
(dp5
S'product_url'
p6
S'http://www.walmart.com/ip/Refurbished-HP-CHROMEBOOK-14-SMB-CELERON-2955U-1-4-GHZ-4GB-SSD-16GB-14-0W-BLUETOOTH-CHROME-OS-WEBCAM/716549122'
p7
sS'price'
p8
V$113.00
p9
sS'properties'
p10
(dp11
VRAM Memory
p12
V4 GB
p13
sVOperating System
p14
VChrome OS
p15
sVBrand
p16
VHP
p17
sVProcessor Speed
p18
V1.4 GHz
p19
sVHard Drive Capacity
p20
V16 GB
p21
sVModel
p22
V14 SMB
p23
sVScreen Size
p24
V14 in
p25
sVProcessor Type
p26
VIntel Celeron
p27
ssS'title'
p28
VRefurbished HP CHROMEBOOK 14 SMB, CELERON 2955U, 1.4 GHZ, 4GB, SSD 16GB, 14.0W, BLUETOOTH, CHROME OS, WEBCAM
p29
sb.