ccopy_reg
_reconstructor
p0
(c__main__
ProductRecord
p1
c__builtin__
object
p2
Ntp3
Rp4
(dp5
S'product_url'
p6
S'http://www.walmart.com/ip/Dell-Chromebook-3120-11-6-Celeron-N2840-4-GB-RAM-16-GB-SSD-English/44363066'
p7
sS'price'
p8
V$224.00
p9
sS'properties'
p10
(dp11
VRAM Memory
p12
V4 Gigabytes
p13
sVOperating System
p14
VChrome OS
p15
sVVideo Game Platform
p16
VPC
p17
sVBrand
p18
VDell
p19
sVProcessor Speed
p20
V2.16 Gigahertz
p21
sVManufacturer Part Number
p22
VXDGJH
p23
sVMaximum RAM Supported
p24
V4 Gigabytes
p25
sVHard Drive Capacity
p26
V16 Gigabytes
p27
sVBattery Life
p28
V10
p29
sVAssembled Product Dimensions (L x W x H)
p30
V5.00 x 5.00 x 5.00 Inches
p31
sVModel
p32
VXDGJH
p33
sVScreen Size
p34
V11.6 Inches
p35
sVProcessor Type
p36
VIntel Celeron
p37
sVCondition
p38
VRefurbished
p39
ssS'title'
p40
VDell Chromebook 3120 - 11.6" - Celeron N2840 - 4 GB RAM - 16 GB SSD - English
p41
sb.