ccopy_reg
_reconstructor
p0
(c__main__
ProductRecord
p1
c__builtin__
object
p2
Ntp3
Rp4
(dp5
S'product_url'
p6
S'http://www.walmart.com/ip/Refurbished-Acer-Chromebook-15-Intel-Celeron-1-6-GHz-4-GB-Ram-32GB-Flash-Chrome-OS/450946546'
p7
sS'price'
p8
V$216.29
p9
sS'properties'
p10
(dp11
VRAM Memory
p12
V4 GB
p13
sVOperating System
p14
VChrome OS
p15
sVBrand
p16
VAcer
p17
sVManufacturer Part Number
p18
VNX.GHJAA.008
p19
sVModel
p20
VCB3-532-C4ZZ
p21
sVScreen Size
p22
V15.6 in
p23
sVProcessor Speed
p24
V1.6 GHz
p25
sVCondition
p26
VRefurbished
p27
ssS'title'
p28
VRefurbished Acer Chromebook 15 Intel  Celeron 1.6 GHz 4 GB Ram 32GB Flash Chrome OS
p29
sb.