ccopy_reg
_reconstructor
p0
(c__main__
ProductRecord
p1
c__builtin__
object
p2
Ntp3
Rp4
(dp5
S'product_url'
p6
S'http://www.walmart.com/ip/Chromebook-11-3180-N3060-4-GB-16-GB-11-6-Chrome-OS-Touchscreen-Notebook/763218285'
p7
sS'price'
p8
V$289.00
p9
sS'properties'
p10
(dp11
VRAM Memory
p12
V4.00 GB
p13
sVOperating System
p14
VChrome OS
p15
sVBrand
p16
VDell
p17
sVProcessor Speed
p18
V1.60 GHz
p19
sVManufacturer Part Number
p20
VD1J7Y
p21
sVMaximum RAM Supported
p22
V32.00 GB
p23
sVHard Drive Capacity
p24
V16.00 GB
p25
sVBattery Life
p26
V10 Hour
p27
sVAssembled Product Dimensions (L x W x H)
p28
V17.00 x 11.00 x 3.00 Inches
p29
sVModel
p30
VCRM3180D1J7Y
p31
sVScreen Size
p32
V11.60 in
p33
sVProcessor Type
p34
VIntel Celeron
p35
sVCondition
p36
VNew
p37
ssS'title'
p38
VChromebook 11 3180 N3060 4 GB 16 GB 11.6" Chrome OS Touchscreen Notebook
p39
sb.