ccopy_reg
_reconstructor
p0
(c__main__
ProductRecord
p1
c__builtin__
object
p2
Ntp3
Rp4
(dp5
S'product_url'
p6
S'http://www.walmart.com/ip/Acer-Chromebook-11-N7-C731-C8VE-11-6-Celeron-N3060-4-GB-RAM-16-GB-SSD-US/497563109'
p7
sS'price'
p8
V$267.11
p9
sS'properties'
p10
(dp11
VRAM Memory
p12
V4 Gigabytes
p13
sVOperating System
p14
VChrome OS
p15
sVBrand
p16
VAcer
p17
sVProcessor Speed
p18
V1.6 Gigahertz
p19
sVManufacturer Part Number
p20
VNX.GM8AA.001
p21
sVHard Drive Capacity
p22
V16 Gigabytes
p23
sVAssembled Product Dimensions (L x W x H)
p24
V5.00 x 5.00 x 5.00 Inches
p25
sVModel
p26
VNX.GM8AA.001
p27
sVScreen Size
p28
V11.60 Inches
p29
sVProcessor Type
p30
VIntel N3060
p31
sVCondition
p32
VNew
p33
ssS'title'
p34
VAcer Chromebook 11 N7 C731-C8VE - 11.6" - Celeron N3060 - 4 GB RAM - 16 GB SSD - US
p35
sb.