ccopy_reg
_reconstructor
p0
(c__main__
ProductRecord
p1
c__builtin__
object
p2
Ntp3
Rp4
(dp5
S'product_url'
p6
S'http://www.walmart.com/ip/Lenovo-ThinkPad-11e-Chromebook-11-6-Celeron-N3450-4-GB-RAM-32-GB-SSD/467636419'
p7
sS'price'
p8
V$432.40
p9
sS'properties'
p10
(dp11
VRAM Memory
p12
V4 Gigabytes
p13
sVOperating System
p14
VChrome OS
p15
sVFeatures
p16
V1.10G 4GB 32GB 11.6IN GOOGLE CHROME
p17
sVBrand
p18
VLenovo
p19
sVProcessor Speed
p20
V1.1 Gigahertz
p21
sVManufacturer Part Number
p22
V20J00000US
p23
sVHard Drive Capacity
p24
V32 Gigabytes
p25
sVBattery Life
p26
V0 h
p27
sVAssembled Product Dimensions (L x W x H)
p28
V13.00 x 10.20 x 4.70 Inches
p29
sVModel
p30
V20J00000US
p31
sVScreen Size
p32
V11.60 Inches
p33
sVProcessor Type
p34
VIntel N3450
p35
sVCondition
p36
VNew
p37
ssS'title'
p38
VLenovo ThinkPad 11e Chromebook - 11.6" - Celeron N3450 - 4 GB RAM - 32 GB SSD
p39
sb.