ccopy_reg
_reconstructor
p0
(c__main__
ProductRecord
p1
c__builtin__
object
p2
Ntp3
Rp4
(dp5
S'product_url'
p6
S'http://www.walmart.com/ip/Refurbished-Acer-Chromebook-15-6-1-5-GHz-Dual-Core-2GB-Ram-16-GB-Flash-Drive-CB5-571-C9DH/235071743'
p7
sS'price'
p8
V$173.24
p9
sS'properties'
p10
(dp11
VRAM Memory
p12
V2 GB
p13
sVOperating System
p14
VChrome OS
p15
sVBrand
p16
VAcer
p17
sVProcessor Speed
p18
V1.50 GHz
p19
sVManufacturer Part Number
p20
VNX.MUNAA.013
p21
sVHard Drive Capacity
p22
V16 GB
p23
sVAssembled Product Dimensions (L x W x H)
p24
V10.10 x 15.10 x 1.00 Inches
p25
sVModel
p26
VCB5-571-C9DH
p27
sVScreen Size
p28
V15.6 in
p29
sVProcessor Type
p30
VIntel Celeron
p31
ssS'title'
p32
VRefurbished Acer Chromebook 15.6" 1.5 GHz Dual-Core 2GB Ram 16 GB Flash Drive |CB5-571-C9DH
p33
sb.