ccopy_reg
_reconstructor
p0
(c__main__
ProductRecord
p1
c__builtin__
object
p2
Ntp3
Rp4
(dp5
S'product_url'
p6
S'http://www.walmart.com/ip/HP-EliteBook-850-G4-15-6-Core-i7-7600U-16-GB-RAM-256-GB-SSD/854555487'
p7
sS'price'
p8
V$1,620.11
p9
sS'properties'
p10
(dp11
VRAM Memory
p12
V16 Gigabytes
p13
sVOperating System
p14
VWindows 10 Pro (English)
p15
sVFeatures
p16
VI7-7600U 2.8G 16GB 256GB SSD 15.6IN
p17
sVBrand
p18
VHP
p19
sVProcessor Speed
p20
V2.8 Gigahertz
p21
sVManufacturer Part Number
p22
V1BS54UT#ABA
p23
sVHard Drive Capacity
p24
V256 Gigabytes
p25
sVBattery Life
p26
V14 Hours
p27
sVAssembled Product Dimensions (L x W x H)
p28
V5.00 x 5.00 x 5.00 Inches
p29
sVModel
p30
V1BS54UT#ABA
p31
sVScreen Size
p32
V15.60 Inches
p33
sVProcessor Type
p34
VIntel i7-7600U
p35
sVCondition
p36
VNew
p37
ssS'title'
p38
VHP EliteBook 850 G4 - 15.6" - Core i7 7600U - 16 GB RAM - 256 GB SSD
p39
sb.