ccopy_reg
_reconstructor
p0
(c__main__
ProductRecord
p1
c__builtin__
object
p2
Ntp3
Rp4
(dp5
S'product_url'
p6
S'http://www.walmart.com/ip/Original-HP-45W-AC-Charger-Power-Adapter-Cord-For-HP-ENVY-x360-Convertible-15-u483cl-15-u493cl-15-u499nr-15-w010la-15-w056ca-15-w105wm-15-w110nr/822198670'
p7
sS'price'
p8
S'N/A'
p9
sS'properties'
p10
(dp11
VBrand
p12
VHP
p13
ssS'title'
p14
VOriginal HP 45W AC Charger Power Adapter Cord For HP ENVY x360 Convertible 15-u483cl 15-u493cl 15-u499nr 15-w010la 15-w056ca 15-w105wm 15-w110nr
p15
sb.