ccopy_reg
_reconstructor
p0
(c__main__
ProductRecord
p1
c__builtin__
object
p2
Ntp3
Rp4
(dp5
S'product_url'
p6
S'http://www.walmart.com/ip/Refurbished-Dell-Chromebook-3180-11-6-LCD-Chromebook-Intel-Celeron-N3060-Dual-core-2-Core-1-60-GHz-4-GB-16-GB-Flash-Memory-Chrome-OS-1366-x-768-Black/631718807'
p7
sS'price'
p8
V$156.39
p9
sS'properties'
p10
(dp11
sS'title'
p12
VRefurbished Dell Chromebook 3180 11.6" LCD Chromebook - Intel Celeron N3060 Dual-core (2 Core) 1.60 GHz - 4 GB - 16 GB Flash Memory - Chrome OS - 1366 x 768 - Black - English (US) Keyboard - HDMI -
p13
sb.