ccopy_reg
_reconstructor
p0
(c__main__
ProductRecord
p1
c__builtin__
object
p2
Ntp3
Rp4
(dp5
S'product_url'
p6
S'http://www.walmart.com/ip/Refurbished-Acer-Chromebook-11-6-denim-white-CB3-131-C3KD-Intel-Celeron-2GB-16GB-SSD/177628661'
p7
sS'price'
p8
V$145.23
p9
sS'properties'
p10
(dp11
VBrand
p12
VAcer
p13
ssS'title'
p14
VRefurbished Acer Chromebook 11.6 denim white CB3-131-C3KD Intel Celeron, 2GB, 16GB SSD
p15
sb.