ccopy_reg
_reconstructor
p0
(c__main__
ProductRecord
p1
c__builtin__
object
p2
Ntp3
Rp4
(dp5
S'product_url'
p6
S'http://www.walmart.com/ip/Acer-14-Chomrebook-Intel-Celeron-N3160-1-60-GHz-4GB-Ram-32GB-Flash-Chrome-OS-CB3-431-C5FM-Certified-Refurbished/310620747'
p7
sS'price'
p8
V$260.07
p9
sS'properties'
p10
(dp11
VRAM Memory
p12
V4 GB
p13
sVOperating System
p14
VChrome OS
p15
sVBrand
p16
VAcer
p17
sVManufacturer Part Number
p18
Vcb3-431-c5fm
p19
sVAssembled Product Dimensions (L x W x H)
p20
V13.40 x 9.30 x 0.70 Inches
p21
sVModel
p22
VW-ACR-CB-CB3-B
p23
sVScreen Size
p24
V14\u005c"
p25
ssS'title'
p26
VAcer 14" Chomrebook, Intel Celeron N3160 1.60 GHz, 4GB Ram, 32GB Flash, Chrome OS | CB3-431-C5FM ( Certified Refurbished)
p27
sb.