ccopy_reg
_reconstructor
p0
(c__main__
ProductRecord
p1
c__builtin__
object
p2
Ntp3
Rp4
(dp5
S'product_url'
p6
S'http://www.walmart.com/ip/HP-ChromeBook-11-G4-P0B76UT-ABA-Chromebook-11-G4/48957010'
p7
sS'price'
p8
V$399.00
p9
sS'properties'
p10
(dp11
VRAM Memory
p12
V4
p13
sVOperating System
p14
VChrome OS
p15
sVFeatures
p16
VHP Chromebook 11 G43-cell batteryPower adapter, Processing powerGet trusted processing power from an Intel  Celeron  processor that quickly launches apps, allows fast web browsing, and efficiently manages battery power.Inspire learning through collaborationEnhance visual connections during collaboration and group discussions with an optional IPS panel for a wide viewing angle. Optimize Google Hangouts and video collaboration with noise suppression software for improved audio clarity.Simple maintenance and manageabilityThe Chrome OS  delivers a low maintenance highly manageable platform with automatic software updates and virus protection built in. The optional Chrome Management Console provides easy and comprehensive web-based management tools., Chrome OS delivers a low maintenance experience with automatic software updates and virus protection.Enhance collaboration with an optional IPS panel and optimize Google Hangouts and video collaboration experiences with noise suppression software.Speed through work and assignments with the trusted processing power of an Intel Celeron processor.
p17
sVVideo Game Platform
p18
VPlaystation
p19
sVBrand
p20
VHP
p21
sVProcessor Speed
p22
V2.16
p23
sVManufacturer Part Number
p24
VP0B76UTABA
p25
sVMaximum RAM Supported
p26
V4 GB
p27
sVHard Drive Capacity
p28
V0
p29
sVBattery Life
p30
V10
p31
sVModel
p32
VTemp Model
p33
sVScreen Size
p34
V11.60
p35
sVProcessor Type
p36
VIntel N2840
p37
sVCondition
p38
VNew
p39
ssS'title'
p40
VHP ChromeBook 11 G4 P0B76UT#ABA Chromebook 11 G4
p41
sb.