ccopy_reg
_reconstructor
p0
(c__main__
ProductRecord
p1
c__builtin__
object
p2
Ntp3
Rp4
(dp5
S'product_url'
p6
S'http://www.walmart.com/ip/Lenovo-N23-80YS0003US-Chromebook-PC-Intel-Celeron-N3060-1-6-GHz-Refurbished/697191694'
p7
sS'price'
p8
V$171.49
p9
sS'properties'
p10
(dp11
VRAM Memory
p12
V0 GB
p13
sVOperating System
p14
VChrome OS
p15
sVBrand
p16
VLenovo
p17
sVHard Drive Capacity
p18
V0 GB
p19
sVModel
p20
V80YS0003US
p21
sVScreen Size
p22
V0 in
p23
sVProcessor Speed
p24
V0 GHz
p25
sVCondition
p26
VRefurbished
p27
sVmanufacturer_part_number
p28
V80ys0003us
p29
ssS'title'
p30
VLenovo N23 80YS0003US Chromebook PC - Intel Celeron N3060 1.6 GHz (Refurbished)
p31
sb.