ccopy_reg
_reconstructor
p0
(c__main__
ProductRecord
p1
c__builtin__
object
p2
Ntp3
Rp4
(dp5
S'product_url'
p6
S'http://www.walmart.com/ip/Manufacturer-Refurbished-Acer-CP5-471-312N-14-Chromebook-Chrome-OS-Intel-Core-i3-6100U-Processor-8GB-RAM-32GB-Flash-Drive/55429978'
p7
sS'price'
p8
V$432.59
p9
sS'properties'
p10
(dp11
VRAM Memory
p12
V8 GB
p13
sVOperating System
p14
VChrome
p15
sVVideo Game Platform
p16
VPC
p17
sVBrand
p18
VAcer
p19
sVProcessor Speed
p20
V2.30 GHz
p21
sVManufacturer Part Number
p22
VNX.GE8AA.004
p23
sVHard Drive Capacity
p24
V32 GB
p25
sVBattery Life
p26
V10 hours
p27
sVAssembled Product Dimensions (L x W x H)
p28
V19.00 x 14.00 x 3.00 Inches
p29
sVModel
p30
VCP5-471-312N
p31
sVScreen Size
p32
V14.0"
p33
sVProcessor Type
p34
VIntel Core i3
p35
ssS'title'
p36
VManufacturer Refurbished Acer CP5-471-312N 14" Chromebook, Chrome OS, Intel Core i3-6100U Processor, 8GB RAM, 32GB Flash Drive
p37
sb.