ccopy_reg
_reconstructor
p0
(c__main__
ProductRecord
p1
c__builtin__
object
p2
Ntp3
Rp4
(dp5
S'product_url'
p6
S'http://www.walmart.com/ip/CHROMEBOOK-14IN-FHD-IPS-TOUCH-PANEL-METAL-DESIGN/584931163'
p7
sS'price'
p8
V$323.38
p9
sS'properties'
p10
(dp11
VRAM Memory
p12
V4 Gigabytes
p13
sVOperating System
p14
VChrome OS
p15
sVFeatures
p16
VPANEL METAL DESIGN
p17
sVBrand
p18
VPOIN2 LAB
p19
sVProcessor Speed
p20
V2 Gigahertz
p21
sVManufacturer Part Number
p22
VLT0301-01US
p23
sVHard Drive Capacity
p24
V32 Gigabytes
p25
sVBattery Life
p26
V12 Hours
p27
sVAssembled Product Dimensions (L x W x H)
p28
V19.00 x 12.00 x 2.75 Inches
p29
sVModel
p30
VLT0301-01US
p31
sVScreen Size
p32
V14 in
p33
sVProcessor Type
p34
VMediaTek MT8173
p35
sVCondition
p36
VNew
p37
ssS'title'
p38
VCHROMEBOOK 14IN FHD IPS TOUCH PANEL METAL DESIGN
p39
sb.