ccopy_reg
_reconstructor
p0
(c__main__
ProductRecord
p1
c__builtin__
object
p2
Ntp3
Rp4
(dp5
S'product_url'
p6
S'http://www.walmart.com/ip/2018-Newest-Flagship-HP-X360-15-6-Inch-Full-HD-Touchscreen-2-in-1-Convertible-Laptop-Stylus-Pen-Intel-Core-i5-8GB-RAM-128GB-SSD-AMD-Radeon-530-2GB-De/873899027'
p7
sS'price'
p8
S'N/A'
p9
sS'properties'
p10
(dp11
VRAM Memory
p12
V8 GB
p13
sVOperating System
p14
VWindows 10
p15
sVBrand
p16
VHP
p17
sVHard Drive Capacity
p18
V128 GB
p19
sVProcessor Speed
p20
V2 GHz
p21
sVScreen Size
p22
V15.6 in
p23
ssS'title'
p24
V2018 Newest Flagship HP X360 15.6 Inch Full HD Touchscreen 2-in-1 Convertible Laptop with Stylus Pen (Intel Core i5, 8GB RAM, 128GB SSD, AMD Radeon 530 2GB Dedicated Graphics, HDMI, Bluetooth)
p25
sb.