ccopy_reg
_reconstructor
p0
(c__main__
ProductRecord
p1
c__builtin__
object
p2
Ntp3
Rp4
(dp5
S'product_url'
p6
S'http://www.walmart.com/ip/Hp-Chromebook-14-ak000-14-ak050nr-14-Chromebook-Intel-Celeron-N2940-Quad-core-4-Core-1-83-Ghz-4-Gb-Ram-Chrome-Os-Bluetooth-n8j80ua-aba/51082655'
p7
sS'price'
p8
V$320.78
p9
sS'properties'
p10
(dp11
VRAM Memory
p12
V4 GB
p13
sVOperating System
p14
VChrome OS
p15
sVBrand
p16
VHP
p17
sVProcessor Speed
p18
V1.83 GHz
p19
sVManufacturer Part Number
p20
VN8J80UA#ABA
p21
sVModel
p22
VN8J80UA#ABA
p23
sVScreen Size
p24
V14"
p25
sVProcessor Type
p26
VIntel Celeron
p27
sVCondition
p28
VNew
p29
ssS'title'
p30
VHp Chromebook 14-ak000 14-ak050nr 14" Chromebook - Intel Celeron N2940 Quad-core [4 Core] 1.83 Ghz - 4 Gb Ram - Chrome Os - Bluetooth (n8j80ua-aba)
p31
sb.