ccopy_reg
_reconstructor
p0
(c__main__
ProductRecord
p1
c__builtin__
object
p2
Ntp3
Rp4
(dp5
S'product_url'
p6
S'http://www.walmart.com/ip/Acer-Chromebook-11-CB3-132-C4VV-11-6-LCD-Chromebook-Intel-Celeron-N3060-Dual-core-2-Core-1-60-GHz-4-GB-DDR3L-SDRAM-16-GB-Flash-Memory-Chrome-OS-1366-/792347859'
p7
sS'price'
p8
V$209.00
p9
sS'properties'
p10
(dp11
VRAM Memory
p12
V4 Gigabytes
p13
sVOperating System
p14
VChrome OS
p15
sVBrand
p16
VAcer
p17
sVProcessor Speed
p18
V1.6 Gigahertz
p19
sVManufacturer Part Number
p20
VNX.G4XAA.002
p21
sVHard Drive Capacity
p22
V16 Gigabytes
p23
sVBattery Life
p24
V10 Hours
p25
sVAssembled Product Dimensions (L x W x H)
p26
V15.00 x 4.00 x 9.00 Inches
p27
sVModel
p28
VNX.G4XAA.002
p29
sVScreen Size
p30
V11.60 Inches
p31
sVProcessor Type
p32
VIntel N3060
p33
sVCondition
p34
VNew
p35
ssS'title'
p36
VAcer Chromebook 11 CB3-132-C4VV 11.6" LCD Chromebook - Intel Celeron N3060 Dual-core (2 Core) 1.60 GHz - 4 GB DDR3L SDRAM - 16 GB Flash Memory - Chrome OS - 1366 x 768 - ComfyView, In-plane Switc
p37
sb.