ccopy_reg
_reconstructor
p0
(c__main__
ProductRecord
p1
c__builtin__
object
p2
Ntp3
Rp4
(dp5
S'product_url'
p6
S'http://www.walmart.com/ip/Refurbished-Dell-Chromebook-11-3120-11-6-Intel-Celeron-N2840-2-16GHz-2GB-16GB-SSD-3VK89/280810586'
p7
sS'price'
p8
V$119.95
p9
sS'properties'
p10
(dp11
VRAM Memory
p12
V2 GB
p13
sVOperating System
p14
VChrome OS
p15
sVBrand
p16
VDell
p17
sVManufacturer Part Number
p18
VDell-3VK89-C
p19
sVHard Drive Capacity
p20
V16 GB
p21
sVModel
p22
V3VK89
p23
sVScreen Size
p24
V11.6\u005c"
p25
ssS'title'
p26
VRefurbished Dell Chromebook 11 3120 11.6" Intel Celeron N2840 2.16GHz 2GB 16GB SSD 3VK89
p27
sb.