ccopy_reg
_reconstructor
p0
(c__main__
ProductRecord
p1
c__builtin__
object
p2
Ntp3
Rp4
(dp5
S'product_url'
p6
S'http://www.walmart.com/ip/MSI-GF622025-15-6-Gaming-Laptop-i7-7700HQ-Quad-Core-16GB-1TB-GTX-1050-ti/506982303'
p7
sS'price'
p8
V$1,099.00
p9
sS'properties'
p10
(dp11
VRAM Memory
p12
V0 GB
p13
sVOperating System
p14
VMicrosoft Windows, Windows 10
p15
sVFeatures
p16
VGF62 7RE-2025 - INTEL -CORE I7 -7700HQ - 2.8 GHZ - DDR4 SDRAM - RAM: 16 GB - SER
p17
sVVideo Game Platform
p18
VSee Description
p19
sVBrand
p20
VMSI
p21
sVProcessor Speed
p22
V0 GHz
p23
sVHard Drive Capacity
p24
V1 TB
p25
sVBattery Life
p26
V0 h
p27
sVModel
p28
VGF622025
p29
sVScreen Size
p30
V15.6"
p31
sVProcessor Type
p32
VIntel Core i7
p33
sVCondition
p34
VNew
p35
sVmanufacturer_part_number
p36
Vgf622025
p37
ssS'title'
p38
VMSI GF622025 15.6" Gaming Laptop i7-7700HQ Quad-Core 16GB 1TB GTX 1050 ti
p39
sb.