ccopy_reg
_reconstructor
p0
(c__main__
ProductRecord
p1
c__builtin__
object
p2
Ntp3
Rp4
(dp5
S'product_url'
p6
S'http://www.walmart.com/ip/ASUS-Chromebook-C300SA-DH02-LB-13-3-inch-Intel-Celeron-N3060-1-6GHz-4GB-LPDDR3-16GB-eMMC-TPM-USB3-0-Chrome-Notebook-Light-Blue/215546923'
p7
sS'price'
p8
V$353.81
p9
sS'properties'
p10
(dp11
VBrand
p12
VASUS
p13
sVOperating System
p14
VChrome OS
p15
sVCondition
p16
VNew
p17
ssS'title'
p18
VASUS Chromebook C300SA-DH02-LB 13.3 inch Intel Celeron N3060 1.6GHz/ 4GB LPDDR3/ 16GB eMMC + TPM/ USB3.0/ Chrome Notebook (Light Blue)
p19
sb.