ccopy_reg
_reconstructor
p0
(c__main__
ProductRecord
p1
c__builtin__
object
p2
Ntp3
Rp4
(dp5
S'product_url'
p6
S'http://www.walmart.com/ip/Refurbished-Acer-11-6-Chromebook-Celeron-N2830-Dual-Core-2-16GHz-2GB-RAM-16GB-SSD-ChromeOS/339500415'
p7
sS'price'
p8
V$152.24
p9
sS'properties'
p10
(dp11
VRAM Memory
p12
V2 GB
p13
sVOperating System
p14
VChrome OS
p15
sVBrand
p16
VAcer
p17
sVManufacturer Part Number
p18
VNX.MQNAA.004
p19
sVHard Drive Capacity
p20
V16 GB
p21
sVModel
p22
VCB3-111-C4GD
p23
sVScreen Size
p24
V11.6 in
p25
sVProcessor Speed
p26
V2.16 GHz
p27
ssS'title'
p28
VRefurbished Acer 11.6" Chromebook Celeron N2830 Dual-Core 2.16GHz 2GB RAM 16GB SSD ChromeOS
p29
sb.