ccopy_reg
_reconstructor
p0
(c__main__
ProductRecord
p1
c__builtin__
object
p2
Ntp3
Rp4
(dp5
S'product_url'
p6
S'http://www.walmart.com/ip/Used-Like-New-Acer-Chromebook-11-11-6-inch-HD-Intel-Celeron-N2840-4GB-DDR3L-16GB-Storage-Chrome-CB3-131-C8GZ/893692227'
p7
sS'price'
p8
V$178.00
p9
sS'properties'
p10
(dp11
VOperating System
p12
VChrome OS
p13
sVFeatures
p14
VGoogle Chrome Operating System. Connectivity- 802.11a/b/g/n/ac wireless LAN, Intel Celeron N2840 Dual-Core Processor (Up to 2.58GHz), 4GB DDR3L Memory, 16GB Internal Storage, Up to 9-hours Battery Life, 11.6" HD (1366 x 768) Widescreen LED-backlit Display
p15
sVBrand
p16
VAcer
p17
sVManufacturer Part Number
p18
VCB3-131-C8GZ
p19
sVAssembled Product Dimensions (L x W x H)
p20
V11.57 x 8.03 x 0.73 Inches
p21
sVScreen Size
p22
V11.6\u005c"
p23
ssS'title'
p24
VUsed Like New Acer Chromebook 11, 11.6-inch HD, Intel Celeron N2840, 4GB DDR3L, 16GB Storage, Chrome, CB3-131-C8GZ
p25
sb.