ccopy_reg
_reconstructor
p0
(c__main__
ProductRecord
p1
c__builtin__
object
p2
Ntp3
Rp4
(dp5
S'product_url'
p6
S'http://www.walmart.com/ip/Acer-Chromebook-13-C810-T78Y-13-3-Tegra-K1-CD570M-A1-4-GB-RAM-32-G-Brand-New-1-Year-warranty/470403706'
p7
sS'price'
p8
V$246.00
p9
sS'properties'
p10
(dp11
VRAM Memory
p12
V4 GB
p13
sVBrand
p14
VAcer
p15
sVHard Drive Capacity
p16
V32 GB
p17
sVModel
p18
VC810-T78Y
p19
sVScreen Size
p20
V13.3 in
p21
sVProcessor Speed
p22
V2.1 GHz
p23
sVCondition
p24
VNew
p25
ssS'title'
p26
VAcer Chromebook 13 C810-T78Y - 13.3" - Tegra K1 CD570M-A1 - 4 GB RAM - 32 G [ Brand New] - 1 Year warranty
p27
sb.