ccopy_reg
_reconstructor
p0
(c__main__
ProductRecord
p1
c__builtin__
object
p2
Ntp3
Rp4
(dp5
S'product_url'
p6
S'http://www.walmart.com/ip/Dell-Latitude-12-5285-12-3-FHD-Touch-Laptop-Intel-Core-i7-7600U-16GB-LPPDDR3-512GB-SSD-Windows-10-Pro/244646355'
p7
sS'price'
p8
S'N/A'
p9
sS'properties'
p10
(dp11
VRAM Memory
p12
V16.00 GB
p13
sVOperating System
p14
VWindows 10
p15
sVVideo Game Platform
p16
VSee Description
p17
sVBrand
p18
VDell
p19
sVProcessor Speed
p20
V2.80 GHz
p21
sVManufacturer Part Number
p22
VLATI528561X3P
p23
sVHard Drive Capacity
p24
V512.00 GB
p25
sVBattery Life
p26
V12.50 h
p27
sVAssembled Product Dimensions (L x W x H)
p28
V12.00 x 12.00 x 12.00 Inches
p29
sVModel
p30
V61X3P
p31
sVScreen Size
p32
V12.30 in
p33
sVProcessor Type
p34
VIntel Core i7
p35
sVCondition
p36
VNew
p37
ssS'title'
p38
VDell Latitude 12 5285, 12.3" FHD Touch Laptop Intel Core i7-7600U, 16GB LPPDDR3, 512GB SSD, Windows 10 Pro
p39
sb.