ccopy_reg
_reconstructor
p0
(c__main__
ProductRecord
p1
c__builtin__
object
p2
Ntp3
Rp4
(dp5
S'product_url'
p6
S'http://www.walmart.com/ip/easy-amp-fine-hp-m3-u001dx-split-13-pavillion-x-360-m3-chromebook-14-q010nr-14-q020nr-14-q029wm-14-q030nr-hp-stream-11-13-14-elitebook-folio-1040-g1-/778893091'
p7
sS'price'
p8
V$13.80
p9
sS'properties'
p10
(dp11
VBrand
p12
Vinnovate 360
p13
sVOperating System
p14
VChrome OS
p15
sVCondition
p16
VNew
p17
ssS'title'
p18
Veasy&fine hp m3-u001dx split 13 pavillion x 360 m3 chromebook 14-q010nr 14-q020nr 14-q029wm 14-q030nr hp stream 11 13 14 elitebook folio 1040 g1 719309-003 721092-001 709985-001, 1 year warranty!
p19
sb.