ccopy_reg
_reconstructor
p0
(c__main__
ProductRecord
p1
c__builtin__
object
p2
Ntp3
Rp4
(dp5
S'product_url'
p6
S'http://www.walmart.com/ip/Refurbished-Acer-Spin-11-R751TN-C5P3-11-6-Touchscreen-LCD-2-1-Chromebook-Intel-Celeron-N3350-Dual-core-2-Core-1-10-GHz-4-GB-LPDDR4-32-GB-Flash-Memory/730948897'
p7
sS'price'
p8
V$337.56
p9
sS'properties'
p10
(dp11
sS'title'
p12
VRefurbished Acer Spin 11 R751TN-C5P3 11.6" Touchscreen LCD 2 in 1 Chromebook - Intel Celeron N3350 Dual-core (2 Core) 1.10 GHz - 4 GB LPDDR4 - 32 GB Flash Memory - Chrome OS - 1366 x 768 - In-plane
p13
sb.