ccopy_reg
_reconstructor
p0
(c__main__
ProductRecord
p1
c__builtin__
object
p2
Ntp3
Rp4
(dp5
S'product_url'
p6
S'http://www.walmart.com/ip/Acer-Cp5-471-581n-14-Led-comfyview-In-plane-Switching-ips-Technology-Chromebook-Intel-Core-I5-I5-6200u-Dual-core-2-Core-2-30-Ghz-8-Gb-Lpddr3-Ram-32-G/52874000'
p7
sS'price'
p8
V$586.65
p9
sS'properties'
p10
(dp11
VRAM Memory
p12
V8 GB
p13
sVOperating System
p14
VMicrosoft Windows
p15
sVBrand
p16
VAcer
p17
sVProcessor Speed
p18
V2.30 GHz
p19
sVManufacturer Part Number
p20
VNX.GE8AA.003
p21
sVModel
p22
VNX.GE8AA.003
p23
sVScreen Size
p24
V14"
p25
sVProcessor Type
p26
VIntel Core i5
p27
ssS'title'
p28
VAcer Cp5-471-581n 14" Led [comfyview, In-plane Switching [ips] Technology] Chromebook - Intel Core I5 I5-6200u Dual-core [2 Core] 2.30 Ghz - 8 Gb Lpddr3 Ram - 32 Gb Flash Memory (nx-ge8aa-003)
p29
sb.