ccopy_reg
_reconstructor
p0
(c__main__
ProductRecord
p1
c__builtin__
object
p2
Ntp3
Rp4
(dp5
S'product_url'
p6
S'http://www.walmart.com/ip/Refurbished-iPearl-mCover-Hard-Shell-Case-for-14-HP-Chromebook-14-G3-X000-series-Chromebook-14-G4-T4M32UT-ABA-series-Chromebook-14-ak000/785212211'
p7
sS'price'
p8
V$19.84
p9
sS'properties'
p10
(dp11
VBrand
p12
VmCover
p13
sVmanufacturer_part_number
p14
Vt4m32ut # aba series )
p15
ssS'title'
p16
VRefurbished iPearl mCover Hard Shell Case for 14 HP Chromebook 14 G3 X000 series, Chromebook 14 G4 (T4M32UT#ABA series), Chromebook 14-ak000
p17
sb.