ccopy_reg
_reconstructor
p0
(c__main__
ProductRecord
p1
c__builtin__
object
p2
Ntp3
Rp4
(dp5
S'product_url'
p6
S'http://www.walmart.com/ip/HP-Chromebook-11-G5-11-6-34-16-9-Chromebook-1366-x-768-Intel-Celeron-N3050-Dual-core-2-Core-1-60-GHz-4-GB-DDR3L-SDRAM-16-GB-Flash-Memory-Capacity-Chr/307889507'
p7
sS'price'
p8
V$278.94
p9
sS'properties'
p10
(dp11
VOperating System
p12
VChrome OS
p13
sVBrand
p14
VHP INC. - CHROMEBOOKS
p15
sVRAM Memory
p16
V4 GB
p17
sVScreen Size
p18
V11.6
p19
sVAssembled Product Dimensions (L x W x H)
p20
V17.30 x 10.30 x 2.60 Inches
p21
ssS'title'
p22
VHP Chromebook 11 G5 11.6" 16:9 Chromebook - 1366 x 768 - Intel Celeron N3050 Dual-core (2 Core) 1.60 GHz - 4 GB DDR3L SDRAM - 16 GB Flash Memory Capacity - Chrome OS (English) - Intel HD Grap
p23
sb.