ccopy_reg
_reconstructor
p0
(c__main__
ProductRecord
p1
c__builtin__
object
p2
Ntp3
Rp4
(dp5
S'product_url'
p6
S'http://www.walmart.com/ip/Refurbished-HP-Chromebook-14-G4-14-LCD-Chromebook-Intel-Celeron-N2840-Dual-core-2-Core-2-16-GHz-2-GB-DDR3L-SDRAM-16-GB-SSD-Chrome-OS-English-1366-x-7/185316455'
p7
sS'price'
p8
V$195.99
p9
sS'properties'
p10
(dp11
sS'title'
p12
VRefurbished HP Chromebook 14 G4 14" LCD Chromebook - Intel Celeron N2840 Dual-core (2 Core) 2.16 GHz - 2 GB DDR3L SDRAM - 16 GB SSD - Chrome OS (English) - 1366 x 768 - Intel HD Graphics DDR3L
p13
sb.