ccopy_reg
_reconstructor
p0
(c__main__
ProductRecord
p1
c__builtin__
object
p2
Ntp3
Rp4
(dp5
S'product_url'
p6
S'http://www.walmart.com/ip/Refurbished-ACER-Chromebook-11-6-16GB-4GB-RAM-2-20GHz-Intel-Celeron-N2840-White-CB3-131-C8GZ-NX-G85AA-009/657375848'
p7
sS'price'
p8
V$179.99
p9
sS'properties'
p10
(dp11
VOperating System
p12
VChrome OS
p13
sVBrand
p14
VAcer
p15
sVRAM Memory
p16
V4 GB
p17
sVScreen Size
p18
V11.6\u005c"
p19
sVmanufacturer_part_number
p20
Vcb3-131-c8gz
p21
ssS'title'
p22
VRefurbished ACER Chromebook 11.6" 16GB 4GB RAM 2.20GHz Intel Celeron N2840 - White CB3-131-C8GZ (NX.G85AA.009)
p23
sb.