ccopy_reg
_reconstructor
p0
(c__main__
ProductRecord
p1
c__builtin__
object
p2
Ntp3
Rp4
(dp5
S'product_url'
p6
S'http://www.walmart.com/ip/Acer-Chromebook-C720-2848-Refurbished/751477864'
p7
sS'price'
p8
V$129.99
p9
sS'properties'
p10
(dp11
VBrand
p12
VAcer
p13
sVmanufacturer_part_number
p14
Vc720-2848
p15
ssS'title'
p16
VAcer Chromebook C720-2848 - Refurbished
p17
sb.