ccopy_reg
_reconstructor
p0
(c__main__
ProductRecord
p1
c__builtin__
object
p2
Ntp3
Rp4
(dp5
S'product_url'
p6
S'http://www.walmart.com/ip/Refurbished-Dell-Chromebook-13-3380-13-3-LCD-Chromebook-Intel-Celeron-3855U-Dual-core-2-Core-1-60-GHz-4-GB-32-GB-SSD-Chrome-OS-1366-x-768-Black-Engli/791372700'
p7
sS'price'
p8
V$250.44
p9
sS'properties'
p10
(dp11
sS'title'
p12
VRefurbished Dell Chromebook 13 3380 13.3" LCD Chromebook - Intel Celeron 3855U Dual-core (2 Core) 1.60 GHz - 4 GB - 32 GB SSD - Chrome OS - 1366 x 768 - Black - English (US) Keyboard - HDMI - 2 x
p13
sb.