ccopy_reg
_reconstructor
p0
(c__main__
ProductRecord
p1
c__builtin__
object
p2
Ntp3
Rp4
(dp5
S'product_url'
p6
S'http://www.walmart.com/ip/Original-HP-45W-AC-Charger-Power-Adapter-Cord-For-HP-Chromebook-11-2110nr-11-2201la-11-2210nr-11-v002dx-11-v010nr-11-v011dx-11-v012nr/697957512'
p7
sS'price'
p8
V$21.99
p9
sS'properties'
p10
(dp11
VBrand
p12
VHP
p13
ssS'title'
p14
VOriginal HP 45W AC Charger Power Adapter Cord For HP Chromebook 11-2110nr 11-2201la 11-2210nr 11-v002dx 11-v010nr 11-v011dx 11-v012nr
p15
sb.