ccopy_reg
_reconstructor
p0
(c__main__
ProductRecord
p1
c__builtin__
object
p2
Ntp3
Rp4
(dp5
S'product_url'
p6
S'http://www.walmart.com/ip/MightySkins-Protective-Skin-Decal-Cover-for-HP-Chromebook-11-6-2014-Touchscreen-Sticker-Skins-German-Flag/105248777'
p7
sS'price'
p8
V$18.99
p9
sS'properties'
p10
(dp11
VColor
p12
VYellow
p13
sVBrand
p14
VMightyskins
p15
sVCompatible Brands
p16
VHP
p17
sVManufacturer Part Number
p18
VHPCH11-German Flag
p19
ssS'title'
p20
VMightySkins Protective Skin Decal Cover for HP Chromebook 11.6" (2014) Touchscreen Sticker Skins German Flag
p21
sb.