ccopy_reg
_reconstructor
p0
(c__main__
ProductRecord
p1
c__builtin__
object
p2
Ntp3
Rp4
(dp5
S'product_url'
p6
S'http://www.walmart.com/ip/New-Genuine-Lenovo-ThinkPad-Yoga-11e-Chromebook-Non-Touch-LCD-Front-Bezel-00HW450/315708619'
p7
sS'price'
p8
V$39.95
p9
sS'properties'
p10
(dp11
VBrand
p12
VLenovo
p13
sVmanufacturer_part_number
p14
V00hw450
p15
ssS'title'
p16
VNew Genuine Lenovo ThinkPad Yoga 11e Chromebook Non-Touch LCD Front Bezel 00HW450
p17
sb.