ccopy_reg
_reconstructor
p0
(c__main__
ProductRecord
p1
c__builtin__
object
p2
Ntp3
Rp4
(dp5
S'product_url'
p6
S'http://www.walmart.com/ip/Refurbished-HP-F3X85AA-ABA-Chromebook-11-Samsung-Exynos-5250-1-70-GHz-2-GB-Memory-16-GB-SSD-11-6-Chrome-OS/679372135'
p7
sS'price'
p8
V$119.99
p9
sS'properties'
p10
(dp11
VOperating System
p12
VChrome OS
p13
sVBrand
p14
VHP
p15
sVManufacturer Part Number
p16
VF3X85AA#ABA
p17
sVHard Drive Capacity
p18
V16 GB
p19
sVModel
p20
VF3X85AA#ABA
p21
sVScreen Size
p22
V11.6\u005c"
p23
ssS'title'
p24
VRefurbished HP F3X85AA#ABA Chromebook 11 Samsung Exynos 5250 (1.70 GHz) 2 GB Memory 16 GB SSD 11.6" Chrome OS
p25
sb.