ccopy_reg
_reconstructor
p0
(c__main__
ProductRecord
p1
c__builtin__
object
p2
Ntp3
Rp4
(dp5
S'product_url'
p6
S'http://www.walmart.com/ip/Dell-Inspiron-15-5000-2-in-1-15-6-inch-FHD-Intel-Core-i7-7500U-8GB-2400MHz-DDR4-1TB-5400-rpm-Hard-Intel-HD-graphics-620/54748280'
p7
sS'price'
p8
S'N/A'
p9
sS'properties'
p10
(dp11
VRAM Memory
p12
V8 KB
p13
sVOperating System
p14
VWindows 10 Home 64bit English
p15
sVVideo Game Platform
p16
VPC
p17
sVBrand
p18
VDell
p19
sVProcessor Speed
p20
V3.5 Hz
p21
sVManufacturer Part Number
p22
Vi5578-2550GRY
p23
sVHard Drive Capacity
p24
V1000 KB
p25
sVAssembled Product Dimensions (L x W x H)
p26
V19.50 x 13.10 x 3.10 Inches
p27
sVModel
p28
Vi5578-2550GRY
p29
sVScreen Size
p30
V15.6 in
p31
sVProcessor Type
p32
VIntel Core i7-7500U
p33
sVCondition
p34
VNew
p35
ssS'title'
p36
VDell - Inspiron 15 5000 2-in-1, 15.6-inch FHD, Intel Core i7-7500U, 8GB 2400MHz DDR4, 1TB 5400 rpm Hard , Intel HD graphics 620
p37
sb.