ccopy_reg
_reconstructor
p0
(c__main__
ProductRecord
p1
c__builtin__
object
p2
Ntp3
Rp4
(dp5
S'product_url'
p6
S'http://www.walmart.com/ip/Refurbished-Lenovo-Chromebook-N42-20-80US0000US-14-Chromebook-Intel-Celeron-N3060-Dual-core-2-Core-1-60-GHz-4-GB-16-GB-Flash-Memory-Chrome-OS-1366-x-/443105705'
p7
sS'price'
p8
V$186.09
p9
sS'properties'
p10
(dp11
sS'title'
p12
VRefurbished Lenovo Chromebook N42-20 80US0000US 14" Chromebook - Intel Celeron N3060 Dual-core (2 Core) 1.60 GHz - 4 GB - 16 GB Flash Memory - Chrome OS - 1366 x 768 - Twisted nematic (TN) - Black
p13
sb.