ccopy_reg
_reconstructor
p0
(c__main__
ProductRecord
p1
c__builtin__
object
p2
Ntp3
Rp4
(dp5
S'product_url'
p6
S'http://www.walmart.com/ip/Refurbished-Lenovo-Chromebook-N21-80MG0000US-Lenovo-Chromebook-N21/791038227'
p7
sS'price'
p8
V$204.95
p9
sS'properties'
p10
(dp11
VBrand
p12
VLenovo
p13
sVmanufacturer_part_number
p14
V80mg0000us
p15
ssS'title'
p16
VRefurbished "Lenovo Chromebook N21 80MG0000US Lenovo Chromebook N21"
p17
sb.