ccopy_reg
_reconstructor
p0
(c__main__
ProductRecord
p1
c__builtin__
object
p2
Ntp3
Rp4
(dp5
S'product_url'
p6
S'http://www.walmart.com/ip/Acer-CB3-532-C42P-15-6-Active-Matrix-TFT-Color-LCD-Chromebook-Refurbished/101044225'
p7
sS'price'
p8
V$205.49
p9
sS'properties'
p10
(dp11
VRAM Memory
p12
V0 GB
p13
sVBrand
p14
VAcer
p15
sVHard Drive Capacity
p16
V0 GB
p17
sVModel
p18
VNX.GHJAA.004
p19
sVScreen Size
p20
V0 in
p21
sVProcessor Speed
p22
V0 GHz
p23
sVmanufacturer_part_number
p24
Vcb3-532-c42p
p25
ssS'title'
p26
VAcer CB3-532-C42P 15.6" Active Matrix TFT Color LCD Chromebook - (Refurbished)
p27
sb.