ccopy_reg
_reconstructor
p0
(c__main__
ProductRecord
p1
c__builtin__
object
p2
Ntp3
Rp4
(dp5
S'product_url'
p6
S'http://www.walmart.com/ip/Refurbished-Acer-Chromebook-11-N7-C731T-C42N-11-6-Touchscreen-Chromebook-Intel-Celeron-N3060-Dual-core-2-Core-1-60-GHz-4-GB-LPDDR3-16-GB-Flash-Memory/163351809'
p7
sS'price'
p8
V$206.88
p9
sS'properties'
p10
(dp11
sS'title'
p12
VRefurbished Acer Chromebook 11 N7 C731T-C42N 11.6" Touchscreen Chromebook - Intel Celeron N3060 Dual-core (2 Core) 1.60 GHz - 4 GB LPDDR3 - 16 GB Flash Memory - Chrome OS - 1366 x 768 -
p13
sb.