ccopy_reg
_reconstructor
p0
(c__main__
ProductRecord
p1
c__builtin__
object
p2
Ntp3
Rp4
(dp5
S'product_url'
p6
S'http://www.walmart.com/ip/HP-ChromeBook-11-G5-EE-1FX82UT-ABA-Chromebook-11-G5/295563396'
p7
sS'price'
p8
V$234.95
p9
sS'properties'
p10
(dp11
VBrand
p12
VHP
p13
sVmanufacturer_part_number
p14
V1fx82ut-aba
p15
ssS'title'
p16
V"HP ChromeBook 11 G5 EE 1FX82UT-ABA Chromebook 11 G5"
p17
sb.