ccopy_reg
_reconstructor
p0
(c__main__
ProductRecord
p1
c__builtin__
object
p2
Ntp3
Rp4
(dp5
S'product_url'
p6
S'http://www.walmart.com/ip/HP-14-ak040wm-14-Chromebook-Chrome-Full-HD-IPS-Display-Intel-Celeron-N2940-Processor-4GB-RAM-16GB-eMMC-Drive-Refurbished/248332080'
p7
sS'price'
p8
V$239.99
p9
sS'properties'
p10
(dp11
VRAM Memory
p12
V4 KB
p13
sVOperating System
p14
VChrome OS, Chrome
p15
sVFeatures
p16
VEPEAT
p17
sVBrand
p18
VHP
p19
sVProcessor Speed
p20
V1.83 Hz
p21
sVManufacturer Part Number
p22
V14-ak040wm
p23
sVHard Drive Capacity
p24
V16 KB
p25
sVBattery Life
p26
V8 h
p27
sVModel
p28
V14-ak040wm
p29
sVScreen Size
p30
V14 in
p31
sVProcessor Type
p32
VIntel Celeron
p33
ssS'title'
p34
VHP 14-ak040wm 14" Chromebook, Chrome, Full HD IPS Display, Intel Celeron N2940 Processor, 4GB RAM, 16GB eMMC Drive (Refurbished)
p35
sb.