ccopy_reg
_reconstructor
p0
(c__main__
ProductRecord
p1
c__builtin__
object
p2
Ntp3
Rp4
(dp5
S'product_url'
p6
S'http://www.walmart.com/ip/Refurbished-Acer-14-Intel-Celeron-1-60-GHz-4-GB-Ram-32-GB-Flash-Chrome-OS-CB3-431-C6ZB/301798302'
p7
sS'price'
p8
V$216.29
p9
sS'properties'
p10
(dp11
VRAM Memory
p12
V4 GB
p13
sVOperating System
p14
VChrome OS
p15
sVBrand
p16
VAcer
p17
sVManufacturer Part Number
p18
VNX.GJEAA.002
p19
sVModel
p20
VCB3-431-C6ZB
p21
sVScreen Size
p22
V14 in
p23
sVProcessor Speed
p24
V1.60 GHz
p25
sVCondition
p26
VNew
p27
ssS'title'
p28
VRefurbished Acer 14" Intel Celeron 1.60 GHz 4 GB Ram 32 GB Flash Chrome OS|CB3-431-C6ZB
p29
sb.