ccopy_reg
_reconstructor
p0
(c__main__
ProductRecord
p1
c__builtin__
object
p2
Ntp3
Rp4
(dp5
S'product_url'
p6
S'http://www.walmart.com/ip/Refurbished-Acer-Chromebook-R11-C738T-NX-G55AA-011-Notebook-PC-Intel-Celeron-N3060-1-6-GHz-Dual-Core-Processor-4-GB-DDR3L-SDRAM-16-GB-SSD-11-6-inch-T/233448567'
p7
sS'price'
p8
V$247.00
p9
sS'properties'
p10
(dp11
sS'title'
p12
VRefurbished Acer Chromebook R11 C738T NX.G55AA.011 Notebook PC - Intel Celeron N3060 1.6 GHz Dual-Core Processor - 4 GB DDR3L SDRAM - 16 GB SSD - 11.6-inch Touchscreen Display - Chrome OS
p13
sb.