ccopy_reg
_reconstructor
p0
(c__main__
ProductRecord
p1
c__builtin__
object
p2
Ntp3
Rp4
(dp5
S'product_url'
p6
S'http://www.walmart.com/ip/Refurbished-Acer-C771-C4TM-11-6-LCD-Chromebook-Intel-Celeron-3855U-Dual-core-2-Core-1-60-GHz-4-GB-LPDDR3-32-GB-Flash-Memory-Chrome-OS-1366-x-768-Comf/414054989'
p7
sS'price'
p8
V$249.97
p9
sS'properties'
p10
(dp11
sS'title'
p12
VRefurbished Acer C771-C4TM 11.6" LCD Chromebook - Intel Celeron 3855U Dual-core (2 Core) 1.60 GHz - 4 GB LPDDR3 - 32 GB Flash Memory - Chrome OS - 1366 x 768 - ComfyView - Intel HD Graphics 510
p13
sb.