ccopy_reg
_reconstructor
p0
(c__main__
ProductRecord
p1
c__builtin__
object
p2
Ntp3
Rp4
(dp5
S'product_url'
p6
S'http://www.walmart.com/ip/Refurbished-Lenovo-N22-80SF0001US-Chromebook-PC-Intel-Celeron-N3050-1-6-GHz-Dual-Core-Processor-4-GB-DDR3L-SDRAM-16-GB-Storage-11-6-inch-Display-Chro/104435777'
p7
sS'price'
p8
V$257.37
p9
sS'properties'
p10
(dp11
sS'title'
p12
VRefurbished Lenovo N22 80SF0001US Chromebook PC - Intel Celeron N3050 1.6 GHz Dual-Core Processor - 4 GB DDR3L SDRAM - 16 GB Storage - 11.6-inch Display - Chrome OS
p13
sb.