ccopy_reg
_reconstructor
p0
(c__main__
ProductRecord
p1
c__builtin__
object
p2
Ntp3
Rp4
(dp5
S'product_url'
p6
S'http://www.walmart.com/ip/Refurbished-HP-14-ak040wm-14-Chromebook-1-80GHz-Intel-Celeron-N2940-4GB-RAM-16GB-eMMC-Drive/541985271'
p7
sS'price'
p8
V$259.99
p9
sS'properties'
p10
(dp11
VAssembled Product Dimensions (L x W x H)
p12
V13.50 x 0.70 x 9.45 Inches
p13
sVFeatures
p14
VNo features description available
p15
sVBrand
p16
VHP
p17
sVManufacturer Part Number
p18
V14-ak040wm
p19
sVModel
p20
VVIPRB-14-ak040wm
p21
sVScreen Size
p22
V14
p23
ssS'title'
p24
VRefurbished HP 14-ak040wm 14" Chromebook 1.80GHz Intel Celeron N2940 4GB RAM 16GB eMMC Drive
p25
sb.