ccopy_reg
_reconstructor
p0
(c__main__
ProductRecord
p1
c__builtin__
object
p2
Ntp3
Rp4
(dp5
S'product_url'
p6
S'http://www.walmart.com/ip/Refurbished-Acer-C738T-C5R6-11-6-Touchscreen-LCD-Chromebook-Intel-Celeron-N3150-Quad-core-4-Core-1-60-GHz-4-GB-DDR3L-SDRAM-32-GB-Flash-Memory-Chrome-/669912217'
p7
sS'price'
p8
V$288.58
p9
sS'properties'
p10
(dp11
sS'title'
p12
VRefurbished Acer C738T-C5R6 11.6" Touchscreen LCD Chromebook - Intel Celeron N3150 Quad-core (4 Core) 1.60 GHz - 4 GB DDR3L SDRAM - 32 GB Flash Memory - Chrome OS - 1366 x 768 - In-plane Switching
p13
sb.