ccopy_reg
_reconstructor
p0
(c__main__
ProductRecord
p1
c__builtin__
object
p2
Ntp3
Rp4
(dp5
S'product_url'
p6
S'http://www.walmart.com/ip/HP-EliteBook-x360-1030-G2-13-3-Core-i5-7300U-8-GB-RAM-256-GB-SSD-US/128613650'
p7
sS'price'
p8
S'N/A'
p9
sS'properties'
p10
(dp11
VRAM Memory
p12
V8 Gigabytes
p13
sVOperating System
p14
VWindows 10
p15
sVFeatures
p16
V8GB 256GB SSD 13.3IN BT W10P 64BIT
p17
sVBrand
p18
VHP
p19
sVProcessor Speed
p20
V2.6 Gigahertz
p21
sVManufacturer Part Number
p22
V1NM38UT#ABA
p23
sVHard Drive Capacity
p24
V256 Gigabytes
p25
sVBattery Life
p26
V16 Hours
p27
sVAssembled Product Dimensions (L x W x H)
p28
V5.00 x 5.00 x 5.00 Inches
p29
sVModel
p30
V1NM38UT#ABA
p31
sVScreen Size
p32
V13.30 Inches
p33
sVProcessor Type
p34
VIntel i5-7300U
p35
sVCondition
p36
VNew
p37
ssS'title'
p38
VHP EliteBook x360 1030 G2 - 13.3" - Core i5 7300U - 8 GB RAM - 256 GB SSD - US
p39
sb.