ccopy_reg
_reconstructor
p0
(c__main__
ProductRecord
p1
c__builtin__
object
p2
Ntp3
Rp4
(dp5
S'product_url'
p6
S'http://www.walmart.com/ip/HP-Chromebook-14-x013dx-14-Tegra-K1-2-30GHz-4GB-RAM-16GB-SSD-Certified-Refurbished/566077538'
p7
sS'price'
p8
V$299.99
p9
sS'properties'
p10
(dp11
VRAM Memory
p12
V4 GB
p13
sVOperating System
p14
VCHROMEOS
p15
sVBrand
p16
VHP
p17
sVManufacturer Part Number
p18
VJ9M89UA#ABA
p19
sVHard Drive Capacity
p20
V16 GB
p21
sVModel
p22
VJ9M89UA#ABA
p23
sVScreen Size
p24
V14\u005c"
p25
sVProcessor Type
p26
VNvidia Tegra
p27
ssS'title'
p28
VHP Chromebook 14-x013dx - 14" - Tegra K1 2.30GHz - 4GB RAM - 16GB SSD (Certified Refurbished)
p29
sb.