ccopy_reg
_reconstructor
p0
(c__main__
ProductRecord
p1
c__builtin__
object
p2
Ntp3
Rp4
(dp5
S'product_url'
p6
S'http://www.walmart.com/ip/HP-Chromebook-14-G5-14-Chromebook-Laptop-Celeron-N3350-8GB-32GB-eMMC/843366154'
p7
sS'price'
p8
V$304.38
p9
sS'properties'
p10
(dp11
VRAM Memory
p12
V8 Gigabytes
p13
sVOperating System
p14
VChrome OS
p15
sVBrand
p16
VHP
p17
sVProcessor Speed
p18
V1.1 Gigahertz
p19
sVManufacturer Part Number
p20
V3NU64UT#ABA
p21
sVHard Drive Capacity
p22
V32 Gigabytes
p23
sVBattery Life
p24
V11 Hours
p25
sVAssembled Product Dimensions (L x W x H)
p26
V8.00 x 4.00 x 2.00 Inches
p27
sVModel
p28
V3NU64UT#ABA
p29
sVScreen Size
p30
V14.00 Inches
p31
sVProcessor Type
p32
VIntel N3350
p33
sVCondition
p34
VNew
p35
ssS'title'
p36
VHP Chromebook 14 G5 14" Chromebook Laptop Celeron N3350 8GB 32GB eMMC
p37
sb.