ccopy_reg
_reconstructor
p0
(c__main__
ProductRecord
p1
c__builtin__
object
p2
Ntp3
Rp4
(dp5
S'product_url'
p6
S'http://www.walmart.com/ip/Chrom-11-6-N3060-16g-4g-Gry-3c/199706554'
p7
sS'price'
p8
V$311.69
p9
sS'properties'
p10
(dp11
VRAM Memory
p12
V8 Gigabytes
p13
sVOperating System
p14
VChrome OS
p15
sVBrand
p16
VHP
p17
sVProcessor Speed
p18
V1.1 Gigahertz
p19
sVManufacturer Part Number
p20
V3PD96UT#ABA
p21
sVHard Drive Capacity
p22
V32 Gigabytes
p23
sVBattery Life
p24
V13 Hours
p25
sVModel
p26
V3PD96UT#ABA
p27
sVScreen Size
p28
V11.60 Inches
p29
sVProcessor Type
p30
VIntel N3450
p31
sVCondition
p32
VNew
p33
ssS'title'
p34
VHP Chromebook 11 G6 - Education Edition - Celeron N3450 / 1.1 GHz - Chrome OS - 8 GB RAM - 32 GB eMMC - 11.6" 1366 x 768 (HD) - HD Graphics 500 - Wi-Fi, Bluetooth - kbd: US
p35
sb.