ccopy_reg
_reconstructor
p0
(c__main__
ProductRecord
p1
c__builtin__
object
p2
Ntp3
Rp4
(dp5
S'product_url'
p6
S'http://www.walmart.com/ip/Refurbished-Dell-Inspiron-15-7000-Series-I7568-5249T-Convertible-Notebook-PC-Intel-Core-i7-6500U-2-5-GHz-Dual-Core-Processor-8-GB-DDR3L-RAM-256-GB-So/534241602'
p7
sS'price'
p8
S'N/A'
p9
sS'properties'
p10
(dp11
sS'title'
p12
VRefurbished Dell Inspiron 15 7000 Series I7568-5249T Convertible Notebook PC - Intel Core i7-6500U 2.5 GHz Dual-Core Processor - 8 GB DDR3L RAM - 256 GB Solid State Drive - 15.6-inch 4K UHD
p13
sb.