ccopy_reg
_reconstructor
p0
(c__main__
ProductRecord
p1
c__builtin__
object
p2
Ntp3
Rp4
(dp5
S'product_url'
p6
S'http://www.walmart.com/ip/Dell-Chromebook-11-3380-Intel-Celeron-3855U-X2-1-6GHz-4GB-32GB-13-3-Black-Scratch-And-Dent-Refurbished/790463005'
p7
sS'price'
p8
V$315.78
p9
sS'properties'
p10
(dp11
sS'title'
p12
VRefurbished Acer CB5-312T-K6TF 13.3" Touchscreen LCD Chromebook - MediaTek M8173C Quad-core (4 Core) 2.10 GHz - 4 GB LPDDR3 - 32 GB Flash Memory - Chrome OS - 1920 x 1080 - In-plane Switching (IPS)
p13
sb.