ccopy_reg
_reconstructor
p0
(c__main__
ProductRecord
p1
c__builtin__
object
p2
Ntp3
Rp4
(dp5
S'product_url'
p6
S'http://www.walmart.com/ip/Acer-C771-C4TM-Chromebook-CELERON-3855U-1-6-4GB-32GB-11-6IN-CHROME-OS/633298037'
p7
sS'price'
p8
V$315.58
p9
sS'properties'
p10
(dp11
VRAM Memory
p12
V4 Gigabytes
p13
sVOperating System
p14
VChrome OS
p15
sVBrand
p16
VAcer
p17
sVProcessor Speed
p18
V1.6 Gigahertz
p19
sVManufacturer Part Number
p20
VNX.GNZAA.002
p21
sVHard Drive Capacity
p22
V32 Gigabytes
p23
sVAssembled Product Dimensions (L x W x H)
p24
V15.00 x 9.00 x 3.00 Inches
p25
sVModel
p26
VNX.GNZAA.002
p27
sVScreen Size
p28
V11.6 in
p29
sVProcessor Type
p30
VIntel 3855U
p31
sVCondition
p32
VNew
p33
ssS'title'
p34
VAcer C771-C4TM Chromebook CELERON 3855U 1.6 4GB 32GB 11.6IN CHROME OS
p35
sb.