ccopy_reg
_reconstructor
p0
(c__main__
ProductRecord
p1
c__builtin__
object
p2
Ntp3
Rp4
(dp5
S'product_url'
p6
S'http://www.walmart.com/ip/Refurbished-HP-11-6-Chromebook-11-G4-4-GB-RAM-16-GB-SSD-Intel-HD-Graphics-Black-P0B76UT-ABA/218281960'
p7
sS'price'
p8
V$371.18
p9
sS'properties'
p10
(dp11
VBrand
p12
VHP
p13
sVRAM Memory
p14
V4 GB
p15
sVOperating System
p16
VChrome OS
p17
sVmanufacturer_part_number
p18
Vp0b76ut # aba )
p19
ssS'title'
p20
VRefurbished HP 11.6 Chromebook 11 G4, 4 GB RAM, 16 GB SSD, Intel HD Graphics, Black (P0B76UT#ABA)
p21
sb.