ccopy_reg
_reconstructor
p0
(c__main__
ProductRecord
p1
c__builtin__
object
p2
Ntp3
Rp4
(dp5
S'product_url'
p6
S'http://www.walmart.com/ip/Chrm-14in-N2840-16g-4g-W-47-sv-3c/136293993'
p7
sS'price'
p8
V$382.99
p9
sS'properties'
p10
(dp11
VBrand
p12
VHP
p13
sVScreen Size
p14
V14\u005c"
p15
sVCondition
p16
VNew
p17
ssS'title'
p18
VChrm 14in N2840 16g 4g W/sv 3c
p19
sb.