ccopy_reg
_reconstructor
p0
(c__main__
ProductRecord
p1
c__builtin__
object
p2
Ntp3
Rp4
(dp5
S'product_url'
p6
S'http://www.walmart.com/ip/HP-Chromebook-11-G6-EE-w-USB-C-Notebook-Power-Bank-Chromebook-11-G6-EE/754217925'
p7
sS'price'
p8
V$406.95
p9
sS'properties'
p10
(dp11
VBrand
p12
VHP
p13
sVOperating System
p14
VChrome OS
p15
sVCondition
p16
VNew
p17
ssS'title'
p18
V"HP Chromebook 11 G6 EE w/ USB-C Notebook Power Bank Chromebook 11 G6 EE"
p19
sb.