ccopy_reg
_reconstructor
p0
(c__main__
ProductRecord
p1
c__builtin__
object
p2
Ntp3
Rp4
(dp5
S'product_url'
p6
S'http://www.walmart.com/ip/Acer-11-6-Chromebook-Laptop-2GB-16GB-C720-2802/45386188'
p7
sS'price'
p8
V$407.30
p9
sS'properties'
p10
(dp11
VRAM Memory
p12
V16 GB
p13
sVOperating System
p14
VChrome OS
p15
sVColor Category
p16
VGray
p17
sVLaptop Computer Type
p18
VPC Laptops
p19
sVBrand
p20
VAcer
p21
sVManufacturer
p22
VAcer
p23
sVCondition
p24
VNew
p25
sVmanufacturer_part_number
p26
VC720-2802
p27
ssS'title'
p28
VAcer 11.6  Chromebook Laptop 2GB 16GB | C720-2802
p29
sb.