ccopy_reg
_reconstructor
p0
(c__main__
ProductRecord
p1
c__builtin__
object
p2
Ntp3
Rp4
(dp5
S'product_url'
p6
S'http://www.walmart.com/ip/Acer-Chromebook-C910-3916-Chromebook/882919758'
p7
sS'price'
p8
V$454.95
p9
sS'properties'
p10
(dp11
VBrand
p12
VAcer
p13
sVmanufacturer_part_number
p14
Vc910-3916
p15
ssS'title'
p16
V"Acer Chromebook C910-3916 Chromebook"
p17
sb.