ccopy_reg
_reconstructor
p0
(c__main__
ProductRecord
p1
c__builtin__
object
p2
Ntp3
Rp4
(dp5
S'product_url'
p6
S'http://www.walmart.com/ip/Refurbished-HP-EliteBook-Revolve-810-G3-Convertible-Laptop-11-6-4GB-RAM-128GB-i5-5200U-Silver-P0C06UT-ABA/138068410'
p7
sS'price'
p8
S'N/A'
p9
sS'properties'
p10
(dp11
VOperating System
p12
VMicrosoft Windows
p13
sVBrand
p14
VHP
p15
sVRAM Memory
p16
V4 GB
p17
sVScreen Size
p18
V11.6\u005c"
p19
sVHard Drive Capacity
p20
V128 GB
p21
ssS'title'
p22
VRefurbished HP EliteBook Revolve 810 G3 Convertible Laptop 11.6", 4GB RAM, 128GB, i5-5200U - Silver P0C06UT-ABA
p23
sb.