ccopy_reg
_reconstructor
p0
(c__main__
ProductRecord
p1
c__builtin__
object
p2
Ntp3
Rp4
(dp5
S'product_url'
p6
S'http://www.walmart.com/ip/14-N3160-4GB-32GB-Chrome/143334829'
p7
sS'price'
p8
V$470.10
p9
sS'properties'
p10
(dp11
VBrand
p12
VAcer
p13
sVScreen Size
p14
V14
p15
sVCondition
p16
VNew
p17
ssS'title'
p18
V14"  N3160  4GB 32GB Chrome
p19
sb.