ccopy_reg
_reconstructor
p0
(c__main__
ProductRecord
p1
c__builtin__
object
p2
Ntp3
Rp4
(dp5
S'product_url'
p6
S'http://www.walmart.com/ip/Acer-Chromebook-C910-54M1-Chromebook/743262939'
p7
sS'price'
p8
V$580.73
p9
sS'properties'
p10
(dp11
VBrand
p12
VAcer
p13
sVmanufacturer_part_number
p14
Vc910-54m1
p15
ssS'title'
p16
V"Acer Chromebook C910-54M1 Chromebook"
p17
sb.