ccopy_reg
_reconstructor
p0
(c__main__
ProductRecord
p1
c__builtin__
object
p2
Ntp3
Rp4
(dp5
S'product_url'
p6
S'http://www.walmart.com/ip/Lenovo-ThinkPad-11e-11-6-Celeron-N3450-4-GB-RAM-128-GB-SSD/305873709'
p7
sS'price'
p8
V$539.25
p9
sS'properties'
p10
(dp11
VRAM Memory
p12
V4 Gigabytes
p13
sVOperating System
p14
VWindows 10 Pro (English)
p15
sVVideo Game Platform
p16
VSee Description
p17
sVBrand
p18
VLenovo
p19
sVProcessor Speed
p20
V1.1 Gigahertz
p21
sVManufacturer Part Number
p22
V20HV000MUS
p23
sVHard Drive Capacity
p24
V128 Gigabytes
p25
sVAssembled Product Dimensions (L x W x H)
p26
V5.00 x 5.00 x 5.00 Inches
p27
sVModel
p28
V20HV000MUS
p29
sVScreen Size
p30
V11.60 Inches
p31
sVProcessor Type
p32
VIntel N3450
p33
sVCondition
p34
VNew
p35
ssS'title'
p36
VLenovo ThinkPad 11e - 11.6" - Celeron N3450 - 4 GB RAM - 128 GB SSD
p37
sb.