ccopy_reg
_reconstructor
p0
(c__main__
ProductRecord
p1
c__builtin__
object
p2
Ntp3
Rp4
(dp5
S'product_url'
p6
S'http://www.walmart.com/ip/Lenovo-Thinkpad-13-Chromebook-20GL-20GL0008US-Thinkpad-13-Chromebook-20GL/267685590'
p7
sS'price'
p8
V$670.94
p9
sS'properties'
p10
(dp11
VBrand
p12
VLenovo
p13
sVOperating System
p14
VChrome OS
p15
sVCondition
p16
VNew
p17
sVmanufacturer_part_number
p18
V20gl0008us
p19
ssS'title'
p20
V"Lenovo Thinkpad 13 Chromebook 20GL 20GL0008US Thinkpad 13 Chromebook 20GL"
p21
sb.