ccopy_reg
_reconstructor
p0
(c__main__
ProductRecord
p1
c__builtin__
object
p2
Ntp3
Rp4
(dp5
S'product_url'
p6
S'http://www.walmart.com/ip/HP-Chromebook-13-G1-13-3-Pentium-4405Y-4-GB-RAM-32-GB-SSD/425002566'
p7
sS'price'
p8
V$678.32
p9
sS'properties'
p10
(dp11
VRAM Memory
p12
V4 Gigabytes
p13
sVOperating System
p14
VChrome OS (English)
p15
sVBrand
p16
VHP
p17
sVProcessor Speed
p18
V1.5 Gigahertz
p19
sVManufacturer Part Number
p20
VY5Q74UT#ABA
p21
sVHard Drive Capacity
p22
V4 Gigabytes
p23
sVBattery Life
p24
V12 Hours
p25
sVAssembled Product Dimensions (L x W x H)
p26
V12.00 x 19.00 x 3.00 Inches
p27
sVModel
p28
VY5Q74UT#ABA
p29
sVScreen Size
p30
V13.30 Inches
p31
sVProcessor Type
p32
VIntel 4405Y
p33
sVCondition
p34
VNew
p35
ssS'title'
p36
VHP Chromebook 13 G1 - 13.3" - Pentium 4405Y - 4 GB RAM - 32 GB SSD
p37
sb.