ccopy_reg
_reconstructor
p0
(c__main__
ProductRecord
p1
c__builtin__
object
p2
Ntp3
Rp4
(dp5
S'product_url'
p6
S'http://www.walmart.com/ip/HP-Chromebook-13-G1-13-3-34-16-9-Chromebook-3200-x-1800-BrightView-Intel-Pentium-4405Y-Dual-core-2-Core-1-50-GHz-4-GB-LPDDR3-32-GB-Flash-Memory-Capac/112263535'
p7
sS'price'
p8
V$760.57
p9
sS'properties'
p10
(dp11
VAssembled Product Dimensions (L x W x H)
p12
V19.10 x 12.10 x 3.10 Inches
p13
sVBrand
p14
VHP INC. - CHROMEBOOKS
p15
sVScreen Size
p16
V13.3
p17
ssS'title'
p18
VHP Chromebook 13 G1 13.3" 16:9 Chromebook - 3200 x 1800 - BrightView - Intel Pentium 4405Y Dual-core (2 Core) 1.50 GHz - 4 GB LPDDR3 - 32 GB Flash Memory Capacity - Chrome OS - Intel HD Graph
p19
sb.