ccopy_reg
_reconstructor
p0
(c__main__
ProductRecord
p1
c__builtin__
object
p2
Ntp3
Rp4
(dp5
S'product_url'
p6
S'http://www.walmart.com/ip/HP-11-v010wm-11-6-Chromebook-Chrome-Intel-Celeron-N3060-Processor-4GB-RAM-16GB-eMMC-Drive/410367331'
p7
sS'price'
p8
V$199.00
p9
sS'properties'
p10
(dp11
VRAM Memory
p12
V4 KB
p13
sVOperating System
p14
VChrome
p15
sVFeatures
p16
VEPEAT
p17
sVBrand
p18
VHP
p19
sVProcessor Speed
p20
V1.6 Hz
p21
sVHard Drive Capacity
p22
V16 KB
p23
sVBattery Life
p24
V12 hours 45 minutes
p25
sVAssembled Product Dimensions (L x W x H)
p26
V11.26 x 8.07 x 0.72 Inches
p27
sVModel
p28
V11-v010wm
p29
sVScreen Size
p30
V11.6"
p31
sVProcessor Type
p32
VIntel Celeron
p33
sVmanufacturer_part_number
p34
V11-v010wm
p35
ssS'title'
p36
VHP 11-v010wm 11.6" Chromebook, Chrome, Intel Celeron N3060 Processor, 4GB RAM, 16GB eMMC Drive
p37
sb.