ccopy_reg
_reconstructor
p0
(c__main__
ProductRecord
p1
c__builtin__
object
p2
Ntp3
Rp4
(dp5
S'product_url'
p6
S'http://www.walmart.com/ip/Acer-Chromebook-R11-CB5-132T-C67Q-Touch-screen-Chromebook-Intel-Celeron-N3060-Processor-11-6-IPS-Multitouch-screen-4GB-Memory-32GB-SSD-Google-Chrome-/468473528'
p7
sS'price'
p8
V$279.00
p9
sS'properties'
p10
(dp11
VRAM Memory
p12
V4 KB
p13
sVOperating System
p14
VChrome OS
p15
sVBrand
p16
VAcer
p17
sVProcessor Speed
p18
V1.6 Hz
p19
sVManufacturer Part Number
p20
VNX.GNWAA.002
p21
sVHard Drive Capacity
p22
V32 KB
p23
sVAssembled Product Dimensions (L x W x H)
p24
V11.57 x 8.03 x 9.33 Inches
p25
sVModel
p26
VCB5-132T-C67Q
p27
sVScreen Size
p28
V11.6"
p29
sVProcessor Type
p30
VIntel Celeron
p31
ssS'title'
p32
VAcer Chromebook R11 CB5-132T-C67Q Touch screen Chromebook with Intel Celeron N3060 Processor, 11.6" IPS Multitouch screen 4GB Memory, 32GB SSD and Google Chrome OS
p33
sb.