ccopy_reg
_reconstructor
p0
(c__main__
ProductRecord
p1
c__builtin__
object
p2
Ntp3
Rp4
(dp5
S'product_url'
p6
S'http://www.walmart.com/ip/HP-Black-14-Pavilion-14-C010US-Chromebook-PC-with-Intel-Celeron-847-Processor-and-Chrome-Operating-System/23204401'
p7
sS'price'
p8
S'N/A'
p9
sS'properties'
p10
(dp11
VRAM Memory
p12
V2 GB
p13
sVOperating System
p14
VChrome
p15
sVFeatures
p16
VEPEAT
p17
sVVideo Game Platform
p18
VLinux
p19
sVBrand
p20
VHP
p21
sVProcessor Speed
p22
V1.10 GHz
p23
sVManufacturer Part Number
p24
VD1A48UA#ABA
p25
sVMaximum RAM Supported
p26
V4 GB
p27
sVHard Drive Capacity
p28
V16 GB
p29
sVBattery Life
p30
V4 hours 15 minutes
p31
sVAssembled Product Dimensions (L x W x H)
p32
V13.66 x 9.37 x 0.83 Inches
p33
sVModel
p34
VHP 14-c010us
p35
sVScreen Size
p36
V14.0"
p37
sVProcessor Type
p38
VIntel Celeron
p39
ssS'title'
p40
VHP Black 14" Pavilion 14-C010US Chromebook PC with Intel Celeron 847 Processor and Chrome Operating System
p41
sb.