ccopy_reg
_reconstructor
p0
(c__main__
ProductRecord
p1
c__builtin__
object
p2
Ntp3
Rp4
(dp5
S'product_url'
p6
S'http://www.walmart.com/ip/Acer-Chromebook-Demo-Unit-Cb/679931840'
p7
sS'price'
p8
V$279.00
p9
sS'properties'
p10
(dp11
VRAM Memory
p12
V4 GB
p13
sVOperating System
p14
VChrome OS
p15
sVLaptop Computer Type
p16
VChromebooks
p17
sVBrand
p18
VAcer
p19
sVManufacturer Part Number
p20
VNX.GNWAA.001
p21
sVProcessor Core Type
p22
VDual-core (2 Core)
p23
sVProcessor Type
p24
VIntel Celeron
p25
sVScreen Size
p26
V11.6"
p27
sVModel
p28
VCB5-132T-C18Y
p29
sVCondition
p30
VNew
p31
sVManufacturer
p32
VSupplier Generic
p33
ssS'title'
p34
VAcer Chromebook Demo Unit - Cb
p35
sb.