ccopy_reg
_reconstructor
p0
(c__main__
ProductRecord
p1
c__builtin__
object
p2
Ntp3
Rp4
(dp5
S'product_url'
p6
S'http://www.walmart.com/ip/Acer-11-6-Chromebook-2GB-16GB-C720-2827/34334436'
p7
sS'price'
p8
V$119.00
p9
sS'properties'
p10
(dp11
VRAM Memory
p12
V2 GB
p13
sVOperating System
p14
VChrome OS
p15
sVFeatures
p16
VProcessor Model: Celeron 2955U, Screen Resolution: 1366 x 768, Processor Speed: 1.4GHz, Screen Size: 11.6\u005c", Processor Type: Intel
p17
sVBrand
p18
VAcer
p19
sVProcessor Speed
p20
V1.40 GHz
p21
sVHard Drive Capacity
p22
V16 GB
p23
sVBattery Life
p24
V8.50 Hour
p25
sVAssembled Product Dimensions (L x W x H)
p26
V1.00 x 0.01 x 0.01 Inches
p27
sVModel
p28
VHD Graphics, MD222, C720, C720-29552G01aii
p29
sVScreen Size
p30
V11.6"
p31
sVProcessor Type
p32
VIntel Celeron
p33
sVCondition
p34
VNew
p35
sVmanufacturer_part_number
p36
Vc720-2827
p37
ssS'title'
p38
VAcer 11.6 Chromebook 2GB 16GB - C720-2827
p39
sb.