ccopy_reg
_reconstructor
p0
(c__main__
ProductRecord
p1
c__builtin__
object
p2
Ntp3
Rp4
(dp5
S'product_url'
p6
S'http://www.walmart.com/ip/Refurbished-HP-Stream-11-6-Laptop-Windows-10-Home-Intel-Celeron-N3060-Processor-4GB-RAM-32GB-eMMC-Storage/55358401'
p7
sS'price'
p8
V$139.00
p9
sS'properties'
p10
(dp11
VRAM Memory
p12
V4 KB
p13
sVOperating System
p14
VWindows 10
p15
sVFeatures
p16
VEPEAT
p17
sVVideo Game Platform
p18
VPC
p19
sVBrand
p20
VHP
p21
sVProcessor Speed
p22
V1.6 Hz
p23
sVManufacturer Part Number
p24
V11-y020wm
p25
sVHard Drive Capacity
p26
V32 KB
p27
sVBattery Life
p28
V10 hours
p29
sVAssembled Product Dimensions (L x W x H)
p30
V10.24 x 17.13 x 4.69 Inches
p31
sVModel
p32
V11-y020wm
p33
sVScreen Size
p34
V11.6"
p35
sVProcessor Type
p36
VIntel Celeron
p37
ssS'title'
p38
VRefurbished HP Stream 11.6" Laptop, Windows 10 Home, Intel Celeron N3060 Processor, 4GB RAM, 32GB eMMC Storage
p39
sb.