ccopy_reg
_reconstructor
p0
(c__main__
ProductRecord
p1
c__builtin__
object
p2
Ntp3
Rp4
(dp5
S'product_url'
p6
S'http://www.walmart.com/ip/HP-Flyer-Red-15-6-15-f272wm-Laptop-PC-with-Intel-Pentium-N3540-Processor-4GB-Memory-500GB-Hard-Drive-and-Windows-10-Home/46429961'
p7
sS'price'
p8
V$299.00
p9
sS'properties'
p10
(dp11
VRAM Memory
p12
V4 GB
p13
sVOperating System
p14
VWindows 10
p15
sVFeatures
p16
VEPEAT
p17
sVVideo Game Platform
p18
VPC
p19
sVBrand
p20
VHP
p21
sVProcessor Speed
p22
V2.16 GHz
p23
sVManufacturer Part Number
p24
VN5Y04UA#ABA
p25
sVHard Drive Capacity
p26
V500 GB
p27
sVBattery Life
p28
V4.5 h
p29
sVAssembled Product Dimensions (L x W x H)
p30
V10.16 x 15.18 x 0.89 Inches
p31
sVModel
p32
V15-f271wm
p33
sVScreen Size
p34
V15.6 in
p35
sVProcessor Type
p36
VIntel Pentium
p37
sVCondition
p38
VNew
p39
ssS'title'
p40
VHP Flyer Red 15.6" 15-f272wm Laptop PC with Intel Pentium N3540 Processor, 4GB Memory, 500GB Hard Drive and Windows 10 Home
p41
sb.