ccopy_reg
_reconstructor
p0
(c__main__
ProductRecord
p1
c__builtin__
object
p2
Ntp3
Rp4
(dp5
S'product_url'
p6
S'http://www.walmart.com/ip/HP-Flyer-Red-15-6-15-f272wm-Laptop-PC-with-Intel-Pentium-N3540-Processor-4GB-Memory-500GB-Hard-Drive-and-Windows-10-Home/46429958'
p7
sS'price'
p8
V$299.00
p9
sS'properties'
p10
(dp11
VRAM Memory
p12
V4 GB
p13
sVOperating System
p14
VWindows 10
p15
sVColor Category
p16
VRed
p17
sVVideo Game Platform
p18
VPC
p19
sVBrand
p20
VHP
p21
sVManufacturer Part Number
p22
VN5Y05UA#ABA
p23
sVWireless Technology
p24
VEthernet
p25
sVLaptop Computer Type
p26
Vnotebook
p27
sVProcessor Core Type
p28
VQuad-core (4 Core)
p29
sVProcessor Type
p30
VIntel Pentium
p31
sVScreen Size
p32
V15.6 in
p33
sVModel
p34
V15-f272wm
p35
sVCondition
p36
VNew
p37
sVManufacturer
p38
VHewlett Packard
p39
ssS'title'
p40
VHP Flyer Red 15.6" 15-f272wm Laptop PC with Intel Pentium N3540 Processor, 4GB Memory, 500GB Hard Drive and Windows 10 Home
p41
sb.