ccopy_reg
_reconstructor
p0
(c__main__
ProductRecord
p1
c__builtin__
object
p2
Ntp3
Rp4
(dp5
S'product_url'
p6
S'http://www.walmart.com/ip/HP-Stream-14-ax067nr-14-Laptop-Windows-10-Home-Intel-Celeron-N3060-Dual-Core-Processor-4GB-RAM-32GB-Flash-Storage/54903950'
p7
sS'price'
p8
V$219.99
p9
sS'properties'
p10
(dp11
VRAM Memory
p12
V4 KB
p13
sVOperating System
p14
VWindows 10
p15
sVFeatures
p16
VEPEAT
p17
sVVideo Game Platform
p18
VPC
p19
sVBrand
p20
VHP
p21
sVProcessor Speed
p22
V1.6 Hz
p23
sVManufacturer Part Number
p24
VX7S50UA#ABA
p25
sVHard Drive Capacity
p26
V32 KB
p27
sVBattery Life
p28
V10 hours 45 minutes
p29
sVAssembled Product Dimensions (L x W x H)
p30
V8.90 x 13.27 x 0.70 Inches
p31
sVModel
p32
V14-ax067nr
p33
sVScreen Size
p34
V14.0"
p35
sVProcessor Type
p36
VIntel Celeron
p37
ssS'title'
p38
VHP Stream 14-ax067nr 14" Laptop, Windows 10 Home, Intel Celeron N3060 Dual-Core Processor, 4GB RAM, 32GB Flash Storage
p39
sb.