ccopy_reg
_reconstructor
p0
(c__main__
ProductRecord
p1
c__builtin__
object
p2
Ntp3
Rp4
(dp5
S'product_url'
p6
S'http://www.walmart.com/ip/Dell-Inspiron-11-6-Laptop-Intel-Celeron-4GB-Memory-32GB-eMMC-Flash-Memory-Bali-blue/54695288'
p7
sS'price'
p8
V$178.99
p9
sS'properties'
p10
(dp11
VRAM Memory
p12
V4 GB
p13
sVOperating System
p14
VWindows 10
p15
sVFeatures
p16
VEPEAT
p17
sVVideo Game Platform
p18
VPC
p19
sVBrand
p20
VDell
p21
sVProcessor Speed
p22
V1.60 GHz
p23
sVManufacturer Part Number
p24
Vi3162-0003BLU
p25
sVHard Drive Capacity
p26
V32 GB
p27
sVBattery Life
p28
V9 hours 30 minutes
p29
sVAssembled Product Dimensions (L x W x H)
p30
V16.00 x 10.40 x 3.00 Inches
p31
sVModel
p32
Vi3162-0003BLU
p33
sVScreen Size
p34
V11.6"
p35
sVProcessor Type
p36
VIntel Celeron
p37
ssS'title'
p38
VDell - Inspiron 11.6" Laptop - Intel Celeron - 4GB Memory - 32GB eMMC Flash Memory - Bali blue
p39
sb.