ccopy_reg
_reconstructor
p0
(c__main__
ProductRecord
p1
c__builtin__
object
p2
Ntp3
Rp4
(dp5
S'product_url'
p6
S'http://www.walmart.com/ip/Acer-Aspire-A315-51-51SL-15-6-HD-Laptop-7th-Gen-Intel-Core-i5-7200U-6GB-DDR4-1TB-HDD-Windows-10-Home/860360734'
p7
sS'price'
p8
V$429.00
p9
sS'properties'
p10
(dp11
VRAM Memory
p12
V6 KB
p13
sVOperating System
p14
VWindows 10
p15
sVBrand
p16
VAcer
p17
sVProcessor Speed
p18
V2 Hz
p19
sVMaximum RAM Supported
p20
V12 KB
p21
sVHard Drive Capacity
p22
V1 KB
p23
sVBattery Life
p24
V6.5 h
p25
sVAssembled Product Dimensions (L x W x H)
p26
V19.61 x 2.56 x 12.20 Inches
p27
sVModel
p28
VA315-51-51SL
p29
sVScreen Size
p30
V15.6 in
p31
sVProcessor Type
p32
VIntel Core i5
p33
sVCondition
p34
VNew
p35
sVmanufacturer_part_number
p36
Va315-51-51sl
p37
ssS'title'
p38
VAcer Aspire A315-51-51SL, 15.6" HD Laptop, 7th Gen Intel Core i5-7200U, 6GB DDR4, 1TB HDD, Windows 10 Home
p39
sb.