ccopy_reg
_reconstructor
p0
(c__main__
ProductRecord
p1
c__builtin__
object
p2
Ntp3
Rp4
(dp5
S'product_url'
p6
S'http://www.walmart.com/ip/Epik-Teqnio-ELL1201T-12-5-Laptop-Windows-10-Home-Intel-Atom-x5-Z8350-Processor-2GB-RAM-32GB-Flash-Drive/55474689'
p7
sS'price'
p8
V$129.00
p9
sS'properties'
p10
(dp11
VRAM Memory
p12
V2 KB
p13
sVOperating System
p14
VWindows 10
p15
sVVideo Game Platform
p16
VPC
p17
sVBrand
p18
VEPIK
p19
sVProcessor Speed
p20
V1.44 Hz
p21
sVManufacturer Part Number
p22
VELL1201T-RD
p23
sVHard Drive Capacity
p24
V32 KB
p25
sVAssembled Product Dimensions (L x W x H)
p26
V14.37 x 9.44 x 2.75 Inches
p27
sVModel
p28
VELL1201T-RD
p29
sVScreen Size
p30
V12.5"
p31
sVProcessor Type
p32
VIntel Atom x5-Z8350 Quad-Core Processor
p33
ssS'title'
p34
VEpik Teqnio ELL1201T 12.5" Laptop, Windows 10 Home, Intel Atom x5-Z8350 Processor, 2GB RAM, 32GB Flash Drive
p35
sb.