ccopy_reg
_reconstructor
p0
(c__main__
ProductRecord
p1
c__builtin__
object
p2
Ntp3
Rp4
(dp5
S'product_url'
p6
S'http://www.walmart.com/ip/HP-14-bw065nr-14-Laptop-AMD-E2-9000e-4GB-DDR4-32GB-eMMC-Win10/710746394'
p7
sS'price'
p8
V$198.99
p9
sS'properties'
p10
(dp11
VRAM Memory
p12
V4 Gigabytes
p13
sVOperating System
p14
VWindows 10
p15
sVColor Category
p16
VBlack
p17
sVLaptop Computer Type
p18
VPC Laptops
p19
sVBrand
p20
VHP
p21
sVHard Drive Capacity
p22
V32 Gigabytes
p23
sVProcessor Core Type
p24
VDual-core (2 Core)
p25
sVProcessor Type
p26
VAMD E2-9000e
p27
sVManufacturer
p28
VHewlett Packard
p29
sVScreen Size
p30
V14.00 Inches
p31
sVModel
p32
V1KU85UA#ABA
p33
sVmanufacturer_part_number
p34
V14-bw065nr
p35
ssS'title'
p36
VHP 14-bw065nr 14" Laptop AMD E2-9000e 4GB DDR4 32GB eMMC Win10
p37
sb.