ccopy_reg
_reconstructor
p0
(c__main__
ProductRecord
p1
c__builtin__
object
p2
Ntp3
Rp4
(dp5
S'product_url'
p6
S'http://www.walmart.com/ip/HP-Envy-x360-N5S77UA-15-U493CL-Convertible-Laptop-PC-Intel-Core-Refurbished/226216772'
p7
sS'price'
p8
S'N/A'
p9
sS'properties'
p10
(dp11
VRAM Memory
p12
V12 GB
p13
sVOperating System
p14
VWindows 10 Home 64-bit Edition
p15
sVBrand
p16
VHP
p17
sVProcessor Speed
p18
V2.5 GHz
p19
sVHard Drive Capacity
p20
V1024 GB
p21
sVModel
p22
VN5S77UA
p23
sVScreen Size
p24
V15.6 in
p25
sVProcessor Type
p26
VIntel Core i7
p27
sVmanufacturer_part_number
p28
Vn5s77ua
p29
ssS'title'
p30
VHP Envy x360 N5S77UA 15-U493CL Convertible Laptop PC - Intel Core (Refurbished)
p31
sb.