ccopy_reg
_reconstructor
p0
(c__main__
ProductRecord
p1
c__builtin__
object
p2
Ntp3
Rp4
(dp5
S'product_url'
p6
S'http://www.walmart.com/ip/HP-15-6-Laptop-Windows-10-Home-AMD-A9-9420-Dual-Core-Processor-4GB-RAM-1TB-Hard-Drive-Assorted-Colors/55935582'
p7
sS'price'
p8
V$399.99
p9
sS'properties'
p10
(dp11
VRAM Memory
p12
V4 KB
p13
sVOperating System
p14
VWindows 10
p15
sVFeatures
p16
VEPEAT
p17
sVVideo Game Platform
p18
VPC
p19
sVBrand
p20
VHP
p21
sVProcessor Speed
p22
V3 Hz
p23
sVManufacturer Part Number
p24
V1VK29UA#ABA
p25
sVHard Drive Capacity
p26
V1 KB
p27
sVBattery Life
p28
V6 hours 45 minutes
p29
sVAssembled Product Dimensions (L x W x H)
p30
V9.99 x 14.96 x 0.94 Inches
p31
sVModel
p32
V15-Bw072Nr
p33
sVScreen Size
p34
V15.6"
p35
sVProcessor Type
p36
VAMD A9-9420 Dual-Core APU Processor
p37
ssS'title'
p38
VHP 15.6" Laptop, Windows 10 Home, AMD A9-9420 Dual-Core Processor, 4GB RAM, 1TB Hard Drive (Assorted Colors)
p39
sb.