ccopy_reg
_reconstructor
p0
(c__main__
ProductRecord
p1
c__builtin__
object
p2
Ntp3
Rp4
(dp5
S'product_url'
p6
S'http://www.walmart.com/ip/Dell-Inspiron-15-5000-i5567-15-6-Laptop-Windows-10-Home-Intel-Core-i5-7200U-Processor-8GB-RAM-1TB-Hard-Drive/54906451'
p7
sS'price'
p8
V$499.00
p9
sS'properties'
p10
(dp11
VRAM Memory
p12
V8 GB
p13
sVOperating System
p14
VWindows 10
p15
sVVideo Game Platform
p16
VPC
p17
sVBrand
p18
VDell
p19
sVProcessor Speed
p20
V3.10 GHz
p21
sVManufacturer Part Number
p22
Vi5567-1836GRY
p23
sVMaximum RAM Supported
p24
V16 GB
p25
sVHard Drive Capacity
p26
V1 TB
p27
sVAssembled Product Dimensions (L x W x H)
p28
V19.90 x 3.10 x 13.50 Inches
p29
sVModel
p30
Vi5567-1836GRY
p31
sVScreen Size
p32
V15.6"
p33
sVProcessor Type
p34
VIntel Core i5
p35
ssS'title'
p36
VDell Inspiron 15 5000 i5567 15.6" Laptop, Windows 10 Home, Intel Core i5-7200U Processor, 8GB RAM, 1TB Hard Drive
p37
sb.