ccopy_reg
_reconstructor
p0
(c__main__
ProductRecord
p1
c__builtin__
object
p2
Ntp3
Rp4
(dp5
S'product_url'
p6
S'http://www.walmart.com/ip/Dell-Inspiron-i355210040BLK-15-6-Laptop-Windows-10-Home-Intel-Pentium-N3710-Processor-8GB-RAM-1TB-Hard-Drive/54748226'
p7
sS'price'
p8
V$414.99
p9
sS'properties'
p10
(dp11
VRAM Memory
p12
V8 KB
p13
sVOperating System
p14
VWindows 10
p15
sVVideo Game Platform
p16
VPC
p17
sVBrand
p18
VDell
p19
sVProcessor Speed
p20
V2.56 Hz
p21
sVHard Drive Capacity
p22
V1 KB
p23
sVBattery Life
p24
V8 Hours
p25
sVAssembled Product Dimensions (L x W x H)
p26
V19.40 x 13.70 x 3.10 Inches
p27
sVModel
p28
VI355210040BLK
p29
sVScreen Size
p30
V15.6"
p31
sVProcessor Type
p32
VIntel Pentium
p33
sVCondition
p34
VNew
p35
sVmanufacturer_part_number
p36
Vi355210040blk
p37
ssS'title'
p38
VDell Inspiron i355210040BLK 15.6" Laptop, Windows 10 Home, Intel Pentium N3710 Processor, 8GB RAM, 1TB Hard Drive
p39
sb.