ccopy_reg
_reconstructor
p0
(c__main__
ProductRecord
p1
c__builtin__
object
p2
Ntp3
Rp4
(dp5
S'product_url'
p6
S'http://www.walmart.com/ip/HP-Eclipse-Ci3-14-bf040wm-14-Laptop-Full-HD-IPS-Mico-Edge-Display-Windows-10-Home-Intel-Core-i3-7100U-Processor-8GB-Memory-1TB-Hard-Drive/342050069'
p7
sS'price'
p8
V$499.00
p9
sS'properties'
p10
(dp11
VRAM Memory
p12
V8 KB
p13
sVOperating System
p14
VWindows 10
p15
sVColor Category
p16
VSilver
p17
sVLaptop Computer Type
p18
VPC Laptops
p19
sVBrand
p20
VHP
p21
sVManufacturer Part Number
p22
V1WZ16UA#ABA
p23
sVWireless Technology
p24
V802.11ac
p25
sVHard Drive Capacity
p26
V1 KB
p27
sVProcessor Type
p28
V7th Generation Intel?? Core??? i3-7100U Processor7th Generation Intel?? Core??? i3-7100U Processor
p29
sVScreen Size
p30
V14 in
p31
sVModel
p32
V14-bf040wm
p33
sVManufacturer
p34
VHP
p35
ssS'title'
p36
VHP Eclipse Ci3 14-bf040wm 14\u201d Laptop, Full HD IPS Mico Edge Display, Windows 10 Home, Intel Core i3-7100U Processor, 8GB Memory, 1TB Hard Drive
p37
sb.