ccopy_reg
_reconstructor
p0
(c__main__
ProductRecord
p1
c__builtin__
object
p2
Ntp3
Rp4
(dp5
S'product_url'
p6
S'http://www.walmart.com/ip/Acer-Swift-3-SF314-51-76R9-14-1-Laptop-Windows-10-Home-Intel-Core-i7-6500U-Processor-8GB-RAM-256GB-Solid-State-Drive/54735609'
p7
sS'price'
p8
V$699.00
p9
sS'properties'
p10
(dp11
VRAM Memory
p12
V8 KB
p13
sVOperating System
p14
VWindows 10
p15
sVVideo Game Platform
p16
VPC
p17
sVBrand
p18
VAcer
p19
sVProcessor Speed
p20
V2.5 GHz
p21
sVManufacturer Part Number
p22
VSF3145176R9
p23
sVHard Drive Capacity
p24
V256 GB
p25
sVBattery Life
p26
V10 h
p27
sVAssembled Product Dimensions (L x W x H)
p28
V13.43 x 9.31 x 11.34 Inches
p29
sVModel
p30
VSF3145176R9
p31
sVScreen Size
p32
V14 in
p33
sVProcessor Type
p34
VIntel Core i7
p35
sVCondition
p36
VNew
p37
ssS'title'
p38
VAcer Swift 3 SF314-51-76R9 14.1" Laptop, Windows 10 Home, Intel Core i7-6500U Processor, 8GB RAM, 256GB Solid State Drive
p39
sb.