ccopy_reg
_reconstructor
p0
(c__main__
ProductRecord
p1
c__builtin__
object
p2
Ntp3
Rp4
(dp5
S'product_url'
p6
S'http://www.walmart.com/ip/HP-17-Ak010Nr-17-3-Laptop-Windows-10-Home-AMD-A9-9420-Dual-Core-Processor-4GB-RAM-500GB-Hard-Drive/55868222'
p7
sS'price'
p8
V$399.99
p9
sS'properties'
p10
(dp11
VRAM Memory
p12
V4 GB
p13
sVOperating System
p14
VWindows 10
p15
sVFeatures
p16
VEPEAT
p17
sVVideo Game Platform
p18
VPC
p19
sVBrand
p20
VHP
p21
sVProcessor Speed
p22
V3.00 GHz, with a Max Turbo Speed of 3.60 GHz
p23
sVManufacturer Part Number
p24
V1KV44UA#ABA
p25
sVHard Drive Capacity
p26
V500 GB
p27
sVBattery Life
p28
V7 hours 15 minutes
p29
sVAssembled Product Dimensions (L x W x H)
p30
V10.94 x 15.34 x 0.97 Inches
p31
sVModel
p32
VHP 17-Ak010Nr
p33
sVScreen Size
p34
V17.3"
p35
sVProcessor Type
p36
VAMD A9-9420 Dual-Core APU Processor
p37
ssS'title'
p38
VHP 17-Ak010Nr 17.3" Laptop, Windows 10 Home, AMD A9-9420 Dual-Core Processor, 4GB RAM, 500GB Hard Drive
p39
sb.