ccopy_reg
_reconstructor
p0
(c__main__
ProductRecord
p1
c__builtin__
object
p2
Ntp3
Rp4
(dp5
S'product_url'
p6
S'http://www.walmart.com/ip/HP-Notebook-15-bs020nr-Notebook-15-bs020nr/55823226'
p7
sS'price'
p8
V$442.99
p9
sS'properties'
p10
(dp11
VRAM Memory
p12
V4 GB
p13
sVOperating System
p14
VWindows 10
p15
sVFeatures
p16
VEPEAT
p17
sVVideo Game Platform
p18
VPC
p19
sVBrand
p20
VHP
p21
sVProcessor Speed
p22
V2.00 GHz
p23
sVManufacturer Part Number
p24
V1KV00UA#ABA
p25
sVHard Drive Capacity
p26
V1 TB
p27
sVBattery Life
p28
V5 hours 30 minutes
p29
sVAssembled Product Dimensions (L x W x H)
p30
V14.96 x 0.94 x 9.99 Inches
p31
sVModel
p32
VHP 1KV00UA#ABA
p33
sVScreen Size
p34
V15.6"
p35
sVProcessor Type
p36
VIntel Core i3
p37
sVCondition
p38
VNew
p39
ssS'title'
p40
VHP Notebook 15-bs020nr Notebook - 15-bs020nr
p41
sb.