ccopy_reg
_reconstructor
p0
(c__main__
ProductRecord
p1
c__builtin__
object
p2
Ntp3
Rp4
(dp5
S'product_url'
p6
S'http://www.walmart.com/ip/Dell-Inspiron-17-5000-i5767-17-3-Laptop-Windows-10-Home-Intel-Core-i7-7500U-Processor-8GB-RAM-1TB-Hard-Drive/54906454'
p7
sS'price'
p8
V$749.99
p9
sS'properties'
p10
(dp11
VRAM Memory
p12
V8 GB
p13
sVOperating System
p14
VWindows 10
p15
sVFeatures
p16
VSDXC). 2 x USB 3.0, up to 16GB  (additional memory sold seperately) [8GB1D]. 1TB 5400 rpm Hard Drive [1TB54]. Windows 10 Home 64-bit English. AMD Radeon R7 M445 Graphics with 4G GDDR5 graphics memory []. Tray load DVD Drive (Reads and Writes to DVD/CD). SD Card Reader (SD, DDR4, Dual Band 2.4&5 GHz, up to 3.5 GHz)] [71YFWM]. 8GB, 1x1. MaxxAudio (Windows). Backlit Keyboard, 2400MHz, 3-Cell Battery (Integrated). 65 Watt AC Adaptor. 65 Watt AC Adaptor., SDHC, English [ENGKBDL]. 42WHr, 1 x USB  2.0. Integrated Widescreen HD 720P Webcam with Dual Digital Microphone Array. Bluetooth 4.2 -Intel 3165. 802.11ac + Bluetooth 4.2, NON TOUCH Dell Inspiron 15 5000 Series (5767) - Foggy night Metallic glossy IMR (Non-touch HD/FHD). 17.3-inch FHD (1920 x 1080) Anti-Glare LED-Backlit Display [FHDNT]. Intel Core i7-7500U [7th Generation Intel Core i7-7500U Processor (4M Cache
p17
sVVideo Game Platform
p18
VPC
p19
sVBrand
p20
VDell
p21
sVProcessor Speed
p22
V3.50 GHz
p23
sVManufacturer Part Number
p24
Vi5767-3649GRY
p25
sVMaximum RAM Supported
p26
V16 GB
p27
sVHard Drive Capacity
p28
V1 TB
p29
sVAssembled Product Dimensions (L x W x H)
p30
V21.80 x 3.20 x 13.80 Inches
p31
sVModel
p32
Vi5767-3649GRY
p33
sVScreen Size
p34
V17.3"
p35
sVProcessor Type
p36
VIntel Core i7
p37
ssS'title'
p38
VDell Inspiron 17 5000 i5767 17.3" Laptop, Windows 10 Home, Intel Core i7-7500U Processor, 8GB RAM, 1TB Hard Drive
p39
sb.