ccopy_reg
_reconstructor
p0
(c__main__
ProductRecord
p1
c__builtin__
object
p2
Ntp3
Rp4
(dp5
S'product_url'
p6
S'http://www.walmart.com/ip/HP-Onyx-Blizzard-15-6-Laptop-FHD-Screen-Intel-core-i5-7300hq-AMD-Radeon-RX-550-2GB-Graphic-Card-12GB-Memory-1TB-HD-Windows-10-home-15-cb035wm/799944406'
p7
sS'price'
p8
V$719.00
p9
sS'properties'
p10
(dp11
VRAM Memory
p12
V12 KB
p13
sVOperating System
p14
VWindows 10
p15
sVBrand
p16
VHP
p17
sVProcessor Speed
p18
V2500 Hz
p19
sVManufacturer Part Number
p20
V1KT34UA#ABA
p21
sVMaximum RAM Supported
p22
V12 KB
p23
sVHard Drive Capacity
p24
V1 KB
p25
sVBattery Life
p26
V10.00 h
p27
sVAssembled Product Dimensions (L x W x H)
p28
V12.01 x 21.73 x 3.00 Inches
p29
sVModel
p30
V15-cb035wm
p31
sVScreen Size
p32
V15.6 in
p33
sVProcessor Type
p34
V7th Generation Intel Core i5-7300HQ Processor
p35
ssS'title'
p36
VHP Onyx Blizzard 15.6" Laptop, FHD Screen, Intel core i5-7300hq, AMD Radeon RX 550 2GB Graphic Card, 12GB Memory, 1TB HD, Windows 10 home, 15-cb035wm
p37
sb.