ccopy_reg
_reconstructor
p0
(c__main__
ProductRecord
p1
c__builtin__
object
p2
Ntp3
Rp4
(dp5
S'product_url'
p6
S'http://www.walmart.com/ip/HP-Omen-Laptop-17-3-FHD-Screen-Intel-Core-i7-7700HQ-2-8GHZ-NVIDIA-GeForce-GTX-1060-GDDR5-Graphic-Card-12GB-DDR4-Memory-1TB-HD-128GB-SSD-Windows-Home-/55868220'
p7
sS'price'
p8
V$1,199.99
p9
sS'properties'
p10
(dp11
VRAM Memory
p12
V12 GB
p13
sVOperating System
p14
VWindows 10
p15
sVFeatures
p16
VEPEAT
p17
sVVideo Game Platform
p18
VPC
p19
sVBrand
p20
VHP
p21
sVProcessor Speed
p22
V2.80 GHz, with a Max Turbo Speed of 3.80 GHz
p23
sVManufacturer Part Number
p24
V1QL52UA#ABA
p25
sVHard Drive Capacity
p26
V1 TB, 128 GB
p27
sVBattery Life
p28
V7 hours
p29
sVAssembled Product Dimensions (L x W x H)
p30
V10.98 x 16.30 x 1.29 Inches
p31
sVModel
p32
VHP 17-W220Nr
p33
sVScreen Size
p34
V17.3"
p35
sVProcessor Type
p36
VIntel Core i7
p37
sVCondition
p38
VNew
p39
ssS'title'
p40
VHP Omen Laptop, 17.3" FHD Screen, Intel Core i7-7700HQ, 2.8GHZ, NVIDIA GeForce GTX 1060 GDDR5 Graphic Card, 12GB DDR4 Memory, 1TB HD + 128GB SSD, Windows Home 10, HP 17-W220Nr
p41
sb.