ccopy_reg
_reconstructor
p0
(c__main__
ProductRecord
p1
c__builtin__
object
p2
Ntp3
Rp4
(dp5
S'product_url'
p6
S'http://www.walmart.com/ip/Refurbished-Dell-Latitude-E6420-14-LCD-Notebook-Intel-Core-i5-4GB-DDR3-RAM-320GB-HDD-DVD-Writer-Intel-HD-3000-Graphics-Bluetooth-WIFI/439305258'
p7
sS'price'
p8
V$139.99
p9
sS'properties'
p10
(dp11
VRAM Memory
p12
V4 Gigabytes
p13
sVOperating System
p14
VWindows 10
p15
sVBrand
p16
VDell
p17
sVManufacturer Part Number
p18
VNB-DL-LATITUDE_E6420-NB-i5-2.3-4-320-RW-Y-10P-A
p19
sVHard Drive Capacity
p20
V320 Gigabytes
p21
sVModel
p22
VLatitude E6420
p23
sVScreen Size
p24
V14 Inches
p25
sVProcessor Type
p26
Vi5
p27
ssS'title'
p28
VRefurbished: Dell Latitude E6420 14" LCD Notebook Intel Core i5, 4GB DDR3 RAM, 320GB HDD DVD-Writer Intel HD 3000 Graphics Bluetooth WIFI
p29
sb.