ccopy_reg
_reconstructor
p0
(c__main__
ProductRecord
p1
c__builtin__
object
p2
Ntp3
Rp4
(dp5
S'product_url'
p6
S'http://www.walmart.com/ip/Refurbished-Dell-Latitude-E7440-14-Laptop-Windows-10-Pro-Intel-Core-i5-4200U-Processor-8GB-RAM-128GB-Solid-State-Drive/53946922'
p7
sS'price'
p8
V$299.00
p9
sS'properties'
p10
(dp11
VRAM Memory
p12
V8 GB
p13
sVOperating System
p14
VWindows 10
p15
sVColor Category
p16
VSilver
p17
sVVideo Game Platform
p18
VPC
p19
sVBrand
p20
VLatitude
p21
sVManufacturer Part Number
p22
VWA5-30056
p23
sVHard Drive Capacity
p24
V128 GB
p25
sVLaptop Computer Type
p26
VTouchscreen
p27
sVProcessor Type
p28
VIntel Core i5
p29
sVScreen Size
p30
V14.0"
p31
sVModel
p32
VE7440
p33
sVManufacturer
p34
VDell
p35
ssS'title'
p36
VRefurbished Dell Latitude E7440 14" Laptop, Windows 10 Pro, Intel Core i5-4200U Processor, 8GB RAM, 128GB Solid State Drive
p37
sb.