ccopy_reg
_reconstructor
p0
(c__main__
ProductRecord
p1
c__builtin__
object
p2
Ntp3
Rp4
(dp5
S'product_url'
p6
S'http://www.walmart.com/ip/HP-Envy-13-d040wm-13-3-Laptop-Quad-HD-Display-Windows-10-Intel-Core-i7-6500U-Processor-8GB-Memory-256GB-Solid-State-Drive-Natural-Silver/51397794'
p7
sS'price'
p8
V$999.00
p9
sS'properties'
p10
(dp11
VRAM Memory
p12
V8 GB
p13
sVOperating System
p14
VWindows 10
p15
sVColor Category
p16
VSilver
p17
sVVideo Game Platform
p18
VPC
p19
sVBrand
p20
VHP
p21
sVManufacturer Part Number
p22
VN5S61UA#ABA
p23
sVLaptop Computer Type
p24
VPC Laptops
p25
sVProcessor Type
p26
VIntel 7265 AC (2x2 AC, 867 Mbps)
p27
sVScreen Size
p28
V13.3 in
p29
sVModel
p30
V13-d040wm
p31
sVCondition
p32
VNew
p33
sVManufacturer
p34
VHewlett Packard
p35
ssS'title'
p36
VHP Envy 13-d040wm 13.3" Laptop,  Quad HD+ Display, Windows 10, Intel Core i7-6500U Processor, 8GB Memory, 256GB  Solid State Drive, Natural Silver
p37
sb.