ccopy_reg
_reconstructor
p0
(c__main__
ProductRecord
p1
c__builtin__
object
p2
Ntp3
Rp4
(dp5
S'product_url'
p6
S'http://www.walmart.com/ip/Lenovo-Flex-5-14-2-in-1-Laptop-Windows-10-Intel-Core-i5-7200U-Dual-Core-Processor-8GB-RAM-1TB-Hard-Drive/449412472'
p7
sS'price'
p8
V$649.00
p9
sS'properties'
p10
(dp11
VRAM Memory
p12
V8.00 GB
p13
sVOperating System
p14
VWindows 10
p15
sVFeatures
p16
V14.0(FHD) TOUCH / CORE I5-7200U / 8GB / 1TB / INTEL HD GRAPHICS 620 / WINDOWS 10
p17
sVBrand
p18
VLenovo
p19
sVProcessor Speed
p20
V2.50 GHz
p21
sVManufacturer Part Number
p22
V80XA000TUS
p23
sVMaximum RAM Supported
p24
V8.00 GB
p25
sVHard Drive Capacity
p26
V1.00 TB
p27
sVBattery Life
p28
V7.00 h
p29
sVAssembled Product Dimensions (L x W x H)
p30
V19.21 x 12.44 x 2.68 Inches
p31
sVModel
p32
V80XA000TUS
p33
sVScreen Size
p34
V14.00 in
p35
sVProcessor Type
p36
VIntel Core i5
p37
sVCondition
p38
VNew
p39
ssS'title'
p40
VLenovo Flex 5 14" 2 in 1 Laptop, Windows 10, Intel Core i5-7200U Dual-Core Processor, 8GB RAM, 1TB Hard Drive
p41
sb.