ccopy_reg
_reconstructor
p0
(c__main__
ProductRecord
p1
c__builtin__
object
p2
Ntp3
Rp4
(dp5
S'product_url'
p6
S'http://www.walmart.com/ip/Acer-Swift-3-SF314-51-398B-14-Laptop-Windows-10-Home-Intel-Core-i3-7100U-Processor-4GB-RAM-128GB-Solid-State-Drive-Gold/55559113'
p7
sS'price'
p8
V$499.00
p9
sS'properties'
p10
(dp11
VRAM Memory
p12
V4 GB
p13
sVOperating System
p14
VMicrosoft Windows, Windows 10
p15
sVBrand
p16
VAcer
p17
sVProcessor Speed
p18
V2.40 GHz
p19
sVManufacturer Part Number
p20
VNX.GKKAA.007
p21
sVHard Drive Capacity
p22
V128
p23
sVBattery Life
p24
V10 Hour
p25
sVAssembled Product Dimensions (L x W x H)
p26
V13.43 x 9.31 x 0.71 Inches
p27
sVModel
p28
VSF314-51-398B
p29
sVScreen Size
p30
V14"
p31
sVProcessor Type
p32
VIntel Core i3
p33
sVCondition
p34
VNew
p35
ssS'title'
p36
VAcer Swift 3 SF314-51-398B 14" Laptop, Windows 10 Home, Intel Core i3-7100U Processor, 4GB RAM, 128GB Solid State Drive Gold
p37
sb.