ccopy_reg
_reconstructor
p0
(c__main__
ProductRecord
p1
c__builtin__
object
p2
Ntp3
Rp4
(dp5
S'product_url'
p6
S'http://www.walmart.com/ip/Lenovo-ThinkPad-Yoga-20CD00BAUS-12-5-Inch-Convertible-2-1-Touchscreen-Ultrabook-1-6-GHz-Intel-Core-i5-4200U-Processor-4GB-DDR3-500GB-HDD-16GB-SSD-Win/118878588'
p7
sS'price'
p8
S'N/A'
p9
sS'properties'
p10
(dp11
VRAM Memory
p12
V4 GB
p13
sVOperating System
p14
VMicrosoft Windows
p15
sVBrand
p16
VLenovo
p17
sVProcessor Speed
p18
V1.60 GHz
p19
sVManufacturer Part Number
p20
V20CD00BAUS
p21
sVMaximum RAM Supported
p22
V4 GB
p23
sVHard Drive Capacity
p24
V500 GB
p25
sVBattery Life
p26
V7 Hour
p27
sVAssembled Product Dimensions (L x W x H)
p28
V8.70 x 12.40 x 0.70 Inches
p29
sVModel
p30
V20CD00BAUS, Dual Band Wireless-AC 7260, S1 Yoga
p31
sVScreen Size
p32
V12.5"
p33
sVProcessor Type
p34
VIntel Core i5
p35
sVCondition
p36
VNew
p37
ssS'title'
p38
VLenovo ThinkPad Yoga 20CD00BAUS 12.5-Inch Convertible 2 in 1 Touchscreen Ultrabook (1.6 GHz Intel Core i5-4200U Processor, 4GB DDR3, 500GB HDD, 16GB SSD, Windows 8.1) Grey
p39
sb.