ccopy_reg
_reconstructor
p0
(c__main__
ProductRecord
p1
c__builtin__
object
p2
Ntp3
Rp4
(dp5
S'product_url'
p6
S'http://www.walmart.com/ip/REFURBISHED-Dell-Latitude-E6400-C2-2-4GHz-4GB-160GB-CMB-Windows-10-Pro-64-Laptop/118851719'
p7
sS'price'
p8
V$139.00
p9
sS'properties'
p10
(dp11
VRAM Memory
p12
V4 Gigabytes
p13
sVOperating System
p14
VWindows 10
p15
sVColor Category
p16
VBlack
p17
sVLaptop Computer Type
p18
VPC Laptops
p19
sVBrand
p20
VDell
p21
sVManufacturer Part Number
p22
VNB-DL-LATITUDE_E6400-NB-C2D-2.8-4-160-RW-N-10P-ANB-DL-LATITUDE_E6400-NB-C2D-2.8-4-160-RW-N-10P-A
p23
sVWireless Technology
p24
V802 11 ABG
p25
sVHard Drive Capacity
p26
V160 Gibibytes
p27
sVProcessor Type
p28
VIntel Core 2 Duo
p29
sVScreen Size
p30
V14 Inches
p31
sVModel
p32
VLatitude E6400
p33
sVManufacturer
p34
VDell
p35
ssS'title'
p36
VREFURBISHED Dell Latitude E6400 C2 2.4GHz 4GB 160GB CMB Windows 10 Pro 64 Laptop
p37
sb.