ccopy_reg
_reconstructor
p0
(c__main__
ProductRecord
p1
c__builtin__
object
p2
Ntp3
Rp4
(dp5
S'product_url'
p6
S'http://www.walmart.com/ip/Refurbished-Dell-E6420-14-0-Laptop-Windows-10-Pro-Intel-Core-i5-2520M-Processor-8GB-RAM-120GB-Solid-State-Drive/55536466'
p7
sS'price'
p8
V$249.99
p9
sS'properties'
p10
(dp11
VRAM Memory
p12
V8 GB
p13
sVOperating System
p14
VWindows 10
p15
sVColor Category
p16
VBlack
p17
sVVideo Game Platform
p18
VPC
p19
sVBrand
p20
VDell
p21
sVManufacturer Part Number
p22
V16VFDELP0059
p23
sVHard Drive Capacity
p24
V120 GB
p25
sVLaptop Computer Type
p26
VPC Laptops
p27
sVProcessor Type
p28
VIntel Core i5
p29
sVScreen Size
p30
V14.0"
p31
sVModel
p32
VDell Latitude E6420
p33
sVManufacturer
p34
VDell
p35
ssS'title'
p36
VRefurbished Dell E6420 14.0" Laptop, Windows 10 Pro, Intel Core i5-2520M Processor, 8GB RAM, 120GB Solid State Drive
p37
sb.