ccopy_reg
_reconstructor
p0
(c__main__
ProductRecord
p1
c__builtin__
object
p2
Ntp3
Rp4
(dp5
S'product_url'
p6
S'http://www.walmart.com/ip/Manufacturer-Refurbished-HP-14-AM052NR-14-Laptop-Intel-Celeron-N3060-1-6GHz-4GB-32GB-Windows-10-Home/165689540'
p7
sS'price'
p8
V$174.99
p9
sS'properties'
p10
(dp11
VRAM Memory
p12
V4 Gigabytes
p13
sVOperating System
p14
VWindows 10
p15
sVColor Category
p16
VBlue
p17
sVLaptop Computer Type
p18
VPC Laptops
p19
sVBrand
p20
VHP
p21
sVManufacturer Part Number
p22
V14-AM052NR-RF
p23
sVWireless Technology
p24
V802.11b/g/n (1x1)
p25
sVHard Drive Capacity
p26
V32 Gigabytes
p27
sVProcessor Type
p28
VIntel Celeron
p29
sVScreen Size
p30
V14 Inches
p31
sVModel
p32
V14-AM052NR-RF
p33
sVManufacturer
p34
VHP
p35
ssS'title'
p36
VManufacturer Refurbished - HP 14-AM052NR 14" Laptop Intel Celeron N3060 1.6GHz 4GB 32GB Windows 10 Home
p37
sb.