ccopy_reg
_reconstructor
p0
(c__main__
ProductRecord
p1
c__builtin__
object
p2
Ntp3
Rp4
(dp5
S'product_url'
p6
S'http://www.walmart.com/ip/Manufacturer-Refurbished-HP-15-F211WM-15-6-Touch-Laptop-Intel-Celeron-N2840-2-16GHz-4GB-500GB-Windows-10/880773454'
p7
sS'price'
p8
V$229.99
p9
sS'properties'
p10
(dp11
VBrand
p12
VHP
p13
sVModel
p14
V15-F211WM-RF
p15
sVManufacturer Part Number
p16
V15-F211WM-RF
p17
ssS'title'
p18
VManufacturer Refurbished - HP 15-F211WM 15.6" Touch Laptop Intel Celeron N2840 2.16GHz 4GB 500GB Windows 10
p19
sb.