ccopy_reg
_reconstructor
p0
(c__main__
ProductRecord
p1
c__builtin__
object
p2
Ntp3
Rp4
(dp5
S'product_url'
p6
S'http://www.walmart.com/ip/Asus-ROG-Strix-GL702VI-WB74-Metallic-Copper-17-3-FHD-120Hz-G-SYNC-Intel-Core-i7-7700HQ-16GB-RAM-256GB-NVMe-SSD-1TB-5400rpm-HDD-NVIDIA-GeForce-GTX1080/210958136'
p7
sS'price'
p8
V$1,899.00
p9
sS'properties'
p10
(dp11
VRAM Memory
p12
V16.00 GB
p13
sVOperating System
p14
VWindows 10
p15
sVBrand
p16
VASUS
p17
sVProcessor Speed
p18
V2.80 GHz
p19
sVManufacturer Part Number
p20
V90NB0G91-M00790
p21
sVMaximum RAM Supported
p22
V32.00 GB
p23
sVHard Drive Capacity
p24
V1.00 TB
p25
sVAssembled Product Dimensions (L x W x H)
p26
V11.00 x 0.43 x 0.04 Inches
p27
sVModel
p28
VGL702VIWB74
p29
sVScreen Size
p30
V17.30 in
p31
sVProcessor Type
p32
VIntel Core i7
p33
sVCondition
p34
VNew
p35
ssS'title'
p36
VAsus ROG Strix GL702VI-WB74 Metallic Copper 17.3" FHD 120Hz G-SYNC Intel Core i7-7700HQ 16GB RAM 256GB NVMe SSD +1TB 5400rpm HDD NVIDIA GeForce GTX1080 8GB Graphics Win10 1YW/1ADP Gaming Notebook
p37
sb.