ccopy_reg
_reconstructor
p0
(c__main__
ProductRecord
p1
c__builtin__
object
p2
Ntp3
Rp4
(dp5
S'product_url'
p6
S'http://www.walmart.com/ip/Acer-Nitro-5-Gaming-laptop-15-6-FHD-Screen-Intel-Core-i7-7700HQ-GeForce-GTX-1050-Graphic-card-16GB-DDR4-Memory-256GB-SSD-Windows-10-Home-AN515-51-78C6/633826620'
p7
sS'price'
p8
V$849.99
p9
sS'properties'
p10
(dp11
VRAM Memory
p12
V16 KB
p13
sVOperating System
p14
VMicrosoft Windows, Windows 10
p15
sVBrand
p16
VAcer
p17
sVProcessor Speed
p18
V2.8 Hz
p19
sVManufacturer Part Number
p20
VNH.Q2RAA.012
p21
sVMaximum RAM Supported
p22
V32 KB
p23
sVHard Drive Capacity
p24
V256 KB
p25
sVBattery Life
p26
V8.50 Hour
p27
sVAssembled Product Dimensions (L x W x H)
p28
V21.38 x 12.44 x 2.76 Inches
p29
sVModel
p30
VAN515-51-78C6
p31
sVScreen Size
p32
V15.6 in
p33
sVProcessor Type
p34
VIntel Core i7
p35
sVCondition
p36
VNew
p37
ssS'title'
p38
VAcer Nitro 5 Gaming laptop, 15.6" FHD Screen, Intel Core i7-7700HQ, GeForce GTX 1050 Graphic card, 16GB DDR4 Memory, 256GB SSD, Windows 10 Home, AN515-51-78C6
p39
sb.