ccopy_reg
_reconstructor
p0
(c__main__
ProductRecord
p1
c__builtin__
object
p2
Ntp3
Rp4
(dp5
S'product_url'
p6
S'http://www.walmart.com/ip/Acer-Swift-3-SF314-52-SF314-52-517Z-14-Core-i5-8250U-8GB-DDR4-256GB-SSD-Windows-10-Home-1920-x-1080-IPS-sparkly-Silver-Ultrabook/56150734'
p7
sS'price'
p8
V$649.00
p9
sS'properties'
p10
(dp11
VRAM Memory
p12
V8.00 GB
p13
sVOperating System
p14
VWindows 10
p15
sVFeatures
p16
VAcer swift 3 ; 14.0" FHD IPS; Silver; Windows 10; Ci58250U; 8 GB; HDD 256GB SSD; Non-Touch;
p17
sVBrand
p18
VAcer
p19
sVProcessor Speed
p20
V1.60 GHz
p21
sVManufacturer Part Number
p22
VNX.GQGAA.002
p23
sVMaximum RAM Supported
p24
V16.00 GB
p25
sVHard Drive Capacity
p26
V256.00 GB
p27
sVBattery Life
p28
V10.00 h
p29
sVAssembled Product Dimensions (L x W x H)
p30
V13.31 x 9.21 x 0.71 Inches
p31
sVModel
p32
VSF31452517Z
p33
sVScreen Size
p34
V14.00 in
p35
sVProcessor Type
p36
VIntel Core i5
p37
sVCondition
p38
VNew
p39
ssS'title'
p40
VAcer Swift 3 SF314-52 SF314-52-517Z 14" Core i5-8250U 8GB DDR4 256GB SSD - Windows 10 Home 1920 x 1080 IPS sparkly Silver Ultrabook
p41
sb.