ccopy_reg
_reconstructor
p0
(c__main__
ProductRecord
p1
c__builtin__
object
p2
Ntp3
Rp4
(dp5
S'product_url'
p6
S'http://www.walmart.com/ip/HP-15-6-Laptop-Touchscreen-2-in-1-Windows-10-Intel-Core-i3-7100U-Processor-8GB-RAM-1TB-Hard-Drive-Assorted-Color/55823179'
p7
sS'price'
p8
S'N/A'
p9
sS'properties'
p10
(dp11
VRAM Memory
p12
V8 KB
p13
sVOperating System
p14
VWindows 10
p15
sVFeatures
p16
VEPEAT
p17
sVVideo Game Platform
p18
VPC
p19
sVBrand
p20
VHP
p21
sVProcessor Speed
p22
V2.4 Hz
p23
sVManufacturer Part Number
p24
V1KT67UA#ABA
p25
sVHard Drive Capacity
p26
V1 KB
p27
sVBattery Life
p28
V9 hours
p29
sVAssembled Product Dimensions (L x W x H)
p30
V14.87 x 0.84 x 9.68 Inches
p31
sVModel
p32
VHP 1KT67UA#ABA
p33
sVScreen Size
p34
V15.6"
p35
sVProcessor Type
p36
VIntel Core i3
p37
ssS'title'
p38
VHP 15.6" Laptop, Touchscreen, 2-in-1, Windows 10, Intel Core i3-7100U Processor, 8GB RAM, 1TB Hard Drive (Assorted Color)
p39
sb.