ccopy_reg
_reconstructor
p0
(c__main__
ProductRecord
p1
c__builtin__
object
p2
Ntp3
Rp4
(dp5
S'product_url'
p6
S'http://www.walmart.com/ip/Refurbished-Dell-OptiPlex-390-T-Desktop-PC-with-Intel-Core-i5-2400-Processor-8GB-Memory-500GB-Hard-Drive-and-Windows-10-Home-Monitor-Not-Included/54335011'
p7
sS'price'
p8
V$198.00
p9
sS'properties'
p10
(dp11
VRAM Memory
p12
V8 GB
p13
sVOperating System
p14
VWindows 10
p15
sVColor Category
p16
VSilver
p17
sVVideo Game Platform
p18
VPC
p19
sVBrand
p20
VDell
p21
sVHard Drive Capacity
p22
V500 GB
p23
sVLaptop Computer Type
p24
VPC Laptops
p25
sVProcessor Type
p26
VIntel Core i5-2400 Processor
p27
sVmanufacturer_part_number
p28
V390-t
p29
sVModel
p30
V390
p31
sVCondition
p32
VRefurbished
p33
sVManufacturer
p34
VDell
p35
ssS'title'
p36
VRefurbished Dell OptiPlex 390-T Desktop PC with Intel Core i5-2400 Processor, 8GB Memory, 500GB Hard Drive and Windows 10 Home (Monitor Not Included)
p37
sb.