ccopy_reg
_reconstructor
p0
(c__main__
ProductRecord
p1
c__builtin__
object
p2
Ntp3
Rp4
(dp5
S'product_url'
p6
S'http://www.walmart.com/ip/Dell-Inspiron-i57676370GRY-17-3-Laptop-Windows-10-Home-Intel-Core-i7-7500U-Processor-16GB-RAM-2TB-Hard-Drive/54748287'
p7
sS'price'
p8
V$952.52
p9
sS'properties'
p10
(dp11
VRAM Memory
p12
V16 KB
p13
sVOperating System
p14
VWindows 10
p15
sVVideo Game Platform
p16
VPC
p17
sVBrand
p18
VDell
p19
sVProcessor Speed
p20
V3.5 Hz
p21
sVManufacturer Part Number
p22
Vi5767-6370GRY
p23
sVHard Drive Capacity
p24
V2 KB
p25
sVAssembled Product Dimensions (L x W x H)
p26
V21.80 x 13.80 x 3.20 Inches
p27
sVModel
p28
VI57676370GRY
p29
sVScreen Size
p30
V17.3"
p31
sVProcessor Type
p32
VIntel Core i7
p33
sVCondition
p34
VNew
p35
ssS'title'
p36
VDell Inspiron i57676370GRY 17.3" Laptop, Windows 10 Home, Intel Core i7-7500U Processor, 16GB RAM, 2TB Hard Drive
p37
sb.