ccopy_reg
_reconstructor
p0
(c__main__
ProductRecord
p1
c__builtin__
object
p2
Ntp3
Rp4
(dp5
S'product_url'
p6
S'http://www.walmart.com/ip/Manufacturer-Refurbished-HP-15-ay041wm-15-6-Touchscreen-Laptop-Intel-Core-i3-6100U-2-3GHz-8GB-1TB-Win10/998544361'
p7
sS'price'
p8
V$359.99
p9
sS'properties'
p10
(dp11
VRAM Memory
p12
V8 Gigabytes
p13
sVOperating System
p14
VWindows 10
p15
sVColor Category
p16
VSilver
p17
sVLaptop Computer Type
p18
VPC Laptops
p19
sVBrand
p20
VHP
p21
sVManufacturer Part Number
p22
V15-AY039WM-RF
p23
sVWireless Technology
p24
VIntel 802.11ac (1x1)
p25
sVHard Drive Capacity
p26
V1 Gigabytes
p27
sVProcessor Type
p28
VIntel Core i3
p29
sVScreen Size
p30
V15.6 Inches
p31
sVModel
p32
V15-AY039WM-RF
p33
sVManufacturer
p34
VHP
p35
ssS'title'
p36
VManufacturer Refurbished - HP 15-ay041wm 15.6" Touchscreen Laptop Intel Core i3-6100U 2.3GHz 8GB 1TB Win10
p37
sb.