ccopy_reg
_reconstructor
p0
(c__main__
ProductRecord
p1
c__builtin__
object
p2
Ntp3
Rp4
(dp5
S'product_url'
p6
S'http://www.walmart.com/ip/Dell-e6520-latitude-laptop-i7-2640m-2-8ghz-8gb-ram-250gb-hard-drive-windows-10-pro/548475417'
p7
sS'price'
p8
V$377.15
p9
sS'properties'
p10
(dp11
VRAM Memory
p12
V8 GB
p13
sVOperating System
p14
VWindows 10
p15
sVFeatures
p16
Vready to run right out of the box!
p17
sVBrand
p18
VDell
p19
sVProcessor Speed
p20
V2.8 GHz
p21
sVManufacturer Part Number
p22
VWA5-30621
p23
sVMaximum RAM Supported
p24
V16 GB
p25
sVHard Drive Capacity
p26
V250 GB
p27
sVBattery Life
p28
V1 h
p29
sVModel
p30
Ve6520
p31
sVScreen Size
p32
V15.6 in
p33
sVProcessor Type
p34
VIntel Core i7
p35
ssS'title'
p36
VDell e6520 latitude laptop i7 2640m 2.8ghz 8gb ram 250gb hard drive windows 10 pro
p37
sb.