ccopy_reg
_reconstructor
p0
(c__main__
ProductRecord
p1
c__builtin__
object
p2
Ntp3
Rp4
(dp5
S'product_url'
p6
S'http://www.walmart.com/ip/ASUS-GL703VD-WB71-Gaming-Laptop-w-FREE-BUNDLE-17-3-FHD-Intel-Core-i7-7700HQ-NVIDIA-GeForce-GTX1050-32GB-DDR4-1TB-SSHD-Hybrid-Win10/171517862'
p7
sS'price'
p8
V$1,449.00
p9
sS'properties'
p10
(dp11
VRAM Memory
p12
V32.00 GB
p13
sVOperating System
p14
VWindows 10
p15
sVBrand
p16
VASUS
p17
sVProcessor Speed
p18
V3.80 GHz
p19
sVManufacturer Part Number
p20
VGL703VD-WB71 VAR BUNDLE 1 32GB
p21
sVMaximum RAM Supported
p22
V32.00 GB
p23
sVHard Drive Capacity
p24
V1.00 TB
p25
sVModel
p26
VGL703VD-WB71
p27
sVScreen Size
p28
V17.3 in
p29
sVProcessor Type
p30
VIntel Core i7, Intel Core i7 7700HQ
p31
sVCondition
p32
VNew
p33
ssS'title'
p34
VASUS GL703VD-WB71 Gaming Laptop w/ FREE BUNDLE! 17.3? FHD Intel Core i7-7700HQ NVIDIA GeForce GTX1050 32GB DDR4 1TB SSHD Hybrid Win10
p35
sb.