ccopy_reg
_reconstructor
p0
(c__main__
ProductRecord
p1
c__builtin__
object
p2
Ntp3
Rp4
(dp5
S'product_url'
p6
S'http://www.walmart.com/ip/Acer-Aspire-E-15-E5-553-T5K4-15-6-A10-9600P-8-GB-RAM-1-TB-HDD-US-International/55395361'
p7
sS'price'
p8
V$479.99
p9
sS'properties'
p10
(dp11
VRAM Memory
p12
V8 Gigabytes
p13
sVOperating System
p14
VWindows 10
p15
sVFeatures
p16
V15.6" A109600P 8G 1TB Win10
p17
sVVideo Game Platform
p18
VPC
p19
sVBrand
p20
VAcer
p21
sVProcessor Speed
p22
V2.4 Gigahertz
p23
sVManufacturer Part Number
p24
VNX.GMSAA.001
p25
sVMaximum RAM Supported
p26
V32 Gigabytes
p27
sVHard Drive Capacity
p28
V1 Terabytes
p29
sVBattery Life
p30
V0 h
p31
sVAssembled Product Dimensions (L x W x H)
p32
V19.70 x 12.20 x 2.60 Inches
p33
sVModel
p34
VNX.GMSAA.001
p35
sVScreen Size
p36
V15.60 Inches
p37
sVProcessor Type
p38
VAMD A10-9600P
p39
ssS'title'
p40
VAcer Aspire E 15 E5-553-T5K4 - 15.6" - A10 9600P - 8 GB RAM - 1 TB HDD - US International
p41
sb.