ccopy_reg
_reconstructor
p0
(c__main__
ProductRecord
p1
c__builtin__
object
p2
Ntp3
Rp4
(dp5
S'product_url'
p6
S'http://www.walmart.com/ip/HP-ENVY-13-AD065NR-WINDOWS-10-HOME-INTEL-CORE-I5-7200U-8-GB-LPDDR3-128-GB-LAPTOP/55908689'
p7
sS'price'
p8
V$767.52
p9
sS'properties'
p10
(dp11
VRAM Memory
p12
V8 KB
p13
sVOperating System
p14
VWindows 10
p15
sVFeatures
p16
VEPEAT
p17
sVVideo Game Platform
p18
VPC
p19
sVBrand
p20
VHP
p21
sVProcessor Speed
p22
V2.5 Hz
p23
sVManufacturer Part Number
p24
V13-ad065nr
p25
sVHard Drive Capacity
p26
V128 KB
p27
sVBattery Life
p28
V14.25 h
p29
sVAssembled Product Dimensions (L x W x H)
p30
V8.49 x 12.04 x 0.55 Inches
p31
sVModel
p32
V13AD065NR
p33
sVScreen Size
p34
V13.3 in
p35
sVProcessor Type
p36
VIntel Core i5
p37
sVCondition
p38
VNew
p39
ssS'title'
p40
VHP ENVY 13-AD065NR,WINDOWS 10 HOME,INTEL CORE I5-7200U,8 GB LPDDR3,128 GB LAPTOP
p41
sb.