ccopy_reg
_reconstructor
p0
(c__main__
ProductRecord
p1
c__builtin__
object
p2
Ntp3
Rp4
(dp5
S'product_url'
p6
S'http://www.walmart.com/ip/Refurbished-Dell-Latitude-E5420-Laptop-HDMI-Intel-Core-i3-2-1GHz-3GB-DDR3-160GB-SATA-HDD-DVD-Windows-10-Home-32bit-w-Restore-Partition/206599142'
p7
sS'price'
p8
V$168.97
p9
sS'properties'
p10
(dp11
VRAM Memory
p12
V3.00 GB
p13
sVOperating System
p14
VWindows 10 Home 32bit
p15
sVColor Category
p16
VGray
p17
sVLaptop Computer Type
p18
VPC Laptops
p19
sVBrand
p20
VDell
p21
sVWireless Technology
p22
V802_11_BGN
p23
sVHard Drive Capacity
p24
V160.00 GB
p25
sVProcessor Type
p26
VIntel Core i3
p27
sVScreen Size
p28
V14 in
p29
ssS'title'
p30
VRefurbished Dell Latitude E5420 Laptop, HDMI, Intel Core i3 2.1GHz, 3GB DDR3, 160GB SATA HDD, DVD, Windows 10 Home 32bit w/ Restore Partition
p31
sb.