ccopy_reg
_reconstructor
p0
(c__main__
ProductRecord
p1
c__builtin__
object
p2
Ntp3
Rp4
(dp5
S'product_url'
p6
S'http://www.walmart.com/ip/Refurbished-Dell-E6540-15-6-Laptop-Windows-10-Pro-Intel-Core-i5-4300M-Processor-16GB-RAM-750GB-Hard-Drive/55855193'
p7
sS'price'
p8
V$404.25
p9
sS'properties'
p10
(dp11
VRAM Memory
p12
V16 GB
p13
sVOperating System
p14
VWindows 10
p15
sVVideo Game Platform
p16
VPC
p17
sVBrand
p18
VLatitude
p19
sVProcessor Speed
p20
V2.60 GHz
p21
sVManufacturer Part Number
p22
VWA5-30516
p23
sVMaximum RAM Supported
p24
V16 GB
p25
sVHard Drive Capacity
p26
V750 GB
p27
sVBattery Life
p28
V1 hour
p29
sVAssembled Product Dimensions (L x W x H)
p30
V14.90 x 1.30 x 9.90 Inches
p31
sVModel
p32
VE6540
p33
sVScreen Size
p34
V15.6"
p35
sVProcessor Type
p36
VIntel Core i5
p37
ssS'title'
p38
VRefurbished Dell E6540 15.6" Laptop, Windows 10 Pro, Intel Core i5-4300M Processor, 16GB RAM, 750GB Hard Drive
p39
sb.