ccopy_reg
_reconstructor
p0
(c__main__
ProductRecord
p1
c__builtin__
object
p2
Ntp3
Rp4
(dp5
S'product_url'
p6
S'http://www.walmart.com/ip/Lenovo-IdeaPad-320-15IKB-Touch-Core-i7-12GB-1TB-Laptop/430354942'
p7
sS'price'
p8
V$731.58
p9
sS'properties'
p10
(dp11
VRAM Memory
p12
V12.00 GB
p13
sVOperating System
p14
VWindows 10
p15
sVBrand
p16
VLenovo
p17
sVProcessor Speed
p18
V2.70 GHz
p19
sVManufacturer Part Number
p20
V80XN0008US
p21
sVMaximum RAM Supported
p22
V16.00 GB
p23
sVHard Drive Capacity
p24
V1.00 TB
p25
sVBattery Life
p26
V4.50 h
p27
sVAssembled Product Dimensions (L x W x H)
p28
V20.40 x 12.50 x 2.70 Inches
p29
sVModel
p30
V80XN0008US
p31
sVScreen Size
p32
V15.60 in
p33
sVProcessor Type
p34
VIntel Core i7
p35
sVCondition
p36
VNew
p37
ssS'title'
p38
VLenovo IdeaPad 320-15IKB Touch Core i7 12GB 1TB Laptop
p39
sb.