ccopy_reg
_reconstructor
p0
(c__main__
ProductRecord
p1
c__builtin__
object
p2
Ntp3
Rp4
(dp5
S'product_url'
p6
S'http://www.walmart.com/ip/GPD-Pocket-8GB-128GB-7-Inch-Aluminum-Shell-Mini-Laptop-Touch-Screen-UMPC-Windows-10-System/954166297'
p7
sS'price'
p8
V$489.99
p9
sS'properties'
p10
(dp11
VRAM Memory
p12
V8 GB
p13
sVOperating System
p14
VWindows 10
p15
sVBrand
p16
VGPD
p17
sVMaximum RAM Supported
p18
V8 GB
p19
sVHard Drive Capacity
p20
V128 GB
p21
sVModel
p22
VGPD Pocket
p23
sVScreen Size
p24
V7 in
p25
sVCondition
p26
VNew
p27
ssS'title'
p28
VGPD Pocket 8GB/128GB 7 Inch Aluminum Shell Mini Laptop Touch Screen UMPC Windows 10 System
p29
sb.