ccopy_reg
_reconstructor
p0
(c__main__
ProductRecord
p1
c__builtin__
object
p2
Ntp3
Rp4
(dp5
S'product_url'
p6
S'http://www.walmart.com/ip/Asus-VivoBook-15-X505BA-1366-768-Notebook/959864630'
p7
sS'price'
p8
V$429.99
p9
sS'properties'
p10
(dp11
VRAM Memory
p12
V16.00 GB
p13
sVOperating System
p14
VWindows 10
p15
sVBrand
p16
VASUS
p17
sVProcessor Speed
p18
V3.00 GHz
p19
sVManufacturer Part Number
p20
V90NB0G14-M00620
p21
sVMaximum RAM Supported
p22
V16.00 GB
p23
sVHard Drive Capacity
p24
V2.00 TB
p25
sVAssembled Product Dimensions (L x W x H)
p26
V12.00 x 12.00 x 12.00 Inches
p27
sVModel
p28
VX505BARB94
p29
sVScreen Size
p30
V15.60 in
p31
sVProcessor Type
p32
VAMD A9-9420
p33
sVCondition
p34
VNew
p35
ssS'title'
p36
VAsus VivoBook 15 X505BA 1366*768 Notebook
p37
sb.