ccopy_reg
_reconstructor
p0
(c__main__
ProductRecord
p1
c__builtin__
object
p2
Ntp3
Rp4
(dp5
S'product_url'
p6
S'http://www.walmart.com/ip/Refurbished-HP-EliteBook-8460p-2-6GHz-i5-4GB-160SSD-DVD-Windows-10-Pro-64-Laptop-CAM-B/185357204'
p7
sS'price'
p8
V$173.40
p9
sS'properties'
p10
(dp11
VBrand
p12
VHP
p13
sVModel
p14
VEliteBook 8460p
p15
ssS'title'
p16
VRefurbished HP EliteBook 8460p 2.6GHz i5 4GB 160SSD DVD Windows 10 Pro 64 Laptop CAM B
p17
sb.