ccopy_reg
_reconstructor
p0
(c__main__
ProductRecord
p1
c__builtin__
object
p2
Ntp3
Rp4
(dp5
S'product_url'
p6
S'http://www.walmart.com/ip/NEW-Dell-i3552-3240BLK-15-6-HD-Laptop-Intel-Pentium-N3700-1-6GHz-Processor-4-GB-DDR3L-SDRAM-500-GB-HDD-Windows-10-Black/965855114'
p7
sS'price'
p8
V$349.00
p9
sS'properties'
p10
(dp11
VRAM Memory
p12
V4.00 GB
p13
sVOperating System
p14
VWindows 10
p15
sVColor Category
p16
VBlack
p17
sVLaptop Computer Type
p18
VPC Laptops
p19
sVBrand
p20
VDell
p21
sVWireless Technology
p22
VWireless LAN 802.11b/g/n
p23
sVHard Drive Capacity
p24
V500.00 GB
p25
sVProcessor Type
p26
VIntel Celeron
p27
sVScreen Size
p28
V15.60 in
p29
sVModel
p30
Vi3552
p31
sVCondition
p32
VNew
p33
sVmanufacturer_part_number
p34
Vi3552-3240blk
p35
ssS'title'
p36
VNEW Dell i3552-3240BLK 15.6" HD Laptop (Intel Pentium N3700 1.6GHz Processor, 4 GB DDR3L SDRAM, 500 GB HDD, Windows 10) Black
p37
sb.