ccopy_reg
_reconstructor
p0
(c__main__
ProductRecord
p1
c__builtin__
object
p2
Ntp3
Rp4
(dp5
S'product_url'
p6
S'http://www.walmart.com/ip/Lenovo-MIIX-520-12-2-FHD-2-in-1-Touchscreen-Laptop-i5-8250U-4GB-128GB-SSD/902695171'
p7
sS'price'
p8
S'N/A'
p9
sS'properties'
p10
(dp11
VRAM Memory
p12
V4 Gigabytes
p13
sVOperating System
p14
VWindows 10
p15
sVBrand
p16
VLenovo
p17
sVProcessor Speed
p18
V1.6 Gigahertz
p19
sVManufacturer Part Number
p20
V81CG00NCUS
p21
sVHard Drive Capacity
p22
V128 Gigabytes
p23
sVBattery Life
p24
V0 h
p25
sVAssembled Product Dimensions (L x W x H)
p26
V14.00 x 16.00 x 7.00 Inches
p27
sVModel
p28
V81CG00NCUS
p29
sVScreen Size
p30
V12.20 Inches
p31
sVProcessor Type
p32
VIntel i5-8250U
p33
sVCondition
p34
VNew
p35
ssS'title'
p36
VLenovo MIIX 520 12.2" FHD 2-in-1 Touchscreen Laptop i5-8250U 4GB 128GB SSD
p37
sb.