ccopy_reg
_reconstructor
p0
(c__main__
ProductRecord
p1
c__builtin__
object
p2
Ntp3
Rp4
(dp5
S'product_url'
p6
S'http://www.walmart.com/ip/Acer-Aspire-E-15-E5-553G-14QY-15-6-A12-9700P-8-GB-RAM-128-GB-SSD-1-TB-HDD-US-International/55395362'
p7
sS'price'
p8
V$599.99
p9
sS'properties'
p10
(dp11
VRAM Memory
p12
V8 Gigabytes
p13
sVOperating System
p14
VWindows 10
p15
sVFeatures
p16
VE5-553G-14QY
p17
sVVideo Game Platform
p18
VSee Description
p19
sVBrand
p20
VAcer
p21
sVProcessor Speed
p22
V2.5 Gigahertz
p23
sVManufacturer Part Number
p24
VNX.GMTAA.002
p25
sVMaximum RAM Supported
p26
V32 Gigabytes
p27
sVHard Drive Capacity
p28
V1 Terabytes
p29
sVBattery Life
p30
V0 h
p31
sVAssembled Product Dimensions (L x W x H)
p32
V19.95 x 12.00 x 2.67 Inches
p33
sVModel
p34
VNX.GMTAA.002
p35
sVScreen Size
p36
V15.60 Inches
p37
sVProcessor Type
p38
VAMD A12-9700P
p39
sVCondition
p40
VNew
p41
ssS'title'
p42
VAcer Aspire E 15 E5-553G-14QY - 15.6" - A12 9700P - 8 GB RAM - 128 GB SSD + 1 TB HDD - US International
p43
sb.