ccopy_reg
_reconstructor
p0
(c__main__
ProductRecord
p1
c__builtin__
object
p2
Ntp3
Rp4
(dp5
S'product_url'
p6
S'http://www.walmart.com/ip/HP-ProBook-X360-G1-Y3K68AW-Convertible-Notebook-PC-Intel-Refurbished/466646275'
p7
sS'price'
p8
S'N/A'
p9
sS'properties'
p10
(dp11
VRAM Memory
p12
V4 GB
p13
sVOperating System
p14
VWindows 10
p15
sVBrand
p16
VHP
p17
sVProcessor Speed
p18
V1.1 GHz
p19
sVHard Drive Capacity
p20
V128 GB
p21
sVModel
p22
VY3K68AW
p23
sVScreen Size
p24
V11.6 in
p25
sVProcessor Type
p26
VIntel Pentium N
p27
sVCondition
p28
VRefurbished
p29
sVmanufacturer_part_number
p30
Vy3k68aw
p31
ssS'title'
p32
VHP ProBook X360 G1 Y3K68AW Convertible Notebook PC - Intel (Refurbished)
p33
sb.