ccopy_reg
_reconstructor
p0
(c__main__
ProductRecord
p1
c__builtin__
object
p2
Ntp3
Rp4
(dp5
S'product_url'
p6
S'http://www.walmart.com/ip/Refurbished-Dell-Latitude-E6420-2-5GHz-i5-8GB-256SSD-DVD-Windows-10-Pro-64-Laptop-CAM/388081895'
p7
sS'price'
p8
V$204.00
p9
sS'properties'
p10
(dp11
VBrand
p12
VDell
p13
sVModel
p14
VLatitude E6420
p15
ssS'title'
p16
VRefurbished Dell Latitude E6420 2.5GHz i5 8GB 256SSD DVD Windows 10 Pro 64 Laptop CAM
p17
sb.