ccopy_reg
_reconstructor
p0
(c__main__
ProductRecord
p1
c__builtin__
object
p2
Ntp3
Rp4
(dp5
S'product_url'
p6
S'http://www.walmart.com/ip/Dell-Laptop-E7440-Notebook-256GB-Solid-State-Hard-Drive-Intel-Core-i5-4300u-1-9GHz-8GB-Memory-14-Display-Windows-10-Home-PC-Refurbished/168727998'
p7
sS'price'
p8
V$328.24
p9
sS'properties'
p10
(dp11
VRAM Memory
p12
V8 GB
p13
sVOperating System
p14
VWindows 10
p15
sVBrand
p16
VDell
p17
sVProcessor Speed
p18
V1900 MHz
p19
sVManufacturer Part Number
p20
VE7440
p21
sVMaximum RAM Supported
p22
V16 GB
p23
sVHard Drive Capacity
p24
V256 GB
p25
sVModel
p26
VE7440
p27
sVScreen Size
p28
V14 in
p29
sVProcessor Type
p30
VIntel Core i5
p31
ssS'title'
p32
VDell Laptop E7440 Notebook 256GB Solid State Hard Drive Intel Core i5-4300u 1.9GHz 8GB Memory 14" Display Windows 10 Home PC Refurbished
p33
sb.