ccopy_reg
_reconstructor
p0
(c__main__
ProductRecord
p1
c__builtin__
object
p2
Ntp3
Rp4
(dp5
S'product_url'
p6
S'http://www.walmart.com/ip/Dell-Inspiron-17-5767-Intel-Core-i7-7500U-X2-2-7GHz-16GB-2TB-Dark-Gray-Certified-Refurbished/107807700'
p7
sS'price'
p8
V$710.80
p9
sS'properties'
p10
(dp11
VRAM Memory
p12
V16 KB
p13
sVOperating System
p14
VWindows 10, Microsoft Windows 10?Home
p15
sVFeatures
p16
VDedicated?AMD Radeon R7 M445 Graphics(4.0GB Dedicated Video Memory), Microsoft Windows 10Home Operating System, 16GB??DDR4 System Memory, SuperMulti-DVD Burner, Intel Core i7-7500U Processor (Dual-Core, 2.7GHz, 4MB Cache), Energy Star Compliant, 10/100 Ethernet, 802.11AACBGN and Bluetooth 4.2, 1.0" x 16.69" x 11.02" (HxWxD);?6lbs, 2 x USB 3.0, 1 x USB 2.0, 1 x HDMI, 17.3-inch?(1920 x 1080)?LED? Display, 1MP Webcam and Integrated Microphone, This Certified Refurbished product is tested and certified to look and work like new. The refurbishing process includes functionality testing, basic cleaning, inspection, and repackaging. The product ships with all relevant accessories, a minimum 90-day warranty, and may arrive in a generic box., 2TB?(5400RPM)?SATA Hard Drive, 3-cell?Lithium-Ion Battery, Backlit Standard Keyboard and Touchpad
p17
sVBrand
p18
VDell
p19
sVManufacturer Part Number
p20
V1482848359-RFB
p21
sVMaximum RAM Supported
p22
V32 KB
p23
sVHard Drive Capacity
p24
V2000 KB
p25
sVBattery Life
p26
V8 h
p27
sVAssembled Product Dimensions (L x W x H)
p28
V16.70 x 11.00 x 1.00 Inches
p29
sVProcessor Type
p30
VIntel Core i7, Intel Core i7-7500U
p31
sVScreen Size
p32
V17.3 in
p33
sVProcessor Speed
p34
V2.7 Hz
p35
ssS'title'
p36
VDell Inspiron 17-5767 Intel Core i7-7500U X2 2.7GHz 16GB 2TB,?Dark Gray? (Certified Refurbished)
p37
sb.