ccopy_reg
_reconstructor
p0
(c__main__
ProductRecord
p1
c__builtin__
object
p2
Ntp3
Rp4
(dp5
S'product_url'
p6
S'http://www.walmart.com/ip/Refurbished-Dell-Latitude-E5440-Laptop-PC-Grade-B-Core-i5-1-9GHz-8GB-Memory-320GB-HDD-Windows-10-Home/413832552'
p7
sS'price'
p8
V$249.99
p9
sS'properties'
p10
(dp11
VRAM Memory
p12
V8 GB
p13
sVOperating System
p14
VWindows 10
p15
sVBrand
p16
VDell
p17
sVProcessor Speed
p18
V2400 MHz
p19
sVManufacturer Part Number
p20
VE5440
p21
sVMaximum RAM Supported
p22
V16 KB
p23
sVHard Drive Capacity
p24
V320 GB
p25
sVModel
p26
VE5440
p27
sVScreen Size
p28
V14 in
p29
sVProcessor Type
p30
VIntel Core i5
p31
ssS'title'
p32
VRefurbished Dell Latitude E5440 Laptop PC Grade B Core i5 1.9GHz 8GB Memory 320GB HDD Windows 10 Home
p33
sb.