ccopy_reg
_reconstructor
p0
(c__main__
ProductRecord
p1
c__builtin__
object
p2
Ntp3
Rp4
(dp5
S'product_url'
p6
S'http://www.walmart.com/ip/Refurbished-Dell-Inspiron-i3552-15-6-Laptop-Windows-10-Home-Intel-Celeron-N3050-Processor-4GB-RAM-500GB-Hard-Drive/55358414'
p7
sS'price'
p8
V$184.86
p9
sS'properties'
p10
(dp11
VRAM Memory
p12
V4 GB
p13
sVOperating System
p14
VMicrosoft Windows
p15
sVColor Category
p16
VBlack
p17
sVVideo Game Platform
p18
VPC
p19
sVBrand
p20
VDell
p21
sVManufacturer Part Number
p22
Vi3552-4042BLK
p23
sVHard Drive Capacity
p24
V500 GB
p25
sVLaptop Computer Type
p26
VPC Laptops
p27
sVProcessor Type
p28
VIntel Celeron
p29
sVScreen Size
p30
V15.6"
p31
sVModel
p32
Vi3552-4042BLK
p33
sVManufacturer
p34
VDell
p35
ssS'title'
p36
VRefurbished Dell Inspiron i3552 15.6" Laptop, Windows 10 Home, Intel Celeron N3050 Processor, 4GB RAM, 500GB Hard Drive
p37
sb.