ccopy_reg
_reconstructor
p0
(c__main__
ProductRecord
p1
c__builtin__
object
p2
Ntp3
Rp4
(dp5
S'product_url'
p6
S'http://www.walmart.com/ip/HP-Spectre-13-v111dx-13-3-FHD-Laptop-i7-7500U-8GB-256GB-SSD-Win10-Refurb/598091852'
p7
sS'price'
p8
V$774.99
p9
sS'properties'
p10
(dp11
VRAM Memory
p12
V8 GB
p13
sVOperating System
p14
VMicrosoft Windows, Windows 10
p15
sVBrand
p16
VHP
p17
sVProcessor Speed
p18
V2.70 GHz
p19
sVManufacturer Part Number
p20
VW2K29UAR#ABA
p21
sVHard Drive Capacity
p22
V256 GB
p23
sVModel
p24
VW2K29UAR#ABA
p25
sVScreen Size
p26
V13.3"
p27
sVProcessor Type
p28
VIntel Core i7
p29
sVCondition
p30
VRefurbished
p31
ssS'title'
p32
VHP Spectre 13-v111dx 13.3" FHD Laptop i7-7500U 8GB 256GB SSD Win10 Refurb
p33
sb.