ccopy_reg
_reconstructor
p0
(c__main__
ProductRecord
p1
c__builtin__
object
p2
Ntp3
Rp4
(dp5
S'product_url'
p6
S'http://www.walmart.com/ip/Refurbished-Desktop-Computer-Dell-Optiplex-Desktop-Computer-PC-Intel-i3-3-1GHz-Processor-4GB-Ram-250GB-Hard-Drive-19-LCD-Monitor-Windows-10-Home-Prem/172694285'
p7
sS'price'
p8
V$178.00
p9
sS'properties'
p10
(dp11
VRAM Memory
p12
V4 GB
p13
sVOperating System
p14
VMicrosoft Windows 10 Home Premium
p15
sVLaptop Computer Type
p16
VPC Laptops
p17
sVBrand
p18
VDell
p19
sVManufacturer Part Number
p20
V390:790
p21
sVWireless Technology
p22
VWi-Fi Adapter Included
p23
sVHard Drive Capacity
p24
V250 GB
p25
sVProcessor Type
p26
VIntel
p27
sVScreen Size
p28
V17 in
p29
sVModel
p30
V390:790
p31
sVManufacturer
p32
VDell
p33
ssS'title'
p34
VRefurbished Desktop Computer - Dell Optiplex Desktop Computer PC with an Intel i3 3.1GHz Processor 4GB of Ram a 250GB Hard Drive and a 19" LCD Monitor with Windows 10 Home Premium
p35
sb.