ccopy_reg
_reconstructor
p0
(c__main__
ProductRecord
p1
c__builtin__
object
p2
Ntp3
Rp4
(dp5
S'product_url'
p6
S'http://www.walmart.com/ip/Acer-Predator-Helios-300-15-6-Gaming-Laptop-i7-7700HQ-16GB-256GB-1TB-GTX-1060/144588950'
p7
sS'price'
p8
V$1,309.00
p9
sS'properties'
p10
(dp11
VRAM Memory
p12
V16 Gigabytes
p13
sVOperating System
p14
VWindows 10
p15
sVBrand
p16
VAcer
p17
sVProcessor Speed
p18
V2.8 Gigahertz
p19
sVManufacturer Part Number
p20
VNH.Q2BAA.003
p21
sVMaximum RAM Supported
p22
V32 Gigabytes
p23
sVHard Drive Capacity
p24
V1 Terabytes
p25
sVBattery Life
p26
V7 Hours
p27
sVAssembled Product Dimensions (L x W x H)
p28
V22.00 x 14.00 x 4.00 Inches
p29
sVModel
p30
VNH.Q2BAA.003
p31
sVScreen Size
p32
V15.60 Inches
p33
sVProcessor Type
p34
VIntel i7-7700HQ
p35
sVCondition
p36
VNew
p37
ssS'title'
p38
VAcer Predator Helios 300 15.6" Gaming Laptop i7-7700HQ 16GB 256GB 1TB GTX 1060
p39
sb.