ccopy_reg
_reconstructor
p0
(c__main__
ProductRecord
p1
c__builtin__
object
p2
Ntp3
Rp4
(dp5
S'product_url'
p6
S'http://www.walmart.com/ip/HP-15-ba009dx-15-6-AMD-A6-7310-2GHz-4GB-DDR3-500GB-HDD-Radeon-R4-W10-Refurbished/151150327'
p7
sS'price'
p8
V$299.99
p9
sS'properties'
p10
(dp11
VRAM Memory
p12
V4 KB
p13
sVOperating System
p14
VWindows 10
p15
sVColor Category
p16
VBlack
p17
sVLaptop Computer Type
p18
VPC Laptops
p19
sVBrand
p20
VHP
p21
sVManufacturer Part Number
p22
V15-ba009dx
p23
sVHard Drive Capacity
p24
V500 KB
p25
sVProcessor Type
p26
VA6-7310
p27
sVScreen Size
p28
V15.6 in
p29
sVModel
p30
VX7T78UA#ABA
p31
sVCondition
p32
VNew
p33
sVManufacturer
p34
VHP
p35
ssS'title'
p36
VHP 15-ba009dx 15.6" AMD A6-7310 2GHz 4GB DDR3 500GB HDD Radeon R4 W10 Refurbished
p37
sb.