ccopy_reg
_reconstructor
p0
(c__main__
ProductRecord
p1
c__builtin__
object
p2
Ntp3
Rp4
(dp5
S'product_url'
p6
S'http://www.walmart.com/ip/Acer-Spin-3-SP315-51-37E7-Intel-Core-i3-7100U-X2-2-4GHz-6GB-1TB-15-6-Win10-Black/181453323'
p7
sS'price'
p8
V$437.68
p9
sS'properties'
p10
(dp11
VRAM Memory
p12
V6 Gigabytes
p13
sVOperating System
p14
VWindows 10
p15
sVFeatures
p16
V4-cell Lithium-Ion Battery, 1MP Webcam and Integrated Microphone, 6GB DDR4 System Memory, 1TB (5400RPM) SATA Hard Disk Drive (HDD), 0.9" x 15.0" x 9.9" (HxWxD); 6.6lbs, No Ethernet, 802.11AC and Bluetooth 4.1, Microsoft Windows 10 Home Operating System, Intel Core i3-7100U Processor (Dual-Core, 2.4GHz, 3MB Cache), Full Size (10 Key) Keyboard and Touchpad, 15.6-inch (1920 x 1080) LED Display, Integrated Intel HD Graphics 620, 1 x USB 3.0, 2 x USB 2.0, 1 x HDMI
p17
sVBrand
p18
VAcer
p19
sVManufacturer Part Number
p20
VNX.GK9AA.028
p21
sVMaximum RAM Supported
p22
V12 Gigabytes
p23
sVHard Drive Capacity
p24
V1000 Gigabytes
p25
sVBattery Life
p26
V5 Hours
p27
sVAssembled Product Dimensions (L x W x H)
p28
V15.00 x 9.90 x 0.90 Inches
p29
sVProcessor Type
p30
VIntel Core i3-7100U
p31
sVScreen Size
p32
V15.6 Inches
p33
sVProcessor Speed
p34
V2.4 Gigahertz
p35
sVCondition
p36
VNew
p37
ssS'title'
p38
VAcer Spin 3 SP315-51-37E7 Intel Core i3-7100U X2 2.4GHz 6GB 1TB 15.6" Win10, Black
p39
sb.