ccopy_reg
_reconstructor
p0
(c__main__
ProductRecord
p1
c__builtin__
object
p2
Ntp3
Rp4
(dp5
S'product_url'
p6
S'http://www.walmart.com/ip/Refurbished-Dell-XPS-13-9365-2-in-1-13-3-FHD-Touch-i5-7Y74-8GB-Ram-256GB-SSD-Silver/840148748'
p7
sS'price'
p8
S'N/A'
p9
sS'properties'
p10
(dp11
VRAM Memory
p12
V8 GB
p13
sVOperating System
p14
VMicrosoft Windows
p15
sVBrand
p16
VDell
p17
sVHard Drive Capacity
p18
V256 GB
p19
sVScreen Size
p20
V13.3\u005c"
p21
sVCondition
p22
VNew
p23
ssS'title'
p24
VRefurbished Dell XPS 13 9365 2-in-1 - 13.3" FHD Touch - i5-7Y74 - 8GB Ram - 256GB SSD - Silver
p25
sb.