ccopy_reg
_reconstructor
p0
(c__main__
ProductRecord
p1
c__builtin__
object
p2
Ntp3
Rp4
(dp5
S'product_url'
p6
S'http://www.walmart.com/ip/Acer-TravelMate-B117-M-C9GH-11-6-Celeron-N3160-4-GB-RAM-128-GB-SSD-US-International/55428691'
p7
sS'price'
p8
V$307.25
p9
sS'properties'
p10
(dp11
VRAM Memory
p12
V4 Gigabytes
p13
sVOperating System
p14
VWindows 10
p15
sVVideo Game Platform
p16
VPC
p17
sVBrand
p18
VAcer
p19
sVProcessor Speed
p20
V1.6 Gigahertz
p21
sVManufacturer Part Number
p22
VNX.VCGAA.015
p23
sVHard Drive Capacity
p24
V128 Gigabytes
p25
sVBattery Life
p26
V10 Hours
p27
sVAssembled Product Dimensions (L x W x H)
p28
V15.75 x 9.75 x 3.50 Inches
p29
sVModel
p30
VNX.VCGAA.015
p31
sVScreen Size
p32
V11.60 in
p33
sVProcessor Type
p34
VIntel N3160
p35
sVCondition
p36
VNew
p37
ssS'title'
p38
VAcer TravelMate B117-M-C9GH - 11.6" - Celeron N3160 - 4 GB RAM - 128 GB SSD - US International
p39
sb.