ccopy_reg
_reconstructor
p0
(c__main__
ProductRecord
p1
c__builtin__
object
p2
Ntp3
Rp4
(dp5
S'product_url'
p6
S'http://www.walmart.com/ip/Dell-Alienware-17-R4-17-3-Laptop-Windows-10-Home-Intel-Core-i7-7700HQ-Processor-16GB-RAM-1TB-Hard-Drive/55628621'
p7
sS'price'
p8
V$1,749.00
p9
sS'properties'
p10
(dp11
VRAM Memory
p12
V16 GB
p13
sVOperating System
p14
VWindows 10
p15
sVVideo Game Platform
p16
VPC
p17
sVBrand
p18
VAlienware
p19
sVProcessor Speed
p20
V3.80 GHz
p21
sVManufacturer Part Number
p22
VAW17R4-7345SLV
p23
sVHard Drive Capacity
p24
V1 TB
p25
sVAssembled Product Dimensions (L x W x H)
p26
V12.00 x 16.70 x 1.17 Inches
p27
sVModel
p28
VAW17R4-7345SLV
p29
sVScreen Size
p30
V17.3"
p31
sVProcessor Type
p32
VIntel Core i7
p33
sVCondition
p34
VNew
p35
ssS'title'
p36
VDell Alienware 17 R4 17.3" Laptop, Windows 10 Home, Intel Core i7-7700HQ Processor, 16GB RAM, 1TB Hard Drive
p37
sb.