ccopy_reg
_reconstructor
p0
(c__main__
ProductRecord
p1
c__builtin__
object
p2
Ntp3
Rp4
(dp5
S'product_url'
p6
S'http://www.walmart.com/ip/Refurbished-Dell-Latitude-E5540-15-6-Laptop-Windows-10-Pro-Intel-Core-i5-4300U-Processor-8GB-RAM-180GB-Solid-State-Drive/55727650'
p7
sS'price'
p8
V$325.50
p9
sS'properties'
p10
(dp11
VRAM Memory
p12
V8 GB
p13
sVOperating System
p14
VWindows 10
p15
sVColor Category
p16
VBlack
p17
sVVideo Game Platform
p18
VPC
p19
sVBrand
p20
VLatitude
p21
sVManufacturer Part Number
p22
VWA5-30404
p23
sVHard Drive Capacity
p24
V180 GB
p25
sVLaptop Computer Type
p26
VPC Laptops
p27
sVProcessor Type
p28
VIntel Core i5
p29
sVScreen Size
p30
V15.6"
p31
sVModel
p32
VE5540
p33
sVManufacturer
p34
VDell
p35
ssS'title'
p36
VRefurbished Dell Latitude E5540 15.6" Laptop, Windows 10 Pro, Intel Core i5-4300U Processor, 8GB RAM, 180GB Solid State Drive
p37
sb.