ccopy_reg
_reconstructor
p0
(c__main__
ProductRecord
p1
c__builtin__
object
p2
Ntp3
Rp4
(dp5
S'product_url'
p6
S'http://www.walmart.com/ip/Lenovo-ThinkPad-P51s-15-6-Core-i7-7500U-8-GB-RAM-500-GB-HDD/234193108'
p7
sS'price'
p8
V$1,094.73
p9
sS'properties'
p10
(dp11
VRAM Memory
p12
V8 Gigabytes
p13
sVOperating System
p14
VWindows 10
p15
sVBrand
p16
VLenovo
p17
sVProcessor Speed
p18
V2.7 Gigahertz
p19
sVManufacturer Part Number
p20
V20HB001KUS
p21
sVHard Drive Capacity
p22
V500 Gigabytes
p23
sVBattery Life
p24
V14 Hours
p25
sVModel
p26
V20HB001KUS
p27
sVScreen Size
p28
V15.60 Inches
p29
sVProcessor Type
p30
VIntel i7-7500U
p31
sVCondition
p32
VNew
p33
ssS'title'
p34
VLenovo ThinkPad P51s - 15.6" - Core i7 7500U - 8 GB RAM - 500 GB HDD
p35
sb.