ccopy_reg
_reconstructor
p0
(c__main__
ProductRecord
p1
c__builtin__
object
p2
Ntp3
Rp4
(dp5
S'product_url'
p6
S'http://www.walmart.com/ip/Dell-Inspiron-5000-5767-Notebook-17-3-i5-7200U-8GB-1TB/729575394'
p7
sS'price'
p8
V$569.00
p9
sS'properties'
p10
(dp11
VRAM Memory
p12
V8 KB
p13
sVOperating System
p14
VWindows 10
p15
sVBrand
p16
VDell
p17
sVProcessor Speed
p18
V2.5 Hz
p19
sVManufacturer Part Number
p20
VI5767-5135GRY
p21
sVMaximum RAM Supported
p22
V16 KB
p23
sVHard Drive Capacity
p24
V1 KB
p25
sVAssembled Product Dimensions (L x W x H)
p26
V11.02 x 16.69 x 1.00 Inches
p27
sVModel
p28
VI57675135GRY
p29
sVScreen Size
p30
V17.3 in
p31
sVProcessor Type
p32
VIntel Core i5
p33
sVCondition
p34
VNew
p35
ssS'title'
p36
VDell Inspiron 5000 5767 Notebook 17.3" i5 7200U 8GB 1TB
p37
sb.