ccopy_reg
_reconstructor
p0
(c__main__
ProductRecord
p1
c__builtin__
object
p2
Ntp3
Rp4
(dp5
S'product_url'
p6
S'http://www.walmart.com/ip/Open-Box-Microsoft-Surface-Book-512-GB-16-GB-RAM-Intel-Core-i7-NVIDIA-GeForce-graphics/157844684'
p7
sS'price'
p8
S'N/A'
p9
sS'properties'
p10
(dp11
VBrand
p12
VMicrosoft
p13
sVAssembled Product Weight
p14
V3.48 Pounds
p15
sVAssembled Product Dimensions (L x W x H)
p16
V10.95 x 16.46 x 1.93 Inches
p17
sVFeatures
p18
VSurface Pen included
p19
sVManufacturer Part Number
p20
VCR7-00001
p21
ssS'title'
p22
VOpen Box Microsoft Surface Book (512 GB, 16 GB RAM, Intel Core i7, NVIDIA GeForce graphics)
p23
sb.