ccopy_reg
_reconstructor
p0
(c__main__
ProductRecord
p1
c__builtin__
object
p2
Ntp3
Rp4
(dp5
S'product_url'
p6
S'http://www.walmart.com/ip/Dell-Laptop-Latitude-E5440-Notebook-Core-i5-1-9Ghz-Processor-8GB-Memory-320GB-Hard-Drive-Windows-10-Home-Refurbished/261590258'
p7
sS'price'
p8
V$274.99
p9
sS'properties'
p10
(dp11
VRAM Memory
p12
V8.00 GB
p13
sVOperating System
p14
VWindows 10
p15
sVBrand
p16
VDell
p17
sVProcessor Speed
p18
V1.90 GHz
p19
sVManufacturer Part Number
p20
VE5540RB
p21
sVMaximum RAM Supported
p22
V16.00 GB
p23
sVHard Drive Capacity
p24
V320.00 GB
p25
sVModel
p26
VE5540RB-RC
p27
sVScreen Size
p28
V14 in
p29
sVProcessor Type
p30
VIntel Core i5
p31
ssS'title'
p32
VDell Laptop Latitude E5440 Notebook Core i5 1.9Ghz Processor 8GB Memory 320GB Hard Drive Windows 10 Home Refurbished
p33
sb.