ccopy_reg
_reconstructor
p0
(c__main__
ProductRecord
p1
c__builtin__
object
p2
Ntp3
Rp4
(dp5
S'product_url'
p6
S'http://www.walmart.com/ip/Dell-Inspiron-17-5767-Intel-Core-i5-7200U-X2-2-5GHz-8GB-1TB-17-3-Dark-Gray-Certified-Refurbished/406624878'
p7
sS'price'
p8
V$493.39
p9
sS'properties'
p10
(dp11
VRAM Memory
p12
V8 Gigabytes
p13
sVOperating System
p14
VWindows 10
p15
sVFeatures
p16
VIntel Core i5-7200U Processor (Dual-Core, 2.5GHz, 3MB Cache), SuperMulti-DVD Burner, 2 x USB 3.0, 1 x USB 2.0, 1 x HDMI, 1MP Webcam and Integrated Microphone, 17.3-inch (1920 x 1080) LED Display, This Certified Refurbished product is tested and certified to look and work like new. The refurbishing process includes functionality testing, basic cleaning, inspection, and repackaging. The product ships with all relevant accessories, a minimum 90-day warranty, and may arrive in a generic box., 3-cell Lithium-Ion Battery, 1.0" x 16.69" x 11.02" (HxWxD); 6lbs, 1TB (5400RPM) SATA Hard Disk Drive (HDD), Energy Star Compliant, Microsoft Windows 10 Home Operating System, 10/100/1000 Gigabit Ethernet, 802.11AC and Bluetooth 4.2, Integrated Intel HD Graphics, Backlit Standard Keyboard and Touchpad, 8GB DDR4 System Memory
p17
sVBrand
p18
VDell
p19
sVManufacturer Part Number
p20
V1519808199-RFB
p21
sVMaximum RAM Supported
p22
V32 Gigabytes
p23
sVHard Drive Capacity
p24
V1000 Gigabytes
p25
sVBattery Life
p26
V8 Hours
p27
sVAssembled Product Dimensions (L x W x H)
p28
V16.70 x 11.00 x 1.00 Inches
p29
sVProcessor Type
p30
VIntel Core i5
p31
sVScreen Size
p32
V17.3 Inches
p33
sVProcessor Speed
p34
V2.5 Gigahertz
p35
ssS'title'
p36
VDell Inspiron 17-5767 Intel Core i5-7200U X2 2.5GHz 8GB 1TB 17.3", Dark Gray (Certified Refurbished)
p37
sb.