ccopy_reg
_reconstructor
p0
(c__main__
ProductRecord
p1
c__builtin__
object
p2
Ntp3
Rp4
(dp5
S'product_url'
p6
S'http://www.walmart.com/ip/Bit-W1004PB-CORE-Windows-10-detachable-PC-Cherry-Trail-CPU-4GB-RAM-32GB-storage-HD-touchscreen-10-1-Black/517311563'
p7
sS'price'
p8
S'N/A'
p9
sS'properties'
p10
(dp11
VRAM Memory
p12
V4 GB
p13
sVBrand
p14
VBIT
p15
sVProcessor Type
p16
VAtom x5
p17
sVScreen Size
p18
V10.1"
p19
sVProcessor Speed
p20
V1.44 GHz
p21
sVCondition
p22
VNew
p23
sVmanufacturer_part_number
p24
Vw1004pb
p25
ssS'title'
p26
VBit W1004PB CORE+ Windows 10 detachable PC, Cherry Trail CPU, 4GB RAM 32GB storage, HD touchscreen, 10.1', Black
p27
sb.