ccopy_reg
_reconstructor
p0
(c__main__
ProductRecord
p1
c__builtin__
object
p2
Ntp3
Rp4
(dp5
S'product_url'
p6
S'http://www.walmart.com/ip/Refurbished-Acer-Aspire-15-6-Intel-Celeron-2-4-GHz-4GB-Ram-500-GB-HD-Windows-10-Home/487606234'
p7
sS'price'
p8
V$292.94
p9
sS'properties'
p10
(dp11
VRAM Memory
p12
V4 GB
p13
sVOperating System
p14
VWindows 10
p15
sVBrand
p16
VAcer
p17
sVManufacturer Part Number
p18
VNX.GR5AA.002
p19
sVHard Drive Capacity
p20
V500 GB
p21
sVModel
p22
VA315-31-C8WK
p23
sVScreen Size
p24
V15.6 in
p25
sVProcessor Speed
p26
V2.40 GHz
p27
sVCondition
p28
VRefurbished
p29
ssS'title'
p30
VRefurbished Acer Aspire 15.6" Intel Celeron 2.4 GHz 4GB Ram 500 GB HD Windows 10 Home
p31
sb.