ccopy_reg
_reconstructor
p0
(c__main__
ProductRecord
p1
c__builtin__
object
p2
Ntp3
Rp4
(dp5
S'product_url'
p6
S'http://www.walmart.com/ip/Off-Lease-Lenovo-ThinkPad-T420-i7-2-8GHz-8GB-500GB-DVD-Windows-10-Pro-64-Laptop-Computer-B-Scratch-and-Dent/120200297'
p7
sS'price'
p8
V$297.00
p9
sS'properties'
p10
(dp11
VRAM Memory
p12
V8 Gigabytes
p13
sVOperating System
p14
VWindows 10
p15
sVBrand
p16
VLenovo
p17
sVProcessor Speed
p18
V2.8 Gigahertz
p19
sVMaximum RAM Supported
p20
V8 Gigabytes
p21
sVHard Drive Capacity
p22
V500 Gigabytes
p23
sVModel
p24
VThinkpad T420
p25
sVScreen Size
p26
V14 Inches
p27
sVProcessor Type
p28
VIntel Core i7
p29
ssS'title'
p30
VOff Lease Lenovo ThinkPad T420 i7 2.8GHz 8GB 500GB DVD Windows 10 Pro 64 Laptop Computer B Scratch and Dent
p31
sb.