ccopy_reg
_reconstructor
p0
(c__main__
ProductRecord
p1
c__builtin__
object
p2
Ntp3
Rp4
(dp5
S'product_url'
p6
S'http://www.walmart.com/ip/Dell-Inspiron-5570-Intel-Core-i7-8550U-X4-1-8GHz-8GB-1TB-128GB-15-6-Certified-Refurbished/760730100'
p7
sS'price'
p8
V$636.11
p9
sS'properties'
p10
(dp11
VRAM Memory
p12
V8 Gigabytes
p13
sVOperating System
p14
VWindows 10
p15
sVFeatures
p16
V4-cell Lithium-Ion Battery, SuperMulti-DVD Burner, 1 x USB 3.0, 1 x USB 2.0, 1 x HDMI, Intel Core i7-8550U Processor (Quad-Core, 1.8GHz, 8MB Cache), 1MP Webcam and Integrated Microphone, 1TB (5400RPM) SATA Hybrid Hard Disk Drive (H-HDD) w/128GB Solid State Drive, This Certified Refurbished product is tested and certified to look and work like new. The refurbishing process includes functionality testing, basic cleaning, inspection, and repackaging. The product ships with all relevant accessories, a minimum 90-day warranty, and may arrive in a generic box., Energy Star Compliant, Silver EPEAT, 0.89" x 14.96" x 10.16" (HxWxD); 4.9lbs, Microsoft Windows 10 Home Operating System, 10/100/1000 Gigabit Ethernet, 802.11AC and Bluetooth 4.2, Full Size (10 Key) Keyboard and Touchpad, 15.6-inch (1920 x 1080) LED Display, Integrated Intel HD Graphics, 8GB DDR4 System Memory
p17
sVBrand
p18
VDell
p19
sVManufacturer Part Number
p20
V1514447891-RFB
p21
sVMaximum RAM Supported
p22
V16 Gigabytes
p23
sVHard Drive Capacity
p24
V1128 Gigabytes
p25
sVBattery Life
p26
V8 Hours
p27
sVAssembled Product Dimensions (L x W x H)
p28
V15.00 x 10.20 x 0.90 Inches
p29
sVProcessor Type
p30
VIntel Core i7-8550U
p31
sVScreen Size
p32
V15.6 Inches
p33
sVProcessor Speed
p34
V1.8 Gigahertz
p35
ssS'title'
p36
VDell Inspiron 5570 Intel Core i7-8550U X4 1.8GHz 8GB 1TB + 128GB 15.6" (Certified Refurbished)
p37
sb.