ccopy_reg
_reconstructor
p0
(c__main__
ProductRecord
p1
c__builtin__
object
p2
Ntp3
Rp4
(dp5
S'product_url'
p6
S'http://www.walmart.com/ip/Refurbished-Dell-12-5-Latitude-E6230-Laptop-PC-with-Intel-Core-i5-3320M-Processor-4GB-Memory-320GB-Hard-Drive-and-Windows-10-Pro/46461688'
p7
sS'price'
p8
V$224.52
p9
sS'properties'
p10
(dp11
VRAM Memory
p12
V4 GB
p13
sVOperating System
p14
VWindows 10
p15
sVColor Category
p16
VSilver
p17
sVVideo Game Platform
p18
VPC
p19
sVBrand
p20
VLatitude
p21
sVManufacturer Part Number
p22
VWA5-0555
p23
sVHard Drive Capacity
p24
V320 GB
p25
sVLaptop Computer Type
p26
VBusiness Laptops
p27
sVProcessor Type
p28
VIntel Core i5
p29
sVScreen Size
p30
V12.5"
p31
sVModel
p32
VE6230
p33
sVCondition
p34
VRefurbished
p35
sVManufacturer
p36
VDell
p37
ssS'title'
p38
VRefurbished Dell 12.5" Latitude E6230 Laptop PC with Intel Core i5-3320M Processor, 4GB Memory, 320GB Hard Drive and Windows 10 Pro
p39
sb.