ccopy_reg
_reconstructor
p0
(c__main__
ProductRecord
p1
c__builtin__
object
p2
Ntp3
Rp4
(dp5
S'product_url'
p6
S'http://www.walmart.com/ip/Refurbished-Dell-Latitude-E6520-i7-2-7GHz-8GB-500GB-DVD-Windows-10-Pro-64-Laptop/109001670'
p7
sS'price'
p8
V$357.58
p9
sS'properties'
p10
(dp11
VRAM Memory
p12
V8 Gigabytes
p13
sVOperating System
p14
VWindows 10
p15
sVLaptop Computer Type
p16
VPC Laptops
p17
sVBrand
p18
VDell
p19
sVWireless Technology
p20
V802 11 ABG
p21
sVHard Drive Capacity
p22
V500 Gigabytes
p23
sVProcessor Type
p24
VIntel Core i7
p25
sVScreen Size
p26
V15 Inches
p27
sVModel
p28
VLatitude E6520
p29
sVManufacturer
p30
VDell
p31
ssS'title'
p32
VRefurbished Dell Latitude E6520 i7 2.7GHz 8GB 500GB DVD Windows 10 Pro 64 Laptop
p33
sb.