ccopy_reg
_reconstructor
p0
(c__main__
ProductRecord
p1
c__builtin__
object
p2
Ntp3
Rp4
(dp5
S'product_url'
p6
S'http://www.walmart.com/ip/Acer-Nitro-5-AN515-41-F03E-AMD-FX-Series-FX-9830P-Full-HD-1920-x-1080-IPS-RX-550-Laptop/429715930'
p7
sS'price'
p8
V$782.21
p9
sS'properties'
p10
(dp11
VRAM Memory
p12
V16 GB
p13
sVOperating System
p14
VWindows 10
p15
sVFeatures
p16
V16GB 1TB 15.6IN BT 4 W10H
p17
sVVideo Game Platform
p18
VSee Description
p19
sVBrand
p20
VAcer
p21
sVProcessor Speed
p22
V3 GHz
p23
sVManufacturer Part Number
p24
VNH.Q2UAA.002
p25
sVMaximum RAM Supported
p26
V32 GB
p27
sVHard Drive Capacity
p28
V1 TB
p29
sVBattery Life
p30
V6 h
p31
sVModel
p32
VAN51541F03E
p33
sVScreen Size
p34
V15.6 in
p35
sVProcessor Type
p36
VAMD FX-9830P
p37
sVCondition
p38
VNew
p39
ssS'title'
p40
VAcer Nitro 5 AN515-41-F03E AMD FX-Series FX-9830P Full HD (1920 x 1080) IPS RX 550 Laptop
p41
sb.