ccopy_reg
_reconstructor
p0
(c__main__
ProductRecord
p1
c__builtin__
object
p2
Ntp3
Rp4
(dp5
S'product_url'
p6
S'http://www.walmart.com/ip/Refurbished-HP-8300-SFF-Desktop-PC-with-Intel-Core-i5-3470-Processor-8GB-Memory-22-LCD-Monitor-2TB-Hard-Drive-and-Windows-10-Home/55484898'
p7
sS'price'
p8
V$355.23
p9
sS'properties'
p10
(dp11
VRAM Memory
p12
V8 GB
p13
sVOperating System
p14
VWindows 10
p15
sVColor Category
p16
VBlack
p17
sVVideo Game Platform
p18
VPC
p19
sVBrand
p20
VHP
p21
sVManufacturer Part Number
p22
V62805557292
p23
sVHard Drive Capacity
p24
V2 TB
p25
sVLaptop Computer Type
p26
VPC Laptops
p27
sVProcessor Type
p28
VIntel Core i5-3470 Processor
p29
sVScreen Size
p30
V22"
p31
sVModel
p32
VHP 8300 + 22" LCD
p33
sVManufacturer
p34
VHP
p35
ssS'title'
p36
VRefurbished HP 8300 SFF Desktop PC with Intel Core i5-3470 Processor, 8GB Memory, 22" LCD Monitor, 2TB Hard Drive and Windows 10 Home
p37
sb.