ccopy_reg
_reconstructor
p0
(c__main__
ProductRecord
p1
c__builtin__
object
p2
Ntp3
Rp4
(dp5
S'product_url'
p6
S'http://www.walmart.com/ip/Refurbished-Dell-E6540-15-6-Laptop-Windows-10-Pro-Intel-Core-i7-4800MQ-Processor-16GB-RAM-500GB-Solid-State-Drive/56245347'
p7
sS'price'
p8
V$567.00
p9
sS'properties'
p10
(dp11
VRAM Memory
p12
V16 GB
p13
sVOperating System
p14
VWindows 10
p15
sVVideo Game Platform
p16
VPC
p17
sVBrand
p18
VLatitude
p19
sVProcessor Speed
p20
V2.70 GHz
p21
sVManufacturer Part Number
p22
VWA5-30804
p23
sVMaximum RAM Supported
p24
V16 GB
p25
sVHard Drive Capacity
p26
V500 GB
p27
sVAssembled Product Dimensions (L x W x H)
p28
V14.90 x 1.30 x 9.80 Inches
p29
sVModel
p30
VE6540
p31
sVScreen Size
p32
V15.6"
p33
sVProcessor Type
p34
VIntel Core i7
p35
ssS'title'
p36
VRefurbished Dell E6540 15.6" Laptop, Windows 10 Pro, Intel Core i7-4800MQ Processor, 16GB RAM, 500GB Solid State Drive
p37
sb.