ccopy_reg
_reconstructor
p0
(c__main__
ProductRecord
p1
c__builtin__
object
p2
Ntp3
Rp4
(dp5
S'product_url'
p6
S'http://www.walmart.com/ip/VivoBook-Flip-14-TP410UA-i7-7500U-16-GB-256-GB-SSD-14-Windows-10-Home-Touchscreen-Notebook/919014004'
p7
sS'price'
p8
S'N/A'
p9
sS'properties'
p10
(dp11
VRAM Memory
p12
V16.00 GB
p13
sVOperating System
p14
VWindows 10
p15
sVBrand
p16
VASUS
p17
sVProcessor Speed
p18
V2.70 GHz
p19
sVManufacturer Part Number
p20
V90NB0FS1-M05840
p21
sVHard Drive Capacity
p22
V256.00 GB
p23
sVAssembled Product Dimensions (L x W x H)
p24
V46.99 x 30.48 x 7.62 Centimeters
p25
sVModel
p26
VTP410UAIB72T
p27
sVScreen Size
p28
V14.00 in
p29
sVProcessor Type
p30
VCore-i7
p31
sVCondition
p32
VNew
p33
ssS'title'
p34
VVivoBook Flip 14 TP410UA i7-7500U 16 GB 256 GB SSD 14" Windows 10 Home Touchscreen Notebook
p35
sb.