ccopy_reg
_reconstructor
p0
(c__main__
ProductRecord
p1
c__builtin__
object
p2
Ntp3
Rp4
(dp5
S'product_url'
p6
S'http://www.walmart.com/ip/Dell-Latitude-3480-14-HD-Laptop-Intel-Core-i3-6006U-4GB-DDR4-500GB-Hard-Drive-Windows-10-Pro/432726346'
p7
sS'price'
p8
V$545.37
p9
sS'properties'
p10
(dp11
VRAM Memory
p12
V4.00 GB
p13
sVOperating System
p14
VWindows 10
p15
sVFeatures
p16
VLATITUDE 3480, 14 HD, I3-6006U, 4GB, 500GB HDD, WIN10P , 1Y NBD
p17
sVBrand
p18
VDell
p19
sVProcessor Speed
p20
V2.00 GHz
p21
sVManufacturer Part Number
p22
VLATI3480F7YPC
p23
sVMaximum RAM Supported
p24
V32.00 GB
p25
sVHard Drive Capacity
p26
V500.00 GB
p27
sVBattery Life
p28
V13.50 h
p29
sVAssembled Product Dimensions (L x W x H)
p30
V18.00 x 12.00 x 3.00 Inches
p31
sVModel
p32
VF7YPC
p33
sVScreen Size
p34
V14.00 in
p35
sVProcessor Type
p36
VIntel Core i3
p37
sVCondition
p38
VNew
p39
ssS'title'
p40
VDell Latitude 3480, 14" HD Laptop Intel Core i3-6006U, 4GB DDR4, 500GB Hard Drive, Windows 10 Pro
p41
sb.