ccopy_reg
_reconstructor
p0
(c__main__
ProductRecord
p1
c__builtin__
object
p2
Ntp3
Rp4
(dp5
S'product_url'
p6
S'http://www.walmart.com/ip/Refurbished-Dell-Latitude-E7240-Laptop-Intel-Core-i7-4600u-2-1GHz-Processor-16GB-Memory-256GB-Solid-State-Hard-Drive-Windows-10-Pro-Notebook-PC/320406644'
p7
sS'price'
p8
V$395.99
p9
sS'properties'
p10
(dp11
VRAM Memory
p12
V16 GB
p13
sVOperating System
p14
VWindows 10
p15
sVBrand
p16
VDell
p17
sVProcessor Speed
p18
V2100 MHz
p19
sVManufacturer Part Number
p20
VE7240
p21
sVMaximum RAM Supported
p22
V16 GB
p23
sVHard Drive Capacity
p24
V256 GB
p25
sVModel
p26
VE7240
p27
sVScreen Size
p28
V12.5 in
p29
sVProcessor Type
p30
VIntel Core i7
p31
ssS'title'
p32
VRefurbished Dell Latitude E7240 Laptop Intel Core i7-4600u 2.1GHz Processor 16GB Memory 256GB Solid State Hard Drive Windows 10 Pro Notebook PC
p33
sb.