ccopy_reg
_reconstructor
p0
(c__main__
ProductRecord
p1
c__builtin__
object
p2
Ntp3
Rp4
(dp5
S'product_url'
p6
S'http://www.walmart.com/ip/HP-Elite-x2-1012-G1-12-Core-m5-6Y54-4-GB-RAM-128-GB-SSD-with-HP-Elite-x2-1012-G1-Travel-Keyboard-HP-Active-Pen/49243070'
p7
sS'price'
p8
S'N/A'
p9
sS'properties'
p10
(dp11
VRAM Memory
p12
V4 GB
p13
sVOperating System
p14
VWindows 10
p15
sVVideo Game Platform
p16
VPC
p17
sVBrand
p18
VHP
p19
sVProcessor Speed
p20
V1.10 GHz, with a Max Turbo Speed of 2.70 GHz
p21
sVManufacturer Part Number
p22
VT8Z04UT#ABA
p23
sVMaximum RAM Supported
p24
V8 GB
p25
sVHard Drive Capacity
p26
V128 GB
p27
sVBattery Life
p28
V0 Hours
p29
sVAssembled Product Dimensions (L x W x H)
p30
V15.00 x 10.00 x 3.00 Inches
p31
sVModel
p32
VT8Z04UT
p33
sVScreen Size
p34
V12.0"
p35
sVProcessor Type
p36
VIntel Core M5-6Y54 Dual-Core Processor
p37
sVCondition
p38
VNew
p39
ssS'title'
p40
VHP Elite x2 1012 G1 - 12" - Core m5 6Y54 - 4 GB RAM - 128 GB SSD - with HP Elite x2 1012 G1 Travel Keyboard HP Active Pen
p41
sb.