ccopy_reg
_reconstructor
p0
(c__main__
ProductRecord
p1
c__builtin__
object
p2
Ntp3
Rp4
(dp5
S'product_url'
p6
S'http://www.walmart.com/ip/2017-Newest-HP-17-3-HD-WLED-Backlight-Flagship-High-Performance-Laptop-PC-Intel-Core-i5-8GB-DDR4-1TB-HDD-USB-3-1-HDMI-WIFI-Webcam-DVD-RW-Windows-10-B/543055024'
p7
sS'price'
p8
V$589.00
p9
sS'properties'
p10
(dp11
VRAM Memory
p12
V8.00 GB
p13
sVOperating System
p14
VWindows 10
p15
sVColor Category
p16
VBlack
p17
sVLaptop Computer Type
p18
VPC Laptops
p19
sVBrand
p20
VHP
p21
sVManufacturer Part Number
p22
V2017
p23
sVHard Drive Capacity
p24
V1.00 TB
p25
sVProcessor Type
p26
V7th Gen Intel? Core? i5-7200U
p27
sVScreen Size
p28
V17.3 in
p29
sVManufacturer
p30
VHP
p31
ssS'title'
p32
V2017 Newest HP 17.3" HD+ WLED Backlight Flagship High Performance Laptop PC | Intel Core i5 | 8GB DDR4 | 1TB HDD | USB 3.1 | HDMI | WIFI | Webcam | DVD-RW | Windows 10 (Black)
p33
sb.