ccopy_reg
_reconstructor
p0
(c__main__
ProductRecord
p1
c__builtin__
object
p2
Ntp3
Rp4
(dp5
S'product_url'
p6
S'http://www.walmart.com/ip/Refurbished-Lenovo-15-6-Thinkpad-T520-Laptop-PC-with-Intel-Core-i5-2520M-Processor-12GB-Memory-750GB-Hard-Drive-and-Windows-10-Pro/47085652'
p7
sS'price'
p8
V$367.54
p9
sS'properties'
p10
(dp11
VRAM Memory
p12
V12 GB
p13
sVOperating System
p14
VWindows 10
p15
sVVideo Game Platform
p16
VPC
p17
sVBrand
p18
VLenovo
p19
sVProcessor Speed
p20
V2.50 GHz
p21
sVManufacturer Part Number
p22
VWA5-0659
p23
sVMaximum RAM Supported
p24
V16 GB
p25
sVHard Drive Capacity
p26
V750 GB
p27
sVBattery Life
p28
V2 h
p29
sVAssembled Product Dimensions (L x W x H)
p30
V14.70 x 1.40 x 9.60 Inches
p31
sVModel
p32
VT520
p33
sVScreen Size
p34
V15.6 in
p35
sVProcessor Type
p36
VIntel Core i5
p37
sVCondition
p38
VRefurbished
p39
ssS'title'
p40
VRefurbished Lenovo 15.6" Thinkpad T520 Laptop PC with Intel Core i5-2520M Processor, 12GB Memory, 750GB Hard Drive and Windows 10 Pro
p41
sb.