ccopy_reg
_reconstructor
p0
(c__main__
ProductRecord
p1
c__builtin__
object
p2
Ntp3
Rp4
(dp5
S'product_url'
p6
S'http://www.walmart.com/ip/Refurbished-Dell-Latitude-E6430-Laptop-HDMI-Intel-i5-2-6GHz-4GB-DDR3-320GB-SATA-DVD-Windows-10-Home-64bit/956700264'
p7
sS'price'
p8
V$222.00
p9
sS'properties'
p10
(dp11
VRAM Memory
p12
V4.00 GB
p13
sVOperating System
p14
VWindows 10
p15
sVLaptop Computer Type
p16
VPC Laptops
p17
sVBrand
p18
VDell
p19
sVWireless Technology
p20
V802_11_BGN
p21
sVHard Drive Capacity
p22
V320.00 GB
p23
sVProcessor Type
p24
VIntel
p25
sVScreen Size
p26
V14 in
p27
sVModel
p28
VE6430
p29
sVManufacturer
p30
VDell
p31
ssS'title'
p32
VRefurbished Dell Latitude E6430 Laptop - HDMI - Intel i5 2.6GHz - 4GB DDR3 - 320GB SATA - DVD - Windows 10 Home 64bit
p33
sb.