ccopy_reg
_reconstructor
p0
(c__main__
ProductRecord
p1
c__builtin__
object
p2
Ntp3
Rp4
(dp5
S'product_url'
p6
S'http://www.walmart.com/ip/2017-Dell-Black-15-6-Inspiron-i3552-Laptop-PC-with-Intel-Celeron-N3050-Processor-4GB-Memory-500GB-Hard-Drive-and-Windows-10-Home/111685542'
p7
sS'price'
p8
V$349.00
p9
sS'properties'
p10
(dp11
VRAM Memory
p12
V4.00 GB
p13
sVOperating System
p14
VWindows 10
p15
sVColor Category
p16
VBlack
p17
sVLaptop Computer Type
p18
VPC Laptops
p19
sVBrand
p20
VDell
p21
sVWireless Technology
p22
VWireless LAN 802.11b/g/n
p23
sVHard Drive Capacity
p24
V500.00 GB
p25
sVProcessor Type
p26
VIntel Celeron
p27
sVScreen Size
p28
V15.6
p29
sVmanufacturer_part_number
p30
V2017
p31
ssS'title'
p32
V2017 Dell Black 15.6" Inspiron i3552 Laptop PC with Intel Celeron N3050 Processor, 4GB Memory, 500GB Hard Drive and Windows 10 Home
p33
sb.