ccopy_reg
_reconstructor
p0
(c__main__
ProductRecord
p1
c__builtin__
object
p2
Ntp3
Rp4
(dp5
S'product_url'
p6
S'http://www.walmart.com/ip/Swift-3-SF314-52-50T6-Ultrabook-i5-8250U-4GB-256GB-Windows-10-Home-Notebook/675844329'
p7
sS'price'
p8
V$699.00
p9
sS'properties'
p10
(dp11
VRAM Memory
p12
V4.00 GB
p13
sVOperating System
p14
VWindows 10
p15
sVBrand
p16
VAcer
p17
sVProcessor Speed
p18
V1.60 GHz
p19
sVManufacturer Part Number
p20
VNX.GQJAA.003
p21
sVHard Drive Capacity
p22
V256.00 GB
p23
sVBattery Life
p24
V0 h
p25
sVAssembled Product Dimensions (L x W x H)
p26
V9.21 x 13.31 x 0.71 Inches
p27
sVModel
p28
VSF3145250T6
p29
sVScreen Size
p30
V14.00 in
p31
sVProcessor Type
p32
VIntel Core i5
p33
sVCondition
p34
VNew
p35
ssS'title'
p36
VSwift 3 SF314-52-50T6 Ultrabook i5-8250U - 4GB - 256GB - Windows 10 Home Notebook
p37
sb.