ccopy_reg
_reconstructor
p0
(c__main__
ProductRecord
p1
c__builtin__
object
p2
Ntp3
Rp4
(dp5
S'product_url'
p6
S'http://www.walmart.com/ip/Manufacturer-Refurbished-HP-Pavilion-15-ay052nr-15-6-Laptop-Intel-i3-6100U-2-3GHz-4GB-1TB-Windows-10/183867851'
p7
sS'price'
p8
V$319.99
p9
sS'properties'
p10
(dp11
VBrand
p12
VHP
p13
sVModel
p14
V15-ay052nr-RF
p15
sVCondition
p16
VRefurbished
p17
sVManufacturer Part Number
p18
V15-ay052nr-RF
p19
ssS'title'
p20
VManufacturer Refurbished - HP Pavilion 15-ay052nr 15.6" Laptop Intel i3-6100U 2.3GHz 4GB 1TB Windows 10
p21
sb.