ccopy_reg
_reconstructor
p0
(c__main__
ProductRecord
p1
c__builtin__
object
p2
Ntp3
Rp4
(dp5
S'product_url'
p6
S'http://www.walmart.com/ip/Refurbished-Dell-OptiPlex-3010-D-Desktop-PC-with-Intel-Core-i5-3470-Processor-4GB-Memory-250GB-Hard-Drive-and-Windows-10-Pro-Monitor-Not-Included/52523480'
p7
sS'price'
p8
V$208.80
p9
sS'properties'
p10
(dp11
VRAM Memory
p12
V4 GB
p13
sVOperating System
p14
VWindows 10
p15
sVFeatures
p16
VHDMI Outputs
p17
sVVideo Game Platform
p18
VPC
p19
sVBrand
p20
VDell
p21
sVProcessor Speed
p22
V3.20 GHz
p23
sVManufacturer Part Number
p24
VWA1-20004
p25
sVMaximum RAM Supported
p26
V8 GB
p27
sVHard Drive Capacity
p28
V250 GB
p29
sVAssembled Product Dimensions (L x W x H)
p30
V14.20 x 4.00 x 16.20 Inches
p31
sVModel
p32
V3010
p33
sVProcessor Type
p34
VIntel Core i5-3470 Processor
p35
ssS'title'
p36
VRefurbished Dell OptiPlex 3010-D Desktop PC with Intel Core i5-3470 Processor, 4GB Memory, 250GB Hard Drive and Windows 10 Pro (Monitor Not Included)
p37
sb.