ccopy_reg
_reconstructor
p0
(c__main__
ProductRecord
p1
c__builtin__
object
p2
Ntp3
Rp4
(dp5
S'product_url'
p6
S'http://www.walmart.com/ip/Refurbished-Lenovo-ThinkPad-T430-i5-2-6GHz-4GB-250GB-DVD-Windows-10-Pro-64-Laptop-CAM/128323978'
p7
sS'price'
p8
V$284.00
p9
sS'properties'
p10
(dp11
VRAM Memory
p12
V4 Gigabytes
p13
sVOperating System
p14
VWindows 10
p15
sVBrand
p16
VLenovo
p17
sVProcessor Speed
p18
V2.6 Gigahertz
p19
sVManufacturer Part Number
p20
V9SIA9UW3N86312
p21
sVMaximum RAM Supported
p22
V16 Gigabytes
p23
sVHard Drive Capacity
p24
V250 Gigabytes
p25
sVModel
p26
VThinkpad T430
p27
sVProcessor Type
p28
VIntel Core i5
p29
ssS'title'
p30
VRefurbished Lenovo ThinkPad T430 i5 2.6GHz 4GB 250GB DVD Windows 10 Pro 64 Laptop CAM
p31
sb.