ccopy_reg
_reconstructor
p0
(c__main__
ProductRecord
p1
c__builtin__
object
p2
Ntp3
Rp4
(dp5
S'product_url'
p6
S'http://www.walmart.com/ip/Refurbished-Lenovo-ThinkPad-T430s-i5-2-6GHz-4GB-128SSD-DRW-Windows-10-Pro-64-Laptop-CAM/403043610'
p7
sS'price'
p8
V$203.36
p9
sS'properties'
p10
(dp11
VBrand
p12
VLenovo
p13
sVModel
p14
VThinkpad T430s
p15
ssS'title'
p16
VRefurbished Lenovo ThinkPad T430s i5 2.6GHz 4GB 128SSD DRW Windows 10 Pro 64 Laptop CAM
p17
sb.