ccopy_reg
_reconstructor
p0
(c__main__
ProductRecord
p1
c__builtin__
object
p2
Ntp3
Rp4
(dp5
S'product_url'
p6
S'http://www.walmart.com/ip/ENVY-13-ad120nr-Envy-Notebook/56148793'
p7
sS'price'
p8
S'N/A'
p9
sS'properties'
p10
(dp11
VRAM Memory
p12
V8 KB
p13
sVOperating System
p14
VWindows 10
p15
sVBrand
p16
VHP
p17
sVProcessor Speed
p18
V1.8 Hz
p19
sVManufacturer Part Number
p20
V1KT12UA#ABA
p21
sVMaximum RAM Supported
p22
V8 KB
p23
sVHard Drive Capacity
p24
V256 KB
p25
sVBattery Life
p26
V14 Hour
p27
sVAssembled Product Dimensions (L x W x H)
p28
V8.49 x 12.04 x 0.55 Inches
p29
sVModel
p30
VHP 13-Ad120Nr
p31
sVScreen Size
p32
V13.3 in
p33
sVProcessor Type
p34
VIntel Core i7
p35
ssS'title'
p36
VENVY - 13-ad120nr Envy Notebook
p37
sb.