ccopy_reg
_reconstructor
p0
(c__main__
ProductRecord
p1
c__builtin__
object
p2
Ntp3
Rp4
(dp5
S'product_url'
p6
S'http://www.walmart.com/ip/Refurbished-Dell-15-6-Latitude-E6530-WA5-0851-Laptop-PC-with-Intel-Core-i7-3520M-Processor-8GB-Memory-128GB-Solid-State-Drive-and-Windows-10-Pro/49822529'
p7
sS'price'
p8
V$390.31
p9
sS'properties'
p10
(dp11
VRAM Memory
p12
V8 GB
p13
sVOperating System
p14
VWindows 10
p15
sVVideo Game Platform
p16
VPC
p17
sVBrand
p18
VLatitude
p19
sVProcessor Speed
p20
V2.90 GHz
p21
sVManufacturer Part Number
p22
VWA5-0851
p23
sVMaximum RAM Supported
p24
V16 GB
p25
sVHard Drive Capacity
p26
V128 GB
p27
sVBattery Life
p28
V30 minutes
p29
sVAssembled Product Dimensions (L x W x H)
p30
V15.10 x 1.30 x 10.20 Inches
p31
sVModel
p32
VE6530
p33
sVScreen Size
p34
V15.6"
p35
sVProcessor Type
p36
VIntel Core i7
p37
sVCondition
p38
VRefurbished
p39
ssS'title'
p40
VRefurbished Dell 15.6" Latitude E6530 WA5-0851 Laptop PC with Intel Core i7-3520M Processor, 8GB Memory, 128GB Solid State Drive and Windows 10 Pro
p41
sb.