ccopy_reg
_reconstructor
p0
(c__main__
ProductRecord
p1
c__builtin__
object
p2
Ntp3
Rp4
(dp5
S'product_url'
p6
S'http://www.walmart.com/ip/Refurbished-Acer-15-6-Aspire-3-Laptop-AMD-3-GHz-6-GB-Ram-1TB-HDD-Windows-10-Home/462037372'
p7
sS'price'
p8
V$303.44
p9
sS'properties'
p10
(dp11
VRAM Memory
p12
V6 GB
p13
sVOperating System
p14
VWindows 10
p15
sVBrand
p16
VAcer
p17
sVProcessor Speed
p18
V3 GHz
p19
sVManufacturer Part Number
p20
VNX.GNVAA.002
p21
sVModel
p22
VA315-21-95KF
p23
sVScreen Size
p24
V15.6 in
p25
sVProcessor Type
p26
VA9
p27
sVCondition
p28
VNew
p29
ssS'title'
p30
VRefurbished Acer 15.6" Aspire 3 Laptop AMD 3 GHz 6 GB Ram 1TB HDD Windows 10 Home
p31
sb.