ccopy_reg
_reconstructor
p0
(c__main__
ProductRecord
p1
c__builtin__
object
p2
Ntp3
Rp4
(dp5
S'product_url'
p6
S'http://www.walmart.com/ip/Microsoft-Surface-Pro-4-12-3-4GB-128GB-Intel-Core-m3/47167958'
p7
sS'price'
p8
S'N/A'
p9
sS'properties'
p10
(dp11
VRAM Memory
p12
V4 GB
p13
sVOperating System
p14
VMicrosoft Windows
p15
sVFeatures
p16
VAmbient Light Sensor, Gyro Sensor, Digital Compass, G-sensor, Webcam
p17
sVBrand
p18
VMicrosoft
p19
sVProcessor Speed
p20
V2.2 GHz
p21
sVManufacturer Part Number
p22
VSU3-00001
p23
sVMaximum RAM Supported
p24
V4 GB
p25
sVHard Drive Capacity
p26
V128 GB
p27
sVAssembled Product Dimensions (L x W x H)
p28
V9.21 x 15.17 x 1.58 Inches
p29
sVModel
p30
VSU3-00001
p31
sVScreen Size
p32
V12.3 in
p33
sVProcessor Type
p34
VIntel Core M3 Processor
p35
sVCondition
p36
VNew
p37
ssS'title'
p38
VMicrosoft Surface Pro 4 12.3" 4GB/128GB Intel Core m3
p39
sb.