ccopy_reg
_reconstructor
p0
(c__main__
ProductRecord
p1
c__builtin__
object
p2
Ntp3
Rp4
(dp5
S'product_url'
p6
S'http://www.walmart.com/ip/Premium-HP-15-6-Inch-Flagship-Notebook-Laptop-Computer-Quad-Core-AMD-E2-7110-APU-1-8GHz-4GB-RAM-500GB-HDD-AMD-Radeon-R2-WiFi-HD-Webcam-Super-DVD-Burn/740144692'
p7
sS'price'
p8
V$349.00
p9
sS'properties'
p10
(dp11
VRAM Memory
p12
V4.00 GB
p13
sVOperating System
p14
VWindows 10
p15
sVBrand
p16
VHP
p17
sVHard Drive Capacity
p18
V500.00 GB
p19
sVProcessor Type
p20
VAMD Quad-Core E2-7110
p21
sVScreen Size
p22
V15.60 in
p23
sVProcessor Speed
p24
V1.80 GHz
p25
sVCondition
p26
VNew
p27
ssS'title'
p28
VPremium HP 15.6 Inch Flagship Notebook Laptop Computer (Quad-Core AMD E2-7110 APU 1.8GHz, 4GB RAM, 500GB HDD, AMD Radeon R2, WiFi, HD Webcam, Super DVD Burner, Windows 10) Black
p29
sb.