ccopy_reg
_reconstructor
p0
(c__main__
ProductRecord
p1
c__builtin__
object
p2
Ntp3
Rp4
(dp5
S'product_url'
p6
S'http://www.walmart.com/ip/HP-Stream-Notebook-14-AX067NR-14-Screen-Celeron-N-1-6GHZ-4GB-RAM-32GB-eMMC-in-Snow-White-Certified-Refurbished/571348728'
p7
sS'price'
p8
V$189.99
p9
sS'properties'
p10
(dp11
VOperating System
p12
VWindows 10
p13
sVColor Category
p14
VWhite
p15
sVLaptop Computer Type
p16
VPC Laptops
p17
sVBrand
p18
VHP
p19
sVManufacturer Part Number
p20
VX7S50UA#ABA.RB
p21
sVHard Drive Capacity
p22
V32
p23
sVModel
p24
VX7S50UA#ABA.RB
p25
sVScreen Size
p26
V14
p27
sVManufacturer
p28
VHP
p29
ssS'title'
p30
VHP Stream Notebook 14-AX067NR - 14" Screen, Celeron N @ 1.6GHZ, 4GB RAM, 32GB eMMC, in Snow White (Certified Refurbished)
p31
sb.