ccopy_reg
_reconstructor
p0
(c__main__
ProductRecord
p1
c__builtin__
object
p2
Ntp3
Rp4
(dp5
S'product_url'
p6
S'http://www.walmart.com/ip/HP-17-X010nr-17-3-quot-Notebook-17-X010nr-Notebook/51629773'
p7
sS'price'
p8
V$439.00
p9
sS'properties'
p10
(dp11
VRAM Memory
p12
V4 GB
p13
sVOperating System
p14
VWindows 10
p15
sVColor Category
p16
VMulticolor
p17
sVVideo Game Platform
p18
VSee Description
p19
sVBrand
p20
VHP
p21
sVManufacturer Part Number
p22
VW2M96UA#ABA
p23
sVLaptop Computer Type
p24
VPC Laptops
p25
sVProcessor Core Type
p26
VQuad-core (4 Core)
p27
sVProcessor Type
p28
VIntel Pentium
p29
sVScreen Size
p30
V17.3 in
p31
sVModel
p32
VW2M96UA#ABA
p33
sVCondition
p34
VNew
p35
sVManufacturer
p36
VHewlett Packard
p37
ssS'title'
p38
VHP 17-X010nr 17.3" Notebook 17-X010nr Notebook
p39
sb.