ccopy_reg
_reconstructor
p0
(c__main__
ProductRecord
p1
c__builtin__
object
p2
Ntp3
Rp4
(dp5
S'product_url'
p6
S'http://www.walmart.com/ip/Refurbished-HP-EliteBook-2570p-i5-2-6GHz-2GB-320GB-DVD-Windows-10-Home-Laptop-B/813496597'
p7
sS'price'
p8
V$159.98
p9
sS'properties'
p10
(dp11
VRAM Memory
p12
V2 Gigabytes
p13
sVOperating System
p14
VWindows 10
p15
sVLaptop Computer Type
p16
VPC Laptops
p17
sVBrand
p18
VHP
p19
sVWireless Technology
p20
V802 11 ABGN
p21
sVHard Drive Capacity
p22
V320 Gigabytes
p23
sVProcessor Type
p24
VIntel Core i5
p25
sVModel
p26
VEliteBook 2570p
p27
sVManufacturer
p28
VHP
p29
ssS'title'
p30
VRefurbished HP EliteBook 2570p i5 2.6GHz 2GB 320GB DVD Windows 10 Home Laptop B
p31
sb.