ccopy_reg
_reconstructor
p0
(c__main__
ProductRecord
p1
c__builtin__
object
p2
Ntp3
Rp4
(dp5
S'product_url'
p6
S'http://www.walmart.com/ip/Refurbished-HP-Pavilion-15-bc047cl-Pavilion-15-bc047cl/589051485'
p7
sS'price'
p8
V$1,041.24
p9
sS'properties'
p10
(dp11
VRAM Memory
p12
V12 GB
p13
sVOperating System
p14
VMicrosoft Windows, Windows 10
p15
sVBrand
p16
VHP
p17
sVProcessor Speed
p18
V2.60 GHz
p19
sVHard Drive Capacity
p20
V1 TB
p21
sVBattery Life
p22
V7 Hour
p23
sVAssembled Product Dimensions (L x W x H)
p24
V20.40 x 12.30 x 3.10 Inches
p25
sVModel
p26
V15-bc000, GeForce GTX 960M, 15-bc047cl
p27
sVScreen Size
p28
V15.6"
p29
sVProcessor Type
p30
VIntel Core i7
p31
sVCondition
p32
VRefurbished
p33
sVmanufacturer_part_number
p34
V15.6
p35
ssS'title'
p36
VRefurbished "HP Pavilion 15-bc047cl Pavilion 15-bc047cl"
p37
sb.