ccopy_reg
_reconstructor
p0
(c__main__
ProductRecord
p1
c__builtin__
object
p2
Ntp3
Rp4
(dp5
S'product_url'
p6
S'http://www.walmart.com/ip/HP-17-bs088cl-17-3-HD-Notebook-Intel-Core-i3-7100U-DC-Processor-8GB-Memory-2TB-Hard-Drive-Optical-Drive-HD-Webcam-Backlit-Keyboard-Pale-Mint/687002033'
p7
sS'price'
p8
V$529.00
p9
sS'properties'
p10
(dp11
VRAM Memory
p12
V8 GB
p13
sVOperating System
p14
VWindows 10
p15
sVBrand
p16
VHP
p17
sVHard Drive Capacity
p18
V2 TB
p19
sVProcessor Type
p20
VI3 7th, Intel Core
p21
sVScreen Size
p22
V17.3 in
p23
ssS'title'
p24
VHP 17-bs088cl 17.3" HD+ Notebook, Intel Core i3-7100U DC Processor, 8GB Memory, 2TB Hard Drive, Optical Drive, HD Webcam, Backlit Keyboard Pale Mint
p25
sb.