ccopy_reg
_reconstructor
p0
(c__main__
ProductRecord
p1
c__builtin__
object
p2
Ntp3
Rp4
(dp5
S'product_url'
p6
S'http://www.walmart.com/ip/HP-15-ay107cl-15-6-HD-Premium-Laptop-Intel-Core-i7-7500U-16G-RAM-1TB-HDD-DVD-RW-Windows-10-Red/817265564'
p7
sS'price'
p8
V$679.00
p9
sS'properties'
p10
(dp11
VRAM Memory
p12
V16 GB
p13
sVOperating System
p14
VWindows 10
p15
sVBrand
p16
VHP
p17
sVHard Drive Capacity
p18
V1 TB
p19
sVProcessor Type
p20
Vi7-7500u
p21
sVScreen Size
p22
V15.6 in
p23
sVProcessor Speed
p24
V2.7 GHz
p25
ssS'title'
p26
VHP 15-ay107cl 15.6" HD Premium Laptop Intel Core i7-7500U, 16G RAM 1TB HDD DVD+/-RW Windows 10 Red
p27
sb.