ccopy_reg
_reconstructor
p0
(c__main__
ProductRecord
p1
c__builtin__
object
p2
Ntp3
Rp4
(dp5
S'product_url'
p6
S'http://www.walmart.com/ip/Dell-Inspiron-15-Gaming-Laptop-Core-i5-7300HQ-GTX-1060-6GB-128GB-SSD-1TB-HDD-8GB-RAM-15-6-Full-HD-Display/872477711'
p7
sS'price'
p8
V$939.99
p9
sS'properties'
p10
(dp11
VRAM Memory
p12
V8 GB
p13
sVOperating System
p14
VWindows 10
p15
sVBrand
p16
VDell
p17
sVProcessor Speed
p18
V2500 MHz
p19
sVManufacturer Part Number
p20
Vi7577-5258BLK-PUS
p21
sVHard Drive Capacity
p22
V1128 GB
p23
sVModel
p24
VInspiron 15
p25
sVScreen Size
p26
V15.6 in
p27
sVProcessor Type
p28
VIntel Core i5
p29
ssS'title'
p30
VDell Inspiron 15 Gaming Laptop: Core i5-7300HQ, GTX 1060 6GB, 128GB SSD+1TB HDD, 8GB RAM, 15.6" Full HD Display
p31
sb.