ccopy_reg
_reconstructor
p0
(c__main__
ProductRecord
p1
c__builtin__
object
p2
Ntp3
Rp4
(dp5
S'product_url'
p6
S'http://www.walmart.com/ip/Dell-Inspiron-15-3567-Intel-Core-i3-6006U-X2-2GHz-4GB-1TB-15-6-Win10-Black-Certified-Refurbished/221744378'
p7
sS'price'
p8
V$329.51
p9
sS'properties'
p10
(dp11
VRAM Memory
p12
V4 Gigabytes
p13
sVOperating System
p14
VWindows 10
p15
sVFeatures
p16
V4-cell Lithium-Ion Battery, 4GB DDR3 System Memory, SuperMulti-DVD Burner, 1MP Webcam and Integrated Microphone, This Certified Refurbished product is tested and certified to look and work like new. The refurbishing process includes functionality testing, basic cleaning, inspection, and repackaging. The product ships with all relevant accessories, a minimum 90-day warranty, and may arrive in a generic box., Intel Core i3-6006U Processor (Dual-Core, 2GHz, 3MB Cache), 15.6-inch (1366 x 768) LED Display, 1TB (5400RPM) SATA Hard Disk Drive (HDD), 0.85" x 14.9" x 10.24" (HxWxD); 4.7lbs, Energy Star Compliant, Microsoft Windows 10 Home Operating System, 10/100/1000 Gigabit Ethernet, 802.11AC and Bluetooth 4.2, Integrated Intel HD Graphics, Full Size (10 Key) Keyboard and Multi-touch Trackpad, 1 x USB 3.0, 2 x USB 2.0, 1 x HDMI
p17
sVBrand
p18
VDell
p19
sVManufacturer Part Number
p20
V1519807890-RFB
p21
sVMaximum RAM Supported
p22
V8 Gigabytes
p23
sVHard Drive Capacity
p24
V1000 Gigabytes
p25
sVBattery Life
p26
V8 Hours
p27
sVAssembled Product Dimensions (L x W x H)
p28
V14.90 x 10.20 x 0.90 Inches
p29
sVProcessor Type
p30
VIntel Core i3-6006U
p31
sVScreen Size
p32
V15.6 Inches
p33
sVProcessor Speed
p34
V2 Gigahertz
p35
ssS'title'
p36
VDell Inspiron 15-3567 Intel Core i3-6006U X2 2GHz 4GB 1TB 15.6" Win10, Black (Certified Refurbished)
p37
sb.