ccopy_reg
_reconstructor
p0
(c__main__
ProductRecord
p1
c__builtin__
object
p2
Ntp3
Rp4
(dp5
S'product_url'
p6
S'http://www.walmart.com/ip/Acer-Aspire-A315-31-C58L-Notebook/320377774'
p7
sS'price'
p8
V$299.99
p9
sS'properties'
p10
(dp11
VRAM Memory
p12
V4.00 GB
p13
sVOperating System
p14
VWindows 10
p15
sVColor Category
p16
VBlack
p17
sVLaptop Computer Type
p18
VPC Laptops
p19
sVBrand
p20
VAcer
p21
sVManufacturer Part Number
p22
VNX.GNTAA.007
p23
sVHard Drive Capacity
p24
V1.00 TB
p25
sVProcessor Core Type
p26
VDual-core (2 Core)
p27
sVProcessor Type
p28
VCeleron N3350
p29
sVScreen Size
p30
V15.60 in
p31
sVModel
p32
VA31531C58L
p33
sVCondition
p34
VNew
p35
sVManufacturer
p36
VAcer, Inc
p37
ssS'title'
p38
VAcer Aspire A315-31-C58L Notebook
p39
sb.