ccopy_reg
_reconstructor
p0
(c__main__
ProductRecord
p1
c__builtin__
object
p2
Ntp3
Rp4
(dp5
S'product_url'
p6
S'http://www.walmart.com/ip/Refurbished-Dell-Latitude-E6420-2-5GHz-i5-4GB-250GB-DVD-Windows-10-Pro-64-Laptop-CAM/191223265'
p7
sS'price'
p8
V$153.85
p9
sS'properties'
p10
(dp11
VRAM Memory
p12
V4 Gigabytes
p13
sVOperating System
p14
VWindows 10
p15
sVLaptop Computer Type
p16
VPC Laptops
p17
sVBrand
p18
VDell
p19
sVWireless Technology
p20
V802 11 ABGN
p21
sVHard Drive Capacity
p22
V250 Gigabytes
p23
sVProcessor Type
p24
VIntel Core i5
p25
sVScreen Size
p26
V14 Inches
p27
sVModel
p28
VLatitude E6420
p29
sVManufacturer
p30
VDell
p31
ssS'title'
p32
VRefurbished Dell Latitude E6420 2.5GHz i5 4GB 250GB DVD Windows 10 Pro 64 Laptop CAM
p33
sb.