ccopy_reg
_reconstructor
p0
(c__main__
ProductRecord
p1
c__builtin__
object
p2
Ntp3
Rp4
(dp5
S'product_url'
p6
S'http://www.walmart.com/ip/VAIO-S-Laptop-13-3-Intel-i5-8250U-8GB-Memory-Windows-10-Pro-256GB-SSD/157686400'
p7
sS'price'
p8
V$1,199.00
p9
sS'properties'
p10
(dp11
VOperating System
p12
VWindows 10
p13
sVBrand
p14
VVAIO
p15
sVProcessor Speed
p16
V1.60 GHz
p17
sVManufacturer Part Number
p18
VVJS132X0611S
p19
sVModel
p20
VVJS132X0611S
p21
sVScreen Size
p22
V13.30 in
p23
sVProcessor Type
p24
VIntel Core i5
p25
ssS'title'
p26
VVAIO S Laptop - 13.3" Intel i5-8250U | 8GB Memory | Windows 10 Pro | 256GB SSD
p27
sb.