ccopy_reg
_reconstructor
p0
(c__main__
ProductRecord
p1
c__builtin__
object
p2
Ntp3
Rp4
(dp5
S'product_url'
p6
S'http://www.walmart.com/ip/Dell-Latitude-5580-15-6-Core-i5-7200U-8-GB-RAM-256-GB-SSD/998806890'
p7
sS'price'
p8
V$969.21
p9
sS'properties'
p10
(dp11
VRAM Memory
p12
V8.00 GB
p13
sVOperating System
p14
VWindows 10
p15
sVFeatures
p16
V256GB SSD 15IN W10P 1YR NBD
p17
sVBrand
p18
VDell
p19
sVProcessor Speed
p20
V2.50 GHz
p21
sVManufacturer Part Number
p22
VVGY82
p23
sVHard Drive Capacity
p24
V256.00 GB
p25
sVAssembled Product Dimensions (L x W x H)
p26
V12.00 x 12.00 x 12.00 Inches
p27
sVModel
p28
VVGY82
p29
sVScreen Size
p30
V15.60 in
p31
sVProcessor Type
p32
VIntel Core i5
p33
sVCondition
p34
VNew
p35
ssS'title'
p36
VDell Latitude 5580 - 15.6" - Core i5 7200U - 8 GB RAM - 256 GB SSD
p37
sb.