ccopy_reg
_reconstructor
p0
(c__main__
ProductRecord
p1
c__builtin__
object
p2
Ntp3
Rp4
(dp5
S'product_url'
p6
S'http://www.walmart.com/ip/Refurbished-HP-EliteBook-840-G2-2-3GHz-i5-16GB-500GB-Windows-10-Pro-64-Laptop-with-Webcam/831610851'
p7
sS'price'
p8
V$353.25
p9
sS'properties'
p10
(dp11
VBrand
p12
VHP
p13
sVModel
p14
VEliteBook 840 G2
p15
ssS'title'
p16
VRefurbished HP EliteBook 840 G2 2.3GHz i5 16GB 500GB Windows 10 Pro 64 Laptop with Webcam
p17
sb.