ccopy_reg
_reconstructor
p0
(c__main__
ProductRecord
p1
c__builtin__
object
p2
Ntp3
Rp4
(dp5
S'product_url'
p6
S'http://www.walmart.com/ip/Aspire-A315-31-C06Z-Celeron-N3450-4GB-1TB-Windows-10-Home-Notebook/838099939'
p7
sS'price'
p8
V$336.35
p9
sS'properties'
p10
(dp11
VRAM Memory
p12
V4 Gigabytes
p13
sVOperating System
p14
VWindows 10
p15
sVFeatures
p16
VAcer Aspire 3 - 15.6" Display, Intel Celeron N3450 CPU, 4GB RAM, 1TB HDD, Windows 10 Home - Red
p17
sVBrand
p18
VAcer
p19
sVProcessor Speed
p20
V1.1 Gigahertz
p21
sVHard Drive Capacity
p22
V1 Terabytes
p23
sVBattery Life
p24
V6 Hours
p25
sVModel
p26
VNX.GR5AA.003
p27
sVScreen Size
p28
V15.60 Inches
p29
sVProcessor Type
p30
VIntel N3450
p31
sVCondition
p32
VNew
p33
sVmanufacturer_part_number
p34
Va315-31-c06z
p35
ssS'title'
p36
VAspire A315-31-C06Z - Celeron N3450 - 4GB 1TB - Windows 10 Home - Notebook
p37
sb.