ccopy_reg
_reconstructor
p0
(c__main__
ProductRecord
p1
c__builtin__
object
p2
Ntp3
Rp4
(dp5
S'product_url'
p6
S'http://www.walmart.com/ip/Lenovo-320-17IKB-17-3-Core-i5-7200U-8-GB-RAM-1-TB-HDD/792659262'
p7
sS'price'
p8
V$499.99
p9
sS'properties'
p10
(dp11
VRAM Memory
p12
V8 Gigabytes
p13
sVOperating System
p14
VWindows 10
p15
sVFeatures
p16
VLenovo Notebook 80XM0000US IdeaPad 320-17IKB I5 4GB 4GB 1TB Windows 10 Home Retail
p17
sVBrand
p18
VLenovo
p19
sVProcessor Speed
p20
V2.5 Gigahertz
p21
sVManufacturer Part Number
p22
V80XM0000US
p23
sVHard Drive Capacity
p24
V1 Terabytes
p25
sVBattery Life
p26
V5 Hours
p27
sVAssembled Product Dimensions (L x W x H)
p28
V21.31 x 13.62 x 2.68 Inches
p29
sVModel
p30
V80XM0000US
p31
sVScreen Size
p32
V17.30 Inches
p33
sVProcessor Type
p34
VIntel i5-7200U
p35
sVCondition
p36
VNew
p37
ssS'title'
p38
VLenovo 320-17IKB - 17.3" - Core i5 7200U - 8 GB RAM - 1 TB HDD
p39
sb.