ccopy_reg
_reconstructor
p0
(c__main__
ProductRecord
p1
c__builtin__
object
p2
Ntp3
Rp4
(dp5
S'product_url'
p6
S'http://www.walmart.com/ip/Refurbished-Lenovo-M90-SFF-Desktop-PC-with-Intel-Core-i5-650-Processor-4GB-Memory-22-LCD-Monitor-250GB-Hard-Drive-and-Windows-10-Home/55484879'
p7
sS'price'
p8
V$247.99
p9
sS'properties'
p10
(dp11
VRAM Memory
p12
V4 GB
p13
sVOperating System
p14
VWindows 10
p15
sVFeatures
p16
VROHS Compliant
p17
sVVideo Game Platform
p18
VPC
p19
sVBrand
p20
VLenovo
p21
sVProcessor Speed
p22
V3.20 GHz
p23
sVManufacturer Part Number
p24
V62805557271
p25
sVMaximum RAM Supported
p26
V16 GB
p27
sVHard Drive Capacity
p28
V250 GB
p29
sVAssembled Product Dimensions (L x W x H)
p30
V13.97 x 12.48 x 3.89 Inches
p31
sVModel
p32
VLenovo M90 + 22" LCD
p33
sVScreen Size
p34
V22"
p35
sVProcessor Type
p36
VIntel Core i5-650 Processor
p37
ssS'title'
p38
VRefurbished Lenovo M90 SFF Desktop PC with Intel Core i5-650 Processor, 4GB Memory, 22" LCD Monitor, 250GB Hard Drive and Windows 10 Home
p39
sb.