ccopy_reg
_reconstructor
p0
(c__main__
ProductRecord
p1
c__builtin__
object
p2
Ntp3
Rp4
(dp5
S'product_url'
p6
S'http://www.walmart.com/ip/Acer-Aspire-R-15-R5-571TG-78G8-15-6-FHD-Touch-7th-Gen-i7-7500U-940MX-12GB-1TB/577767305'
p7
sS'price'
p8
V$879.00
p9
sS'properties'
p10
(dp11
VRAM Memory
p12
V12 GB
p13
sVOperating System
p14
VMicrosoft Windows, Windows 10
p15
sVBrand
p16
VAcer
p17
sVProcessor Speed
p18
V2.70 GHz
p19
sVManufacturer Part Number
p20
V8.89E+11
p21
sVMaximum RAM Supported
p22
V12 GB
p23
sVHard Drive Capacity
p24
V1 TB
p25
sVBattery Life
p26
V9 Hour
p27
sVAssembled Product Dimensions (L x W x H)
p28
V14.60 x 10.10 x 0.80 Inches
p29
sVModel
p30
VR5-571TG-78G8
p31
sVScreen Size
p32
V15.6"
p33
sVProcessor Type
p34
VIntel Core i7
p35
sVCondition
p36
VNew
p37
ssS'title'
p38
VAcer Aspire R 15 R5-571TG-78G8 - 15.6" FHD Touch - 7th Gen i7-7500U - 940MX - 12GB - 1TB
p39
sb.