ccopy_reg
_reconstructor
p0
(c__main__
ProductRecord
p1
c__builtin__
object
p2
Ntp3
Rp4
(dp5
S'product_url'
p6
S'http://www.walmart.com/ip/Acer-Swift-3-SF314-51-71UU-14-Core-i7-7500U-8-GB-RAM-512-GB-SSD-US-International/55395374'
p7
sS'price'
p8
V$775.62
p9
sS'properties'
p10
(dp11
VRAM Memory
p12
V8 Gigabytes
p13
sVOperating System
p14
VWindows 10
p15
sVFeatures
p16
V512GB SSD 14IN 11AC W10H
p17
sVVideo Game Platform
p18
VPC
p19
sVBrand
p20
VAcer
p21
sVProcessor Speed
p22
V2.7 Gigahertz
p23
sVManufacturer Part Number
p24
VNX.GKBAA.007
p25
sVHard Drive Capacity
p26
V512 Gigabytes
p27
sVBattery Life
p28
V10 Hours
p29
sVAssembled Product Dimensions (L x W x H)
p30
V13.40 x 9.30 x 0.70 Inches
p31
sVModel
p32
VNX.GKBAA.007
p33
sVScreen Size
p34
V14.00 Inches
p35
sVProcessor Type
p36
VIntel i7-7500U
p37
sVCondition
p38
VNew
p39
ssS'title'
p40
VAcer Swift 3 SF314-51-71UU - 14" - Core i7 7500U - 8 GB RAM - 512 GB SSD - US International
p41
sb.