ccopy_reg
_reconstructor
p0
(c__main__
ProductRecord
p1
c__builtin__
object
p2
Ntp3
Rp4
(dp5
S'product_url'
p6
S'http://www.walmart.com/ip/HP-17-3-HD-Notebook-Intel-Core-i7-7500U-Processor-8GB-Memory-2TB-Hard-Drive-DVD-Drive-HD-Webcam-2-Year-Warranty-Care-Pack/108656893'
p7
sS'price'
p8
V$645.00
p9
sS'properties'
p10
(dp11
VRAM Memory
p12
V8 GB
p13
sVOperating System
p14
VWindows 10
p15
sVBrand
p16
VHP
p17
sVManufacturer Part Number
p18
V2KW14UA#ABA
p19
sVMaximum RAM Supported
p20
V8 GB
p21
sVHard Drive Capacity
p22
V2 TB
p23
sVBattery Life
p24
V7 h
p25
sVModel
p26
V17-bs067cl
p27
sVScreen Size
p28
V17.3 in
p29
sVProcessor Type
p30
Vi7-7500U Processor
p31
ssS'title'
p32
VHP 17.3" HD+ Notebook, Intel Core i7-7500U Processor, 8GB Memory, 2TB Hard Drive, DVD Drive, HD Webcam, 2 Year Warranty Care Pack
p33
sb.