ccopy_reg
_reconstructor
p0
(c__main__
ProductRecord
p1
c__builtin__
object
p2
Ntp3
Rp4
(dp5
S'product_url'
p6
S'http://www.walmart.com/ip/Refurbished-HP-5800-TWR-Desktop-PC-with-Intel-Core-2-Duo-E7400-Processor-4GB-Memory-2TB-Hard-Drive-and-Windows-10-Home-Monitor-Not-Included/55648469'
p7
sS'price'
p8
V$132.46
p9
sS'properties'
p10
(dp11
VRAM Memory
p12
V4 GB
p13
sVOperating System
p14
VWindows 10
p15
sVColor Category
p16
VBlack
p17
sVVideo Game Platform
p18
VPC
p19
sVBrand
p20
VHP
p21
sVManufacturer Part Number
p22
V62805557450
p23
sVHard Drive Capacity
p24
V2 TB
p25
sVLaptop Computer Type
p26
VPC Laptops
p27
sVProcessor Type
p28
VIntel Core2 Duo E7400 Processor
p29
sVModel
p30
VHP 5800
p31
sVCondition
p32
VRefurbished
p33
sVManufacturer
p34
VHP
p35
ssS'title'
p36
VRefurbished HP 5800 TWR Desktop PC with Intel Core 2 Duo E7400 Processor, 4GB Memory, 2TB Hard Drive and Windows 10 Home (Monitor Not Included)
p37
sb.