ccopy_reg
_reconstructor
p0
(c__main__
ProductRecord
p1
c__builtin__
object
p2
Ntp3
Rp4
(dp5
S'product_url'
p6
S'http://www.walmart.com/ip/Dell-Inspiron-15-5567-Intel-Core-i7-7500U-X2-2-7GHz-12GB-1TB-15-6-Win10-Gray-Scratch-And-Dent-Refurbished/582187742'
p7
sS'price'
p8
V$616.11
p9
sS'properties'
p10
(dp11
VRAM Memory
p12
V12 Gigabytes
p13
sVOperating System
p14
VWindows 10
p15
sVFeatures
p16
V12GB DDR4 System Memory, 15.6-inch (1366 x 768) LCD Display, SuperMulti-DVD Burner, No Ethernet, 802.11AACBGN and Bluetooth 4.2, 2 x USB 3.0, 1 x USB 2.0, 1 x HDMI, 1MP Webcam and Integrated Microphone, 0.92" x 15.35" x 10.20" (HxWxD); 5.1lbs, 3-cell Lithium-Ion Battery, 1TB (5400RPM) SATA Hard Disk Drive (HDD), Intel Core i7-7500U Processor (Dual-Core, 2.7GHz, 4MB Cache), Energy Star Compliant, Microsoft Windows 10 Home Operating System, Full Size (10 Key) Keyboard and Touchpad, Integrated Intel HD Graphics
p17
sVBrand
p18
VDell
p19
sVManufacturer Part Number
p20
V1514447866-RFB
p21
sVMaximum RAM Supported
p22
V16 Gigabytes
p23
sVHard Drive Capacity
p24
V1000 Gigabytes
p25
sVBattery Life
p26
V8 Hours
p27
sVAssembled Product Dimensions (L x W x H)
p28
V15.40 x 10.20 x 0.90 Inches
p29
sVProcessor Type
p30
VIntel Core i7-7500U
p31
sVScreen Size
p32
V15.6 Inches
p33
sVProcessor Speed
p34
V2.7 Gigahertz
p35
ssS'title'
p36
VDell Inspiron 15-5567 Intel Core i7-7500U X2 2.7GHz 12GB 1TB 15.6" Win10, Gray (Scratch And Dent Refurbished)
p37
sb.