ccopy_reg
_reconstructor
p0
(c__main__
ProductRecord
p1
c__builtin__
object
p2
Ntp3
Rp4
(dp5
S'product_url'
p6
S'http://www.walmart.com/ip/Refurbished-HP-Black-Gray-Red-15-6-Inspiron-Star-Wars-Special-Edition-15-AN051DX-Laptop-PC-Intel-Core-i7-6500U-Dual-Core-Processor-8GB-Memory-1TB-Har/51254820'
p7
sS'price'
p8
V$630.16
p9
sS'properties'
p10
(dp11
VRAM Memory
p12
V8 GB
p13
sVOperating System
p14
VWindows 10
p15
sVColor Category
p16
VRed
p17
sVVideo Game Platform
p18
VPC
p19
sVBrand
p20
VHP
p21
sVLaptop Computer Type
p22
VPC Laptops
p23
sVProcessor Core Type
p24
VDual-core (2 Core)
p25
sVProcessor Type
p26
VIntel Core i7
p27
sVmanufacturer_part_number
p28
V15-AN051DX
p29
sVScreen Size
p30
V15.6"
p31
sVModel
p32
VHP 15-An051Dx
p33
sVCondition
p34
VRefurbished
p35
sVManufacturer
p36
VHP
p37
ssS'title'
p38
VRefurbished HP Black/Gray/Red 15.6" Inspiron Star Wars Special Edition 15-AN051DX Laptop PC with Intel Core i7-6500U Dual-Core Processor, 8GB Memory, 1TB Hard Drive and Windows 10 Home
p39
sb.