ccopy_reg
_reconstructor
p0
(c__main__
ProductRecord
p1
c__builtin__
object
p2
Ntp3
Rp4
(dp5
S'product_url'
p6
S'http://www.walmart.com/ip/MSI-GS63-STEALTH-061-15-6-Gaming-Laptop-i7-7700HQ-16GB-128GB-1TB-GTX-1050/480596370'
p7
sS'price'
p8
V$1,099.00
p9
sS'properties'
p10
(dp11
VRAM Memory
p12
V16 Gigabytes
p13
sVOperating System
p14
VWindows 10
p15
sVFeatures
p16
V16GB 128GB 1TB 15.6IN
p17
sVBrand
p18
VMSI
p19
sVProcessor Speed
p20
V2.8 Gigahertz
p21
sVMaximum RAM Supported
p22
V32.00 GB
p23
sVHard Drive Capacity
p24
V1 Terabytes
p25
sVModel
p26
VGS63061
p27
sVScreen Size
p28
V15.60 Inches
p29
sVProcessor Type
p30
VIntel i7-7700HQ
p31
sVCondition
p32
VNew
p33
sVmanufacturer_part_number
p34
Vgs63061
p35
ssS'title'
p36
VMSI GS63 STEALTH-061 15.6" Gaming Laptop i7-7700HQ 16GB 128GB 1TB GTX 1050
p37
sb.