ccopy_reg
_reconstructor
p0
(c__main__
ProductRecord
p1
c__builtin__
object
p2
Ntp3
Rp4
(dp5
S'product_url'
p6
S'http://www.walmart.com/ip/HP-1WP52UA-15-6-Notebook-w-Intel-i3-6006U-8GB-RAM-1TB-HDD/461154254'
p7
sS'price'
p8
S'N/A'
p9
sS'properties'
p10
(dp11
VRAM Memory
p12
V8 GB
p13
sVOperating System
p14
VWindows 10
p15
sVLaptop Computer Type
p16
VPC Laptops
p17
sVBrand
p18
VHP
p19
sVHard Drive Capacity
p20
V1 TB
p21
sVProcessor Type
p22
VIntel Core i3
p23
sVManufacturer
p24
VHewlett Packard
p25
sVScreen Size
p26
V15.6"
p27
sVModel
p28
V1WP52UA#ABA
p29
sVmanufacturer_part_number
p30
V1wp52ua
p31
ssS'title'
p32
VHP 1WP52UA 15.6" Notebook w/ Intel i3-6006U, 8GB RAM & 1TB HDD
p33
sb.