ccopy_reg
_reconstructor
p0
(c__main__
ProductRecord
p1
c__builtin__
object
p2
Ntp3
Rp4
(dp5
S'product_url'
p6
S'http://www.walmart.com/ip/Msi-GE62VR822-GE62VR-APACHE-PRO-822-Intel-Core-i7-7700HQ-Black-15-6-Full-HD-16GB-16G-1-DDR4-2400MHz-256GB-M-2-SATA-1TB-7200RPM-6-cell-51Whr/205249489'
p7
sS'price'
p8
V$1,499.00
p9
sS'properties'
p10
(dp11
VRAM Memory
p12
V16 Gigabytes
p13
sVOperating System
p14
VWindows 10
p15
sVFeatures
p16
Vi7-7700HQ GTX1060 16G 256G 1T DVD
p17
sVBrand
p18
VMSI
p19
sVProcessor Speed
p20
V2.8 Gigahertz
p21
sVManufacturer Part Number
p22
VGE62VR822
p23
sVHard Drive Capacity
p24
V1 Terabytes
p25
sVBattery Life
p26
V4 h
p27
sVAssembled Product Dimensions (L x W x H)
p28
V13.00 x 18.00 x 5.00 Inches
p29
sVModel
p30
VGE62VR822
p31
sVScreen Size
p32
V15.60 Inches
p33
sVProcessor Type
p34
VIntel i7-7700HQ
p35
sVCondition
p36
VNew
p37
ssS'title'
p38
VMsi GE62VR822 GE62VR APACHE PRO/822, Intel Core i7/7700HQ, Black, 15.6" Full HD, 16GB 16G*1 DDR4 2400MHz, 256GB M.2 SATA + 1TB 7200RPM , 6 cell 51Whr
p39
sb.