ccopy_reg
_reconstructor
p0
(c__main__
ProductRecord
p1
c__builtin__
object
p2
Ntp3
Rp4
(dp5
S'product_url'
p6
S'http://www.walmart.com/ip/Lenovo-Flex-5-14-FullHD-Touchscreen-Laptop-i5-8250U-8GB-256GB-SSD-Nvidia-940MX/790875946'
p7
sS'price'
p8
V$849.99
p9
sS'properties'
p10
(dp11
VRAM Memory
p12
V8 Gigabytes
p13
sVOperating System
p14
VWindows 10
p15
sVBrand
p16
VLenovo
p17
sVProcessor Speed
p18
V1.6 Gigahertz
p19
sVManufacturer Part Number
p20
V81C9000FUS
p21
sVHard Drive Capacity
p22
V256 Gigabytes
p23
sVModel
p24
V81C9000FUS
p25
sVScreen Size
p26
V14.00 Inches
p27
sVProcessor Type
p28
VIntel i5-8250U
p29
sVCondition
p30
VNew
p31
ssS'title'
p32
VLenovo Flex 5 14" FullHD Touchscreen Laptop i5-8250U 8GB 256GB SSD Nvidia 940MX
p33
sb.