ccopy_reg
_reconstructor
p0
(c__main__
ProductRecord
p1
c__builtin__
object
p2
Ntp3
Rp4
(dp5
S'product_url'
p6
S'http://www.walmart.com/ip/HP-15-ay012ca-15-6-Celeron-N-1-6GHz-8GB-RAM-1TB-HD-Certified-Refurbished/231378177'
p7
sS'price'
p8
V$299.99
p9
sS'properties'
p10
(dp11
VRAM Memory
p12
V8 GB
p13
sVOperating System
p14
VWindows 10
p15
sVLaptop Computer Type
p16
VPC Laptops
p17
sVBrand
p18
VHP
p19
sVManufacturer Part Number
p20
VX6V85UA#ABL.RB
p21
sVHard Drive Capacity
p22
V1000 GB
p23
sVModel
p24
V15-ay012ca.RB
p25
sVScreen Size
p26
V15.6\u005c"
p27
sVManufacturer
p28
VHP
p29
ssS'title'
p30
VHP 15-ay012ca - 15.6" - Celeron N 1.6GHz - 8GB RAM - 1TB  HD (Certified Refurbished)
p31
sb.