ccopy_reg
_reconstructor
p0
(c__main__
ProductRecord
p1
c__builtin__
object
p2
Ntp3
Rp4
(dp5
S'product_url'
p6
S'http://www.walmart.com/ip/Refurbished-Lenovo-ThinkPad-T440s-2-1GHz-i7-12GB-250GB-Windows-10-Pro-64-14-Laptop-B-Camera/721141564'
p7
sS'price'
p8
V$336.00
p9
sS'properties'
p10
(dp11
VBrand
p12
VLenovo
p13
sVScreen Size
p14
V14\u005c"
p15
sVModel
p16
VThinkPad T440s
p17
ssS'title'
p18
VRefurbished Lenovo ThinkPad T440s 2.1GHz i7 12GB 250GB Windows 10 Pro 64 14" Laptop B Camera
p19
sb.