ccopy_reg
_reconstructor
p0
(c__main__
ProductRecord
p1
c__builtin__
object
p2
Ntp3
Rp4
(dp5
S'product_url'
p6
S'http://www.walmart.com/ip/Refurbished-Dell-Latitude-E6430-i5-2-6GHz-4GB-250GB-DRW-Windows-10-Pro-64-Laptop-B-Camera/738527216'
p7
sS'price'
p8
V$199.99
p9
sS'properties'
p10
(dp11
VRAM Memory
p12
V4 GB
p13
sVOperating System
p14
VWindows 10
p15
sVBrand
p16
VDell
p17
sVManufacturer Part Number
p18
VE6430
p19
sVHard Drive Capacity
p20
V250 GB
p21
sVModel
p22
VLatitude E6430
p23
sVProcessor Type
p24
VIntel Core i5 3rd Gen.
p25
ssS'title'
p26
VRefurbished Dell Latitude E6430 i5 2.6GHz 4GB 250GB DRW Windows 10 Pro 64 Laptop B Camera
p27
sb.