ccopy_reg
_reconstructor
p0
(c__main__
ProductRecord
p1
c__builtin__
object
p2
Ntp3
Rp4
(dp5
S'product_url'
p6
S'http://www.walmart.com/ip/Precision-3520-i7-7820HQ-16-GB-1-TB-15-6-Windows-10-Pro-Notebook/663204600'
p7
sS'price'
p8
V$2,516.49
p9
sS'properties'
p10
(dp11
VRAM Memory
p12
V16.00 GB
p13
sVOperating System
p14
VWindows 10
p15
sVFeatures
p16
VMOBILE PRECISION 3520 COREI7716GB (2DIMMS)1TB SSNVIDIA QUADRO M620FHDNON-TOUCH19
p17
sVBrand
p18
VDell
p19
sVProcessor Speed
p20
V2.90 GHz
p21
sVManufacturer Part Number
p22
VXJJNW
p23
sVMaximum RAM Supported
p24
V32.00 GB
p25
sVHard Drive Capacity
p26
V1.00 TB
p27
sVBattery Life
p28
V92.00 h
p29
sVAssembled Product Dimensions (L x W x H)
p30
V22.00 x 14.00 x 3.00 Inches
p31
sVModel
p32
VPRM3520XJJNW
p33
sVScreen Size
p34
V15.60 in
p35
sVProcessor Type
p36
VIntel Core i7
p37
sVCondition
p38
VNew
p39
ssS'title'
p40
VPrecision 3520 i7-7820HQ 16 GB 1 TB 15.6" Windows 10 Pro Notebook
p41
sb.