ccopy_reg
_reconstructor
p0
(c__main__
ProductRecord
p1
c__builtin__
object
p2
Ntp3
Rp4
(dp5
S'product_url'
p6
S'http://www.walmart.com/ip/HP-Refurbished-215-G1-SUBNOTEBOOK-AMD-A6-1450-1-0-GHZ-8GB-320GB-11-6W-WEBCAM-Windows-10-Home/704434232'
p7
sS'price'
p8
V$238.00
p9
sS'properties'
p10
(dp11
VRAM Memory
p12
V8 GB
p13
sVOperating System
p14
VWindows 10
p15
sVBrand
p16
VHP
p17
sVProcessor Speed
p18
V1 GHz
p19
sVHard Drive Capacity
p20
V320 GB
p21
sVModel
p22
VHP 215 G1
p23
sVScreen Size
p24
V11.6 in
p25
sVProcessor Type
p26
VAMD A6-1450
p27
sVCondition
p28
VRefurbished
p29
ssS'title'
p30
VHP Refurbished  215 G1, SUBNOTEBOOK, AMD A6-1450, 1.0 GHZ, 8GB, 320GB, 11.6W, WEBCAM,Windows 10 Home
p31
sb.