ccopy_reg
_reconstructor
p0
(c__main__
ProductRecord
p1
c__builtin__
object
p2
Ntp3
Rp4
(dp5
S'product_url'
p6
S'http://www.walmart.com/ip/Lenovo-Legion-Y920-17IKB-Core-i7-GTX-1070-1920-X-1080-IPS-Laptop/877803772'
p7
sS'price'
p8
V$2,085.00
p9
sS'properties'
p10
(dp11
VRAM Memory
p12
V16.00 GB
p13
sVOperating System
p14
VWindows 10
p15
sVVideo Game Platform
p16
VSee Description
p17
sVBrand
p18
VLenovo
p19
sVProcessor Speed
p20
V2.90 GHz
p21
sVManufacturer Part Number
p22
V80YW000EUS
p23
sVMaximum RAM Supported
p24
V64.00 GB
p25
sVHard Drive Capacity
p26
V1.00 TB
p27
sVBattery Life
p28
V3.50 h
p29
sVAssembled Product Dimensions (L x W x H)
p30
V18.70 x 14.50 x 4.10 Inches
p31
sVModel
p32
V80YW000EUS
p33
sVScreen Size
p34
V17.30 in
p35
sVProcessor Type
p36
VIntel Core i7
p37
sVCondition
p38
VNew
p39
ssS'title'
p40
VLenovo Legion Y920-17IKB Core i7 GTX 1070 1920 X 1080 IPS Laptop
p41
sb.