ccopy_reg
_reconstructor
p0
(c__main__
ProductRecord
p1
c__builtin__
object
p2
Ntp3
Rp4
(dp5
S'product_url'
p6
S'http://www.walmart.com/ip/MSI-Gaming-Laptop-17-3-Core-i7-GTX1050-16GB-DDR4-128GB-SSD-1TB-HDD-Black/810265126'
p7
sS'price'
p8
V$1,199.00
p9
sS'properties'
p10
(dp11
VRAM Memory
p12
V16 GB
p13
sVOperating System
p14
VMicrosoft Windows, Windows 10
p15
sVFeatures
p16
V16GB 128GB 17.3IN NVME 1TB GTX1050
p17
sVBrand
p18
VMSI
p19
sVProcessor Speed
p20
V2.80 GHz
p21
sVManufacturer Part Number
p22
VGP72X Leopard-1214
p23
sVHard Drive Capacity
p24
V1 TB
p25
sVAssembled Product Dimensions (L x W x H)
p26
V16.45 x 10.60 x 1.16 Inches
p27
sVModel
p28
VGP72MX Leopard-1214
p29
sVScreen Size
p30
V17.3"
p31
sVProcessor Type
p32
VIntel Core i7
p33
sVCondition
p34
VNew
p35
ssS'title'
p36
VMSI Gaming Laptop 17.3" Core i7 GTX1050 16GB DDR4 128GB SSD 1TB HDD Black
p37
sb.