ccopy_reg
_reconstructor
p0
(c__main__
ProductRecord
p1
c__builtin__
object
p2
Ntp3
Rp4
(dp5
S'product_url'
p6
S'http://www.walmart.com/ip/Microsoft-Surface-Book-13-5-Core-i5-6300U-8-GB-RAM-512-GB-SSD-English-North-America/135476339'
p7
sS'price'
p8
S'N/A'
p9
sS'properties'
p10
(dp11
VRAM Memory
p12
V8 GB
p13
sVOperating System
p14
VMicrosoft Windows, Windows 10
p15
sVFeatures
p16
VBook 512GB i5 8GB Cmmr SC English US/Canada Hdwr Commercial
p17
sVVideo Game Platform
p18
VPC
p19
sVBrand
p20
VMicrosoft
p21
sVProcessor Speed
p22
V2.40 GHz
p23
sVManufacturer Part Number
p24
V9EQ-00001
p25
sVBattery Life
p26
V12 Hour
p27
sVAssembled Product Dimensions (L x W x H)
p28
V5.00 x 5.00 x 5.00 Inches
p29
sVModel
p30
V9EQ-00001
p31
sVScreen Size
p32
V13.5"
p33
sVProcessor Type
p34
VIntel Core i5
p35
sVCondition
p36
VNew
p37
ssS'title'
p38
VMicrosoft Surface Book - 13.5" - Core i5 6300U - 8 GB RAM - 512 GB SSD - English - North America
p39
sb.