ccopy_reg
_reconstructor
p0
(c__main__
ProductRecord
p1
c__builtin__
object
p2
Ntp3
Rp4
(dp5
S'product_url'
p6
S'http://www.walmart.com/ip/Refurbished-Lenovo-Ultrabook-T440-14-Laptop-Windows-10-Pro-Intel-Core-i5-4300U-Processor-8GB-RAM-180GB-Solid-State-Drive/52030505'
p7
sS'price'
p8
V$325.11
p9
sS'properties'
p10
(dp11
VRAM Memory
p12
V8 GB
p13
sVOperating System
p14
VWindows 10
p15
sVVideo Game Platform
p16
VPC
p17
sVBrand
p18
VUltrabook
p19
sVProcessor Speed
p20
V1.90 GHz
p21
sVManufacturer Part Number
p22
VWA5-1241
p23
sVMaximum RAM Supported
p24
V12 GB
p25
sVHard Drive Capacity
p26
V180 GB
p27
sVAssembled Product Dimensions (L x W x H)
p28
V13.30 x 0.80 x 9.20 Inches
p29
sVModel
p30
VT440
p31
sVScreen Size
p32
V14.0"
p33
sVProcessor Type
p34
VIntel Core i5
p35
sVCondition
p36
VRefurbished
p37
ssS'title'
p38
VRefurbished Lenovo Ultrabook T440 14" Laptop, Windows 10 Pro, Intel Core i5-4300U Processor, 8GB RAM, 180GB Solid State Drive
p39
sb.