ccopy_reg
_reconstructor
p0
(c__main__
ProductRecord
p1
c__builtin__
object
p2
Ntp3
Rp4
(dp5
S'product_url'
p6
S'http://www.walmart.com/ip/I5-6200U-8GB-256GB-13-3IN-TOUCH-SCREEN-W10/47431199'
p7
sS'price'
p8
V$699.99
p9
sS'properties'
p10
(dp11
VRAM Memory
p12
V8 GB
p13
sVOperating System
p14
VWindows 10
p15
sVVideo Game Platform
p16
VPC
p17
sVBrand
p18
VASUS
p19
sVProcessor Speed
p20
V2.30 GHz, with a Max Turbo Speed of 2.80 GHz
p21
sVManufacturer Part Number
p22
VUX303UA-DH51T
p23
sVMaximum RAM Supported
p24
V12 GB
p25
sVHard Drive Capacity
p26
V256 Gigabytes
p27
sVBattery Life
p28
V7 hours
p29
sVAssembled Product Dimensions (L x W x H)
p30
V18.50 x 3.60 x 11.70 Inches
p31
sVModel
p32
V90NB08V2-M00460
p33
sVScreen Size
p34
V13.3"
p35
sVProcessor Type
p36
VIntel 7265 AC (2x2 AC, 867 Mbps)
p37
sVCondition
p38
VNew
p39
ssS'title'
p40
VI5-6200U 8GB 256GB 13.3IN TOUCH SCREEN W10
p41
sb.