ccopy_reg
_reconstructor
p0
(c__main__
ProductRecord
p1
c__builtin__
object
p2
Ntp3
Rp4
(dp5
S'product_url'
p6
S'http://www.walmart.com/ip/Asus-X540SA-SCL0205N-15-6-inch-Laptop/590413730'
p7
sS'price'
p8
V$329.99
p9
sS'properties'
p10
(dp11
VRAM Memory
p12
V4 GB
p13
sVOperating System
p14
VWindows 10
p15
sVBrand
p16
VASUS
p17
sVProcessor Speed
p18
V2 GHz
p19
sVMaximum RAM Supported
p20
V8 GB
p21
sVHard Drive Capacity
p22
V500 GB
p23
sVModel
p24
VX540SA-SCL0205N
p25
sVScreen Size
p26
V15.6 in
p27
sVProcessor Type
p28
VIntel Celeron
p29
sVCondition
p30
VNew
p31
sVmanufacturer_part_number
p32
Vx540sa-scl0205n
p33
ssS'title'
p34
VAsus X540SA-SCL0205N 15.6 inch Laptop
p35
sb.