ccopy_reg
_reconstructor
p0
(c__main__
ProductRecord
p1
c__builtin__
object
p2
Ntp3
Rp4
(dp5
S'product_url'
p6
S'http://www.walmart.com/ip/Newest-Premium-High-Performance-Acer-Aspire-E15-15-6-Inch-FHD-Notebook-Intel-Core-i3-7100U-7th-Generation-4GB-DDR4-1TB-5400RPM-HD-Intel-HD-Graphics-6/203419959'
p7
sS'price'
p8
V$439.00
p9
sS'properties'
p10
(dp11
VRAM Memory
p12
V4.00 GB
p13
sVOperating System
p14
VWindows 10
p15
sVBrand
p16
VAcer
p17
sVHard Drive Capacity
p18
V1.00 TB
p19
sVProcessor Type
p20
VIntel Core i3-7100U
p21
sVScreen Size
p22
V15.60 in
p23
sVProcessor Speed
p24
V2.40 GHz
p25
sVCondition
p26
VNew
p27
ssS'title'
p28
VNewest Premium High Performance Acer Aspire E15 15.6-Inch FHD Notebook (Intel Core i3-7100U 7th Generation , 4GB DDR4, 1TB 5400RPM HD, Intel HD Graphics 620, Windows 10 Home), Obsidian Black
p29
sb.