ccopy_reg
_reconstructor
p0
(c__main__
ProductRecord
p1
c__builtin__
object
p2
Ntp3
Rp4
(dp5
S'product_url'
p6
S'http://www.walmart.com/ip/Refurbished-Dell-Latitude-E5440-14-Laptop-Windows-10-Pro-Intel-Core-i5-4300U-Processor-8GB-RAM-128GB-Solid-State-Drive/55821462'
p7
sS'price'
p8
V$283.50
p9
sS'properties'
p10
(dp11
VRAM Memory
p12
V8 GB
p13
sVOperating System
p14
VWindows 10
p15
sVVideo Game Platform
p16
VPC
p17
sVBrand
p18
VLatitude
p19
sVProcessor Speed
p20
V1.90 GHz
p21
sVManufacturer Part Number
p22
VWA5-30506
p23
sVMaximum RAM Supported
p24
V16 GB
p25
sVHard Drive Capacity
p26
V128 GB
p27
sVAssembled Product Dimensions (L x W x H)
p28
V13.00 x 1.30 x 9.30 Inches
p29
sVModel
p30
VE5440
p31
sVScreen Size
p32
V14.0"
p33
sVProcessor Type
p34
VIntel Core i5
p35
ssS'title'
p36
VRefurbished Dell Latitude E5440 14" Laptop, Windows 10 Pro, Intel Core i5-4300U Processor, 8GB RAM, 128GB Solid State Drive
p37
sb.