ccopy_reg
_reconstructor
p0
(c__main__
ProductRecord
p1
c__builtin__
object
p2
Ntp3
Rp4
(dp5
S'product_url'
p6
S'http://www.walmart.com/ip/Acer-Aspire-V-15-Nitro-7-593G-76SS-15-6-Notebook-Core-i7-7700HQ-2-8-GHz-16-GB-RAM-1-TB-HDD-Obsidian-Black/846049267'
p7
sS'price'
p8
V$1,084.99
p9
sS'properties'
p10
(dp11
VRAM Memory
p12
V16 Gigabytes
p13
sVOperating System
p14
VWindows 10
p15
sVBrand
p16
VAcer
p17
sVProcessor Speed
p18
V2.8 Gigahertz
p19
sVManufacturer Part Number
p20
VNH.Q23AA.001
p21
sVMaximum RAM Supported
p22
V32 Gigabytes
p23
sVHard Drive Capacity
p24
V1 Terabytes
p25
sVBattery Life
p26
V6 Hours
p27
sVAssembled Product Dimensions (L x W x H)
p28
V22.00 x 14.00 x 4.00 Inches
p29
sVModel
p30
VNH.Q23AA.001
p31
sVScreen Size
p32
V15.60 Inches
p33
sVProcessor Type
p34
VIntel i7-7700HQ
p35
sVCondition
p36
VNew
p37
ssS'title'
p38
VAcer Aspire V 15 Nitro 7-593G-76SS 15.6? Notebook - Core i7 7700HQ 2.8 GHz - 16 GB RAM - 1 TB HDD - Obsidian Black
p39
sb.