ccopy_reg
_reconstructor
p0
(c__main__
ProductRecord
p1
c__builtin__
object
p2
Ntp3
Rp4
(dp5
S'product_url'
p6
S'http://www.walmart.com/ip/Refurbished-HP-EliteBook-2560p-12-5-Laptop-Windows-10-Pro-Intel-Core-i5-Processor-8GB-RAM-160GB-Hard-Drive/54392418'
p7
sS'price'
p8
V$259.15
p9
sS'properties'
p10
(dp11
VRAM Memory
p12
V8 GB
p13
sVOperating System
p14
VWindows 10
p15
sVColor Category
p16
VSilver
p17
sVVideo Game Platform
p18
VPC
p19
sVBrand
p20
VHP
p21
sVManufacturer Part Number
p22
VRefurbished
p23
sVHard Drive Capacity
p24
V160 GB
p25
sVLaptop Computer Type
p26
VPC Laptops
p27
sVProcessor Type
p28
VIntel Core i5
p29
sVScreen Size
p30
V12.5"
p31
sVModel
p32
VELITEBOOK 2560P
p33
sVManufacturer
p34
VHP
p35
ssS'title'
p36
VRefurbished HP EliteBook 2560p 12.5" Laptop, Windows 10 Pro, Intel Core i5 Processor, 8GB RAM, 160GB Hard Drive
p37
sb.