ccopy_reg
_reconstructor
p0
(c__main__
ProductRecord
p1
c__builtin__
object
p2
Ntp3
Rp4
(dp5
S'product_url'
p6
S'http://www.walmart.com/ip/Dell-XPS-15-9560-15-6-Core-i5-7300HQ-8-GB-RAM-32-GB-SSD-1-TB-HDD/329606199'
p7
sS'price'
p8
V$1,392.24
p9
sS'properties'
p10
(dp11
VRAM Memory
p12
V8.00 GB
p13
sVOperating System
p14
VWindows 10
p15
sVFeatures
p16
VXPS 15 9560, 15.6 FHD NON TOUCH, I5-7300
p17
sVBrand
p18
VDell
p19
sVProcessor Speed
p20
V2.50 GHz
p21
sVManufacturer Part Number
p22
V0NK7T
p23
sVHard Drive Capacity
p24
V1.00 TB
p25
sVBattery Life
p26
V0 h
p27
sVAssembled Product Dimensions (L x W x H)
p28
V13.00 x 19.00 x 4.00 Inches
p29
sVModel
p30
V0NK7T
p31
sVScreen Size
p32
V15.60 in
p33
sVProcessor Type
p34
VIntel Core i5
p35
sVCondition
p36
VNew
p37
ssS'title'
p38
VDell XPS 15 9560 - 15.6" - Core i5 7300HQ - 8 GB RAM - 32 GB SSD + 1 TB HDD
p39
sb.