ccopy_reg
_reconstructor
p0
(c__main__
ProductRecord
p1
c__builtin__
object
p2
Ntp3
Rp4
(dp5
S'product_url'
p6
S'http://www.walmart.com/ip/ProBook-470-G5-i5-8250U-8-GB-500-GB-17-3-Windows-10-Pro-Notebook/940073605'
p7
sS'price'
p8
V$779.04
p9
sS'properties'
p10
(dp11
VRAM Memory
p12
V8.00 GB
p13
sVOperating System
p14
VWindows 10
p15
sVFeatures
p16
VI5-8250U 1.6G 8GB 500GB 17.3IN W10P
p17
sVBrand
p18
VHP
p19
sVProcessor Speed
p20
V1.60 GHz
p21
sVManufacturer Part Number
p22
V2TT74UT#ABA
p23
sVMaximum RAM Supported
p24
V32.00 GB
p25
sVHard Drive Capacity
p26
V500.00 GB
p27
sVBattery Life
p28
V14.00 h
p29
sVModel
p30
V2TT74UT
p31
sVScreen Size
p32
V17.30 in
p33
sVProcessor Type
p34
VIntel Core i5
p35
sVCondition
p36
VNew
p37
ssS'title'
p38
VProBook 470 G5 i5-8250U 8 GB 500 GB 17.3" Windows 10 Pro Notebook
p39
sb.