ccopy_reg
_reconstructor
p0
(c__main__
ProductRecord
p1
c__builtin__
object
p2
Ntp3
Rp4
(dp5
S'product_url'
p6
S'http://www.walmart.com/ip/Lenovo-Ideapad-Miix-510-Core-i5-128-GB-M-2-SSD-12-2-inch-Windows-10-Home-2-in-1-Laptop/710509857'
p7
sS'price'
p8
V$847.64
p9
sS'properties'
p10
(dp11
VRAM Memory
p12
V8.00 GB
p13
sVOperating System
p14
VWindows 10
p15
sVBrand
p16
VLenovo
p17
sVProcessor Speed
p18
V2.50 GHz
p19
sVManufacturer Part Number
p20
V80XE00H3US
p21
sVHard Drive Capacity
p22
V128.00 GB
p23
sVBattery Life
p24
V8.00 h
p25
sVAssembled Product Dimensions (L x W x H)
p26
V15.40 x 9.40 x 2.60 Inches
p27
sVModel
p28
V80XE00H3US
p29
sVScreen Size
p30
V12.20 in
p31
sVProcessor Type
p32
VIntel Core i5
p33
sVCondition
p34
VNew
p35
ssS'title'
p36
VLenovo Ideapad Miix 510 Core i5 128 GB M.2 SSD 12.2 inch Windows 10 Home 2-in-1 Laptop
p37
sb.