ccopy_reg
_reconstructor
p0
(c__main__
ProductRecord
p1
c__builtin__
object
p2
Ntp3
Rp4
(dp5
S'product_url'
p6
S'http://www.walmart.com/ip/Refurbished-Acer-15-6-Laptop-Intel-Celeron-2-40GHz-4GB-Ram-1TB-HDD-Windows-10/937637167'
p7
sS'price'
p8
V$390.88
p9
sS'properties'
p10
(dp11
VRAM Memory
p12
V4 GB
p13
sVOperating System
p14
VWindows 10
p15
sVBrand
p16
VAcer
p17
sVManufacturer Part Number
p18
VNX.GNTAA.007
p19
sVHard Drive Capacity
p20
V1000 GB
p21
sVModel
p22
VA315-31-C58L
p23
sVScreen Size
p24
V15.6 in
p25
sVProcessor Speed
p26
V1.1 GHz
p27
ssS'title'
p28
VRefurbished Acer 15.6" Laptop Intel Celeron 2.40GHz 4GB Ram 1TB HDD Windows 10
p29
sb.