ccopy_reg
_reconstructor
p0
(c__main__
ProductRecord
p1
c__builtin__
object
p2
Ntp3
Rp4
(dp5
S'product_url'
p6
S'http://www.walmart.com/ip/Lenovo-Y700-15ISK-80NV-Notebook-80NV00W5US-Y700-15ISK-80NV-Notebook/692804289'
p7
sS'price'
p8
V$729.99
p9
sS'properties'
p10
(dp11
VRAM Memory
p12
V8.00 GB
p13
sVOperating System
p14
VWindows 10
p15
sVVideo Game Platform
p16
VPC
p17
sVBrand
p18
VLenovo
p19
sVProcessor Speed
p20
V2.30 GHz
p21
sVManufacturer Part Number
p22
V80NV00W5US
p23
sVHard Drive Capacity
p24
V1.00 GB
p25
sVModel
p26
V80NV00W5US
p27
sVScreen Size
p28
V15.60 in
p29
sVProcessor Type
p30
VIntel Core i5-6300HQ
p31
sVCondition
p32
VNew
p33
ssS'title'
p34
VLenovo Y700-15ISK 80NV Notebook 80NV00W5US Y700-15ISK 80NV Notebook
p35
sb.