ccopy_reg
_reconstructor
p0
(c__main__
ProductRecord
p1
c__builtin__
object
p2
Ntp3
Rp4
(dp5
S'product_url'
p6
S'http://www.walmart.com/ip/Dell-Laptop-Latitude-E5440-Notebook-8GB-320GB-Core-i5-1-9GHz-Windows-10-w-Backpack-Refurbished/688739220'
p7
sS'price'
p8
V$250.97
p9
sS'properties'
p10
(dp11
VRAM Memory
p12
V8 GB
p13
sVOperating System
p14
VWindows 10
p15
sVColor Category
p16
VBlack
p17
sVLaptop Computer Type
p18
VPC Laptops
p19
sVBrand
p20
VDell
p21
sVManufacturer Part Number
p22
VE5440
p23
sVWireless Technology
p24
V802.11g
p25
sVHard Drive Capacity
p26
V320 GB
p27
sVProcessor Type
p28
VIntel Core i5
p29
sVScreen Size
p30
V14 in
p31
sVModel
p32
VE5440
p33
sVCondition
p34
VNew
p35
sVManufacturer
p36
VDell
p37
ssS'title'
p38
VDell Laptop Latitude E5440 Notebook 8GB 320GB Core i5 1.9GHz Windows 10 w/ Backpack Refurbished
p39
sb.