ccopy_reg
_reconstructor
p0
(c__main__
ProductRecord
p1
c__builtin__
object
p2
Ntp3
Rp4
(dp5
S'product_url'
p6
S'http://www.walmart.com/ip/Dell-XPS-13-9360-13-3-Core-i5-7200U-8-GB-RAM-128-GB-SSD/618862319'
p7
sS'price'
p8
V$1,132.24
p9
sS'properties'
p10
(dp11
VRAM Memory
p12
V8.00 GB
p13
sVOperating System
p14
VWindows 10
p15
sVFeatures
p16
VXPS 13 9360, 13.3 FHD NON TOUCH, I5-7200
p17
sVBrand
p18
VDell
p19
sVProcessor Speed
p20
V2.50 GHz
p21
sVManufacturer Part Number
p22
V6W3DR
p23
sVHard Drive Capacity
p24
V128.00 GB
p25
sVBattery Life
p26
V22 Hours
p27
sVAssembled Product Dimensions (L x W x H)
p28
V17.00 x 3.00 x 11.00 Inches
p29
sVModel
p30
V6W3DR
p31
sVScreen Size
p32
V13.30 in
p33
sVProcessor Type
p34
VIntel Core i5
p35
sVCondition
p36
VNew
p37
ssS'title'
p38
VDell XPS 13 9360 - 13.3" - Core i5 7200U - 8 GB RAM - 128 GB SSD
p39
sb.