ccopy_reg
_reconstructor
p0
(c__main__
ProductRecord
p1
c__builtin__
object
p2
Ntp3
Rp4
(dp5
S'product_url'
p6
S'http://www.walmart.com/ip/X751NA-DS21Q-QC-N4200-1-10G-8GB-1TB-DVDRW-17-3IN-W10-64BIT/342196282'
p7
sS'price'
p8
V$504.99
p9
sS'properties'
p10
(dp11
VRAM Memory
p12
V8.00 GB
p13
sVOperating System
p14
VWindows 10
p15
sVFeatures
p16
VX751NA-DS21Q, BLACK, 17.3IN HD+ NO TOUCH, INTEL PENTIUM N4200 1.1GHZ, 8GB DDR3,
p17
sVBrand
p18
VASUS
p19
sVProcessor Speed
p20
V1.10 GHz
p21
sVManufacturer Part Number
p22
VX751NA-DS21Q
p23
sVHard Drive Capacity
p24
V1.00 TB
p25
sVModel
p26
VX751NADS21Q
p27
sVScreen Size
p28
V17.30 in
p29
sVProcessor Type
p30
VIntel Pentium
p31
sVCondition
p32
VNew
p33
ssS'title'
p34
VX751NA-DS21Q QC N4200 1.10G 8GB 1TB DVDRW 17.3IN W10 64BIT
p35
sb.