ccopy_reg
_reconstructor
p0
(c__main__
ProductRecord
p1
c__builtin__
object
p2
Ntp3
Rp4
(dp5
S'product_url'
p6
S'http://www.walmart.com/ip/Refurbished-Dell-Latitude-E5430-Laptop-Intel-Core-i5-2-6GHz-3rd-Gen-Processor-4GB-DDR3-320GB-SATA-HDD-Charger-14-LED-DVD-Windows-10-Pro-64bit-w-Resto/474731549'
p7
sS'price'
p8
V$209.49
p9
sS'properties'
p10
(dp11
VRAM Memory
p12
V4.00 GB
p13
sVOperating System
p14
VWindows 10 Pro 64bit, Windows 10
p15
sVBrand
p16
VDell
p17
sVProcessor Speed
p18
V2.60 GHz
p19
sVManufacturer Part Number
p20
VE5430
p21
sVHard Drive Capacity
p22
V320.00 GB
p23
sVModel
p24
VLatitude E5430
p25
sVScreen Size
p26
V14 in
p27
sVProcessor Type
p28
VIntel Core i5
p29
ssS'title'
p30
VRefurbished Dell Latitude E5430 Laptop, Intel Core i5 2.6GHz 3rd Gen. Processor, 4GB DDR3, 320GB SATA HDD, Charger, 14" LED, DVD, Windows 10 Pro 64bit w/ Restore Partition
p31
sb.