ccopy_reg
_reconstructor
p0
(c__main__
ProductRecord
p1
c__builtin__
object
p2
Ntp3
Rp4
(dp5
S'product_url'
p6
S'http://www.walmart.com/ip/Dell-Latitude-3480-14-HD-Laptop-Intel-Core-i5-7200U-8GB-DDR4-500GB-Hard-Drive-Windows-10-Pro/747318913'
p7
sS'price'
p8
V$679.78
p9
sS'properties'
p10
(dp11
VRAM Memory
p12
V8.00 GB
p13
sVOperating System
p14
VWindows 10
p15
sVFeatures
p16
V8GB 500GB 14IN W10P 1YR NBD
p17
sVBrand
p18
VDell
p19
sVProcessor Speed
p20
V2.50 GHz
p21
sVManufacturer Part Number
p22
VLATI3480XPMM1
p23
sVMaximum RAM Supported
p24
V32.00 GB
p25
sVHard Drive Capacity
p26
V500.00 GB
p27
sVBattery Life
p28
V18.00 h
p29
sVAssembled Product Dimensions (L x W x H)
p30
V12.00 x 12.00 x 12.00 Inches
p31
sVModel
p32
VXPMM1
p33
sVScreen Size
p34
V14.00 in
p35
sVProcessor Type
p36
VIntel Core i5
p37
sVCondition
p38
VNew
p39
ssS'title'
p40
VDell Latitude 3480, 14" HD Laptop Intel Core i5-7200U, 8GB DDR4, 500GB Hard Drive, Windows 10 Pro
p41
sb.