ccopy_reg
_reconstructor
p0
(c__main__
ProductRecord
p1
c__builtin__
object
p2
Ntp3
Rp4
(dp5
S'product_url'
p6
S'http://www.walmart.com/ip/Refurbished-Acer-Predator-Laptop-Intel-Core-i7-2-8-GHz-32-GB-Ram-512-GB-SSD-Windows-10-Home/443276634'
p7
sS'price'
p8
V$2,487.44
p9
sS'properties'
p10
(dp11
VRAM Memory
p12
V32 GB
p13
sVOperating System
p14
VWindows 10
p15
sVBrand
p16
VAcer
p17
sVManufacturer Part Number
p18
VNH.Q2LAA.001
p19
sVHard Drive Capacity
p20
V512 GB
p21
sVModel
p22
VPT715-51-732Q
p23
sVScreen Size
p24
V15.6 in
p25
sVProcessor Speed
p26
V2.80 GHz
p27
ssS'title'
p28
VRefurbished Acer Predator Laptop Intel Core i7 2.8 GHz 32 GB Ram 512 GB SSD Windows 10 Home
p29
sb.