ccopy_reg
_reconstructor
p0
(c__main__
ProductRecord
p1
c__builtin__
object
p2
Ntp3
Rp4
(dp5
S'product_url'
p6
S'http://www.walmart.com/ip/Refurbished-Acer-15-6-AMD-FX-Quad-Core-2-7GHz-16-GB-Ram-1TB-HDD-128GB-SSD-Windows-10-Home/437006909'
p7
sS'price'
p8
V$595.34
p9
sS'properties'
p10
(dp11
VRAM Memory
p12
V16 GB
p13
sVOperating System
p14
VWindows 10
p15
sVBrand
p16
VAcer
p17
sVManufacturer Part Number
p18
VNX.GMTAA.001
p19
sVModel
p20
VE5-553G-F8EF
p21
sVScreen Size
p22
V15.6 in
p23
sVProcessor Speed
p24
V2.70 GHz
p25
sVCondition
p26
VNew
p27
ssS'title'
p28
VRefurbished Acer 15.6" AMD FX Quad-Core 2.7GHz 16 GB Ram 1TB HDD + 128GB SSD Windows 10 Home
p29
sb.