ccopy_reg
_reconstructor
p0
(c__main__
ProductRecord
p1
c__builtin__
object
p2
Ntp3
Rp4
(dp5
S'product_url'
p6
S'http://www.walmart.com/ip/Asus-Chromebook-Flip-C213SA-YS02-11-6-2-in-1-Intel-Celeron-N3350-Dual-Core-4GB-Memory-32GB-Hard-Drive/788808433'
p7
sS'price'
p8
S'N/A'
p9
sS'properties'
p10
(dp11
VRAM Memory
p12
V0 GB
p13
sVOperating System
p14
VChrome OS
p15
sVBrand
p16
VASUS
p17
sVProcessor Speed
p18
V0 GHz
p19
sVHard Drive Capacity
p20
V32.00 GB
p21
sVBattery Life
p22
V0 h
p23
sVAssembled Product Dimensions (L x W x H)
p24
V12.00 x 12.00 x 12.00 Inches
p25
sVModel
p26
V90NX01C1-M00360
p27
sVScreen Size
p28
V11.6"
p29
sVProcessor Type
p30
VIntel Celeron
p31
sVCondition
p32
VNew
p33
sVmanufacturer_part_number
p34
Vc213sa-ys02
p35
ssS'title'
p36
VAsus Chromebook Flip C213SA-YS02 11.6" 2-in 1, Intel Celeron N3350 Dual Core, 4GB Memory, 32GB Hard Drive
p37
sb.