ccopy_reg
_reconstructor
p0
(c__main__
ProductRecord
p1
c__builtin__
object
p2
Ntp3
Rp4
(dp5
S'product_url'
p6
S'http://www.walmart.com/ip/HP-ProBook-x360-11-G1-Education-Edition-11-6-Celeron-N3350-4-GB-RAM-128-GB-SSD/550105893'
p7
sS'price'
p8
S'N/A'
p9
sS'properties'
p10
(dp11
VRAM Memory
p12
V4 Gigabytes
p13
sVOperating System
p14
VWindows 10
p15
sVVideo Game Platform
p16
VPC
p17
sVBrand
p18
VHP
p19
sVProcessor Speed
p20
V1.1 Gigahertz
p21
sVManufacturer Part Number
p22
V1FY91UT#ABA
p23
sVHard Drive Capacity
p24
V128 Gigabytes
p25
sVBattery Life
p26
V11 Hours
p27
sVAssembled Product Dimensions (L x W x H)
p28
V12.00 x 12.00 x 12.00 Inches
p29
sVModel
p30
V1FY91UT#ABA
p31
sVScreen Size
p32
V11.60 Inches
p33
sVProcessor Type
p34
VIntel N3350
p35
sVCondition
p36
VNew
p37
ssS'title'
p38
VHP ProBook x360 11 G1 - Education Edition - 11.6" - Celeron N3350 - 4 GB RAM - 128 GB SSD
p39
sb.