ccopy_reg
_reconstructor
p0
(c__main__
ProductRecord
p1
c__builtin__
object
p2
Ntp3
Rp4
(dp5
S'product_url'
p6
S'http://www.walmart.com/ip/GL502VS-DS71-I7-7700HQ-2-4G-16GB-128GB-SSD-1TB-15-6IN-W10/659945127'
p7
sS'price'
p8
V$1,699.99
p9
sS'properties'
p10
(dp11
VRAM Memory
p12
V16.00 GB
p13
sVOperating System
p14
VWindows 10
p15
sVFeatures
p16
VGL502VS-DS71 - INTEL - CORE I7-7700HQ - 2.8 GHZ - DDR4 SDRAM - RAM: 16 GB - 1 TB
p17
sVVideo Game Platform
p18
VSee Description
p19
sVBrand
p20
VASUS
p21
sVProcessor Speed
p22
V2.80 GHz
p23
sVManufacturer Part Number
p24
VGL502VS-DS71
p25
sVMaximum RAM Supported
p26
V32.00 GB
p27
sVHard Drive Capacity
p28
V1.00 TB
p29
sVAssembled Product Dimensions (L x W x H)
p30
V18.00 x 4.00 x 13.00 Inches
p31
sVModel
p32
VGL502VSDS71
p33
sVScreen Size
p34
V15.60 in
p35
sVProcessor Type
p36
VIntel Core i7-7700HQ
p37
sVCondition
p38
VNew
p39
ssS'title'
p40
VGL502VS-DS71 I7-7700HQ 2.4G 16GB 128GB SSD+1TB 15.6IN W10
p41
sb.