ccopy_reg
_reconstructor
p0
(c__main__
ProductRecord
p1
c__builtin__
object
p2
Ntp3
Rp4
(dp5
S'product_url'
p6
S'http://www.walmart.com/ip/Dell-Alienware-AW15R3-5246SLV-PUS-15-6-7th-Generation-Intel-Core-i5-8GB-RAM-1TB-HDD-Silver-VR-Ready-with-NVIDIA-GTX-1060-Gaming-Laptop/681998477'
p7
sS'price'
p8
V$1,399.00
p9
sS'properties'
p10
(dp11
VRAM Memory
p12
V8.00 GB
p13
sVOperating System
p14
VWindows 10
p15
sVColor Category
p16
VSilver
p17
sVVideo Game Platform
p18
VPC
p19
sVBrand
p20
VAlienware
p21
sVManufacturer Part Number
p22
VAW15R3-5246SLV-PUS
p23
sVHard Drive Capacity
p24
V1.00 TB
p25
sVLaptop Computer Type
p26
VGaming Laptops
p27
sVProcessor Core Type
p28
VQuad-core (4 Core)
p29
sVProcessor Type
p30
VIntel Core i5
p31
sVScreen Size
p32
V15.60 in
p33
sVModel
p34
VAW15R35246SLV
p35
sVCondition
p36
VNew
p37
sVManufacturer
p38
VDell Technologies
p39
ssS'title'
p40
VDell Alienware AW15R3-5246SLV-PUS 15.6" (7th Generation Intel Core i5, 8GB RAM, 1TB HDD, Silver) VR Ready with NVIDIA GTX 1060 Gaming Laptop
p41
sb.