ccopy_reg
_reconstructor
p0
(c__main__
ProductRecord
p1
c__builtin__
object
p2
Ntp3
Rp4
(dp5
S'product_url'
p6
S'http://www.walmart.com/ip/Samsung-Notebook-9-13-3-8GB-RAM-NP900X3N-K01US-Light-Titan/55615851'
p7
sS'price'
p8
V$999.99
p9
sS'properties'
p10
(dp11
VRAM Memory
p12
V8 GB
p13
sVOperating System
p14
VMicrosoft Windows, Windows 10
p15
sVBrand
p16
VSamsung
p17
sVProcessor Speed
p18
V2.50 GHz
p19
sVManufacturer Part Number
p20
V4T9874
p21
sVAssembled Product Dimensions (L x W x H)
p22
V12.18 x 8.19 x 0.55 Inches
p23
sVModel
p24
VNP900X3N-K01US
p25
sVScreen Size
p26
V13.3"
p27
sVProcessor Type
p28
VIntel Core i5
p29
sVCondition
p30
VNew
p31
ssS'title'
p32
VSamsung Notebook 9 13.3" (8GB RAM) NP900X3N-K01US Light Titan
p33
sb.