ccopy_reg
_reconstructor
p0
(c__main__
ProductRecord
p1
c__builtin__
object
p2
Ntp3
Rp4
(dp5
S'product_url'
p6
S'http://www.walmart.com/ip/Lenovo-Legion-Y720-15IKB-15-6-Intel-Core-i7-7700HQ-16GB-DDR4-1TB-HDD-256GB-SSD-Windows-10-Home-3840-x-2160-IPS-Black-Notebook/669350022'
p7
sS'price'
p8
V$1,557.00
p9
sS'properties'
p10
(dp11
VRAM Memory
p12
V16.00 GB
p13
sVOperating System
p14
VWindows 10
p15
sVBrand
p16
VLenovo
p17
sVProcessor Speed
p18
V2.80 GHz
p19
sVManufacturer Part Number
p20
V80VR002HUS
p21
sVMaximum RAM Supported
p22
V32.00 GB
p23
sVHard Drive Capacity
p24
V256.00 GB
p25
sVBattery Life
p26
V5.00 h
p27
sVAssembled Product Dimensions (L x W x H)
p28
V18.78 x 14.57 x 4.29 Inches
p29
sVModel
p30
V80VR002HUSVRS
p31
sVScreen Size
p32
V15.60 in
p33
sVProcessor Type
p34
VIntel Core i7
p35
sVCondition
p36
VNew
p37
ssS'title'
p38
VLenovo Legion Y720-15IKB 15.6" Intel Core i7-7700HQ 16GB DDR4 1TB HDD - 256GB SSD - Windows 10 Home 3840 x 2160 IPS Black Notebook
p39
sb.