ccopy_reg
_reconstructor
p0
(c__main__
ProductRecord
p1
c__builtin__
object
p2
Ntp3
Rp4
(dp5
S'product_url'
p6
S'http://www.walmart.com/ip/Refurbished-Dell-XPS-15-9560-i7-7700HQ-16GB-512GB-PCIe-SSD-FHD-Infinity-Nvidia-GTX1050-4GB-Windows-10-Home-Laptop-silver/174588335'
p7
sS'price'
p8
V$1,279.00
p9
sS'properties'
p10
(dp11
VRAM Memory
p12
V16 Gigabytes
p13
sVOperating System
p14
VWindows 10
p15
sVColor Category
p16
VSilver
p17
sVLaptop Computer Type
p18
VPC Laptops
p19
sVBrand
p20
VDell
p21
sVHard Drive Capacity
p22
V512 Gigabytes
p23
sVProcessor Type
p24
VIntel Core i7
p25
sVManufacturer
p26
VDell
p27
sVScreen Size
p28
V15.6 Inches
p29
sVCondition
p30
VRefurbished
p31
sVmanufacturer_part_number
p32
Vgtx1050
p33
ssS'title'
p34
VRefurbished Dell XPS 15 9560 i7-7700HQ 16GB 512GB PCIe SSD FHD Infinity Nvidia GTX1050 4GB Windows 10 Home Laptop silver
p35
sb.