ccopy_reg
_reconstructor
p0
(c__main__
ProductRecord
p1
c__builtin__
object
p2
Ntp3
Rp4
(dp5
S'product_url'
p6
S'http://www.walmart.com/ip/Refurbished-Dell-14-Latitude-E6440-Laptop-PC-with-Intel-Core-i7-4600M-Processor-16GB-Memory-256GB-Solid-State-Drive-and-Windows-10-Pro/50910615'
p7
sS'price'
p8
V$529.00
p9
sS'properties'
p10
(dp11
VRAM Memory
p12
V16 GB
p13
sVOperating System
p14
VWindows 10
p15
sVColor Category
p16
VSilver
p17
sVVideo Game Platform
p18
VPC
p19
sVBrand
p20
VLatitude
p21
sVManufacturer Part Number
p22
VWA5-1200
p23
sVHard Drive Capacity
p24
V256 GB
p25
sVLaptop Computer Type
p26
VPC Laptops
p27
sVProcessor Type
p28
VIntel Core i7
p29
sVScreen Size
p30
V14.0"
p31
sVModel
p32
VE6440
p33
sVCondition
p34
VRefurbished
p35
sVManufacturer
p36
VDell
p37
ssS'title'
p38
VRefurbished Dell 14" Latitude E6440 Laptop PC with Intel Core i7-4600M Processor, 16GB Memory, 256GB Solid State Drive and Windows 10 Pro
p39
sb.