ccopy_reg
_reconstructor
p0
(c__main__
ProductRecord
p1
c__builtin__
object
p2
Ntp3
Rp4
(dp5
S'product_url'
p6
S'http://www.walmart.com/ip/Lenovo-320-17IKB-17-3-Core-i7-7500U-16-GB-RAM-2-TB-HDD/295944533'
p7
sS'price'
p8
V$825.17
p9
sS'properties'
p10
(dp11
VRAM Memory
p12
V16 KB
p13
sVOperating System
p14
VWindows 10
p15
sVBrand
p16
VLenovo
p17
sVProcessor Speed
p18
V2.7 Gigahertz
p19
sVManufacturer Part Number
p20
V80XM0002US
p21
sVHard Drive Capacity
p22
V2 Terabytes
p23
sVBattery Life
p24
V0 h
p25
sVAssembled Product Dimensions (L x W x H)
p26
V21.73 x 13.62 x 2.86 Inches
p27
sVModel
p28
V80XM0002US
p29
sVScreen Size
p30
V17.30 Inches
p31
sVProcessor Type
p32
VIntel i7-7500U
p33
sVCondition
p34
VNew
p35
ssS'title'
p36
VLenovo 320-17IKB - 17.3" - Core i7 7500U - 16 GB RAM - 2 TB HDD
p37
sb.