ccopy_reg
_reconstructor
p0
(c__main__
ProductRecord
p1
c__builtin__
object
p2
Ntp3
Rp4
(dp5
S'product_url'
p6
S'http://www.walmart.com/ip/Refurbished-Lenovo-T510-15-6-Laptop-Windows-10-Home-Intel-Core-i5-520M-Processor-3GB-RAM-160GB-Hard-Drive/56218249'
p7
sS'price'
p8
V$241.00
p9
sS'properties'
p10
(dp11
VRAM Memory
p12
V3 GB
p13
sVOperating System
p14
VWindows 10
p15
sVColor Category
p16
VBlack
p17
sVVideo Game Platform
p18
VPC
p19
sVBrand
p20
VLenovo
p21
sVManufacturer Part Number
p22
VWA5-30753
p23
sVHard Drive Capacity
p24
V160 GB
p25
sVLaptop Computer Type
p26
VPC Laptops
p27
sVProcessor Type
p28
VIntel Core i5
p29
sVScreen Size
p30
V15.6"
p31
sVModel
p32
VT510
p33
sVManufacturer
p34
VLENOVO
p35
ssS'title'
p36
VRefurbished Lenovo T510 15.6" Laptop, Windows 10 Home, Intel Core i5-520M Processor, 3GB RAM, 160GB Hard Drive
p37
sb.