ccopy_reg
_reconstructor
p0
(c__main__
ProductRecord
p1
c__builtin__
object
p2
Ntp3
Rp4
(dp5
S'product_url'
p6
S'http://www.walmart.com/ip/MSI-Gaming-Laptop-17-3-Core-i7-16GB-256GB-SSD-1TB-HDD-GTX1060/56188592'
p7
sS'price'
p8
V$1,899.00
p9
sS'properties'
p10
(dp11
sS'title'
p12
VMSI Gaming Laptop 17.3" Core i7 16GB 256GB SSD 1TB HDD GTX1060
p13
sb.