ccopy_reg
_reconstructor
p0
(c__main__
ProductRecord
p1
c__builtin__
object
p2
Ntp3
Rp4
(dp5
S'product_url'
p6
S'http://www.walmart.com/ip/Samsung-NP900X5N-L01US-15-Laptop-WIndows-10-Home-Intel-Core-i7-7500U-Processor-8GB-RAM-256GB-Solid-State-Drive/55615855'
p7
sS'price'
p8
V$1,247.99
p9
sS'properties'
p10
(dp11
VRAM Memory
p12
V8 GB
p13
sVOperating System
p14
VWindows 10
p15
sVFeatures
p16
VEPEAT
p17
sVVideo Game Platform
p18
VPC
p19
sVBrand
p20
VSamsung
p21
sVProcessor Speed
p22
V2.70 GHz, with a Max Turbo Speed of 3.50 GHz
p23
sVManufacturer Part Number
p24
V4U0190
p25
sVMaximum RAM Supported
p26
V8 GB
p27
sVHard Drive Capacity
p28
V256 GB
p29
sVBattery Life
p30
V2.10 Hour
p31
sVAssembled Product Dimensions (L x W x H)
p32
V13.70 x 9.03 x 0.61 Inches
p33
sVModel
p34
VNP900X5N-L01US
p35
sVScreen Size
p36
V15.0"
p37
sVProcessor Type
p38
VIntel Core i7
p39
sVCondition
p40
VNew
p41
ssS'title'
p42
VSamsung NP900X5N-L01US 15" Laptop, WIndows 10 Home, Intel Core i7-7500U Processor, 8GB RAM, 256GB Solid State Drive
p43
sb.