ccopy_reg
_reconstructor
p0
(c__main__
ProductRecord
p1
c__builtin__
object
p2
Ntp3
Rp4
(dp5
S'product_url'
p6
S'http://www.walmart.com/ip/Acer-Aspire-E-15-E5-575G-53VG-15-6-Core-i5-6200U-8-GB-RAM-256-GB-SSD-US-International/148506121'
p7
sS'price'
p8
V$763.16
p9
sS'properties'
p10
(dp11
VRAM Memory
p12
V8 Gigabytes
p13
sVOperating System
p14
VWindows 10
p15
sVColor Category
p16
VMulticolor
p17
sVLaptop Computer Type
p18
VPC Laptops
p19
sVBrand
p20
VAcer
p21
sVManufacturer Part Number
p22
VNX.GHGAA.001
p23
sVHard Drive Capacity
p24
V256 Gigabytes
p25
sVProcessor Core Type
p26
VDual-core (2 Core)
p27
sVProcessor Type
p28
VIntel i5-6200U
p29
sVScreen Size
p30
V15.60 Inches
p31
sVModel
p32
VNX.GHGAA.001
p33
sVCondition
p34
VNew
p35
sVManufacturer
p36
VAcer
p37
ssS'title'
p38
VAcer Aspire E 15 E5-575G-53VG - 15.6" - Core i5 6200U - 8 GB RAM - 256 GB SSD - US International
p39
sb.