ccopy_reg
_reconstructor
p0
(c__main__
ProductRecord
p1
c__builtin__
object
p2
Ntp3
Rp4
(dp5
S'product_url'
p6
S'http://www.walmart.com/ip/Dell-Inspiron-7370-i5-8250U-13-3-8GB-RAM-256GB-SSD-Win-10-Laptop/747316155'
p7
sS'price'
p8
V$877.04
p9
sS'properties'
p10
(dp11
VRAM Memory
p12
V8.00 GB
p13
sVOperating System
p14
VWindows 10
p15
sVBrand
p16
VDell
p17
sVProcessor Speed
p18
V1.60 GHz
p19
sVManufacturer Part Number
p20
VI7370-5732SLV
p21
sVMaximum RAM Supported
p22
V32.00 GB
p23
sVHard Drive Capacity
p24
V256.00 GB
p25
sVAssembled Product Dimensions (L x W x H)
p26
V14.70 x 13.70 x 13.70 Inches
p27
sVModel
p28
VI73705732SLV
p29
sVScreen Size
p30
V13.30 in
p31
sVProcessor Type
p32
VIntel Core i5
p33
sVCondition
p34
VNew
p35
ssS'title'
p36
VDell Inspiron 7370 - i5-8250U - 13.3" - 8GB RAM - 256GB SSD - Win 10 Laptop
p37
sb.