ccopy_reg
_reconstructor
p0
(c__main__
ProductRecord
p1
c__builtin__
object
p2
Ntp3
Rp4
(dp5
S'product_url'
p6
S'http://www.walmart.com/ip/HP-Stream-Notebook-11-y020nr-11-6-HD-SVA-Anti-Glare-Screen-Celeron-N-1-6GHz-4GB-RAM-32GB-eMMC-in-Violet-Purple-Certified-Refurbished/666743387'
p7
sS'price'
p8
V$150.48
p9
sS'properties'
p10
(dp11
VOperating System
p12
VWindows 10
p13
sVBrand
p14
VHP
p15
sVScreen Size
p16
V11.6
p17
sVModel
p18
VX7V30UA#ABA.RB
p19
sVManufacturer Part Number
p20
VX7V30UA#ABA.RB
p21
ssS'title'
p22
VHP Stream Notebook 11-y020nr 11.6" HD SVA Anti-Glare Screen, Celeron N @ 1.6GHz, 4GB RAM, 32GB eMMC, in Violet Purple (Certified Refurbished)
p23
sb.