ccopy_reg
_reconstructor
p0
(c__main__
ProductRecord
p1
c__builtin__
object
p2
Ntp3
Rp4
(dp5
S'product_url'
p6
S'http://www.walmart.com/ip/Acer-17-3-Intel-Core-i7-2-8-GHz-64-GB-Ram-2-TB-HDD-512-GB-SSD-Windows-10-Home-G9-793-78WG/225278163'
p7
sS'price'
p8
V$1,994.99
p9
sS'properties'
p10
(dp11
VRAM Memory
p12
V64 GB
p13
sVOperating System
p14
VWindows 10
p15
sVBrand
p16
VAcer
p17
sVProcessor Speed
p18
V2.8 GHz
p19
sVManufacturer Part Number
p20
VNH.Q1UAA.002
p21
sVHard Drive Capacity
p22
V2 TB
p23
sVAssembled Product Dimensions (L x W x H)
p24
V12.70 x 16.70 x 1.60 Inches
p25
sVModel
p26
VG9-793-78WG
p27
sVScreen Size
p28
V17.3 in
p29
sVProcessor Type
p30
VIntel Core i7
p31
sVCondition
p32
VNew
p33
ssS'title'
p34
VAcer 17.3" Intel Core i7 2.8 GHz 64 GB Ram 2 TB HDD + 512 GB SSD Windows 10 Home|G9-793-78WG
p35
sb.