ccopy_reg
_reconstructor
p0
(c__main__
ProductRecord
p1
c__builtin__
object
p2
Ntp3
Rp4
(dp5
S'product_url'
p6
S'http://www.walmart.com/ip/HP-ZBook-15u-G4-Mobile-Workstation-15-6-Core-i5-7200U-8-GB-RAM-256-GB-SSD-US/868614122'
p7
sS'price'
p8
V$1,167.09
p9
sS'properties'
p10
(dp11
VRAM Memory
p12
V8 Gigabytes
p13
sVOperating System
p14
VWindows 10
p15
sVFeatures
p16
VI5-7200U 2.5G 8GB 256GB 15.6IN W10P
p17
sVBrand
p18
VHP
p19
sVProcessor Speed
p20
V2.5 Gigahertz
p21
sVManufacturer Part Number
p22
V2HJ12UT#ABA
p23
sVHard Drive Capacity
p24
V256 Gigabytes
p25
sVAssembled Product Dimensions (L x W x H)
p26
V5.00 x 5.00 x 5.00 Inches
p27
sVModel
p28
V2HJ12UT#ABA
p29
sVScreen Size
p30
V15.60 Inches
p31
sVProcessor Type
p32
VIntel i5-7200U
p33
sVCondition
p34
VNew
p35
ssS'title'
p36
VHP ZBook 15u G4 Mobile Workstation - 15.6" - Core i5 7200U - 8 GB RAM - 256 GB SSD - US
p37
sb.