ccopy_reg
_reconstructor
p0
(c__main__
ProductRecord
p1
c__builtin__
object
p2
Ntp3
Rp4
(dp5
S'product_url'
p6
S'http://www.walmart.com/ip/Manufacturer-Refurbished-Acer-Aspire-VX5-591G-75RM-15-6-Intel-Core-i7-7700HQ-2-8-GHz-16-GB-Ram-256-GB-SSD-Windows-10-Home/211221495'
p7
sS'price'
p8
V$844.19
p9
sS'properties'
p10
(dp11
VRAM Memory
p12
V16 GB
p13
sVOperating System
p14
VWindows 10
p15
sVColor Category
p16
VBlack
p17
sVLaptop Computer Type
p18
VGaming Laptops
p19
sVBrand
p20
VAcer
p21
sVManufacturer Part Number
p22
VNH.GM4AA.001
p23
sVWireless Technology
p24
VIEEE 802.11ac
p25
sVHard Drive Capacity
p26
V256 GB
p27
sVProcessor Type
p28
VIntel Core i7
p29
sVScreen Size
p30
V15.6 in
p31
sVModel
p32
VVX5-591G-75RM
p33
sVManufacturer
p34
VAcer
p35
ssS'title'
p36
VManufacturer Refurbished Acer Aspire VX5-591G-75RM 15.6" Intel Core i7-7700HQ 2.8 GHz 16 GB Ram 256 GB SSD Windows 10 Home
p37
sb.