ccopy_reg
_reconstructor
p0
(c__main__
ProductRecord
p1
c__builtin__
object
p2
Ntp3
Rp4
(dp5
S'product_url'
p6
S'http://www.walmart.com/ip/2017-Newest-HP-17-3-HD-WLED-Backlight-Flagship-High-Performance-Laptop-PC-Intel-Core-i5-8GB-DDR4-1TB-HDD-USB-3-1-HDMI-WIFI-Webcam-DVD-RW-Windows-10-B/674151312'
p7
sS'price'
p8
V$579.00
p9
sS'properties'
p10
(dp11
VRAM Memory
p12
V8.00 KB
p13
sVOperating System
p14
VWindows 10
p15
sVColor Category
p16
VBlack
p17
sVLaptop Computer Type
p18
VPC Laptops
p19
sVBrand
p20
VHP
p21
sVHard Drive Capacity
p22
V1.00 KB
p23
sVProcessor Type
p24
V7th Gen Intel? Core? i5-7200U
p25
sVScreen Size
p26
V17.3 in
p27
sVCondition
p28
VNew
p29
ssS'title'
p30
V2017 Newest HP 17.3" HD+ WLED Backlight Flagship High Performance Laptop PC | Intel Core i5 | 8GB DDR4 | 1TB HDD | USB 3.1 | HDMI | WIFI | Webcam | DVD-RW | Windows 10 (Black)
p31
sb.