ccopy_reg
_reconstructor
p0
(c__main__
ProductRecord
p1
c__builtin__
object
p2
Ntp3
Rp4
(dp5
S'product_url'
p6
S'http://www.walmart.com/ip/Dell-Latitude-5580-15-6-Core-i7-7820HQ-16-GB-RAM-256-GB-SSD/445240131'
p7
sS'price'
p8
V$1,639.44
p9
sS'properties'
p10
(dp11
VRAM Memory
p12
V16.00 GB
p13
sVOperating System
p14
VWindows 10
p15
sVFeatures
p16
VLATITUDE 5580, 15, FHD, I7-7820H, VPRO,
p17
sVBrand
p18
VDell
p19
sVProcessor Speed
p20
V2.90 GHz
p21
sVManufacturer Part Number
p22
VX1W6W
p23
sVHard Drive Capacity
p24
V256.00 GB
p25
sVBattery Life
p26
V0 h
p27
sVAssembled Product Dimensions (L x W x H)
p28
V19.37 x 13.82 x 3.23 Inches
p29
sVModel
p30
VLATI5580HX1W6W
p31
sVScreen Size
p32
V15.60 in
p33
sVProcessor Type
p34
VCore i7-7820HQ
p35
sVCondition
p36
VNew
p37
ssS'title'
p38
VDell Latitude 5580 - 15.6" - Core i7 7820HQ - 16 GB RAM - 256 GB SSD
p39
sb.