ccopy_reg
_reconstructor
p0
(c__main__
ProductRecord
p1
c__builtin__
object
p2
Ntp3
Rp4
(dp5
S'product_url'
p6
S'http://www.walmart.com/ip/Dell-XPS-13-9360-13-3-3200x1800-Laptop-i7-7560U-16GB-512GB-PCIe-SSD-Win10-Refur/977053760'
p7
sS'price'
p8
V$1,249.77
p9
sS'properties'
p10
(dp11
VRAM Memory
p12
V16.00 GB
p13
sVOperating System
p14
VWindows 10
p15
sVFeatures
p16
VInfinity Edge Touch Display
p17
sVBrand
p18
VDell
p19
sVProcessor Speed
p20
V3.80 GHz
p21
sVManufacturer Part Number
p22
VXPS 13 9360
p23
sVHard Drive Capacity
p24
V512 GB
p25
sVAssembled Product Dimensions (L x W x H)
p26
V1.00 x 1.00 x 1.00 Inches
p27
sVModel
p28
VXPS 13 9360
p29
sVScreen Size
p30
V13.30 in
p31
sVProcessor Type
p32
VIntel Core i7-7560U
p33
ssS'title'
p34
VDell XPS 13 9360 13.3" 3200x1800 Laptop i7-7560U 16GB 512GB PCIe SSD Win10 Refur
p35
sb.