ccopy_reg
_reconstructor
p0
(c__main__
ProductRecord
p1
c__builtin__
object
p2
Ntp3
Rp4
(dp5
S'product_url'
p6
S'http://www.walmart.com/ip/Manufacturer-Refurbished-Acer-Spin-SP111-31-C2W3-11-6-Intel-Celeron-N3350-1-10-GHz-4GB-Ram-32-GB-Flash-Windows-10-Home/329594317'
p7
sS'price'
p8
V$184.79
p9
sS'properties'
p10
(dp11
VRAM Memory
p12
V4 GB
p13
sVOperating System
p14
VWindows 10
p15
sVColor Category
p16
VBlue
p17
sVLaptop Computer Type
p18
VPC Laptops
p19
sVBrand
p20
VAcer
p21
sVManufacturer Part Number
p22
VNX.GL2AA.001
p23
sVHard Drive Capacity
p24
V32 GB
p25
sVProcessor Type
p26
VIntel Celeron
p27
sVScreen Size
p28
V11.6 in
p29
sVModel
p30
VSP111-31-C2W3
p31
sVManufacturer
p32
VAcer
p33
ssS'title'
p34
VManufacturer Refurbished Acer Spin SP111-31-C2W3 11.6" Intel Celeron N3350 1.10 GHz 4GB Ram 32 GB Flash Windows 10 Home
p35
sb.