ccopy_reg
_reconstructor
p0
(c__main__
ProductRecord
p1
c__builtin__
object
p2
Ntp3
Rp4
(dp5
S'product_url'
p6
S'http://www.walmart.com/ip/Refurbished-HP-Ultrabook-14-EliteBook-Folio-9470M-WA5-0888-Laptop-PC-Intel-Core-i5-3427U-Processor-8GB-Memory-128GB-Solid-State-Drive-Windows-10-Pro/50348461'
p7
sS'price'
p8
V$294.00
p9
sS'properties'
p10
(dp11
VRAM Memory
p12
V8 GB
p13
sVOperating System
p14
VWindows 10
p15
sVColor Category
p16
VSilver
p17
sVVideo Game Platform
p18
VPC
p19
sVBrand
p20
VHP
p21
sVManufacturer Part Number
p22
VWA5-0888
p23
sVHard Drive Capacity
p24
V128 GB
p25
sVLaptop Computer Type
p26
VUltrabooks
p27
sVProcessor Type
p28
VIntel Core i5
p29
sVScreen Size
p30
V14.0"
p31
sVModel
p32
VFOLIO 9470M
p33
sVCondition
p34
VRefurbished
p35
sVManufacturer
p36
VHP
p37
ssS'title'
p38
VRefurbished HP Ultrabook 14" EliteBook Folio 9470M WA5-0888 Laptop PC with Intel Core i5-3427U Processor, 8GB Memory, 128GB Solid State Drive and Windows 10 Pro
p39
sb.