ccopy_reg
_reconstructor
p0
(c__main__
ProductRecord
p1
c__builtin__
object
p2
Ntp3
Rp4
(dp5
S'product_url'
p6
S'http://www.walmart.com/ip/HP-14-bw066nr-14-Laptop-AMD-E-Series-E2-9000e-4GB-DDR4-500GB-HD-Win10/280200133'
p7
sS'price'
p8
V$296.81
p9
sS'properties'
p10
(dp11
sS'title'
p12
VHP 14-bw066nr 14" Laptop AMD E-Series E2-9000e 4GB DDR4 500GB HD Win10
p13
sb.