ccopy_reg
_reconstructor
p0
(c__main__
ProductRecord
p1
c__builtin__
object
p2
Ntp3
Rp4
(dp5
S'product_url'
p6
S'http://www.walmart.com/ip/HP-ZBook-15-G4-Mobile-Workstation-15-6-Core-i7-7700HQ-8-GB-RAM-1-TB-HDD-US/750983415'
p7
sS'price'
p8
V$989.99
p9
sS'properties'
p10
(dp11
VRAM Memory
p12
V8.00 GB
p13
sVOperating System
p14
VWindows 10
p15
sVFeatures
p16
VI7-7700HQ 2.8G 8GB 1TB BT 15.6IN
p17
sVBrand
p18
VHP
p19
sVProcessor Speed
p20
V2.80 GHz
p21
sVManufacturer Part Number
p22
V1JD32UT#ABA
p23
sVHard Drive Capacity
p24
V1.00 TB
p25
sVBattery Life
p26
V0 h
p27
sVAssembled Product Dimensions (L x W x H)
p28
V22.25 x 12.00 x 3.00 Inches
p29
sVModel
p30
V1JD32UT
p31
sVScreen Size
p32
V15.00 in
p33
sVProcessor Type
p34
VCore i7-7700HQ
p35
sVCondition
p36
VNew
p37
ssS'title'
p38
VHP ZBook 15 G4 Mobile Workstation - 15.6" - Core i7 7700HQ - 8 GB RAM - 1 TB HDD - US
p39
sb.