ccopy_reg
_reconstructor
p0
(c__main__
ProductRecord
p1
c__builtin__
object
p2
Ntp3
Rp4
(dp5
S'product_url'
p6
S'http://www.walmart.com/ip/Acer-SF314-51-52W2-Swift-3-14-Laptop-Windows-10-Intel-Core-i5-6200U-Processor-8GB-RAM-256GB-Solid-State-Drive/55009820'
p7
sS'price'
p8
V$799.97
p9
sS'properties'
p10
(dp11
VRAM Memory
p12
V8 GB
p13
sVOperating System
p14
VWindows 10
p15
sVVideo Game Platform
p16
VPC
p17
sVBrand
p18
VAcer
p19
sVProcessor Speed
p20
V2.30 GHz
p21
sVManufacturer Part Number
p22
VNX.GKBAA.002
p23
sVHard Drive Capacity
p24
V256 GB
p25
sVAssembled Product Dimensions (L x W x H)
p26
V10.70 x 7.20 x 2.00 Inches
p27
sVModel
p28
VNX.GKBAA.002
p29
sVScreen Size
p30
V14.0"
p31
sVProcessor Type
p32
VIntel Core i5
p33
ssS'title'
p34
VAcer SF314-51-52W2 Swift 3 14" Laptop, Windows 10, Intel Core i5-6200U Processor, 8GB RAM, 256GB Solid State Drive
p35
sb.