ccopy_reg
_reconstructor
p0
(c__main__
ProductRecord
p1
c__builtin__
object
p2
Ntp3
Rp4
(dp5
S'product_url'
p6
S'http://www.walmart.com/ip/Acer-Aspire-F-15-F5-573-7630-15-6-Core-i7-7500U-8-GB-RAM-1-TB-HDD-US-International/55428692'
p7
sS'price'
p8
V$679.99
p9
sS'properties'
p10
(dp11
VRAM Memory
p12
V8 Gigabytes
p13
sVOperating System
p14
VWindows 10
p15
sVFeatures
p16
V1TB DVDRW 15.6IN 11AC W10H 64BIT
p17
sVBrand
p18
VAcer
p19
sVProcessor Speed
p20
V2.7 Gigahertz
p21
sVManufacturer Part Number
p22
VNX.GD3AA.002
p23
sVMaximum RAM Supported
p24
V32 Gigabytes
p25
sVHard Drive Capacity
p26
V1 Terabytes
p27
sVAssembled Product Dimensions (L x W x H)
p28
V19.60 x 12.20 x 2.60 Inches
p29
sVModel
p30
VNX.GD3AA.002
p31
sVScreen Size
p32
V15.60 Inches
p33
sVProcessor Type
p34
VIntel i7-7500U
p35
sVCondition
p36
VNew
p37
ssS'title'
p38
VAcer Aspire F 15 F5-573-7630 - 15.6" - Core i7 7500U - 8 GB RAM - 1 TB HDD - US International
p39
sb.