ccopy_reg
_reconstructor
p0
(c__main__
ProductRecord
p1
c__builtin__
object
p2
Ntp3
Rp4
(dp5
S'product_url'
p6
S'http://www.walmart.com/ip/Refurbished-Dell-Latitude-E6540-Intel-Core-i7-4800MQ-2-7GHz-16GB-Ram-500GB-Hard-Drive-Webcam-Windows-10-Home/391772094'
p7
sS'price'
p8
V$488.05
p9
sS'properties'
p10
(dp11
VRAM Memory
p12
V16.00 GB
p13
sVOperating System
p14
VWindows 10
p15
sVBrand
p16
VDell
p17
sVProcessor Speed
p18
V2.70 GHz
p19
sVManufacturer Part Number
p20
VE6540-RFRB
p21
sVMaximum RAM Supported
p22
V16.00 GB
p23
sVHard Drive Capacity
p24
V500.00 GB
p25
sVModel
p26
VE6540-RFRB
p27
sVScreen Size
p28
V15.60 in
p29
sVProcessor Type
p30
VIntel Core i7
p31
ssS'title'
p32
VRefurbished Dell Latitude E6540 Intel Core i7 4800MQ 2.7GHz 16GB Ram 500GB Hard Drive Webcam Windows 10 Home
p33
sb.