ccopy_reg
_reconstructor
p0
(c__main__
ProductRecord
p1
c__builtin__
object
p2
Ntp3
Rp4
(dp5
S'product_url'
p6
S'http://www.walmart.com/ip/Asus-VivoBook-Flip-14-TP401CA-Notebook/226919816'
p7
sS'price'
p8
V$558.96
p9
sS'properties'
p10
(dp11
VRAM & Speed
p12
VLPDDR3 4GB
p13
sVASUS Model #
p14
VTP401CA-DHM6T
p15
sVThickness
p16
V0.6
p17
sVKeyboard
p18
VChiclet Keyboard
p19
sVStorage
p20
V128GB  EMMC
p21
sVProcessor
p22
VIntel Core m3-7Y30 Processor (4M Cache, up to 2.6GHz)Intel Core m3-7Y30 Processor (4M Cache, up to 2.6GHz)
p23
sVOperation System
p24
VWindows 10 (64bit)
p25
sVGraphics
p26
VIntel HD graphics 615
p27
sVWiFi/Audio/Streaming Features
p28
V802.11ac+Bluetooth 4.1 (Dual band) 2*2802.11ac+Bluetooth 4.1 (Dual band) 2*2
p29
sVDisplay
p30
V14.0'' HD (1366*768), glossy, Touch14.0'' HD (1366*768), glossy, Touch
p31
sVWeight (Lbs)
p32
V3.3
p33
ssS'title'
p34
VAsus VivoBook Flip 14 TP401CA Notebook
p35
sb.