ccopy_reg
_reconstructor
p0
(c__main__
ProductRecord
p1
c__builtin__
object
p2
Ntp3
Rp4
(dp5
S'product_url'
p6
S'http://www.walmart.com/ip/MSI-GF62VR-7RF-877-15-6-Gaming-Laptop-i7-7700HQ-16GB-1TB-HDD-GTX1060-Win10/424551812'
p7
sS'price'
p8
V$1,299.00
p9
sS'properties'
p10
(dp11
VRAM Memory
p12
V16 Gigabytes
p13
sVOperating System
p14
VWindows 10
p15
sVFeatures
p16
V16GB 1TB 15.6IN GTX1060
p17
sVBrand
p18
VMSI
p19
sVProcessor Speed
p20
V2.8 Gigahertz
p21
sVMaximum RAM Supported
p22
V32.00 GB
p23
sVHard Drive Capacity
p24
V1 Terabytes
p25
sVModel
p26
VGF62VR877
p27
sVScreen Size
p28
V15.60 Inches
p29
sVProcessor Type
p30
VIntel i7-7700HQ
p31
sVmanufacturer_part_number
p32
Vgf62vr877
p33
ssS'title'
p34
VMSI GF62VR 7RF-877 15.6" Gaming Laptop i7-7700HQ 16GB 1TB HDD GTX1060 Win10
p35
sb.