ccopy_reg
_reconstructor
p0
(c__main__
ProductRecord
p1
c__builtin__
object
p2
Ntp3
Rp4
(dp5
S'product_url'
p6
S'http://www.walmart.com/ip/Acer-Predator-Helios-300-G3-572-72YF-Gaming-Laptop-w-FREE-BUNDLE-15-6-Intel-Core-i7-7700HQ-NVIDIA-GeForce-GTX-1060-16GB-DDR4-256GB-SSD-1TB-HDD/863301227'
p7
sS'price'
p8
V$1,449.00
p9
sS'properties'
p10
(dp11
VRAM Memory
p12
V16.00 GB
p13
sVOperating System
p14
VWindows 10
p15
sVBrand
p16
VAcer
p17
sVProcessor Speed
p18
V3.80 GHz
p19
sVManufacturer Part Number
p20
VG3-572-72YF VAR 1
p21
sVMaximum RAM Supported
p22
V32.00 GB
p23
sVHard Drive Capacity
p24
V1.25 TB
p25
sVModel
p26
VG3-572-72YF
p27
sVScreen Size
p28
V15.60 in
p29
sVProcessor Type
p30
VIntel Core i7 7700HQ
p31
sVCondition
p32
VNew
p33
ssS'title'
p34
VAcer Predator Helios 300 G3-572-72YF Gaming Laptop w/ FREE BUNDLE! 15.6\u201d Intel Core i7-7700HQ NVIDIA GeForce GTX 1060 16GB DDR4 256GB SSD 1TB HDD
p35
sb.