ccopy_reg
_reconstructor
p0
(c__main__
ProductRecord
p1
c__builtin__
object
p2
Ntp3
Rp4
(dp5
S'product_url'
p6
S'http://www.walmart.com/ip/14-Intel-Dual-Core-Celeron/524247385'
p7
sS'price'
p8
V$237.24
p9
sS'properties'
p10
(dp11
VRAM Memory
p12
V4 Gigabytes
p13
sVOperating System
p14
VWindows 10
p15
sVColor Category
p16
VMulticolor
p17
sVLaptop Computer Type
p18
VPC Laptops
p19
sVBrand
p20
VASUS
p21
sVManufacturer Part Number
p22
V90NB0C53-M01460
p23
sVHard Drive Capacity
p24
V4 Gigabytes
p25
sVProcessor Type
p26
VIntel N3350
p27
sVScreen Size
p28
V14.00 Inches
p29
sVModel
p30
V90NB0C53-M01460
p31
sVCondition
p32
VNew
p33
sVManufacturer
p34
VASUS Notebooks
p35
ssS'title'
p36
V14" Intel Dual Core Celeron
p37
sb.