ccopy_reg
_reconstructor
p0
(c__main__
ProductRecord
p1
c__builtin__
object
p2
Ntp3
Rp4
(dp5
S'product_url'
p6
S'http://www.walmart.com/ip/MightySkins-Protective-Vinyl-Skin-Decal-for-Lenovo-Yoga-900-13-3-Screen-wrap-cover-sticker-skins-Solid-White/167948975'
p7
sS'price'
p8
S'N/A'
p9
sS'properties'
p10
(dp11
VColor
p12
VWhite
p13
sVBrand
p14
VMightyskins
p15
sVCompatible Brands
p16
VLenovo
p17
sVCondition
p18
VNew
p19
sVManufacturer Part Number
p20
VLENY90013-Solid White
p21
ssS'title'
p22
VMightySkins Protective Vinyl Skin Decal for Lenovo Yoga 900 13.3" Screen wrap cover sticker skins Solid White
p23
sb.