ccopy_reg
_reconstructor
p0
(c__main__
ProductRecord
p1
c__builtin__
object
p2
Ntp3
Rp4
(dp5
S'product_url'
p6
S'http://www.walmart.com/ip/HP-X7V29UA-ABA-11-Y010NR-Stream-Laptop-PC/176317577'
p7
sS'price'
p8
V$215.40
p9
sS'properties'
p10
(dp11
VRAM Memory
p12
V4 Gigabytes
p13
sVOperating System
p14
VWindows 10
p15
sVBrand
p16
VHP
p17
sVProcessor Speed
p18
V1.6 Gigahertz
p19
sVManufacturer Part Number
p20
VX7V29UA#ABA
p21
sVHard Drive Capacity
p22
V32 Gigabytes
p23
sVAssembled Product Dimensions (L x W x H)
p24
V0.71 x 11.80 x 8.10 Inches
p25
sVModel
p26
VX7V29UA#ABA
p27
sVScreen Size
p28
V11.60 in
p29
sVProcessor Type
p30
VIntel N3060
p31
ssS'title'
p32
VHP X7V29UA#ABA 11 Y010NR Stream Laptop PC
p33
sb.