ccopy_reg
_reconstructor
p0
(c__main__
ProductRecord
p1
c__builtin__
object
p2
Ntp3
Rp4
(dp5
S'product_url'
p6
S'http://www.walmart.com/ip/HP-Envy-17t-Laptop-Core-i7-8550U-16GB-RAM-17-3-Full-HD-Display-1TB-HDD/989106261'
p7
sS'price'
p8
V$1,339.99
p9
sS'properties'
p10
(dp11
VRAM Memory
p12
V16 GB
p13
sVOperating System
p14
VWindows 10
p15
sVBrand
p16
VHP
p17
sVProcessor Speed
p18
V1800 MHz
p19
sVManufacturer Part Number
p20
V17-u275cl
p21
sVHard Drive Capacity
p22
V1 TB
p23
sVModel
p24
VEnvy 17t
p25
sVScreen Size
p26
V17.3 in
p27
sVProcessor Type
p28
VIntel Core i7
p29
ssS'title'
p30
VHP Envy 17t Laptop: Core i7-8550U, 16GB RAM, 17.3" Full HD Display, 1TB HDD
p31
sb.