ccopy_reg
_reconstructor
p0
(c__main__
ProductRecord
p1
c__builtin__
object
p2
Ntp3
Rp4
(dp5
S'product_url'
p6
S'http://www.walmart.com/ip/Manufacturer-Refurbished-Asus-FZ50VX-WS74-15-6-Laptop-i7-6700HQ-2-6GHz-16GB-1TB-256GB-SSD-GTX-950-W10/234358533'
p7
sS'price'
p8
V$729.99
p9
sS'properties'
p10
(dp11
VBrand
p12
VASUS
p13
sVModel
p14
VFZ50VX-WS74-RF
p15
sVManufacturer Part Number
p16
VFZ50VX-WS74-RF
p17
ssS'title'
p18
VManufacturer Refurbished - Asus FZ50VX-WS74 15.6" Laptop i7-6700HQ 2.6GHz 16GB 1TB+256GB SSD GTX 950 W10
p19
sb.