ccopy_reg
_reconstructor
p0
(c__main__
ProductRecord
p1
c__builtin__
object
p2
Ntp3
Rp4
(dp5
S'product_url'
p6
S'http://www.walmart.com/ip/HP-15-6-High-Performance-HD-Laptop-Touchscreen-A8-7410-Quad-core-2-2GHz-4GB-RAM-1TB-HDD-AMD-R5-Graphics-802-11ac-DVD-Bluetooth-DTS-Studio-Audio-HDMI-/885106646'
p7
sS'price'
p8
V$579.00
p9
sS'properties'
p10
(dp11
VRAM Memory
p12
V4.00 GB
p13
sVOperating System
p14
VWindows 10
p15
sVBrand
p16
VHP
p17
sVHard Drive Capacity
p18
V1.00 TB
p19
sVProcessor Type
p20
VA8-7410 Quad Core
p21
sVScreen Size
p22
V15.6\u005c"
p23
sVProcessor Speed
p24
V2.20 GHz
p25
sVCondition
p26
VNew
p27
ssS'title'
p28
VHP 15.6\u201d High Performance HD Laptop Touchscreen , A8-7410 Quad-core 2.2GHz, 4GB RAM, 1TB HDD, AMD R5 Graphics, 802.11ac, DVD, Bluetooth, DTS Studio Audio, HDMI, Webcam, Windows 10 - Cardinal Red
p29
sb.