ccopy_reg
_reconstructor
p0
(c__main__
ProductRecord
p1
c__builtin__
object
p2
Ntp3
Rp4
(dp5
S'product_url'
p6
S'http://www.walmart.com/ip/Acer-Swift-3-SF314-52-557Y-14-FHD-Laptop-i5-7200U-8GB-256GB-SSD-Win10/992639173'
p7
sS'price'
p8
V$656.49
p9
sS'properties'
p10
(dp11
VRAM Memory
p12
V8 Gigabytes
p13
sVOperating System
p14
VWindows 10
p15
sVBrand
p16
VAcer
p17
sVProcessor Speed
p18
V2.5 Gigahertz
p19
sVHard Drive Capacity
p20
V256 Gigabytes
p21
sVBattery Life
p22
V10 Hours
p23
sVAssembled Product Dimensions (L x W x H)
p24
V19.00 x 12.00 x 3.00 Inches
p25
sVModel
p26
VNX.GNUAA.001
p27
sVScreen Size
p28
V14.00 Inches
p29
sVProcessor Type
p30
VIntel i5-7200U
p31
sVCondition
p32
VNew
p33
sVmanufacturer_part_number
p34
Vsf314-52-557y
p35
ssS'title'
p36
VAcer Swift 3 SF314-52-557Y 14" FHD Laptop i5-7200U 8GB 256GB SSD Win10
p37
sb.