ccopy_reg
_reconstructor
p0
(c__main__
ProductRecord
p1
c__builtin__
object
p2
Ntp3
Rp4
(dp5
S'product_url'
p6
S'http://www.walmart.com/ip/Original-HP-45W-AC-Charger-Power-Adapter-Cord-HP-ENVY-x360-Convertible-15-aq123ca-15-aq155nr-15-aq156nr-15-aq165nr-15-aq166nr-15-aq173cl-15-aq193ms/719186393'
p7
sS'price'
p8
S'N/A'
p9
sS'properties'
p10
(dp11
VBrand
p12
VHP
p13
ssS'title'
p14
VOriginal HP 45W AC Charger Power Adapter Cord For HP ENVY x360 Convertible 15-aq123ca 15-aq155nr 15-aq156nr 15-aq165nr 15-aq166nr 15-aq173cl 15-aq193ms
p15
sb.