ccopy_reg
_reconstructor
p0
(c__main__
ProductRecord
p1
c__builtin__
object
p2
Ntp3
Rp4
(dp5
S'product_url'
p6
S'http://www.walmart.com/ip/Asus-FX53VD-RH71-15-6-FHD-Gaming-Laptop-i7-7700HQ-16GB-1TB-GTX1050/688695277'
p7
sS'price'
p8
V$879.99
p9
sS'properties'
p10
(dp11
VRAM Memory
p12
V0 GB
p13
sVOperating System
p14
VMicrosoft Windows, Windows 10
p15
sVFeatures
p16
VASUS FX53VD RH714-cell batteryPower adapter
p17
sVVideo Game Platform
p18
VSee Description
p19
sVBrand
p20
VASUS
p21
sVProcessor Speed
p22
V0 GHz
p23
sVHard Drive Capacity
p24
V1 TB
p25
sVBattery Life
p26
V0 h
p27
sVAssembled Product Dimensions (L x W x H)
p28
V17.00 x 15.10 x 1.20 Inches
p29
sVModel
p30
V90NB0DW4-M16690
p31
sVScreen Size
p32
V15.6"
p33
sVProcessor Type
p34
VIntel Core i7
p35
sVCondition
p36
VNew
p37
sVmanufacturer_part_number
p38
Vfx53vd-rh71
p39
ssS'title'
p40
VAsus FX53VD-RH71 15.6" FHD Gaming Laptop  i7-7700HQ 16GB 1TB GTX1050
p41
sb.