ccopy_reg
_reconstructor
p0
(c__main__
ProductRecord
p1
c__builtin__
object
p2
Ntp3
Rp4
(dp5
S'product_url'
p6
S'http://www.walmart.com/ip/Acer-15-6-Intel-Core-i5-2-5GHz-8-GB-Ram-256GB-SSD-Windows-10-Home-SP315-51-579M/132582549'
p7
sS'price'
p8
V$530.24
p9
sS'properties'
p10
(dp11
VRAM Memory
p12
V8 GB
p13
sVOperating System
p14
VWindows 10
p15
sVBrand
p16
VAcer
p17
sVProcessor Speed
p18
V2.5 GHz
p19
sVManufacturer Part Number
p20
VNX.GK9AA.025
p21
sVHard Drive Capacity
p22
V256 GB
p23
sVBattery Life
p24
V9 h
p25
sVAssembled Product Dimensions (L x W x H)
p26
V9.90 x 15.00 x 0.90 Inches
p27
sVModel
p28
VSP315-51-579M
p29
sVScreen Size
p30
V15.6 in
p31
sVProcessor Type
p32
VIntel Core i5
p33
sVCondition
p34
VNew
p35
ssS'title'
p36
VAcer 15.6" Intel Core i5 2.5GHz 8 GB Ram 256GB SSD Windows 10 Home|SP315-51-579M
p37
sb.