ccopy_reg
_reconstructor
p0
(c__main__
ProductRecord
p1
c__builtin__
object
p2
Ntp3
Rp4
(dp5
S'product_url'
p6
S'http://www.walmart.com/ip/Asus-R518UQ-RS74T-15-6-2in1-i7-12GB-1TB-128GB-SSD-Nvidia-940MX-2G-Win10/229633964'
p7
sS'price'
p8
V$869.00
p9
sS'properties'
p10
(dp11
VRAM Memory
p12
V12 GB
p13
sVOperating System
p14
VWindows 10
p15
sVBrand
p16
VASUS
p17
sVHard Drive Capacity
p18
V1 TB
p19
sVProcessor Type
p20
VI7-7500U
p21
sVScreen Size
p22
V15.6 in
p23
sVProcessor Speed
p24
V2.7 Hz
p25
sVCondition
p26
VNew
p27
ssS'title'
p28
VAsus R518UQ-RS74T 15.6 2in1 i7 12GB 1TB 128GB SSD Nvidia 940MX 2G Win10
p29
sb.