ccopy_reg
_reconstructor
p0
(c__main__
ProductRecord
p1
c__builtin__
object
p2
Ntp3
Rp4
(dp5
S'product_url'
p6
S'http://www.walmart.com/ip/Refurbished-Lenovo-ThinkPad-T430-i5-2-6GHz-8GB-240SSD-DVD-Windows-10-Pro-64-Laptop-CAM/146230596'
p7
sS'price'
p8
V$289.00
p9
sS'properties'
p10
(dp11
VBrand
p12
VLenovo
p13
sVModel
p14
VThinkpad T430
p15
sVManufacturer Part Number
p16
VThinkPad
p17
ssS'title'
p18
VRefurbished Lenovo ThinkPad T430 i5 2.6GHz 8GB 240SSD DVD Windows 10 Pro 64 Laptop CAM
p19
sb.