ccopy_reg
_reconstructor
p0
(c__main__
ProductRecord
p1
c__builtin__
object
p2
Ntp3
Rp4
(dp5
S'product_url'
p6
S'http://www.walmart.com/ip/UX303UA-YS51-I5-6200U-2-3G-4GB-128GB-13-3IN-W10HOME-64BIT/51555175'
p7
sS'price'
p8
V$759.99
p9
sS'properties'
p10
(dp11
VRAM Memory
p12
V4 GB
p13
sVOperating System
p14
VWindows 10
p15
sVFeatures
p16
VAsus Notebook UX303UA-YS51 13.3inch Core i5-6200U 4GB 128GB SSD Intel HD Windows 10 Brown Retail
p17
sVVideo Game Platform
p18
VPC
p19
sVBrand
p20
VASUS
p21
sVProcessor Speed
p22
V2.30 GHz, with a Max Turbo Speed of 2.80 GHz
p23
sVManufacturer Part Number
p24
VUX303UA-YS51
p25
sVHard Drive Capacity
p26
V128 Gigabytes
p27
sVBattery Life
p28
V8 hours
p29
sVAssembled Product Dimensions (L x W x H)
p30
V11.10 x 14.80 x 2.80 Inches
p31
sVModel
p32
V90NB08V1-M05070
p33
sVScreen Size
p34
V13.3 in
p35
sVProcessor Type
p36
VIntel Core i5
p37
sVCondition
p38
VNew
p39
ssS'title'
p40
VUX303UA-YS51 I5-6200U 2.3G 4GB 128GB 13.3IN W10HOME 64BIT
p41
sb.