ccopy_reg
_reconstructor
p0
(c__main__
ProductRecord
p1
c__builtin__
object
p2
Ntp3
Rp4
(dp5
S'product_url'
p6
S'http://www.walmart.com/ip/MSI-GL62M-7RDX-2070-15-6-Gaming-Laptop-i7-7700HQ-8GB-1TB-GTX-1050/694694894'
p7
sS'price'
p8
V$933.26
p9
sS'properties'
p10
(dp11
VRAM Memory
p12
V0 GB
p13
sVOperating System
p14
VMicrosoft Windows, Windows 10
p15
sVFeatures
p16
V1TB 15.6IN GTX1050
p17
sVBrand
p18
VMSI
p19
sVProcessor Speed
p20
V0 GHz
p21
sVHard Drive Capacity
p22
V1 TB
p23
sVBattery Life
p24
V0 h
p25
sVAssembled Product Dimensions (L x W x H)
p26
V22.00 x 4.00 x 14.00 Inches
p27
sVModel
p28
VGL62MX2070
p29
sVScreen Size
p30
V15.6"
p31
sVProcessor Type
p32
VIntel Core i7
p33
sVCondition
p34
VNew
p35
sVmanufacturer_part_number
p36
Vgl62m 7rdx-2070
p37
ssS'title'
p38
VMSI GL62M 7RDX-2070 15.6" Gaming Laptop i7-7700HQ 8GB 1TB GTX 1050
p39
sb.