ccopy_reg
_reconstructor
p0
(c__main__
ProductRecord
p1
c__builtin__
object
p2
Ntp3
Rp4
(dp5
S'product_url'
p6
S'http://www.walmart.com/ip/Refurbished-HP-6200-TWR-Desktop-PC-with-Intel-Core-i5-2400-Processor-4GB-Memory-2TB-Hard-Drive-and-Windows-10-Home-Monitor-Not-Included/55648465'
p7
sS'price'
p8
V$231.29
p9
sS'properties'
p10
(dp11
VRAM Memory
p12
V4 GB
p13
sVOperating System
p14
VWindows 10
p15
sVFeatures
p16
VROHS Compliant
p17
sVVideo Game Platform
p18
VPC
p19
sVBrand
p20
VHP
p21
sVProcessor Speed
p22
V3.10 GHz
p23
sVManufacturer Part Number
p24
V62805557446
p25
sVMaximum RAM Supported
p26
V16 GB
p27
sVHard Drive Capacity
p28
V2 TB
p29
sVAssembled Product Dimensions (L x W x H)
p30
V14.90 x 7.00 x 17.00 Inches
p31
sVModel
p32
VHP 6200
p33
sVProcessor Type
p34
VIntel Core i5-2400 Processor
p35
sVCondition
p36
VRefurbished
p37
ssS'title'
p38
VRefurbished HP 6200 TWR Desktop PC with Intel Core i5-2400 Processor, 4GB Memory, 2TB Hard Drive and Windows 10 Home (Monitor Not Included)
p39
sb.