ccopy_reg
_reconstructor
p0
(c__main__
ProductRecord
p1
c__builtin__
object
p2
Ntp3
Rp4
(dp5
S'product_url'
p6
S'http://www.walmart.com/ip/MSI-WE72-7RJ-1083US-17-3-Workstation-Laptop-i7-7700HQ-16GB-256GB-SSD-M2200-W10P/463804333'
p7
sS'price'
p8
V$1,608.77
p9
sS'properties'
p10
(dp11
VRAM Memory
p12
V16 Gigabytes
p13
sVOperating System
p14
VWindows 10
p15
sVBrand
p16
VMSI
p17
sVProcessor Speed
p18
V2.8 Gigahertz
p19
sVManufacturer Part Number
p20
VWE721083
p21
sVHard Drive Capacity
p22
V256 Gigabytes
p23
sVAssembled Product Dimensions (L x W x H)
p24
V23.00 x 15.00 x 4.00 Inches
p25
sVModel
p26
VWE721083
p27
sVScreen Size
p28
V17.30 Inches
p29
sVProcessor Type
p30
VIntel i7-7700HQ
p31
ssS'title'
p32
VMSI WE72 7RJ-1083US 17.3" Workstation Laptop i7-7700HQ 16GB 256GB SSD M2200 W10P
p33
sb.