ccopy_reg
_reconstructor
p0
(c__main__
ProductRecord
p1
c__builtin__
object
p2
Ntp3
Rp4
(dp5
S'product_url'
p6
S'http://www.walmart.com/ip/Refurbished-Direkt-Tek-DTLAPY116-1-SL-11-6-4GB-32GB-HB-Convertible-Touchscreen-Laptop-Windows-10-Silver/774263239'
p7
sS'price'
p8
S'N/A'
p9
sS'properties'
p10
(dp11
VOperating System
p12
VMicrosoft Windows
p13
sVFeatures
p14
VNo features description available
p15
sVBrand
p16
VDirekt-Tek
p17
sVManufacturer Part Number
p18
VDTLAPY116-1-SL
p19
sVHard Drive Capacity
p20
V32 GB
p21
sVAssembled Product Dimensions (L x W x H)
p22
V14.06 x 2.64 x 9.29 Inches
p23
sVModel
p24
VVIPRB-DTLAPY116-1-SL
p25
sVScreen Size
p26
V11.6\u005c"
p27
sVCondition
p28
VRefurbished
p29
ssS'title'
p30
VRefurbished Direkt-Tek DTLAPY116-1-SL 11.6" 4GB 32GB HB Convertible Touchscreen Laptop Windows 10, Silver
p31
sb.