ccopy_reg
_reconstructor
p0
(c__main__
ProductRecord
p1
c__builtin__
object
p2
Ntp3
Rp4
(dp5
S'product_url'
p6
S'http://www.walmart.com/ip/MSI-GP72X-LEOPARD-PRO-1213-17-3-Gaming-Laptop-i7-7700HQ-16GB-256-1TB-GTX1050ti/749652502'
p7
sS'price'
p8
V$1,482.07
p9
sS'properties'
p10
(dp11
VRAM Memory
p12
V16 Gigabytes
p13
sVOperating System
p14
VWindows 10
p15
sVFeatures
p16
VI7-7700HQ 16GB 256GB SSD 17.3IN 1T
p17
sVBrand
p18
VMSI
p19
sVProcessor Speed
p20
V2.8 Gigahertz
p21
sVManufacturer Part Number
p22
VGP72MX1213
p23
sVHard Drive Capacity
p24
V1 Terabytes
p25
sVModel
p26
VGP72MX1213
p27
sVScreen Size
p28
V17.30 Inches
p29
sVProcessor Type
p30
VIntel i7-7700HQ
p31
sVCondition
p32
VNew
p33
ssS'title'
p34
VMSI GP72X LEOPARD PRO-1213 17.3" Gaming Laptop i7-7700HQ 16GB 256+1TB GTX1050ti
p35
sb.