ccopy_reg
_reconstructor
p0
(c__main__
ProductRecord
p1
c__builtin__
object
p2
Ntp3
Rp4
(dp5
S'product_url'
p6
S'http://www.walmart.com/ip/Manufacturer-Refurbished-Acer-17-3-Intel-Core-i7-2-6-GHz-16-GB-Ram-1TB-HDD-256-GB-SSD-Windows-10-Home-VN7-792G-719E/431415835'
p7
sS'price'
p8
V$1,027.94
p9
sS'properties'
p10
(dp11
VRAM Memory
p12
V16.00 GB
p13
sVOperating System
p14
VWindows 10
p15
sVBrand
p16
VAcer
p17
sVProcessor Speed
p18
V2.60 GHz
p19
sVManufacturer Part Number
p20
VNH.GCMAA.001
p21
sVHard Drive Capacity
p22
V1.00 TB
p23
sVBattery Life
p24
V7.00 h
p25
sVModel
p26
VVN7-792G-719E
p27
sVScreen Size
p28
V17.30 in
p29
sVProcessor Type
p30
VIntel Core i7-6700HQ
p31
ssS'title'
p32
VManufacturer Refurbished Acer 17.3" Intel Core i7 2.6 GHz 16 GB Ram 1TB HDD + 256 GB SSD Windows 10 Home|VN7-792G-719E
p33
sb.