ccopy_reg
_reconstructor
p0
(c__main__
ProductRecord
p1
c__builtin__
object
p2
Ntp3
Rp4
(dp5
S'product_url'
p6
S'http://www.walmart.com/ip/Lenovo-Thinkpad-X240-TOUCH-HD-12-5-Intel-Core-i5-4300U-1-9GHz-2-9GHz-8GB-Memory-256GB-SSD-Webcam-Backlit-Keyboard-Bluetooth-Windows-10-Professional-T/354403688'
p7
sS'price'
p8
V$379.99
p9
sS'properties'
p10
(dp11
sS'title'
p12
VLenovo Thinkpad X240 TOUCH HD 12.5" Intel Core i5 4300U (1.9GHz-2.9GHz) 8GB Memory 256GB SSD Webcam Backlit Keyboard Bluetooth Windows 10 Professional Touchscreen Laptop (Refurbished)
p13
sb.