ccopy_reg
_reconstructor
p0
(c__main__
ProductRecord
p1
c__builtin__
object
p2
Ntp3
Rp4
(dp5
S'product_url'
p6
S'http://www.walmart.com/ip/Refurbished-Dell-745-USFF-Desktop-PC-with-Intel-Core-2-Duo-Processor-4GB-Memory-80GB-Hard-Drive-and-Windows-10-Home-Monitor-Not-Included/55098992'
p7
sS'price'
p8
V$88.00
p9
sS'properties'
p10
(dp11
VRAM Memory
p12
V4 GB
p13
sVOperating System
p14
VWindows 10
p15
sVColor Category
p16
VGray
p17
sVVideo Game Platform
p18
VPC
p19
sVBrand
p20
VDell
p21
sVManufacturer Part Number
p22
V62805557215
p23
sVHard Drive Capacity
p24
V80 GB
p25
sVLaptop Computer Type
p26
VPC Laptops
p27
sVProcessor Type
p28
VIntel C2D E6550 Processor
p29
sVModel
p30
VDell 745
p31
sVManufacturer
p32
VDell
p33
ssS'title'
p34
VRefurbished Dell 745 USFF Desktop PC with Intel Core 2 Duo Processor, 4GB Memory, 80GB Hard Drive and Windows 10 Home (Monitor Not Included)
p35
sb.