ccopy_reg
_reconstructor
p0
(c__main__
ProductRecord
p1
c__builtin__
object
p2
Ntp3
Rp4
(dp5
S'product_url'
p6
S'http://www.walmart.com/ip/Refurbished-Acer-17-3-Intel-Core-i7-2-8-GHz-16-GB-Ram-1-TB-HDD-256-GB-SSD-Windows-10-Home/878965337'
p7
sS'price'
p8
V$1,154.99
p9
sS'properties'
p10
(dp11
VRAM Memory
p12
V16 GB
p13
sVOperating System
p14
VWindows 10
p15
sVBrand
p16
VAcer
p17
sVManufacturer Part Number
p18
VNH.Q26AA.002
p19
sVModel
p20
VVN7-793G-709A
p21
sVScreen Size
p22
V17.3 in
p23
sVProcessor Speed
p24
V2.80 GHz
p25
sVCondition
p26
VNew
p27
ssS'title'
p28
VRefurbished Acer 17.3" Intel Core i7 2.8 GHz 16 GB Ram 1 TB HDD + 256 GB SSD Windows 10 Home
p29
sb.