ccopy_reg
_reconstructor
p0
(c__main__
ProductRecord
p1
c__builtin__
object
p2
Ntp3
Rp4
(dp5
S'product_url'
p6
S'http://www.walmart.com/ip/BITT-CORE-10-1-Touchscreen-Hybrid-Netbook-w-Intel-Atom-x5-4GB-RAM-32GB-SSD/119694553'
p7
sS'price'
p8
S'N/A'
p9
sS'properties'
p10
(dp11
VRAM Memory
p12
V4 GB
p13
sVOperating System
p14
VMicrosoft Windows
p15
sVColor Category
p16
VBlack
p17
sVLaptop Computer Type
p18
VTouchscreen
p19
sVBrand
p20
VBIT
p21
sVHard Drive Capacity
p22
V32
p23
sVProcessor Core Type
p24
VQuad-core (4 Core)
p25
sVProcessor Type
p26
VAtom x5
p27
sVmanufacturer_part_number
p28
Vcore+
p29
sVScreen Size
p30
V10.1 Inches
p31
sVModel
p32
VW1004APB
p33
sVCondition
p34
VNew
p35
sVManufacturer
p36
VBIT Technology Inc
p37
ssS'title'
p38
VBITT CORE+ 10.1" Touchscreen Hybrid Netbook w/ Intel Atom x5, 4GB RAM & 32GB SSD
p39
sb.