ccopy_reg
_reconstructor
p0
(c__main__
ProductRecord
p1
c__builtin__
object
p2
Ntp3
Rp4
(dp5
S'product_url'
p6
S'http://www.walmart.com/ip/REFURBISHED-Dell-Latitude-E6420-2-5GHz-i5-4GB-320GB-CMB-Windows-10-Pro-64-Laptop-Computer/185725724'
p7
sS'price'
p8
V$251.99
p9
sS'properties'
p10
(dp11
VRAM Memory
p12
V4 Gigabytes
p13
sVOperating System
p14
VWindows 10
p15
sVColor Category
p16
VBlack
p17
sVLaptop Computer Type
p18
VPC Laptops
p19
sVBrand
p20
VDell
p21
sVManufacturer Part Number
p22
V9SIA9UW3RE2774
p23
sVHard Drive Capacity
p24
V320 Gibibytes
p25
sVProcessor Type
p26
VIntel Core i5
p27
sVScreen Size
p28
V14 Inches
p29
sVModel
p30
VLatitude E6420
p31
sVManufacturer
p32
VDell
p33
ssS'title'
p34
VREFURBISHED Dell Latitude E6420 2.5GHz i5 4GB 320GB CMB Windows 10 Pro 64 Laptop Computer
p35
sb.