ccopy_reg
_reconstructor
p0
(c__main__
ProductRecord
p1
c__builtin__
object
p2
Ntp3
Rp4
(dp5
S'product_url'
p6
S'http://www.walmart.com/ip/Lenovo-320S-15IKB-15-6-Core-i7-7500U-8-GB-RAM-1-TB-HDD/969362052'
p7
sS'price'
p8
V$699.99
p9
sS'properties'
p10
(dp11
VRAM Memory
p12
V8.00 GB
p13
sVOperating System
p14
VWindows 10
p15
sVBrand
p16
VLenovo
p17
sVProcessor Speed
p18
V2.70 GHz
p19
sVManufacturer Part Number
p20
V80X50002US
p21
sVMaximum RAM Supported
p22
V16.00 GB
p23
sVHard Drive Capacity
p24
V1.00 TB
p25
sVBattery Life
p26
V9.00 h
p27
sVModel
p28
V80X50002US
p29
sVScreen Size
p30
V15.60 in
p31
sVProcessor Type
p32
VIntel Core i7
p33
sVCondition
p34
VNew
p35
ssS'title'
p36
VLenovo 320S-15IKB - 15.6" - Core i7 7500U - 8 GB RAM - 1 TB HDD
p37
sb.