ccopy_reg
_reconstructor
p0
(c__main__
ProductRecord
p1
c__builtin__
object
p2
Ntp3
Rp4
(dp5
S'product_url'
p6
S'http://www.walmart.com/ip/Lenovo-MIIX-720-Gold-12-Touchscreen-2-in-1-Laptop-i7-7500U-8GB-256GB-SSD-Win10/973255677'
p7
sS'price'
p8
V$1,147.19
p9
sS'properties'
p10
(dp11
VRAM Memory
p12
V8 Gigabytes
p13
sVOperating System
p14
VWindows 10
p15
sVBrand
p16
VLenovo
p17
sVProcessor Speed
p18
V2.7 Gigahertz
p19
sVManufacturer Part Number
p20
V80VV00C7US
p21
sVHard Drive Capacity
p22
V256 Gigabytes
p23
sVBattery Life
p24
V0 h
p25
sVModel
p26
V80VV00C7US
p27
sVScreen Size
p28
V12.00 Inches
p29
sVProcessor Type
p30
VIntel i7-7500U
p31
sVCondition
p32
VNew
p33
ssS'title'
p34
VLenovo MIIX 720 Gold 12" Touchscreen 2-in-1 Laptop i7-7500U 8GB 256GB SSD Win10
p35
sb.