ccopy_reg
_reconstructor
p0
(c__main__
ProductRecord
p1
c__builtin__
object
p2
Ntp3
Rp4
(dp5
S'product_url'
p6
S'http://www.walmart.com/ip/Refurbished-DELL-E5440-14-Laptop-Windows-10-Pro-Intel-Core-i5-4300U-Processor-4GB-RAM-128GB-Solid-State-Drive/56150769'
p7
sS'price'
p8
V$280.00
p9
sS'properties'
p10
(dp11
VRAM Memory
p12
V4 GB
p13
sVOperating System
p14
VWindows 10
p15
sVVideo Game Platform
p16
VPC
p17
sVBrand
p18
VLatitude
p19
sVProcessor Speed
p20
V1.90 GHz
p21
sVMaximum RAM Supported
p22
V16 GB
p23
sVHard Drive Capacity
p24
V128 GB
p25
sVBattery Life
p26
V1 hour
p27
sVAssembled Product Dimensions (L x W x H)
p28
V13.30 x 1.30 x 9.30 Inches
p29
sVModel
p30
VE5440
p31
sVScreen Size
p32
V14.0"
p33
sVProcessor Type
p34
VIntel Core i5
p35
sVmanufacturer_part_number
p36
Ve5440
p37
ssS'title'
p38
VRefurbished DELL E5440 14" Laptop, Windows 10 Pro, Intel Core i5-4300U Processor, 4GB RAM, 128GB Solid State Drive
p39
sb.