ccopy_reg
_reconstructor
p0
(c__main__
ProductRecord
p1
c__builtin__
object
p2
Ntp3
Rp4
(dp5
S'product_url'
p6
S'http://www.walmart.com/ip/Refurbished-Dell-Latitude-E6330-13-3-Laptop-Windows-10-Home-Intel-Core-i5-3320M-Processor-4GB-RAM-128GB-Solid-State-Drive/55727699'
p7
sS'price'
p8
V$220.50
p9
sS'properties'
p10
(dp11
VRAM Memory
p12
V4 GB
p13
sVOperating System
p14
VWindows 10
p15
sVVideo Game Platform
p16
VPC
p17
sVBrand
p18
VLatitude
p19
sVProcessor Speed
p20
V2.60 GHz
p21
sVManufacturer Part Number
p22
VWA5-30460
p23
sVMaximum RAM Supported
p24
V16 GB
p25
sVHard Drive Capacity
p26
V128 GB
p27
sVBattery Life
p28
V1 hour
p29
sVAssembled Product Dimensions (L x W x H)
p30
V13.20 x 1.20 x 8.80 Inches
p31
sVModel
p32
VE6330
p33
sVScreen Size
p34
V13.3"
p35
sVProcessor Type
p36
VIntel Core i5
p37
ssS'title'
p38
VRefurbished Dell Latitude E6330 13.3" Laptop, Windows 10 Home, Intel Core i5-3320M Processor, 4GB RAM, 128GB Solid State Drive
p39
sb.