ccopy_reg
_reconstructor
p0
(c__main__
ProductRecord
p1
c__builtin__
object
p2
Ntp3
Rp4
(dp5
S'product_url'
p6
S'http://www.walmart.com/ip/Refurbished-Toshiba-Satellite-C55-C5390-15-6-Intel-4GB-RAM-1TB-HDD-Windows-10-HD-Laptop/898906219'
p7
sS'price'
p8
V$450.00
p9
sS'properties'
p10
(dp11
VRAM Memory
p12
V4 GB
p13
sVOperating System
p14
VWindows 10
p15
sVBrand
p16
VToshiba
p17
sVProcessor Speed
p18
V1.6GHz
p19
sVManufacturer Part Number
p20
VC55-C5390-RBSR
p21
sVHard Drive Capacity
p22
V1 TB
p23
sVModel
p24
VC55-C5390-RBSR
p25
sVScreen Size
p26
V15.6"
p27
sVProcessor Type
p28
VIntel Pentium N3700
p29
ssS'title'
p30
VRefurbished- Toshiba Satellite C55-C5390 15.6 Intel - 4GB RAM - 1TB HDD Windows 10 HD Laptop
p31
sb.