ccopy_reg
_reconstructor
p0
(c__main__
ProductRecord
p1
c__builtin__
object
p2
Ntp3
Rp4
(dp5
S'product_url'
p6
S'http://www.walmart.com/ip/DELL-Refurbished-LATITUDE-E7240-ULTRABOOK-I5-4300U-1-9-GHZ-8GB-SSD-256GB-12-5W-WIN-10-PRO-BLUETOOTH-WEBCAM/844001791'
p7
sS'price'
p8
V$380.00
p9
sS'properties'
p10
(dp11
VRAM Memory
p12
V8 GB
p13
sVOperating System
p14
VWindows 10
p15
sVBrand
p16
VDell
p17
sVProcessor Speed
p18
V1.9 GHz
p19
sVManufacturer Part Number
p20
VNB-DL-LATITUDE_E7240-NB-i5-1.9-8-256SSD-NA-Y-10P-A
p21
sVHard Drive Capacity
p22
V256 GB
p23
sVModel
p24
VGL752VW-IH74
p25
sVScreen Size
p26
V12.5 in
p27
sVProcessor Type
p28
VIntel Core i5
p29
ssS'title'
p30
VDELL Refurbished LATITUDE E7240, ULTRABOOK, I5 4300U, 1.9 GHZ,  8GB, SSD 256GB, 12.5W,  WIN 10 PRO , BLUETOOTH, WEBCAM
p31
sb.