ccopy_reg
_reconstructor
p0
(c__main__
ProductRecord
p1
c__builtin__
object
p2
Ntp3
Rp4
(dp5
S'product_url'
p6
S'http://www.walmart.com/ip/Manufactured-Refurbished-Acer-Predator-AG3-710-UW11-Intel-Core-i5-6400-Quad-Core-2-70-GHz-8GB-Ram-1TB-HDD-128GB-SSD-Windows-10-Home/479660893'
p7
sS'price'
p8
V$757.04
p9
sS'properties'
p10
(dp11
VRAM Memory
p12
V8 GB
p13
sVOperating System
p14
VWindows 10
p15
sVBrand
p16
VAcer
p17
sVProcessor Speed
p18
V2.7 GHz
p19
sVManufacturer Part Number
p20
VDG.B14AA.011
p21
sVHard Drive Capacity
p22
V1000 GB
p23
sVAssembled Product Dimensions (L x W x H)
p24
V23.00 x 20.00 x 10.00 Inches
p25
sVModel
p26
VAG3-710-UW11
p27
sVScreen Size
p28
V0 in
p29
sVProcessor Type
p30
VIntel Core i5
p31
ssS'title'
p32
VManufactured Refurbished Acer Predator AG3-710-UW11 Intel Core i5-6400 Quad-Core 2.70 GHz 8GB Ram 1TB HDD + 128GB SSD Windows 10 Home
p33
sb.