ccopy_reg
_reconstructor
p0
(c__main__
ProductRecord
p1
c__builtin__
object
p2
Ntp3
Rp4
(dp5
S'product_url'
p6
S'http://www.walmart.com/ip/Refurbished-Lenovo-ThinkPad-X230-i7-2-9GHz-4GB-256SSD-Windows-10-Pro-64-Laptop-CAM/636953363'
p7
sS'price'
p8
V$224.99
p9
sS'properties'
p10
(dp11
VRAM Memory
p12
V8.00 GB
p13
sVOperating System
p14
VWindows 10
p15
sVBrand
p16
VDell
p17
sVProcessor Speed
p18
V2.60 GHz
p19
sVManufacturer Part Number
p20
V14-DL-E6320-31
p21
sVMaximum RAM Supported
p22
V8.00 GB
p23
sVHard Drive Capacity
p24
V320.00 GB
p25
sVModel
p26
V14-DL-E6320-31
p27
sVScreen Size
p28
V13.30 in
p29
sVProcessor Type
p30
VIntel Core i5
p31
ssS'title'
p32
VDell Latitude E6320 13.3" Standard Refurbished Laptop - Intel Core i5 2540M 2nd Gen 2.6 GHz 8GB SODIMM DDR3 SATA 2.5" 320GB HDD Windows 10 Pro 64-Bit
p33
sb.