ccopy_reg
_reconstructor
p0
(c__main__
ProductRecord
p1
c__builtin__
object
p2
Ntp3
Rp4
(dp5
S'product_url'
p6
S'http://www.walmart.com/ip/Refurbished-Acer-15-6-AMD-A9-Dual-Core-2-9GHz-8-GB-Ram-1-TB-HDD-Windows-10-Home-E5-523-99MC/677340831'
p7
sS'price'
p8
V$346.49
p9
sS'properties'
p10
(dp11
VRAM Memory
p12
V8 GB
p13
sVOperating System
p14
VWindows 10
p15
sVBrand
p16
VAcer
p17
sVManufacturer Part Number
p18
VNX.GMUAA.003
p19
sVModel
p20
VE5-523-99MC
p21
sVScreen Size
p22
V15.6 in
p23
sVProcessor Speed
p24
V2.90 GHz
p25
sVCondition
p26
VNew
p27
ssS'title'
p28
VRefurbished Acer 15.6" AMD A9 Dual-Core 2.9GHz 8 GB Ram 1 TB HDD Windows 10 Home|E5-523-99MC
p29
sb.