ccopy_reg
_reconstructor
p0
(c__main__
ProductRecord
p1
c__builtin__
object
p2
Ntp3
Rp4
(dp5
S'product_url'
p6
S'http://www.walmart.com/ip/Refurbished-Acer-15-6-Intel-Core-i5-2-5GHz-8GB-Ram-256-GB-SSD-Windows-10-Home/595914751'
p7
sS'price'
p8
V$540.74
p9
sS'properties'
p10
(dp11
VRAM Memory
p12
V8 GB
p13
sVOperating System
p14
VWindows 10
p15
sVBrand
p16
VAcer
p17
sVManufacturer Part Number
p18
VNX.GK9AA.013
p19
sVModel
p20
VSP315-51-51L2
p21
sVScreen Size
p22
V15.6 in
p23
sVProcessor Speed
p24
V2.50 GHz
p25
sVCondition
p26
VNew
p27
ssS'title'
p28
VRefurbished Acer 15.6" Intel Core i5 2.5GHz 8GB Ram 256 GB SSD Windows 10 Home
p29
sb.