ccopy_reg
_reconstructor
p0
(c__main__
ProductRecord
p1
c__builtin__
object
p2
Ntp3
Rp4
(dp5
S'product_url'
p6
S'http://www.walmart.com/ip/HP-Notebook-15-bw061nr-LCD-Notebook/785873821'
p7
sS'price'
p8
V$372.05
p9
sS'properties'
p10
(dp11
VRAM Memory
p12
V4 GB
p13
sVOperating System
p14
VMicrosoft Windows, Windows 10
p15
sVBrand
p16
VHP
p17
sVProcessor Speed
p18
V2 GHz
p19
sVManufacturer Part Number
p20
V1VK32UA#ABA
p21
sVHard Drive Capacity
p22
V1 TB
p23
sVModel
p24
V1VK32UA#ABA
p25
sVScreen Size
p26
V15.6"
p27
sVProcessor Type
p28
VAMD E-Series
p29
sVCondition
p30
VNew
p31
ssS'title'
p32
V"HP Notebook - 15-bw061nr LCD Notebook"
p33
sb.