ccopy_reg
_reconstructor
p0
(c__main__
ProductRecord
p1
c__builtin__
object
p2
Ntp3
Rp4
(dp5
S'product_url'
p6
S'http://www.walmart.com/ip/Refurbished-Aspire-Switch-10E-10-1-Intel-Atom-x5-1-4GHz-2GB-Ram-64GB-Flash-Win-10-Home/844759705'
p7
sS'price'
p8
V$216.29
p9
sS'properties'
p10
(dp11
VRAM Memory
p12
V2 GB
p13
sVOperating System
p14
VWindows 10
p15
sVBrand
p16
VAcer
p17
sVManufacturer Part Number
p18
VNT.G90AA.001
p19
sVModel
p20
VSW3-016-18Y6
p21
sVScreen Size
p22
V10.1 in
p23
sVProcessor Speed
p24
V2.50 GHz
p25
sVCondition
p26
VNew
p27
ssS'title'
p28
VRefurbished Aspire Switch 10E 10.1" Intel Atom x5 1.4GHz 2GB Ram 64GB Flash  Win 10 Home
p29
sb.