ccopy_reg
_reconstructor
p0
(c__main__
ProductRecord
p1
c__builtin__
object
p2
Ntp3
Rp4
(dp5
S'product_url'
p6
S'http://www.walmart.com/ip/Visual-Land-10-1-IPS-Intel-Quad-Core-2-in-1-Tablet-16GB-includes-Docking-Keyboard-Case/47491298'
p7
sS'price'
p8
S'N/A'
p9
sS'properties'
p10
(dp11
VRAM Memory
p12
V1 KB
p13
sVOperating System
p14
VAndroid
p15
sVColor Category
p16
VBlack
p17
sVVideo Game Platform
p18
VAndroid
p19
sVBrand
p20
VVisual Land
p21
sVManufacturer Part Number
p22
VME10QI16KCBLK
p23
sVWireless Technology
p24
VBluetooth
p25
sVHard Drive Capacity
p26
V16 KB
p27
sVLaptop Computer Type
p28
V2-in-1s
p29
sVProcessor Core Type
p30
VQuad-core (4 Core)
p31
sVProcessor Type
p32
VIntel AtomX3 Quad-Core Processor
p33
sVModel
p34
VME10QI16KCBLK
p35
sVManufacturer
p36
VVisual Land
p37
ssS'title'
p38
VVisual Land 10.1" IPS Intel Quad Core [2-in-1] Tablet 16GB includes Docking Keyboard Case
p39
sb.