ccopy_reg
_reconstructor
p0
(c__main__
ProductRecord
p1
c__builtin__
object
p2
Ntp3
Rp4
(dp5
S'product_url'
p6
S'http://www.walmart.com/ip/Fusion5-13-3-Convertible-360-T80-Windows-Laptop-Full-HD-Multi-Touch-Screen-360-Convertible-4GB-RAM-64GB-Storage-Windows-10-WIFI-Bluetooth-Intel-quadc/280431791'
p7
sS'price'
p8
S'N/A'
p9
sS'properties'
p10
(dp11
VRAM Memory
p12
V4.00 GB
p13
sVOperating System
p14
VMicrosoft Windows
p15
sVBrand
p16
VFusion5
p17
sVHard Drive Capacity
p18
V64.00 GB
p19
sVProcessor Type
p20
VIntel Atom
p21
sVScreen Size
p22
V13.30 in
p23
sVProcessor Speed
p24
V1.92 GHz
p25
ssS'title'
p26
VFusion5 13.3" Convertible 360\uc9f8 T80 Windows Laptop - (Full HD, Multi Touch Screen, 360\uc9f8 Convertible, 4GB RAM, 64GB Storage, Windows 10, WIFI, Bluetooth, Intel quadcore, IPS Display)
p27
sb.