ccopy_reg
_reconstructor
p0
(c__main__
ProductRecord
p1
c__builtin__
object
p2
Ntp3
Rp4
(dp5
S'product_url'
p6
S'http://www.walmart.com/ip/Manufacturer-Refurbished-ASUSPRO-P2540UA-XS51-15-6-Laptop-Intel-Core-i5-7200U-2-50GHz-8GB-256GB-SSD-W10/202922322'
p7
sS'price'
p8
V$464.99
p9
sS'properties'
p10
(dp11
VHard Drive Capacity
p12
V256 GB
p13
sVBrand
p14
VASUS
p15
sVScreen Size
p16
V15.6\u005c"
p17
sVModel
p18
VP2540UA-XS51-RF
p19
sVManufacturer Part Number
p20
VP2540UA-XS51-RF
p21
ssS'title'
p22
VManufacturer Refurbished - ASUSPRO P2540UA-XS51 15.6" Laptop Intel Core i5-7200U 2.50GHz 8GB 256GB SSD W10
p23
sb.