ccopy_reg
_reconstructor
p0
(c__main__
ProductRecord
p1
c__builtin__
object
p2
Ntp3
Rp4
(dp5
S'product_url'
p6
S'http://www.walmart.com/ip/Lenovo-ThinkPad-P50-Mobile-Workstation-Laptop-Windows-10-Pro-Intel-i7-6700HQ-64GB-RAM-500GB-HDD-15-6-FHD-IPS-1920x1080-Display-NVIDIA-Quadro-M1000M-F/683367633'
p7
sS'price'
p8
V$2,099.14
p9
sS'properties'
p10
(dp11
VBrand
p12
VLenovo
p13
ssS'title'
p14
VLenovo ThinkPad P50 Mobile Workstation Laptop - Windows 10 Pro - Intel i7-6700HQ, 64GB RAM, 500GB HDD, 15.6" FHD IPS (1920x1080) Display, NVIDIA Quadro M1000M, Fingerprint Reader, AC Wi-Fi
p15
sb.