ccopy_reg
_reconstructor
p0
(c__main__
ProductRecord
p1
c__builtin__
object
p2
Ntp3
Rp4
(dp5
S'product_url'
p6
S'http://www.walmart.com/ip/HP-255-G6-15-6-E2-9000e-4-GB-RAM-500-GB-HDD-US/622234177'
p7
sS'price'
p8
V$356.66
p9
sS'properties'
p10
(dp11
VRAM Memory
p12
V4 GB
p13
sVOperating System
p14
VMicrosoft Windows, Windows 10
p15
sVFeatures
p16
V500GB DVDRW 15.6IN BT W10H 64BIT
p17
sVVideo Game Platform
p18
VSee Description
p19
sVBrand
p20
VHP
p21
sVProcessor Speed
p22
V0 Gigahertz
p23
sVManufacturer Part Number
p24
V1LB15UT#ABA
p25
sVHard Drive Capacity
p26
V500 GB
p27
sVAssembled Product Dimensions (L x W x H)
p28
V5.00 x 5.00 x 5.00 Inches
p29
sVModel
p30
V1LB15UT#ABA
p31
sVScreen Size
p32
V15.6"
p33
sVProcessor Type
p34
VE2
p35
sVCondition
p36
VNew
p37
ssS'title'
p38
VHP 255 G6 - 15.6" - E2 9000e - 4 GB RAM - 500 GB HDD - US
p39
sb.