ccopy_reg
_reconstructor
p0
(c__main__
ProductRecord
p1
c__builtin__
object
p2
Ntp3
Rp4
(dp5
S'product_url'
p6
S'http://www.walmart.com/ip/Refurbished-Lenovo-ThinkPad-X240-2-1GHz-i7-8GB-240SSD-Windows-10-Pro-64-12-Laptop-Camera/169870397'
p7
sS'price'
p8
V$345.75
p9
sS'properties'
p10
(dp11
VBrand
p12
VLenovo
p13
sVModel
p14
VThinkPad X240
p15
ssS'title'
p16
VRefurbished Lenovo ThinkPad X240 2.1GHz i7 8GB 240SSD Windows 10 Pro 64 12" Laptop Camera
p17
sb.