ccopy_reg
_reconstructor
p0
(c__main__
ProductRecord
p1
c__builtin__
object
p2
Ntp3
Rp4
(dp5
S'product_url'
p6
S'http://www.walmart.com/ip/Refurbished-Dell-Latitude-3330-1-8GHz-DC-i3-4GB-320GB-Windows-10-Pro-64-Laptop-B-Camera/892153609'
p7
sS'price'
p8
V$80.75
p9
sS'properties'
p10
(dp11
VBrand
p12
VDell
p13
sVModel
p14
VLatitude 3330
p15
ssS'title'
p16
VRefurbished Dell Latitude 3330 1.8GHz DC i3 4GB 320GB Windows 10 Pro 64 Laptop B Camera
p17
sb.