ccopy_reg
_reconstructor
p0
(c__main__
ProductRecord
p1
c__builtin__
object
p2
Ntp3
Rp4
(dp5
S'product_url'
p6
S'http://www.walmart.com/ip/HP-Pro-x2-410-G1-11-6-Ultrabook-2-in-1-Core-i3-G1Q87UT/38672382'
p7
sS'price'
p8
V$549.99
p9
sS'properties'
p10
(dp11
VRAM Memory
p12
V4 GB
p13
sVOperating System
p14
VMicrosoft Windows
p15
sVBrand
p16
VHP
p17
sVProcessor Speed
p18
V1.50 GHz
p19
sVBattery Life
p20
V8.75 Hour
p21
sVModel
p22
VHD Graphics 4200, 410 G1
p23
sVScreen Size
p24
V11.6"
p25
sVProcessor Type
p26
VIntel Core i3
p27
sVCondition
p28
VNew
p29
sVmanufacturer_part_number
p30
VG1Q87UT # ABA
p31
ssS'title'
p32
VHP Pro x2 410 G1 11.6" Ultrabook 2-in-1 Core i3, G1Q87UT
p33
sb.