ccopy_reg
_reconstructor
p0
(c__main__
ProductRecord
p1
c__builtin__
object
p2
Ntp3
Rp4
(dp5
S'product_url'
p6
S'http://www.walmart.com/ip/Lenovo-ThinkPad-P51s-20HB001HUS-15-6-LCD-Mobile-Workstation-Ultrabook-Intel-Core-i5-7th-Gen-i5-7300U-Dual-core-2-Core-2-60-GHz-4-GB-DDR4-SDRAM-500-GB/116649962'
p7
sS'price'
p8
V$1,345.68
p9
sS'properties'
p10
(dp11
VRAM Memory
p12
V4 GB
p13
sVOperating System
p14
VMicrosoft Windows, Windows 10 Pro (English)
p15
sVBrand
p16
VLenovo
p17
sVProcessor Speed
p18
V2.60 GHz
p19
sVManufacturer Part Number
p20
V20HB001HUS
p21
sVHard Drive Capacity
p22
V500 GB
p23
sVModel
p24
V20HB001HUS
p25
sVScreen Size
p26
V15.6"
p27
sVProcessor Type
p28
VIntel Core i5
p29
sVCondition
p30
VNew
p31
ssS'title'
p32
VLenovo ThinkPad P51s 20HB001HUS 15.6" LCD Mobile Workstation Ultrabook - Intel Core i5 [7th Gen] i5-7300U Dual-core [2 Core] 2.60 GHz - 4 GB DDR4 SDRAM - 500 GB HDD - Windows 10 Pro 64-bit [English] -
p33
sb.