ccopy_reg
_reconstructor
p0
(c__main__
ProductRecord
p1
c__builtin__
object
p2
Ntp3
Rp4
(dp5
S'product_url'
p6
S'http://www.walmart.com/ip/Refurbished-Toshiba-Satellite-U945-S4110-14-Inch-Ultrabook-i3-3227U-4GB-500GB-Ice-Blue/141450111'
p7
sS'price'
p8
V$279.00
p9
sS'properties'
p10
(dp11
VRAM Memory
p12
V4 GB
p13
sVOperating System
p14
VMicrosoft Windows
p15
sVLaptop Computer Type
p16
VUltrabooks
p17
sVBrand
p18
VToshiba
p19
sVHard Drive Capacity
p20
V500
p21
sVScreen Size
p22
V14
p23
sVmanufacturer_part_number
p24
Vu945-s4110
p25
ssS'title'
p26
VRefurbished Toshiba Satellite U945-S4110 14-Inch Ultrabook (i3-3227U, 4GB, 500GB) Ice Blue
p27
sb.