ccopy_reg
_reconstructor
p0
(c__main__
ProductRecord
p1
c__builtin__
object
p2
Ntp3
Rp4
(dp5
S'product_url'
p6
S'http://www.walmart.com/ip/Refurbished-Dell-i5368-4071GRY-13-3-FHD-2-in-1-Laptop-Intel-Core-i5-6200U-2-3GHz-Processor-4-GB-RAM-128-GB-SDD-Windows-10-Gray/780918307'
p7
sS'price'
p8
S'N/A'
p9
sS'properties'
p10
(dp11
VBrand
p12
VDell
p13
sVAssembled Product Dimensions (L x W x H)
p14
V20.00 x 14.00 x 3.00 Inches
p15
sVManufacturer Part Number
p16
VI5368-4071GRY-PB-RC
p17
ssS'title'
p18
VRefurbished Dell i5368-4071GRY 13.3 FHD 2-in-1 Laptop (Intel Core i5-6200U 2.3GHz Processor, 4 GB RAM, 128 GB SDD, Windows 10) Gray
p19
sb.