ccopy_reg
_reconstructor
p0
(c__main__
ProductRecord
p1
c__builtin__
object
p2
Ntp3
Rp4
(dp5
S'product_url'
p6
S'http://www.walmart.com/ip/Dell-Latitude-E7440-Intel-Core-i5-4310-2-0GHz-8GB-256GB-SSD-14-W8-Silver-Certified-Refurbished/123149003'
p7
sS'price'
p8
V$399.00
p9
sS'properties'
p10
(dp11
VRAM Memory
p12
V8 Gigabytes
p13
sVOperating System
p14
VMicrosoft Windows 8Professional
p15
sVFeatures
p16
VNo Web Cam and No Microphone
p17
sVBrand
p18
VDell
p19
sVManufacturer Part Number
p20
VE7440-I5825681P-RFB
p21
sVMaximum RAM Supported
p22
V8 Gigabytes
p23
sVHard Drive Capacity
p24
V256 Gigabytes
p25
sVBattery Life
p26
V4 Hours
p27
sVAssembled Product Dimensions (L x W x H)
p28
V13.20 x 9.10 x 0.80 Inches
p29
sVProcessor Type
p30
VIntel Core i5
p31
sVScreen Size
p32
V14 Inches
p33
sVProcessor Speed
p34
V2.0 Gigahertz
p35
ssS'title'
p36
VDell Latitude E7440 Intel Core i5-4310 2.0GHz 8GB 256GB SSD 14" W8., Silver (Certified Refurbished)
p37
sb.