ccopy_reg
_reconstructor
p0
(c__main__
ProductRecord
p1
c__builtin__
object
p2
Ntp3
Rp4
(dp5
S'product_url'
p6
S'http://www.walmart.com/ip/Ultrabook-VOYO-VBook-V3-NewVersion-128GB-SSD-Intel-Core-M3-6Y30-Windows-10/993826643'
p7
sS'price'
p8
V$538.99
p9
sS'properties'
p10
(dp11
VBrand
p12
VVOYO
p13
sVHard Drive Capacity
p14
V128
p15
sVCondition
p16
VNew
p17
ssS'title'
p18
VUltrabook VOYO VBook V3 NewVersion -128GB SSD -Intel Core M3-6Y30 - Windows 10
p19
sb.