ccopy_reg
_reconstructor
p0
(c__main__
ProductRecord
p1
c__builtin__
object
p2
Ntp3
Rp4
(dp5
S'product_url'
p6
S'http://www.walmart.com/ip/Lenovo-ThinkPad-T450-20BV-Ultrabook-Core-i5-5300U-2-3-GHz-Windows-7-Pro-64-bit-Windows-8-1-Pro-64-bit-downgrad/44570677'
p7
sS'price'
p8
V$625.00
p9
sS'properties'
p10
(dp11
VRAM Memory
p12
V8 Gigabytes, 8 GB
p13
sVOperating System
p14
VWindows 7
p15
sVBrand
p16
VLenovo
p17
sVProcessor Speed
p18
V2.3, 2.3 Gigahertz
p19
sVManufacturer Part Number
p20
V20BV0009US
p21
sVMaximum RAM Supported
p22
V16, 16 Gigabytes
p23
sVHard Drive Capacity
p24
V180 Gigabytes, 180
p25
sVBattery Life
p26
V10 Hours, 10
p27
sVAssembled Product Dimensions (L x W x H)
p28
V15.00 x 11.00 x 5.00 Inches
p29
sVModel
p30
V20BV0009US
p31
sVScreen Size
p32
V14, 14.00 Inches
p33
sVProcessor Type
p34
VIntel i5-5300U, Intel Core i5
p35
sVCondition
p36
VNew
p37
ssS'title'
p38
VLenovo ThinkPad T450 20BV - Ultrabook - Core i5 5300U / 2.3 GHz - Windows 7 Pro 64-bit / Windows 8.1 Pro 64-bit downgrad
p39
sb.