ccopy_reg
_reconstructor
p0
(c__main__
ProductRecord
p1
c__builtin__
object
p2
Ntp3
Rp4
(dp5
S'product_url'
p6
S'http://www.walmart.com/ip/Lenovo-ThinkPad-X1-Carbon-14-Core-i7-6600U-16-GB-RAM-512-GB-SSD/151901135'
p7
sS'price'
p8
V$2,299.87
p9
sS'properties'
p10
(dp11
VRAM Memory
p12
V16 GB
p13
sVOperating System
p14
VWindows 7
p15
sVColor Category
p16
VMulticolor
p17
sVVideo Game Platform
p18
VPC
p19
sVBrand
p20
VLenovo
p21
sVManufacturer Part Number
p22
V20FB002LUS
p23
sVHard Drive Capacity
p24
V512 GB
p25
sVLaptop Computer Type
p26
VUltrabooks
p27
sVProcessor Core Type
p28
VDual-core (2 Core)
p29
sVProcessor Type
p30
VIntel Core i7
p31
sVScreen Size
p32
V14.0"
p33
sVModel
p34
V20FB002LUS
p35
sVCondition
p36
VNew
p37
sVManufacturer
p38
VLENOVO
p39
ssS'title'
p40
VLenovo ThinkPad X1 Carbon - 14" - Core i7 6600U - 16 GB RAM - 512 GB SSD
p41
sb.