ccopy_reg
_reconstructor
p0
(c__main__
ProductRecord
p1
c__builtin__
object
p2
Ntp3
Rp4
(dp5
S'product_url'
p6
S'http://www.walmart.com/ip/Dell-Latitude-E7440-FHD-1920x1080-Intel-Core-i5-4310U-2-0GHz-3-0GHz-8GB-Memory-160GB-SSD-Webcam-Backlit-Keyboard-Bluetooth-Windows-7-Professional-Ult/100126269'
p7
sS'price'
p8
V$429.95
p9
sS'properties'
p10
(dp11
VRAM Memory
p12
V8 GB
p13
sVOperating System
p14
VMicrosoft Windows
p15
sVColor Category
p16
VBlack
p17
sVVideo Game Platform
p18
VPC
p19
sVBrand
p20
VDell
p21
sVWireless Technology
p22
VBluetooth
p23
sVHard Drive Capacity
p24
V160 GB
p25
sVLaptop Computer Type
p26
VPC Laptops
p27
sVProcessor Type
p28
VIntel Core i5
p29
sVScreen Size
p30
V14 in
p31
sVModel
p32
VE7440-R01
p33
sVManufacturer
p34
VDell
p35
ssS'title'
p36
VDell Latitude E7440 FHD 1920x1080 Intel Core i5-4310U (2.0GHz-3.0GHz) 8GB Memory 160GB SSD Webcam Backlit Keyboard Bluetooth Windows 7 Professional Ultrabook 14" Laptop (Refurbished)
p37
sb.