ccopy_reg
_reconstructor
p0
(c__main__
ProductRecord
p1
c__builtin__
object
p2
Ntp3
Rp4
(dp5
S'product_url'
p6
S'http://www.walmart.com/ip/REFURBISHED-HP-E3Q88UP-EliteBook-Revolve-810-G1-Tablet-Convertible-Core-i5/995625934'
p7
sS'price'
p8
S'N/A'
p9
sS'properties'
p10
(dp11
VBrand
p12
VHP
p13
sVCondition
p14
VRefurbished
p15
ssS'title'
p16
VREFURBISHED - HP E3Q88UP EliteBook Revolve 810 G1 Tablet - Convertible - Core i5
p17
sb.