ccopy_reg
_reconstructor
p0
(c__main__
ProductRecord
p1
c__builtin__
object
p2
Ntp3
Rp4
(dp5
S'product_url'
p6
S'http://www.walmart.com/ip/Refurbished-Dell-Latitude-e7240-i5-4310U-2-Ghz-8GB-Ram-128GB-SSD-WIndows-10-Pro/38672221'
p7
sS'price'
p8
V$369.99
p9
sS'properties'
p10
(dp11
VRAM Memory
p12
V4 GB
p13
sVOperating System
p14
VMicrosoft Windows
p15
sVBrand
p16
VDell
p17
sVProcessor Speed
p18
V2 GHz
p19
sVManufacturer Part Number
p20
V998-BEPT
p21
sVMaximum RAM Supported
p22
V8 GB
p23
sVHard Drive Capacity
p24
V128 GB
p25
sVAssembled Product Dimensions (L x W x H)
p26
V8.30 x 12.20 x 0.80 Inches
p27
sVModel
p28
VE7240
p29
sVScreen Size
p30
V12.5"
p31
sVProcessor Type
p32
VIntel Core i5
p33
sVCondition
p34
VNew
p35
ssS'title'
p36
VRefurbished Dell Latitude e7240 i5-4310U 2 Ghz 8GB Ram 128GB SSD WIndows 10 Pro
p37
sb.