ccopy_reg
_reconstructor
p0
(c__main__
ProductRecord
p1
c__builtin__
object
p2
Ntp3
Rp4
(dp5
S'product_url'
p6
S'http://www.walmart.com/ip/Lenovo-ThinkPad-P51s-15-6-Core-i7-6500U-16-GB-RAM-512-GB-SSD/752179177'
p7
sS'price'
p8
V$1,519.90
p9
sS'properties'
p10
(dp11
VRAM Memory
p12
V16.00 GB
p13
sVOperating System
p14
VWindows 7
p15
sVBrand
p16
VLenovo
p17
sVProcessor Speed
p18
V2.50 GHz
p19
sVManufacturer Part Number
p20
V20JY0004US
p21
sVHard Drive Capacity
p22
V512.00 GB
p23
sVBattery Life
p24
V14 Hours
p25
sVAssembled Product Dimensions (L x W x H)
p26
V5.00 x 5.00 x 5.00 Inches
p27
sVModel
p28
V20JY0004US
p29
sVScreen Size
p30
V15.60 in
p31
sVProcessor Type
p32
VIntel Core i7 i7-6500U
p33
sVCondition
p34
VNew
p35
ssS'title'
p36
VLenovo ThinkPad P51s - 15.6" - Core i7 6500U - 16 GB RAM - 512 GB SSD
p37
sb.