ccopy_reg
_reconstructor
p0
(c__main__
ProductRecord
p1
c__builtin__
object
p2
Ntp3
Rp4
(dp5
S'product_url'
p6
S'http://www.walmart.com/ip/Refurbished-HP-E3Q88UP-EliteBook-Revolve-810-G1-Tablet-Convertible-Core-i5-3437U-1-9-GHz-Windows-7-Pro-64-bit/695186343'
p7
sS'price'
p8
S'N/A'
p9
sS'properties'
p10
(dp11
VBrand
p12
VHP
p13
sVOperating System
p14
VMicrosoft Windows
p15
ssS'title'
p16
VRefurbished HP E3Q88UP EliteBook Revolve 810 G1 Tablet - Convertible - Core i5 3437U / 1.9 GHz - Windows 7 Pro 64-bit -
p17
sb.