ccopy_reg
_reconstructor
p0
(c__main__
ProductRecord
p1
c__builtin__
object
p2
Ntp3
Rp4
(dp5
S'product_url'
p6
S'http://www.walmart.com/ip/Lenovo-ThinkPad-T450-20BV0002US-14-LED-Notebook/49026698'
p7
sS'price'
p8
V$487.25
p9
sS'properties'
p10
(dp11
VRAM Memory
p12
V8
p13
sVOperating System
p14
VWindows 7
p15
sVBrand
p16
VLenovo
p17
sVProcessor Speed
p18
V2.3
p19
sVMaximum RAM Supported
p20
V16
p21
sVHard Drive Capacity
p22
V500
p23
sVBattery Life
p24
V10
p25
sVAssembled Product Dimensions (L x W x H)
p26
V15.40 x 11.50 x 5.00 Inches
p27
sVModel
p28
V20BV0002US
p29
sVScreen Size
p30
V14.00
p31
sVProcessor Type
p32
VIntel i5-5300U
p33
sVCondition
p34
VNew
p35
sVmanufacturer_part_number
p36
V20BV0002US
p37
ssS'title'
p38
VLenovo ThinkPad T450 20BV0002US 14" LED Notebook
p39
sb.