ccopy_reg
_reconstructor
p0
(c__main__
ProductRecord
p1
c__builtin__
object
p2
Ntp3
Rp4
(dp5
S'product_url'
p6
S'http://www.walmart.com/ip/HP-EliteBook-1040-G3-14-Core-i7-6600U-16-GB-RAM-512-GB-SSD/50058653'
p7
sS'price'
p8
V$1,830.02
p9
sS'properties'
p10
(dp11
sS'title'
p12
VHP EliteBook 1040 G3 - 14" - Core i7 6600U - 16 GB RAM - 512 GB SSD
p13
sb.