ccopy_reg
_reconstructor
p0
(c__main__
ProductRecord
p1
c__builtin__
object
p2
Ntp3
Rp4
(dp5
S'product_url'
p6
S'http://www.walmart.com/ip/Refurbished-Dell-Latitude-E7240-12-5-Touch-Laptop-Intel-i7-Dual-Core-2-1GHz-8GB-256GB-SSD/715695673'
p7
sS'price'
p8
V$479.95
p9
sS'properties'
p10
(dp11
VHard Drive Capacity
p12
V256
p13
sVBrand
p14
VDell
p15
sVModel
p16
VLatitude E7240
p17
sVManufacturer Part Number
p18
VE7240TS-I721-SKN-FB-R
p19
ssS'title'
p20
VRefurbished Dell Latitude E7240 12.5" Touch Laptop Intel i7 Dual Core 2.1GHz 8GB 256GB SSD
p21
sb.