ccopy_reg
_reconstructor
p0
(c__main__
ProductRecord
p1
c__builtin__
object
p2
Ntp3
Rp4
(dp5
S'product_url'
p6
S'http://www.walmart.com/ip/TOPSELLER-THINKPAD-P51S-I7-6500U-2-5G-8GB-500GB-SATA-15-6IN/774733337'
p7
sS'price'
p8
V$1,043.42
p9
sS'properties'
p10
(dp11
VRAM Memory
p12
V8 Gigabytes
p13
sVOperating System
p14
VWindows 7
p15
sVFeatures
p16
VI7-6500U 2.5G 8GB 500GB SATA 15.6IN
p17
sVBrand
p18
VLenovo
p19
sVProcessor Speed
p20
V2.5 Gigahertz
p21
sVManufacturer Part Number
p22
V20JY0009US
p23
sVHard Drive Capacity
p24
V500 Gigabytes
p25
sVBattery Life
p26
V14 Hours
p27
sVModel
p28
V20JY0009US
p29
sVScreen Size
p30
V15.60 Inches
p31
sVProcessor Type
p32
VIntel i7-6500U
p33
sVCondition
p34
VNew
p35
ssS'title'
p36
VTOPSELLER THINKPAD P51S I7-6500U 2.5G 8GB 500GB SATA 15.6IN
p37
sb.