ccopy_reg
_reconstructor
p0
(c__main__
ProductRecord
p1
c__builtin__
object
p2
Ntp3
Rp4
(dp5
S'product_url'
p6
S'http://www.walmart.com/ip/Lenovo-Thinkpad-13-Chromebook-13-3-Core-i3-6100U-4-GB-RAM-16-GB-SSD/192577649'
p7
sS'price'
p8
V$535.67
p9
sS'properties'
p10
(dp11
VRAM Memory
p12
V4 Gigabytes
p13
sVOperating System
p14
VChrome OS
p15
sVFeatures
p16
VLENOVO THINKPAD 13 CHROMEBOOK
p17
sVBrand
p18
VLenovo
p19
sVProcessor Speed
p20
V2.3 Gigahertz
p21
sVManufacturer Part Number
p22
V20GL0002US
p23
sVHard Drive Capacity
p24
V16 Gigabytes
p25
sVBattery Life
p26
V0 h
p27
sVAssembled Product Dimensions (L x W x H)
p28
V5.00 x 5.00 x 5.00 Inches
p29
sVModel
p30
V20GL0002US
p31
sVScreen Size
p32
V13.30 Inches
p33
sVProcessor Type
p34
VIntel i3-6100U
p35
sVCondition
p36
VNew
p37
ssS'title'
p38
VLenovo Thinkpad 13 Chromebook - 13.3" - Core i3 6100U - 4 GB RAM - 16 GB SSD
p39
sb.