ccopy_reg
_reconstructor
p0
(c__main__
ProductRecord
p1
c__builtin__
object
p2
Ntp3
Rp4
(dp5
S'product_url'
p6
S'http://www.walmart.com/ip/Vizio-CT14-A0-14-Ultrabook-i3-1-8-GHz-4GB-Memory-128GB-Solid-State-Drive-Win-7/21089829'
p7
sS'price'
p8
V$349.99
p9
sS'properties'
p10
(dp11
VRAM Memory
p12
V6 GB
p13
sVOperating System
p14
VWindows 7
p15
sVFeatures
p16
VWebcam with built-in microphone
p17
sVVideo Game Platform
p18
VPC
p19
sVBrand
p20
VVIZIO
p21
sVProcessor Speed
p22
V1.80 GHz, 3 MB Cache
p23
sVManufacturer Part Number
p24
VCT14-A0
p25
sVMaximum RAM Supported
p26
V4 Gigabytes
p27
sVHard Drive Capacity
p28
V128 GB
p29
sVBattery Life
p30
V7 hours
p31
sVAssembled Product Dimensions (L x W x H)
p32
V9.20 x 13.30 x 0.67 Inches
p33
sVModel
p34
VCT14-A0
p35
sVScreen Size
p36
V14.0"
p37
sVProcessor Type
p38
VIntel Core i3
p39
sVCondition
p40
VNew
p41
ssS'title'
p42
VVizio CT14-A0 14" Ultrabook i3 1.8 GHz 4GB Memory 128GB Solid State Drive Win 7
p43
sb.