ccopy_reg
_reconstructor
p0
(c__main__
ProductRecord
p1
c__builtin__
object
p2
Ntp3
Rp4
(dp5
S'product_url'
p6
S'http://www.walmart.com/ip/Lenovo-ThinkPad-X1-Carbon-14-Core-i5-6300U-8-GB-RAM-256-GB-SSD/404724429'
p7
sS'price'
p8
V$1,562.18
p9
sS'properties'
p10
(dp11
VRAM Memory
p12
V8.00 GB
p13
sVOperating System
p14
VWindows 7
p15
sVFeatures
p16
VTHINKPAD X1 CARBON 5TH GENERATION, CORE I5-6300U (2.40GHZ, 3MB) 14.0 1920X1080 ,
p17
sVBrand
p18
VLenovo
p19
sVProcessor Speed
p20
V2.40 GHz
p21
sVManufacturer Part Number
p22
V20K4001XUS
p23
sVHard Drive Capacity
p24
V256.00 GB
p25
sVBattery Life
p26
V0 h
p27
sVAssembled Product Dimensions (L x W x H)
p28
V5.00 x 5.00 x 5.00 Inches
p29
sVModel
p30
V20K4001XUS
p31
sVScreen Size
p32
V14.00 in
p33
sVProcessor Type
p34
VIntel Core i5 i5-6300U
p35
sVCondition
p36
VNew
p37
ssS'title'
p38
VLenovo ThinkPad X1 Carbon - 14" - Core i5 6300U - 8 GB RAM - 256 GB SSD
p39
sb.