ccopy_reg
_reconstructor
p0
(c__main__
ProductRecord
p1
c__builtin__
object
p2
Ntp3
Rp4
(dp5
S'product_url'
p6
S'http://www.walmart.com/ip/Dell-Latitude-7280-12-5-Core-i7-7600U-8-GB-RAM-256-GB-SSD/832450245'
p7
sS'price'
p8
V$1,653.64
p9
sS'properties'
p10
(dp11
VRAM Memory
p12
V8.00 GB
p13
sVOperating System
p14
VWindows 10 Pro (English/French/Spanish)
p15
sVFeatures
p16
VVPRO 8GB 256GB SSD WIN10P 3YR PS
p17
sVVideo Game Platform
p18
VPC
p19
sVBrand
p20
VDell
p21
sVProcessor Speed
p22
V2.80 GHz
p23
sVManufacturer Part Number
p24
V8HRPD
p25
sVHard Drive Capacity
p26
V256.00 GB
p27
sVAssembled Product Dimensions (L x W x H)
p28
V5.00 x 5.00 x 5.00 Inches
p29
sVModel
p30
VLATI72808HRPD
p31
sVScreen Size
p32
V12.50 in
p33
sVProcessor Type
p34
VIntel Core i7 i7-7600U
p35
sVCondition
p36
VNew
p37
ssS'title'
p38
VDell Latitude 7280 - 12.5" - Core i7 7600U - 8 GB RAM - 256 GB SSD
p39
sb.