ccopy_reg
_reconstructor
p0
(c__main__
ProductRecord
p1
c__builtin__
object
p2
Ntp3
Rp4
(dp5
S'product_url'
p6
S'http://www.walmart.com/ip/Dell-XPS-13-9360-Ultrabook-Core-i5-8250U-128GB-SSD-8GB-RAM-13-3-Full-HD-Touch-Display/358586280'
p7
sS'price'
p8
V$899.99
p9
sS'properties'
p10
(dp11
VCondition
p12
VNew
p13
ssS'title'
p14
VDell XPS 13 9360 Ultrabook: Core i5-8250U, 128GB SSD, 8GB RAM, 13.3" Full HD Touch Display
p15
sb.