ccopy_reg
_reconstructor
p0
(c__main__
ProductRecord
p1
c__builtin__
object
p2
Ntp3
Rp4
(dp5
S'product_url'
p6
S'http://www.walmart.com/ip/Dell-Inspiron-13-5000-2-in-1-Intel-i3-7100U-1TB-HDD-4GB-RAM-Windows-10-Home/958122657'
p7
sS'price'
p8
S'N/A'
p9
sS'properties'
p10
(dp11
VRAM Memory
p12
V4 GB
p13
sVOperating System
p14
VWindows 10 Home 64-bit English
p15
sVBrand
p16
VDell
p17
sVMaximum RAM Supported
p18
V16 GB
p19
sVHard Drive Capacity
p20
V1 TB
p21
sVProcessor Type
p22
V7th Generation Intel Core i3-7100U Processor (3MB Cache, 2.40 GHz)
p23
sVScreen Size
p24
V13.3 in
p25
sVProcessor Speed
p26
V2.4 GHz
p27
ssS'title'
p28
VDell Inspiron 13 5000 2-in-1- Intel i3-7100U - 1TB HDD- 4GB RAM- Windows 10 Home
p29
sb.