ccopy_reg
_reconstructor
p0
(c__main__
ProductRecord
p1
c__builtin__
object
p2
Ntp3
Rp4
(dp5
S'product_url'
p6
S'http://www.walmart.com/ip/Lenovo-Thinkpad-13-13-3-Core-i5-7200U-4-GB-RAM-128-GB-SSD/292206022'
p7
sS'price'
p8
V$753.12
p9
sS'properties'
p10
(dp11
VRAM Memory
p12
V4 Gigabytes
p13
sVOperating System
p14
VWindows 10 Pro (English)
p15
sVFeatures
p16
V128GB SSD 13IN W10P
p17
sVVideo Game Platform
p18
VPC
p19
sVBrand
p20
VLenovo
p21
sVProcessor Speed
p22
V2.5 Gigahertz
p23
sVManufacturer Part Number
p24
V20J1001FUS
p25
sVHard Drive Capacity
p26
V128 Gigabytes
p27
sVAssembled Product Dimensions (L x W x H)
p28
V5.00 x 5.00 x 5.00 Inches
p29
sVModel
p30
V20J1001FUS
p31
sVScreen Size
p32
V13.30 Inches
p33
sVProcessor Type
p34
VIntel i5-7200U
p35
sVCondition
p36
VNew
p37
ssS'title'
p38
VLenovo Thinkpad 13 - 13.3" - Core i5 7200U - 4 GB RAM - 128 GB SSD
p39
sb.