ccopy_reg
_reconstructor
p0
(c__main__
ProductRecord
p1
c__builtin__
object
p2
Ntp3
Rp4
(dp5
S'product_url'
p6
S'http://www.walmart.com/ip/Dell-Latitude-14-7000-E7440-14-LCD-Ultrabook-Intel-Core-i5-4th-Gen-i5-4300U-Dual-core-2-Core-1-90-GHz-8-GB-DDR3-SDRAM-128-GB-SSD-Windows-10-Pro-64-bi/245090890'
p7
sS'price'
p8
V$489.80
p9
sS'properties'
p10
(dp11
VRAM Memory
p12
V8 Gigabytes
p13
sVOperating System
p14
VWindows 10
p15
sVBrand
p16
VDell
p17
sVProcessor Speed
p18
V1.90 Gigahertz
p19
sVManufacturer Part Number
p20
V7440-I5-19-8-128-10P
p21
sVHard Drive Capacity
p22
V128
p23
sVModel
p24
VE7440
p25
sVScreen Size
p26
V14 Inches
p27
sVProcessor Type
p28
VIntel Core i5
p29
ssS'title'
p30
VDell Latitude 14 7000 E7440 14" LCD Ultrabook - Intel Core i5 (4th Gen) i5-4300U Dual-core (2 Core) 1.90 GHz - 8 GB DDR3 SDRAM - 128 GB SSD - Windows 10 Pro 64-bit - 1366 x 768 - Refurbished - Intel H
p31
sb.