ccopy_reg
_reconstructor
p0
(c__main__
ProductRecord
p1
c__builtin__
object
p2
Ntp3
Rp4
(dp5
S'product_url'
p6
S'http://www.walmart.com/ip/Refurbished-HP-Elitebook-840-G1-Ultrabook-Intel-Core-i5-4300u-1-9GHz-4GB-128GB-14in-W7Pro/620899973'
p7
sS'price'
p8
V$299.00
p9
sS'properties'
p10
(dp11
VOperating System
p12
VMicrosoft Windows
p13
sVBrand
p14
VHP
p15
sVRAM Memory
p16
V4 GB
p17
sVScreen Size
p18
V14\u005c"
p19
sVHard Drive Capacity
p20
V128 GB
p21
ssS'title'
p22
VRefurbished HP Elitebook 840 G1 Ultrabook Intel Core i5-4300u 1.9GHz 4GB 128GB 14in W7Pro
p23
sb.