ccopy_reg
_reconstructor
p0
(c__main__
ProductRecord
p1
c__builtin__
object
p2
Ntp3
Rp4
(dp5
S'product_url'
p6
S'http://www.walmart.com/ip/CWK-Long-Life-Replacement-Laptop-Notebook-Battery-HP-Pavilion-15-b086er-15-b086sr-15-b090sd-CTO-15-b100st-Ultrabook-15-b101st-Ultrabook-15-b103sg-Ult/842565250'
p7
sS'price'
p8
V$20.99
p9
sS'properties'
p10
(dp11
VBrand
p12
VCWK
p13
ssS'title'
p14
VCWK Long Life Replacement Laptop Notebook Battery for HP Pavilion 15-b086er 15-b086sr 15-b090sd CTO 15-b100st Ultrabook 15-b101st Ultrabook 15-b103sg Ultrabook 15-b104eo Ultrabook
p15
sb.