ccopy_reg
_reconstructor
p0
(c__main__
ProductRecord
p1
c__builtin__
object
p2
Ntp3
Rp4
(dp5
S'product_url'
p6
S'http://www.walmart.com/ip/CWK-Long-Life-Replacement-Laptop-Notebook-Battery-HP-Pavilion-15-b104eo-PN-695192-001-Ultrabook-15-B140Ca-15-B153Sg-15-B156Eo-Ultrabook-15-b174eg-Ult/614882069'
p7
sS'price'
p8
V$20.99
p9
sS'properties'
p10
(dp11
VBrand
p12
VCWK
p13
sVmanufacturer_part_number
p14
V695192-001
p15
ssS'title'
p16
VCWK Long Life Replacement Laptop Notebook Battery for HP Pavilion 15-b104eo PN: 695192-001 Ultrabook 15-B140Ca 15-B153Sg 15-B156Eo Ultrabook 15-b174eg Ultrabook 15-b174eg 15-B192Sa
p17
sb.