ccopy_reg
_reconstructor
p0
(c__main__
ProductRecord
p1
c__builtin__
object
p2
Ntp3
Rp4
(dp5
S'product_url'
p6
S'http://www.walmart.com/ip/CWK-Long-Life-Replacement-Laptop-Notebook-Battery-HP-Pavilion-14-b121tx-14-b122tx-Ultrabook-15-b103sg-15-b104eo-Ultrabook-15-b103sg-15-b104eo-15-B118/408423047'
p7
sS'price'
p8
V$20.99
p9
sS'properties'
p10
(dp11
VBrand
p12
VCWK
p13
ssS'title'
p14
VCWK Long Life Replacement Laptop Notebook Battery for HP Pavilion 14-b121tx 14-b122tx Ultrabook 15-b103sg 15-b104eo Ultrabook 15-b103sg 15-b104eo 15-B118Sa Ultrabook 15-b103sg
p15
sb.