ccopy_reg
_reconstructor
p0
(c__main__
ProductRecord
p1
c__builtin__
object
p2
Ntp3
Rp4
(dp5
S'product_url'
p6
S'http://www.walmart.com/ip/UBatteries-Laptop-Battery-HP-Pavilion-Sleekbook-TouchSmart-15-b000-15-b100-4-Cell-2200mAh/110538831'
p7
sS'price'
p8
V$34.95
p9
sS'properties'
p10
(dp11
VBrand
p12
VUBatteries
p13
ssS'title'
p14
VUBatteries Laptop Battery HP Pavilion Sleekbook TouchSmart 15-b000 15-b100 -4 Cell, 2200mAh
p15
sb.