ccopy_reg
_reconstructor
p0
(c__main__
ProductRecord
p1
c__builtin__
object
p2
Ntp3
Rp4
(dp5
S'product_url'
p6
S'http://www.walmart.com/ip/Motherboard-Acer-Travelmate-P643-NB-V7H11-001-NBV7H11001-48-4SA01-011/486758503'
p7
sS'price'
p8
V$149.93
p9
sS'properties'
p10
(dp11
VBrand
p12
VAcer
p13
sVScreen Size
p14
V15.6
p15
sVCondition
p16
VNew
p17
ssS'title'
p18
VMotherboard Acer Travelmate P643 NB.V7H11.001 NBV7H11001 48.4SA01.011
p19
sb.