ccopy_reg
_reconstructor
p0
(c__main__
ProductRecord
p1
c__builtin__
object
p2
Ntp3
Rp4
(dp5
S'product_url'
p6
S'http://www.walmart.com/ip/ELITEBOOK-ULTRABOOK-840-G1-I5-4300U-1-9G-4GB-320GB-W10P-64BIT/683668033'
p7
sS'price'
p8
V$305.51
p9
sS'properties'
p10
(dp11
VBrand
p12
VINGRAM CPO - JS
p13
sVRAM Memory
p14
V4 GB
p15
sVHard Drive Capacity
p16
V320 GB
p17
sVManufacturer Part Number
p18
VIM5-0264-RF
p19
ssS'title'
p20
VELITEBOOK ULTRABOOK 840 G1 I5-4300U 1.9G 4GB 320GB W10P 64BIT
p21
sb.