ccopy_reg
_reconstructor
p0
(c__main__
ProductRecord
p1
c__builtin__
object
p2
Ntp3
Rp4
(dp5
S'product_url'
p6
S'http://www.walmart.com/ip/VOYO-VBook-V3-Ultrabook-Windows-10-Dual-Core-4GB-RAM-128GB-SSD-ROM-Flagship-13-3-inch-FHD-Screen-Intel-Core-M3-6Y30-Bluetooth-4-0-Dual-Cameras/281834289'
p7
sS'price'
p8
V$425.99
p9
sS'properties'
p10
(dp11
VBrand
p12
VVOYO
p13
sVRAM Memory
p14
V4 GB
p15
sVHard Drive Capacity
p16
V128
p17
sVCondition
p18
VNew
p19
ssS'title'
p20
VVOYO VBook V3 Ultrabook,Windows 10,Dual Core 4GB RAM 128GB SSD ROM, Flagship 13.3 inch FHD Screen Intel Core M3-6Y30 Bluetooth 4.0 Dual Cameras
p21
sb.