ccopy_reg
_reconstructor
p0
(c__main__
ProductRecord
p1
c__builtin__
object
p2
Ntp3
Rp4
(dp5
S'product_url'
p6
S'http://www.walmart.com/ip/Refurbished-14-inch-HP-EliteBook-Folio-9470m-Ultrabook-i5-Processor-16GB-512GB-SSD-Windows-10-Pro/839637839'
p7
sS'price'
p8
V$439.80
p9
sS'properties'
p10
(dp11
VRAM Memory
p12
V16 GB
p13
sVOperating System
p14
VWindows 10
p15
sVBrand
p16
VHP
p17
sVProcessor Speed
p18
V1.8 GHz
p19
sVHard Drive Capacity
p20
V512 GB
p21
sVModel
p22
V9470M
p23
sVScreen Size
p24
V14 in
p25
sVProcessor Type
p26
VIntel Core i5
p27
ssS'title'
p28
VRefurbished 14-inch HP EliteBook Folio 9470m Ultrabook, i5 Processor, 16GB, 512GB SSD, Windows 10 Pro
p29
sb.