ccopy_reg
_reconstructor
p0
(c__main__
ProductRecord
p1
c__builtin__
object
p2
Ntp3
Rp4
(dp5
S'product_url'
p6
S'http://www.walmart.com/ip/Toshiba-Portege-Z20t-B2110-12-5-Touchscreen-LCD-2-in-1-Ultrabook-Refurbished/962469570'
p7
sS'price'
p8
V$449.97
p9
sS'properties'
p10
(dp11
VModel
p12
VPT15AU-001002
p13
sVRAM Memory
p14
V4 GB
p15
sVOperating System
p16
VWindows 7
p17
sVBrand
p18
VToshiba
p19
sVHard Drive Capacity
p20
V128 GB
p21
sVProcessor Type
p22
VIntel Core M Series
p23
sVScreen Size
p24
V12.5 in
p25
sVProcessor Speed
p26
V1.1 GHz
p27
ssS'title'
p28
VToshiba Portege Z20t-B2110 12.5" Touchscreen LCD 2 in 1 Ultrabook (Refurbished)
p29
sb.