ccopy_reg
_reconstructor
p0
(c__main__
ProductRecord
p1
c__builtin__
object
p2
Ntp3
Rp4
(dp5
S'product_url'
p6
S'http://www.walmart.com/ip/REFURBISHED-HP-Folio-13-1029WM-13-3-Ultrabook-1-4-GHz-Intel-Core-i3-2367M-Pr/631124263'
p7
sS'price'
p8
V$469.00
p9
sS'properties'
p10
(dp11
VBrand
p12
Vintel
p13
sVScreen Size
p14
V13.3
p15
sVCondition
p16
VRefurbished
p17
sVmanufacturer_part_number
p18
V13-1029wm
p19
ssS'title'
p20
VREFURBISHED - HP Folio 13-1029WM 13.3" Ultrabook (1.4 GHz Intel Core i3-2367M Pr
p21
sb.