ccopy_reg
_reconstructor
p0
(c__main__
ProductRecord
p1
c__builtin__
object
p2
Ntp3
Rp4
(dp5
S'product_url'
p6
S'http://www.walmart.com/ip/REFURBISHED-Hewlett-Packard-HP-EliteBook-Folio-9470m-E1Y36UT-14-LED-Ultrabook/991618655'
p7
sS'price'
p8
V$499.00
p9
sS'properties'
p10
(dp11
VBrand
p12
VToshiba
p13
sVScreen Size
p14
V14
p15
sVCondition
p16
VRefurbished
p17
sVmanufacturer_part_number
p18
Ve1y36ut
p19
ssS'title'
p20
VREFURBISHED - Hewlett Packard HP EliteBook Folio 9470m E1Y36UT 14" LED Ultrabook
p21
sb.