ccopy_reg
_reconstructor
p0
(c__main__
ProductRecord
p1
c__builtin__
object
p2
Ntp3
Rp4
(dp5
S'product_url'
p6
S'http://www.walmart.com/ip/Refurbished-Hewlett-Packard-HP-EliteBook-Folio-9470m-E1Y36UT-14-LED-Ultrabook-Intel-Core-i5-3437U-1-9-GHz-4GB-DDR3-180GB-SSD-Intel-HD-Graphics-4000-W/672199002'
p7
sS'price'
p8
V$499.00
p9
sS'properties'
p10
(dp11
VOperating System
p12
VMicrosoft Windows
p13
sVBrand
p14
VHP
p15
sVRAM Memory
p16
V4 GB
p17
sVScreen Size
p18
V14\u005c"
p19
sVHard Drive Capacity
p20
V180 GB
p21
ssS'title'
p22
VRefurbished Hewlett Packard HP EliteBook Folio 9470m E1Y36UT 14" LED Ultrabook, Intel Core i5-3437U 1.9 GHz, 4GB DDR3, 180GB SSD, Intel HD Graphics 4000, Windows 7 Professional 64-bit,
p23
sb.