ccopy_reg
_reconstructor
p0
(c__main__
ProductRecord
p1
c__builtin__
object
p2
Ntp3
Rp4
(dp5
S'product_url'
p6
S'http://www.walmart.com/ip/Refurbished-HP-EliteBook-840-G1-14-inch-Ultrabook-1-90GHz-Intel-Core-i5-4300U-4GB-Memory-180GB-SSD-Windows-7-Professional-64-bit-E3W30UT-ABA/743810764'
p7
sS'price'
p8
V$516.01
p9
sS'properties'
p10
(dp11
VOperating System
p12
VMicrosoft Windows
p13
sVBrand
p14
VHP
p15
sVRAM Memory
p16
V4 GB
p17
sVScreen Size
p18
V14\u005c"
p19
sVHard Drive Capacity
p20
V180 GB
p21
ssS'title'
p22
VRefurbished HP EliteBook 840 G1 14-inch Ultrabook (1.90GHz, Intel Core i5 4300U, 4GB Memory 180GB SSD Windows 7 Professional 64-bit (E3W30UT#ABA)
p23
sb.