ccopy_reg
_reconstructor
p0
(c__main__
ProductRecord
p1
c__builtin__
object
p2
Ntp3
Rp4
(dp5
S'product_url'
p6
S'http://www.walmart.com/ip/Refurbished-Acer-13-3-Intel-Core-i7-1-90-GHz-4-GB-Ram-256-GB-SSD-Windows-7-Home-S5-391-9880/661106615'
p7
sS'price'
p8
V$540.74
p9
sS'properties'
p10
(dp11
VRAM Memory
p12
V4 GB
p13
sVOperating System
p14
VWindows 7
p15
sVBrand
p16
VAcer
p17
sVManufacturer Part Number
p18
VNX.RYXAA.003
p19
sVModel
p20
VS5-391-9880
p21
sVScreen Size
p22
V13.3 in
p23
sVProcessor Speed
p24
V1.90 GHz
p25
sVCondition
p26
VNew
p27
ssS'title'
p28
VRefurbished Acer 13.3" Intel Core i7 1.90 GHz 4 GB Ram 256 GB SSD Windows 7 Home|S5-391-9880
p29
sb.