ccopy_reg
_reconstructor
p0
(c__main__
ProductRecord
p1
c__builtin__
object
p2
Ntp3
Rp4
(dp5
S'product_url'
p6
S'http://www.walmart.com/ip/Refurbished-Lenovo-ThinkPad-Yoga-12-20Dl-12-5-Flip-Design-Ultrabook-8-GB-RAM-256-GB-SSD-20DL003AUS/745805829'
p7
sS'price'
p8
V$549.00
p9
sS'properties'
p10
(dp11
VBrand
p12
VLenovo
p13
ssS'title'
p14
VRefurbished Lenovo ThinkPad Yoga 12 20Dl 12.5 Flip Design Ultrabook, 8 GB RAM, 256 GB SSD (20DL003AUS)
p15
sb.