ccopy_reg
_reconstructor
p0
(c__main__
ProductRecord
p1
c__builtin__
object
p2
Ntp3
Rp4
(dp5
S'product_url'
p6
S'http://www.walmart.com/ip/Refurbished-HP-ProBook-440-G2-14-Business-Ultrabook-Intel-Core-i3-4005U-500GB-4GB-1366x768-DVD-RW-Bluetooth-Windows-7-Professional-Upgradable-Win-8-P/976745211'
p7
sS'price'
p8
V$549.95
p9
sS'properties'
p10
(dp11
VOperating System
p12
VMicrosoft Windows
p13
sVBrand
p14
VHP
p15
sVRAM Memory
p16
V4 GB
p17
sVScreen Size
p18
V14\u005c"
p19
sVHard Drive Capacity
p20
V500 GB
p21
ssS'title'
p22
VRefurbished HP ProBook 440 G2 14" Business Ultrabook: Intel Core i3-4005U | 500GB | 4GB | (1366x768) | DVD-RW | Bluetooth | Windows 7 Professional Upgradable to Win 8 Pro
p23
sb.