ccopy_reg
_reconstructor
p0
(c__main__
ProductRecord
p1
c__builtin__
object
p2
Ntp3
Rp4
(dp5
S'product_url'
p6
S'http://www.walmart.com/ip/Lenovo-14-quot-Flex-2-59423168-Black-4th-Generation-Intel-Core-i7-4510U-Vibrant-HD-display-10-Point-Multi-Touch-Touch-Screen-8GB-PC3-12800-DDR3L-SDRA/177405547'
p7
sS'price'
p8
S'N/A'
p9
sS'properties'
p10
(dp11
VBrand
p12
VLenovo
p13
sVScreen Size
p14
V14
p15
sVManufacturer Part Number
p16
V59423168
p17
sVCondition
p18
VNew
p19
ssS'title'
p20
VLenovo 14" Flex 2- 59423168- Black - 4th Generation Intel Core i7-4510U, Vibrant HD display with 10 Point Multi Touch Touch Screen, 8GB PC3-12800 DDR3L SDRAM 1600 MHz, Hybrid 1TB 5400 RPM+8GB SSH
p21
sb.