ccopy_reg
_reconstructor
p0
(c__main__
ProductRecord
p1
c__builtin__
object
p2
Ntp3
Rp4
(dp5
S'product_url'
p6
S'http://www.walmart.com/ip/Refurbished-HP-ENVY-Pro-14-Ultrabook-B8U90UT/519443608'
p7
sS'price'
p8
V$559.21
p9
sS'properties'
p10
(dp11
VBrand
p12
VHP
p13
ssS'title'
p14
VRefurbished HP ENVY Pro 14" Ultrabook - B8U90UT
p15
sb.