ccopy_reg
_reconstructor
p0
(c__main__
ProductRecord
p1
c__builtin__
object
p2
Ntp3
Rp4
(dp5
S'product_url'
p6
S'http://www.walmart.com/ip/Refurbished-Lenovo-ThinkPad-20A8S18T00-Lenovo-ThinkPad-X1-Carbon-20A8-14-inches-Ultrabook/124791463'
p7
sS'price'
p8
V$574.05
p9
sS'properties'
p10
(dp11
VBrand
p12
VLenovo
p13
sVOperating System
p14
VMicrosoft Windows
p15
ssS'title'
p16
VRefurbished Lenovo ThinkPad 20A8S18T00 Lenovo ThinkPad X1 Carbon 20A8 14 inches Ultrabook
p17
sb.