ccopy_reg
_reconstructor
p0
(c__main__
ProductRecord
p1
c__builtin__
object
p2
Ntp3
Rp4
(dp5
S'product_url'
p6
S'http://www.walmart.com/ip/REFURBISHED-HP-ENVY-Pro-14-Ultrabook-B8U90UT/298914642'
p7
sS'price'
p8
V$624.77
p9
sS'properties'
p10
(dp11
VBrand
p12
VIBM
p13
sVScreen Size
p14
V14
p15
sVCondition
p16
VRefurbished
p17
sVmanufacturer_part_number
p18
Vb8u90ut
p19
ssS'title'
p20
VREFURBISHED - HP ENVY Pro 14" Ultrabook - B8U90UT
p21
sb.