ccopy_reg
_reconstructor
p0
(c__main__
ProductRecord
p1
c__builtin__
object
p2
Ntp3
Rp4
(dp5
S'product_url'
p6
S'http://www.walmart.com/ip/REFURBISHED-HP-EliteBook-Folio-9470m-D3K33UT-14-0-LED-Ultrabook-Intel-Core-i7/150666308'
p7
sS'price'
p8
V$679.97
p9
sS'properties'
p10
(dp11
VBrand
p12
VHP
p13
sVCondition
p14
VRefurbished
p15
ssS'title'
p16
VREFURBISHED - HP EliteBook Folio 9470m D3K33UT 14.0 LED Ultrabook Intel Core i7-
p17
sb.