ccopy_reg
_reconstructor
p0
(c__main__
ProductRecord
p1
c__builtin__
object
p2
Ntp3
Rp4
(dp5
S'product_url'
p6
S'http://www.walmart.com/ip/Refurbished-Hp-Elitebook-Folio-1040-G1-14-Led-Ultrabook-Intel-Core-I5-I5-4310U-2-Ghz/455228250'
p7
sS'price'
p8
V$699.00
p9
sS'properties'
p10
(dp11
VBrand
p12
VHP
p13
sVScreen Size
p14
V14
p15
sVProcessor Speed
p16
V2
p17
ssS'title'
p18
VRefurbished Hp Elitebook Folio 1040 G1 14" Led Ultrabook . Intel Core I5 I5. 4310U 2 Ghz ...
p19
sb.