ccopy_reg
_reconstructor
p0
(c__main__
ProductRecord
p1
c__builtin__
object
p2
Ntp3
Rp4
(dp5
S'product_url'
p6
S'http://www.walmart.com/ip/REFURBISHED-HP-EliteBook-Folio-G1-W0R77UT-35-ABA-Ultrabook-Intel-Core-M5-6Y5/765926620'
p7
sS'price'
p8
V$749.00
p9
sS'properties'
p10
(dp11
VBrand
p12
Vintel
p13
sVCondition
p14
VRefurbished
p15
sVmanufacturer_part_number
p16
Vw0r77ut # 35 aba )
p17
ssS'title'
p18
VREFURBISHED - HP EliteBook Folio G1 (W0R77UT#35;ABA) Ultrabook Intel Core M5 6Y5
p19
sb.