ccopy_reg
_reconstructor
p0
(c__main__
ProductRecord
p1
c__builtin__
object
p2
Ntp3
Rp4
(dp5
S'product_url'
p6
S'http://www.walmart.com/ip/Refurbished-HP-EliteBook-Folio-G1-W0R79UT-35-ABA-Ultrabook-Intel-Core-M5-6Y57-1-10-GHz-256-GB-SSD-Intel-HD-Graphics-515/712465279'
p7
sS'price'
p8
S'N/A'
p9
sS'properties'
p10
(dp11
sS'title'
p12
S'Missing'
p13
sb.