ccopy_reg
_reconstructor
p0
(c__main__
ProductRecord
p1
c__builtin__
object
p2
Ntp3
Rp4
(dp5
S'product_url'
p6
S'http://www.walmart.com/ip/REFURBISHED-HP-K4N14US-EliteBook-Folio-9480m-14-inch-LED-Ultrabook-Intel-Cor/593062791'
p7
sS'price'
p8
V$749.00
p9
sS'properties'
p10
(dp11
VBrand
p12
VApple
p13
sVOperating System
p14
VMicrosoft Windows
p15
sVCondition
p16
VRefurbished
p17
ssS'title'
p18
VREFURBISHED - HP K4N14US EliteBook Folio 9480m 14 inch LED Ultrabook - Intel Cor
p19
sb.