ccopy_reg
_reconstructor
p0
(c__main__
ProductRecord
p1
c__builtin__
object
p2
Ntp3
Rp4
(dp5
S'product_url'
p6
S'http://www.walmart.com/ip/Refurbished-HP-EliteBook-Folio-9480m-14-LED-Ultrabook-Intel-Core-i5-4310U-2GHz-Platinum-J5P79UT-ABA/440634238'
p7
sS'price'
p8
V$749.00
p9
sS'properties'
p10
(dp11
VBrand
p12
VHP
p13
sVScreen Size
p14
V14
p15
ssS'title'
p16
VRefurbished HP EliteBook Folio 9480m 14" LED Ultrabook Intel Core i5-4310U 2GHz Platinum J5P79UT#ABA
p17
sb.