ccopy_reg
_reconstructor
p0
(c__main__
ProductRecord
p1
c__builtin__
object
p2
Ntp3
Rp4
(dp5
S'product_url'
p6
S'http://www.walmart.com/ip/Refurbished-HP-EliteBook-Folio-9470m-14-Inch-Laptop-i7-3687U-8GB-256GB-SSD-Windows-7-Silver/290544399'
p7
sS'price'
p8
V$749.00
p9
sS'properties'
p10
(dp11
VBrand
p12
VHP
p13
sVScreen Size
p14
V14
p15
ssS'title'
p16
VRefurbished HP EliteBook Folio 9470m 14-Inch Laptop i7-3687U 8GB 256GB-SSD Windows 7 (Silver)
p17
sb.