ccopy_reg
_reconstructor
p0
(c__main__
ProductRecord
p1
c__builtin__
object
p2
Ntp3
Rp4
(dp5
S'product_url'
p6
S'http://www.walmart.com/ip/Refurbished-HP-EliteBook-Folio-9480m-14-LED-Notebook-Intel-Core-i5-i5-4210U-Dual-core-2-Core-1-70-GHz-Platinum-J5P81UTR-ABA/219251923'
p7
sS'price'
p8
V$749.00
p9
sS'properties'
p10
(dp11
VBrand
p12
VHP
p13
sVScreen Size
p14
V14
p15
sVmanufacturer_part_number
p16
Vj8u37ut # aba
p17
ssS'title'
p18
VRefurbished HP EliteBook Folio J8U37UT#ABA 14-Inch Laptop (Silver)
p19
sb.