ccopy_reg
_reconstructor
p0
(c__main__
ProductRecord
p1
c__builtin__
object
p2
Ntp3
Rp4
(dp5
S'product_url'
p6
S'http://www.walmart.com/ip/HP-Elite-x2-1011-G1-Ultrabook-Tablet-11-6-4-GB-LPDDR3-Intel-Core-M-5th-Gen-5Y10c-Dual-core-2-Core-800-MHz-128-GB-SSD-Windows-10-Pro-64-bit-1920-x-108/150785157'
p7
sS'price'
p8
V$789.52
p9
sS'properties'
p10
(dp11
VRAM Memory
p12
V0 GB
p13
sVOperating System
p14
VMicrosoft Windows, Windows 10
p15
sVBrand
p16
VHP
p17
sVProcessor Speed
p18
V0 GHz
p19
sVHard Drive Capacity
p20
V128 GB
p21
sVBattery Life
p22
V9 hours
p23
sVAssembled Product Dimensions (L x W x H)
p24
V8.10 x 11.70 x 0.40 Inches
p25
sVModel
p26
VP2C17UT
p27
sVScreen Size
p28
V11.6 in
p29
sVProcessor Type
p30
VCore M
p31
sVmanufacturer_part_number
p32
VX2-1011
p33
ssS'title'
p34
VHP Elite x2 1011 G1 Ultrabook Tablet - 11.6" - 4 GB LPDDR3 - Intel Core M (5th Gen) 5Y10c Dual-core (2 Core) 800 MHz - 128 GB SSD - Windows 10 Pro 64-bit - 1920 x 1080 - BrightView, In-plane
p35
sb.