ccopy_reg
_reconstructor
p0
(c__main__
ProductRecord
p1
c__builtin__
object
p2
Ntp3
Rp4
(dp5
S'product_url'
p6
S'http://www.walmart.com/ip/REFURBISHED-HP-EliteBook-850-Premium-Ultrabook-Core-i7-4600U-Processor-15-6-Full-HD-Display-Windows-7-Professional-64-Bit-250GB-Pro-Performance-Solid/557512311'
p7
sS'price'
p8
V$790.00
p9
sS'properties'
p10
(dp11
VOperating System
p12
VMicrosoft Windows
p13
sVBrand
p14
VHP
p15
sVRAM Memory
p16
V16 GB
p17
sVScreen Size
p18
V15.6
p19
sVHard Drive Capacity
p20
V250
p21
ssS'title'
p22
VREFURBISHED HP EliteBook 850 Premium Ultrabook - Core i7-4600U Processor, 15.6" Full HD Display, Windows 7 Professional 64-Bit, 250GB Pro Performance Solid State Drive, 16GB RAM, Backlit Keyboard
p23
sb.