ccopy_reg
_reconstructor
p0
(c__main__
ProductRecord
p1
c__builtin__
object
p2
Ntp3
Rp4
(dp5
S'product_url'
p6
S'http://www.walmart.com/ip/REFURBISHED-HP-J0R82US-EliteBook-Folio-1040-G1-14-inch-LED-Ultrabook-Intel-C/452949747'
p7
sS'price'
p8
V$799.00
p9
sS'properties'
p10
(dp11
VBrand
p12
VApple
p13
sVCondition
p14
VRefurbished
p15
ssS'title'
p16
VREFURBISHED - HP J0R82US EliteBook Folio 1040 G1 14 inch LED Ultrabook - Intel C
p17
sb.