ccopy_reg
_reconstructor
p0
(c__main__
ProductRecord
p1
c__builtin__
object
p2
Ntp3
Rp4
(dp5
S'product_url'
p6
S'http://www.walmart.com/ip/HP-Chromebook-x360-11-G1-EE-11-6-Touchscreen-LCD-2-in-1-Chromebook/362230258'
p7
sS'price'
p8
S'N/A'
p9
sS'properties'
p10
(dp11
VRAM Memory
p12
V4 Gigabytes
p13
sVOperating System
p14
VChrome OS
p15
sVFeatures
p16
VEE N3350 4GB 32GB 11.6IN BT
p17
sVBrand
p18
VHP
p19
sVProcessor Speed
p20
V1.1 Gigahertz
p21
sVManufacturer Part Number
p22
V2DR10UT#ABA
p23
sVHard Drive Capacity
p24
V32 Gigabytes
p25
sVBattery Life
p26
V10 Hours
p27
sVAssembled Product Dimensions (L x W x H)
p28
V17.10 x 10.20 x 3.00 Inches
p29
sVModel
p30
V2DR10UT
p31
sVScreen Size
p32
V11.60 Inches
p33
sVProcessor Type
p34
VIntel N3350
p35
sVCondition
p36
VNew
p37
ssS'title'
p38
VHP Chromebook x360 11 G1 EE 11.6" Touchscreen LCD 2 in 1 Chromebook
p39
sb.