ccopy_reg
_reconstructor
p0
(c__main__
ProductRecord
p1
c__builtin__
object
p2
Ntp3
Rp4
(dp5
S'product_url'
p6
S'http://www.walmart.com/ip/REFURBISHED-HP-ENVY-13-2150nr-Spectre-XT-13-3-Ultrabook-Silver/210958081'
p7
sS'price'
p8
V$799.00
p9
sS'properties'
p10
(dp11
VOperating System
p12
VMicrosoft Windows
p13
sVBrand
p14
VHP
p15
sVScreen Size
p16
V13.3
p17
sVCondition
p18
VRefurbished
p19
ssS'title'
p20
VREFURBISHED - HP ENVY 13-2150nr Spectre XT 13.3" Ultrabook (Silver)
p21
sb.