ccopy_reg
_reconstructor
p0
(c__main__
ProductRecord
p1
c__builtin__
object
p2
Ntp3
Rp4
(dp5
S'product_url'
p6
S'http://www.walmart.com/ip/Refurbished-Lenovo-ThinkPad-Yoga-460-20EM001LUS-14-2-1-Ultrabook-Intel-Core-i5-6th-Gen-i5-6200U-Dual-core-2-Core-2-30-GHz-8-GB-DDR3L-SDRAM-180-GB-SSD/690297911'
p7
sS'price'
p8
V$882.58
p9
sS'properties'
p10
(dp11
sS'title'
p12
VRefurbished Lenovo ThinkPad Yoga 460 20EM001LUS 14" 2 in 1 Ultrabook - Intel Core i5 (6th Gen) i5-6200U Dual-core (2 Core) 2.30 GHz - 8 GB DDR3L SDRAM - 180 GB SSD - Windows 10 Pro 64-bit (English)
p13
sb.