ccopy_reg
_reconstructor
p0
(c__main__
ProductRecord
p1
c__builtin__
object
p2
Ntp3
Rp4
(dp5
S'product_url'
p6
S'http://www.walmart.com/ip/Refurbished-HP-EliteBook-840-G3-802894R-999-F77P-EliteBook-840-G3-Notebook/678669788'
p7
sS'price'
p8
V$832.94
p9
sS'properties'
p10
(dp11
VBrand
p12
VHP
p13
ssS'title'
p14
VRefurbished "HP EliteBook 840 G3 802894R-999-F77P EliteBook 840 G3 Notebook"
p15
sb.