ccopy_reg
_reconstructor
p0
(c__main__
ProductRecord
p1
c__builtin__
object
p2
Ntp3
Rp4
(dp5
S'product_url'
p6
S'http://www.walmart.com/ip/REFURBISHED-Hp-Elitebook-Folio-1040-G1-Ultrabook-Core-I5-4210U-1-7-Ghz-Windows-7-Pro-64-BitWindows-7-4-Gb-Ram-128-Gb-Ssd-Optical-Drive-14-1600-X-900/766387782'
p7
sS'price'
p8
V$899.00
p9
sS'properties'
p10
(dp11
VRAM Memory
p12
V4 GB
p13
sVOperating System
p14
VMicrosoft Windows
p15
sVBrand
p16
VHP
p17
sVHard Drive Capacity
p18
V128
p19
sVProcessor Speed
p20
V1
p21
sVScreen Size
p22
V14
p23
ssS'title'
p24
VREFURBISHED Hp Elitebook Folio 1040 G1 - Ultrabook - Core I5 4210U / 1.7 Ghz - Windows 7 Pro 64-BitWindows 7 - 4 Gb Ram - 128 Gb Ssd - No Optical Drive - 14" 1600 X 900
p25
sb.