ccopy_reg
_reconstructor
p0
(c__main__
ProductRecord
p1
c__builtin__
object
p2
Ntp3
Rp4
(dp5
S'product_url'
p6
S'http://www.walmart.com/ip/REFURBISHED-HP-EliteBook-Folio-14-LED-Ultrabook-Intel-Core-i7-i7-4600U-2-10-GHz-Platinum-4-GB-RAM-256-GB-SSD-Intel-Graphics-Windows-7-Professional-64/571726559'
p7
sS'price'
p8
V$899.00
p9
sS'properties'
p10
(dp11
VOperating System
p12
VMicrosoft Windows
p13
sVBrand
p14
VHP
p15
sVRAM Memory
p16
V4 GB
p17
sVScreen Size
p18
V14
p19
ssS'title'
p20
VREFURBISHED HP EliteBook Folio 14" LED Ultrabook - Intel Core i7 i7-4600U 2.10 GHz - Platinum 4 GB RAM - 256 GB SSD - Intel Graphics - Windows 7 Professional 64-bit - 1600 x 900
p21
sb.