ccopy_reg
_reconstructor
p0
(c__main__
ProductRecord
p1
c__builtin__
object
p2
Ntp3
Rp4
(dp5
S'product_url'
p6
S'http://www.walmart.com/ip/REFURBISHED-2016-DELL-XPS-13-9350-Ultrabook-Computer-With-13-3-FHD-WLED-Back/460345595'
p7
sS'price'
p8
V$899.00
p9
sS'properties'
p10
(dp11
VOperating System
p12
VMicrosoft Windows
p13
sVBrand
p14
VHP
p15
sVScreen Size
p16
V13.3
p17
ssS'title'
p18
VREFURBISHED 2016 DELL XPS 13 9350 Ultrabook Computer With 13.3" FHD WLED Back
p19
sb.