ccopy_reg
_reconstructor
p0
(c__main__
ProductRecord
p1
c__builtin__
object
p2
Ntp3
Rp4
(dp5
S'product_url'
p6
S'http://www.walmart.com/ip/Lenovo-Thinkpad-13-13-3-Core-i5-7200U-8-GB-RAM-256-GB-SSD/215679899'
p7
sS'price'
p8
V$905.92
p9
sS'properties'
p10
(dp11
VRAM Memory
p12
V8 Gigabytes
p13
sVOperating System
p14
VWindows 10 Pro (English)
p15
sVFeatures
p16
V2.5G 8GB 256GB SSD 13.3IN BT 4.1 W1
p17
sVVideo Game Platform
p18
VSee Description
p19
sVBrand
p20
VLenovo
p21
sVProcessor Speed
p22
V2.5 Gigahertz
p23
sVManufacturer Part Number
p24
V20J1000EUS
p25
sVHard Drive Capacity
p26
V256 Gigabytes
p27
sVAssembled Product Dimensions (L x W x H)
p28
V18.25 x 12.00 x 3.25 Inches
p29
sVModel
p30
V20J1000EUS
p31
sVScreen Size
p32
V13.30 Inches
p33
sVProcessor Type
p34
VIntel i5-7200U
p35
sVCondition
p36
VNew
p37
ssS'title'
p38
VLenovo Thinkpad 13 - 13.3" - Core i5 7200U - 8 GB RAM - 256 GB SSD
p39
sb.