ccopy_reg
_reconstructor
p0
(c__main__
ProductRecord
p1
c__builtin__
object
p2
Ntp3
Rp4
(dp5
S'product_url'
p6
S'http://www.walmart.com/ip/HP-EliteBook-Folio-G1-Touchscreen-Ultrabook-Laptop-with-12-5-inch-Screen-Intel-M5-6Y57-1-10GHz-8GB-RAM-256GB-SSD-Certified-Refurbished/823795357'
p7
sS'price'
p8
V$960.00
p9
sS'properties'
p10
(dp11
VRAM Memory
p12
V8 GB
p13
sVOperating System
p14
VWindows 10
p15
sVBrand
p16
VHP
p17
sVManufacturer Part Number
p18
VW0R79UT#ABL.RB
p19
sVHard Drive Capacity
p20
V256
p21
sVModel
p22
VW0R79UT#ABL.RB
p23
sVProcessor Type
p24
VINTEL M5-6Y57
p25
ssS'title'
p26
VHP EliteBook Folio G1 Touchscreen Ultrabook Laptop with 12.5 inch Screen, Intel M5-6Y57 @ 1.10GHz, 8GB RAM, 256GB SSD (Certified Refurbished)
p27
sb.