ccopy_reg
_reconstructor
p0
(c__main__
ProductRecord
p1
c__builtin__
object
p2
Ntp3
Rp4
(dp5
S'product_url'
p6
S'http://www.walmart.com/ip/Refurbished-HP-EliteBook-Folio-1040-G1-14-Core-i7-4650U-Windows-7-Pro-64-bit-Win/965411030'
p7
sS'price'
p8
V$999.00
p9
sS'properties'
p10
(dp11
sS'title'
p12
VRefurbished HP EliteBook Folio 1040 G1 - 14" - Core i7 4650U - Windows 7 Pro 64-bit / Win...
p13
sb.