ccopy_reg
_reconstructor
p0
(c__main__
ProductRecord
p1
c__builtin__
object
p2
Ntp3
Rp4
(dp5
S'product_url'
p6
S'http://www.walmart.com/ip/Refurbished-HP-EliteBook-Folio-1040-G1-14-LED-Ultrabook-Intel-Core-i7-i7-4600U-2-10-GH/577060779'
p7
sS'price'
p8
V$999.00
p9
sS'properties'
p10
(dp11
VBrand
p12
VHP
p13
sVScreen Size
p14
V14
p15
ssS'title'
p16
VRefurbished HP EliteBook Folio 1040 G1 14" LED Ultrabook - Intel Core i7 i7-4600U 2.10 GH...
p17
sb.