ccopy_reg
_reconstructor
p0
(c__main__
ProductRecord
p1
c__builtin__
object
p2
Ntp3
Rp4
(dp5
S'product_url'
p6
S'http://www.walmart.com/ip/Refurbished-HP-EliteBook-E1Y30UT-15-6-LED-Notebook-Intel-Core-i5-2-70-GHz-Platinum/553658845'
p7
sS'price'
p8
S'N/A'
p9
sS'properties'
p10
(dp11
VBrand
p12
VHP
p13
sVScreen Size
p14
V15.6
p15
sVmanufacturer_part_number
p16
Ve1y30ut
p17
ssS'title'
p18
VRefurbished HP EliteBook E1Y30UT 15.6" LED Notebook - Intel Core i5 2.70 GHz - Platinum
p19
sb.