ccopy_reg
_reconstructor
p0
(c__main__
ProductRecord
p1
c__builtin__
object
p2
Ntp3
Rp4
(dp5
S'product_url'
p6
S'http://www.walmart.com/ip/Refurbished-EliteBook-Folio-14-LED-Ultrabook-Intel-Core-i5-i5-4300U-1-90-GHz-Platinum/331553556'
p7
sS'price'
p8
V$999.00
p9
sS'properties'
p10
(dp11
VBrand
p12
VHP
p13
sVScreen Size
p14
V14
p15
ssS'title'
p16
VRefurbished EliteBook Folio 14" LED Ultrabook - Intel Core i5 i5-4300U 1.90 GHz - Platinum
p17
sb.