ccopy_reg
_reconstructor
p0
(c__main__
ProductRecord
p1
c__builtin__
object
p2
Ntp3
Rp4
(dp5
S'product_url'
p6
S'http://www.walmart.com/ip/HP-EliteBook-Folio-G1-12-5-Core-m5-6Y54-8-GB-RAM-128-GB-SSD/190393290'
p7
sS'price'
p8
V$1,011.29
p9
sS'properties'
p10
(dp11
VRAM Memory
p12
V8 GB
p13
sVOperating System
p14
VWindows 10
p15
sVVideo Game Platform
p16
VPC
p17
sVBrand
p18
VHP
p19
sVProcessor Speed
p20
V1.10 GHz
p21
sVManufacturer Part Number
p22
VW0R77UT#ABA
p23
sVMaximum RAM Supported
p24
V8 GB
p25
sVHard Drive Capacity
p26
V128 GB
p27
sVBattery Life
p28
V10 hours
p29
sVAssembled Product Dimensions (L x W x H)
p30
V18.50 x 11.70 x 3.00 Inches
p31
sVModel
p32
VW0R77UT#ABA
p33
sVScreen Size
p34
V12.5"
p35
sVProcessor Type
p36
VIntel Core M5-6Y54 Dual-Core Processor
p37
sVCondition
p38
VNew
p39
ssS'title'
p40
VHP EliteBook Folio G1 - 12.5" - Core m5 6Y54 - 8 GB RAM - 128 GB SSD
p41
sb.