ccopy_reg
_reconstructor
p0
(c__main__
ProductRecord
p1
c__builtin__
object
p2
Ntp3
Rp4
(dp5
S'product_url'
p6
S'http://www.walmart.com/ip/Refurbished-Lenovo-ThinkPad-X260-20F60093US-12-5-Ultrabook-Intel-Core-i5-6th-Gen-i5-6300U-Dual-core-2-Core-2-40-GHz-8-GB-DDR4-SDRAM-256-GB-SSD-Window/768324798'
p7
sS'price'
p8
V$1,038.48
p9
sS'properties'
p10
(dp11
sS'title'
p12
VRefurbished Lenovo ThinkPad X260 20F60093US 12.5" Ultrabook - Intel Core i5 (6th Gen) i5-6300U Dual-core (2 Core) 2.40 GHz - 8 GB DDR4 SDRAM - 256 GB SSD - Windows 7 Professional 64-bit (English)
p13
sb.