ccopy_reg
_reconstructor
p0
(c__main__
ProductRecord
p1
c__builtin__
object
p2
Ntp3
Rp4
(dp5
S'product_url'
p6
S'http://www.walmart.com/ip/HP-EliteBook-1040-G3-14-Notebook-Intel-Core-i5-6th-Gen-Refurbished/799844525'
p7
sS'price'
p8
V$1,056.49
p9
sS'properties'
p10
(dp11
VRAM Memory
p12
V8 GB
p13
sVOperating System
p14
VWindows 7
p15
sVBrand
p16
VHP
p17
sVProcessor Speed
p18
V2.3 GHz
p19
sVHard Drive Capacity
p20
V256 GB
p21
sVModel
p22
VV1P90UT
p23
sVScreen Size
p24
V14 in
p25
sVProcessor Type
p26
VIntel Core i5
p27
ssS'title'
p28
VHP EliteBook 1040 G3 14" Notebook - Intel Core i5 (6th Gen) (Refurbished)
p29
sb.