ccopy_reg
_reconstructor
p0
(c__main__
ProductRecord
p1
c__builtin__
object
p2
Ntp3
Rp4
(dp5
S'product_url'
p6
S'http://www.walmart.com/ip/HP-EliteBook-Folio-G1-12-5-Touchscreen-Ultrabook-Intel-Core-M-Refurbished/783533917'
p7
sS'price'
p8
V$1,177.97
p9
sS'properties'
p10
(dp11
VRAM Memory
p12
V8 GB
p13
sVOperating System
p14
VWindows 10 Professional 64-bit Edition
p15
sVBrand
p16
VHP
p17
sVProcessor Speed
p18
V1.2 GHz
p19
sVHard Drive Capacity
p20
V240 GB
p21
sVModel
p22
VW0S39UT
p23
sVScreen Size
p24
V12.5 in
p25
sVProcessor Type
p26
VIntel Core M Series
p27
ssS'title'
p28
VHP EliteBook Folio G1 12.5" Touchscreen Ultrabook - Intel Core M (Refurbished)
p29
sb.