ccopy_reg
_reconstructor
p0
(c__main__
ProductRecord
p1
c__builtin__
object
p2
Ntp3
Rp4
(dp5
S'product_url'
p6
S'http://www.walmart.com/ip/Refurbished-Toshiba-PT261U-05D019-Portege-Z30-Ultrabook-PC-Intel-Skylake-Core-i7-6600U-2-6-GHz-Dual-Core-Processor-16-GB-DDR3L-SDRAM-512-GB-SSD-13-3-/892379798'
p7
sS'price'
p8
V$1,285.98
p9
sS'properties'
p10
(dp11
sS'title'
p12
VRefurbished Toshiba PT261U-05D019 Portege Z30 Ultrabook PC - Intel Skylake Core i7-6600U 2.6 GHz Dual-Core Processor - 16 GB DDR3L SDRAM - 512 GB SSD - 13.3-inch Display - Windows 7 Professional
p13
sb.