ccopy_reg
_reconstructor
p0
(c__main__
ProductRecord
p1
c__builtin__
object
p2
Ntp3
Rp4
(dp5
S'product_url'
p6
S'http://www.walmart.com/ip/HP-EliteBook-1040-G3-14-Core-i5-6200U-8-GB-RAM-256-GB-SSD-with-HP-Dock-Connector-to-Ethernet-VGA-Adapter/151234417'
p7
sS'price'
p8
V$1,291.89
p9
sS'properties'
p10
(dp11
VRAM Memory
p12
V0 Gigabytes
p13
sVOperating System
p14
VWindows 10
p15
sVFeatures
p16
VI5-6200U 2.3G 8GB 256GB SSD W10P
p17
sVBrand
p18
VHP
p19
sVProcessor Speed
p20
V2.3 Gigahertz
p21
sVManufacturer Part Number
p22
VZ2A00UT#ABA
p23
sVHard Drive Capacity
p24
V256 Gigabytes
p25
sVBattery Life
p26
V12 Hours
p27
sVAssembled Product Dimensions (L x W x H)
p28
V5.00 x 5.00 x 5.00 Inches
p29
sVModel
p30
VZ2A00UT#ABA
p31
sVScreen Size
p32
V14.00 in
p33
sVProcessor Type
p34
VIntel i5-6200U
p35
sVCondition
p36
VNew
p37
ssS'title'
p38
VHP EliteBook 1040 G3 - 14" - Core i5 6200U - 8 GB RAM - 256 GB SSD - with HP Dock Connector to Ethernet/VGA Adapter
p39
sb.