ccopy_reg
_reconstructor
p0
(c__main__
ProductRecord
p1
c__builtin__
object
p2
Ntp3
Rp4
(dp5
S'product_url'
p6
S'http://www.walmart.com/ip/HP-EliteBook-1040-G3-14-Core-i5-6200U-8-GB-RAM-128-GB-SSD/50806648'
p7
sS'price'
p8
V$1,309.18
p9
sS'properties'
p10
(dp11
VRAM Memory
p12
V8
p13
sVOperating System
p14
VWindows 7
p15
sVFeatures
p16
VI5-6200U 8GB 128GB SSD 14IN W7P
p17
sVBrand
p18
VHP
p19
sVProcessor Speed
p20
V2.3
p21
sVManufacturer Part Number
p22
VV1P89UT#ABA
p23
sVMaximum RAM Supported
p24
V16 GB
p25
sVHard Drive Capacity
p26
V128
p27
sVBattery Life
p28
V9.75 hours
p29
sVAssembled Product Dimensions (L x W x H)
p30
V5.00 x 5.00 x 5.00 Inches
p31
sVModel
p32
VV1P89UT
p33
sVScreen Size
p34
V14.00 in
p35
sVProcessor Type
p36
VIntel i5-6200U
p37
sVCondition
p38
VNew
p39
ssS'title'
p40
VHP EliteBook 1040 G3 - 14" - Core i5 6200U - 8 GB RAM - 128 GB SSD
p41
sb.