ccopy_reg
_reconstructor
p0
(c__main__
ProductRecord
p1
c__builtin__
object
p2
Ntp3
Rp4
(dp5
S'product_url'
p6
S'http://www.walmart.com/ip/Lenovo-ThinkPad-T560-15-6-Core-i5-6300U-4-GB-RAM-256-GB-SSD/145035084'
p7
sS'price'
p8
V$1,352.99
p9
sS'properties'
p10
(dp11
VRAM Memory
p12
V4 Gigabytes
p13
sVOperating System
p14
VWindows 7
p15
sVBrand
p16
VLenovo
p17
sVProcessor Speed
p18
V2.4 Gigahertz
p19
sVManufacturer Part Number
p20
V20FH0020US
p21
sVMaximum RAM Supported
p22
V32 GB
p23
sVHard Drive Capacity
p24
V256 Gigabytes
p25
sVAssembled Product Dimensions (L x W x H)
p26
V5.00 x 5.00 x 5.00 Inches
p27
sVModel
p28
V20FH0020US
p29
sVScreen Size
p30
V15.60 in
p31
sVProcessor Type
p32
VIntel i5-6300U
p33
sVCondition
p34
VNew
p35
ssS'title'
p36
VLenovo ThinkPad T560 - 15.6" - Core i5 6300U - 4 GB RAM - 256 GB SSD
p37
sb.