ccopy_reg
_reconstructor
p0
(c__main__
ProductRecord
p1
c__builtin__
object
p2
Ntp3
Rp4
(dp5
S'product_url'
p6
S'http://www.walmart.com/ip/Lenovo-20f600aaus-ThinkPad-X260-12-5in-Ultrabook-Intel-Core-i5-6200U-Dual-core-2-3GHz-8GB-DDR4-180GB-SSD-Windows-10-Pro-64bit-Black/356624394'
p7
sS'price'
p8
V$1,354.07
p9
sS'properties'
p10
(dp11
VRAM Memory
p12
V8 GB
p13
sVOperating System
p14
VMicrosoft Windows
p15
sVBrand
p16
VLenovo
p17
sVManufacturer Part Number
p18
V20F600AAUS
p19
sVHard Drive Capacity
p20
V180
p21
sVScreen Size
p22
V12.5
p23
sVCondition
p24
VNew
p25
ssS'title'
p26
VLenovo 20f600aaus ThinkPad X260 12.5in Ultrabook, Intel Core i5-6200U Dual-core 2.3GHz, 8GB DDR4, 180GB SSD, Windows 10 Pro 64bit, Black
p27
sb.