ccopy_reg
_reconstructor
p0
(c__main__
ProductRecord
p1
c__builtin__
object
p2
Ntp3
Rp4
(dp5
S'product_url'
p6
S'http://www.walmart.com/ip/Lenovo-ThinkPad-X1-Carbon-14-Core-i5-6200U-8-GB-RAM-180-GB-SSD/958955066'
p7
sS'price'
p8
V$1,430.49
p9
sS'properties'
p10
(dp11
VRAM Memory
p12
V8 Gigabytes
p13
sVOperating System
p14
VWindows 7
p15
sVFeatures
p16
V5TH I5-6200U 2.3G 8GB 180GB 14IN
p17
sVVideo Game Platform
p18
VSee Description
p19
sVBrand
p20
VLenovo
p21
sVProcessor Speed
p22
V2.3 Gigahertz
p23
sVManufacturer Part Number
p24
V20K4002UUS
p25
sVHard Drive Capacity
p26
V180 Gigabytes
p27
sVAssembled Product Dimensions (L x W x H)
p28
V5.00 x 5.00 x 5.00 Inches
p29
sVModel
p30
V20K4002UUS
p31
sVScreen Size
p32
V14.00 Inches
p33
sVProcessor Type
p34
VIntel i5-6200U
p35
sVCondition
p36
VNew
p37
ssS'title'
p38
VLenovo ThinkPad X1 Carbon - 14" - Core i5 6200U - 8 GB RAM - 180 GB SSD
p39
sb.