ccopy_reg
_reconstructor
p0
(c__main__
ProductRecord
p1
c__builtin__
object
p2
Ntp3
Rp4
(dp5
S'product_url'
p6
S'http://www.walmart.com/ip/HP-EliteBook-1040-G3-W0C83UT-Ultrabook-PC-Intel-Core-i7-6500U-Refurbished/663752811'
p7
sS'price'
p8
V$1,372.97
p9
sS'properties'
p10
(dp11
VRAM Memory
p12
V8 GB
p13
sVOperating System
p14
VWindows 10 Professional 64-bit Edition
p15
sVBrand
p16
VHP
p17
sVProcessor Speed
p18
V2.5 GHz
p19
sVHard Drive Capacity
p20
V512 GB
p21
sVModel
p22
VW0C83UT
p23
sVScreen Size
p24
V14 in
p25
sVProcessor Type
p26
VIntel Core i7
p27
sVmanufacturer_part_number
p28
Vw0c83ut
p29
ssS'title'
p30
VHP EliteBook 1040 G3 W0C83UT Ultrabook PC - Intel Core i7-6500U (Refurbished)
p31
sb.