ccopy_reg
_reconstructor
p0
(c__main__
ProductRecord
p1
c__builtin__
object
p2
Ntp3
Rp4
(dp5
S'product_url'
p6
S'http://www.walmart.com/ip/Asus-M580VD-EB76-15-6-inch-Intel-Core-i7-7700HQ-2-8GHz-16GB-DDR4-1TB-HDD-256GB-SSD-GTX-1050-USB3-1-Windows-10-Ultrabook-Metalic-Champagne/891501543'
p7
sS'price'
p8
V$1,377.83
p9
sS'properties'
p10
(dp11
VBrand
p12
VASUS
p13
sVOperating System
p14
VMicrosoft Windows
p15
sVHard Drive Capacity
p16
V1000 GB
p17
sVCondition
p18
VNew
p19
sVmanufacturer_part_number
p20
Vm580vd-eb76
p21
ssS'title'
p22
VAsus M580VD-EB76 15.6 inch Intel Core i7-7700HQ 2.8GHz/ 16GB DDR4/ 1TB HDD + 256GB SSD/ GTX 1050/ USB3.1/ Windows 10 Ultrabook (Metalic Champagne)
p23
sb.