ccopy_reg
_reconstructor
p0
(c__main__
ProductRecord
p1
c__builtin__
object
p2
Ntp3
Rp4
(dp5
S'product_url'
p6
S'http://www.walmart.com/ip/Lenovo-ThinkPad-X260-12-5-Core-i5-6300U-8-GB-RAM-256-GB-SSD/52774103'
p7
sS'price'
p8
V$1,414.12
p9
sS'properties'
p10
(dp11
VRAM Memory
p12
V8 Gigabytes
p13
sVOperating System
p14
VWindows 7
p15
sVVideo Game Platform
p16
VPC
p17
sVBrand
p18
VLenovo
p19
sVProcessor Speed
p20
V2.4 Gigahertz
p21
sVManufacturer Part Number
p22
V20F60093US
p23
sVHard Drive Capacity
p24
V256 Gigabytes
p25
sVAssembled Product Dimensions (L x W x H)
p26
V5.00 x 5.00 x 5.00 Inches
p27
sVModel
p28
V20F60093US
p29
sVScreen Size
p30
V12.50 in
p31
sVProcessor Type
p32
VIntel i5-6300U
p33
sVCondition
p34
VNew
p35
ssS'title'
p36
VLenovo ThinkPad X260 - 12.5" - Core i5 6300U - 8 GB RAM - 256 GB SSD
p37
sb.