ccopy_reg
_reconstructor
p0
(c__main__
ProductRecord
p1
c__builtin__
object
p2
Ntp3
Rp4
(dp5
S'product_url'
p6
S'http://www.walmart.com/ip/TOPSELLER-T460S-I5-6300U-2-4G-8GB-256GB-SSD-W10P/195174178'
p7
sS'price'
p8
V$1,503.50
p9
sS'properties'
p10
(dp11
VRAM Memory
p12
V8 Gigabytes
p13
sVOperating System
p14
VWindows 10 Pro (English)
p15
sVBrand
p16
VLenovo
p17
sVProcessor Speed
p18
V2.4 Gigahertz
p19
sVManufacturer Part Number
p20
V20F90038US
p21
sVMaximum RAM Supported
p22
V20 GB
p23
sVHard Drive Capacity
p24
V256 Gigabytes
p25
sVAssembled Product Dimensions (L x W x H)
p26
V2.80 x 18.10 x 11.20 Inches
p27
sVModel
p28
V20F90038US
p29
sVScreen Size
p30
V14.00 in
p31
sVProcessor Type
p32
VIntel i5-6300U
p33
sVCondition
p34
VNew
p35
ssS'title'
p36
VTOPSELLER T460S I5-6300U 2.4G 8GB 256GB SSD W10P
p37
sb.