ccopy_reg
_reconstructor
p0
(c__main__
ProductRecord
p1
c__builtin__
object
p2
Ntp3
Rp4
(dp5
S'product_url'
p6
S'http://www.walmart.com/ip/iView-Maximus-II-11-6-Laptop-Touchscreen-2-in-1-Windows-10-Intel-Bay-Trail-Z3735F-Processor-2GB-RAM-32GB-Storage/54066839'
p7
sS'price'
p8
S'N/A'
p9
sS'properties'
p10
(dp11
VRAM Memory
p12
V2 GB
p13
sVOperating System
p14
VWindows 10
p15
sVVideo Game Platform
p16
VPC
p17
sVBrand
p18
VIVIEW
p19
sVProcessor Speed
p20
V1.33 GHz
p21
sVManufacturer Part Number
p22
VMAX2-BK
p23
sVHard Drive Capacity
p24
V32 GB
p25
sVAssembled Product Dimensions (L x W x H)
p26
V11.46 x 7.75 x 0.70 Inches
p27
sVModel
p28
VMAX2-BK
p29
sVScreen Size
p30
V11.6"
p31
sVProcessor Type
p32
VIntel Quad-Core Bay Trail Z3735F Processor
p33
ssS'title'
p34
ViView Maximus II 11.6" Laptop, Touchscreen, 2-in-1, Windows 10, Intel Bay Trail Z3735F Processor, 2GB RAM, 32GB Storage
p35
sb.