ccopy_reg
_reconstructor
p0
(c__main__
ProductRecord
p1
c__builtin__
object
p2
Ntp3
Rp4
(dp5
S'product_url'
p6
S'http://www.walmart.com/ip/Dell-Latitude-L7280-8PLY5H2Ultrabook-PC-Intel-Core-i7-7600U-2-8-Refurbished/627588760'
p7
sS'price'
p8
V$1,553.97
p9
sS'properties'
p10
(dp11
VRAM Memory
p12
V16 GB
p13
sVOperating System
p14
VWindows 10 Professional 64-bit Edition
p15
sVBrand
p16
VDell
p17
sVProcessor Speed
p18
V2.8 GHz
p19
sVHard Drive Capacity
p20
V16 GB
p21
sVModel
p22
VL7280-8PLY5H2
p23
sVScreen Size
p24
V12.5 in
p25
sVProcessor Type
p26
VIntel Core i7
p27
sVCondition
p28
VRefurbished
p29
ssS'title'
p30
VDell Latitude L7280-8PLY5H2Ultrabook PC - Intel Core i7-7600U 2.8 (Refurbished)
p31
sb.