ccopy_reg
_reconstructor
p0
(c__main__
ProductRecord
p1
c__builtin__
object
p2
Ntp3
Rp4
(dp5
S'product_url'
p6
S'http://www.walmart.com/ip/HP-EliteBook-840-G3-14-Core-i7-6600U-8-GB-RAM-256-GB-SSD/157250593'
p7
sS'price'
p8
V$1,579.34
p9
sS'properties'
p10
(dp11
VRAM Memory
p12
V8 GB
p13
sVOperating System
p14
VWindows 7
p15
sVFeatures
p16
VEPEAT, ROHS Compliant
p17
sVVideo Game Platform
p18
VPC
p19
sVBrand
p20
VHP
p21
sVProcessor Speed
p22
V2.60 GHz
p23
sVManufacturer Part Number
p24
VV1H24UT#ABA
p25
sVMaximum RAM Supported
p26
V16 GB
p27
sVHard Drive Capacity
p28
V256 GB
p29
sVBattery Life
p30
V9 hours
p31
sVAssembled Product Dimensions (L x W x H)
p32
V18.50 x 11.60 x 3.00 Inches
p33
sVModel
p34
VV1H24UT#ABA
p35
sVScreen Size
p36
V14.0"
p37
sVProcessor Type
p38
VIntel Core i7
p39
sVCondition
p40
VNew
p41
ssS'title'
p42
VHP EliteBook 840 G3 - 14" - Core i7 6600U - 8 GB RAM - 256 GB SSD
p43
sb.