ccopy_reg
_reconstructor
p0
(c__main__
ProductRecord
p1
c__builtin__
object
p2
Ntp3
Rp4
(dp5
S'product_url'
p6
S'http://www.walmart.com/ip/Lenovo-ThinkPad-T460s-14-Core-i7-6600U-8-GB-RAM-256-GB-SSD/154445972'
p7
sS'price'
p8
V$1,583.30
p9
sS'properties'
p10
(dp11
VVideo Game Platform
p12
VPC
p13
sVBrand
p14
VLenovo
p15
sVManufacturer Part Number
p16
V20F9003CUS
p17
sVMaximum RAM Supported
p18
V20 GB
p19
sVHard Drive Capacity
p20
V256
p21
sVModel
p22
V20F9003CUS
p23
sVScreen Size
p24
V14.00 in
p25
sVCondition
p26
VNew
p27
ssS'title'
p28
VLenovo ThinkPad T460s - 14" - Core i7 6600U - 8 GB RAM - 256 GB SSD
p29
sb.