ccopy_reg
_reconstructor
p0
(c__main__
ProductRecord
p1
c__builtin__
object
p2
Ntp3
Rp4
(dp5
S'product_url'
p6
S'http://www.walmart.com/ip/Lenovo-ThinkPad-X1-Yoga-20JF000CUS-14-Touchscreen-LCD-2-in-1-Refurbished/186734588'
p7
sS'price'
p8
V$1,629.97
p9
sS'properties'
p10
(dp11
VRAM Memory
p12
V16 GB
p13
sVOperating System
p14
VWindows 10 Professional 64-bit Edition
p15
sVBrand
p16
VLenovo
p17
sVProcessor Speed
p18
V2.6 GHz
p19
sVHard Drive Capacity
p20
V256 GB
p21
sVModel
p22
V20JF000CUS
p23
sVScreen Size
p24
V14 in
p25
sVProcessor Type
p26
VIntel Core i5
p27
sVmanufacturer_part_number
p28
V20jf000cus
p29
ssS'title'
p30
VLenovo ThinkPad X1 Yoga 20JF000CUS 14" Touchscreen LCD 2 in 1 (Refurbished)
p31
sb.