ccopy_reg
_reconstructor
p0
(c__main__
ProductRecord
p1
c__builtin__
object
p2
Ntp3
Rp4
(dp5
S'product_url'
p6
S'http://www.walmart.com/ip/Lenovo-ThinkPad-X1-Carbon-14-Core-i7-7500U-8-GB-RAM-256-GB-SSD/994414031'
p7
sS'price'
p8
V$1,653.65
p9
sS'properties'
p10
(dp11
VRAM Memory
p12
V8 Gigabytes
p13
sVOperating System
p14
VWindows 10 Pro (English)
p15
sVFeatures
p16
V5TH I7-7500U 2.7G 8GB 256GB 14IN
p17
sVBrand
p18
VLenovo
p19
sVProcessor Speed
p20
V2.7 Gigahertz
p21
sVManufacturer Part Number
p22
V20HR0057US
p23
sVHard Drive Capacity
p24
V256 Gigabytes
p25
sVBattery Life
p26
V0 h
p27
sVAssembled Product Dimensions (L x W x H)
p28
V5.00 x 5.00 x 5.00 Inches
p29
sVModel
p30
V20HR0057US
p31
sVScreen Size
p32
V14.00 Inches
p33
sVProcessor Type
p34
VIntel i7-7500U
p35
sVCondition
p36
VNew
p37
ssS'title'
p38
VLenovo ThinkPad X1 Carbon - 14" - Core i7 7500U - 8 GB RAM - 256 GB SSD
p39
sb.