ccopy_reg
_reconstructor
p0
(c__main__
ProductRecord
p1
c__builtin__
object
p2
Ntp3
Rp4
(dp5
S'product_url'
p6
S'http://www.walmart.com/ip/Lenovo-ThinkPad-Yoga-11e-11-6-Core-i3-7100U-8-GB-RAM-128-GB-SSD/986373756'
p7
sS'price'
p8
S'N/A'
p9
sS'properties'
p10
(dp11
VRAM Memory
p12
V8 Gigabytes
p13
sVOperating System
p14
VWindows 10 Pro (English)
p15
sVFeatures
p16
VI3-7100U 2.4G 8GB 128GB SSD W10P
p17
sVBrand
p18
VLenovo
p19
sVProcessor Speed
p20
V2.4 Gigahertz
p21
sVManufacturer Part Number
p22
V20HU0000US
p23
sVHard Drive Capacity
p24
V128 Gigabytes
p25
sVAssembled Product Dimensions (L x W x H)
p26
V12.00 x 6.00 x 12.00 Inches
p27
sVModel
p28
V20HU0000US
p29
sVScreen Size
p30
V11.6 in
p31
sVProcessor Type
p32
VIntel i3-7100U
p33
sVCondition
p34
VNew
p35
ssS'title'
p36
VLenovo ThinkPad Yoga 11e - 11.6" - Core i3 7100U - 8 GB RAM - 128 GB SSD
p37
sb.