ccopy_reg
_reconstructor
p0
(c__main__
ProductRecord
p1
c__builtin__
object
p2
Ntp3
Rp4
(dp5
S'product_url'
p6
S'http://www.walmart.com/ip/MSI-GS63-STEALTH-061-15-6-inch-Intel-Core-i7-7700HQ-2-8GHz-16GB-DDR4-1TB-HDD-128GB-PCI-E-SSD-GTX-1050-USB3-0-Windows-10-Ultrabook-Black/321146986'
p7
sS'price'
p8
V$1,667.06
p9
sS'properties'
p10
(dp11
VBrand
p12
VMSI
p13
sVOperating System
p14
VMicrosoft Windows
p15
sVHard Drive Capacity
p16
V1000 GB
p17
ssS'title'
p18
VMSI GS63 STEALTH-061 15.6 inch Intel Core i7-7700HQ 2.8GHz/ 16GB DDR4/ 1TB HDD + 128GB PCI-E SSD/ GTX 1050/ USB3.0/ Windows 10 Ultrabook (Black)
p19
sb.