ccopy_reg
_reconstructor
p0
(c__main__
ProductRecord
p1
c__builtin__
object
p2
Ntp3
Rp4
(dp5
S'product_url'
p6
S'http://www.walmart.com/ip/HP-Spectre-x360-13t-Premium-Convertible-Ultrabook-Laptop-Dark-Ash-Silver-Intel-i7-Processor-16GB-RAM-512GB-SSD-Thunderbolt-3-13-3-FHD-1920x1080-Touch/757253180'
p7
sS'price'
p8
V$1,678.95
p9
sS'properties'
p10
(dp11
VRAM Memory
p12
V16 GB
p13
sVOperating System
p14
VMicrosoft Windows
p15
sVBrand
p16
VMichaelElectronics2
p17
sVManufacturer Part Number
p18
VHP-13-02365-FHD-ME2
p19
sVHard Drive Capacity
p20
V512 GB
p21
sVProcessor Type
p22
V7th-Generation Kaby Lake Intel Core i7-7500U
p23
sVScreen Size
p24
V13.3 in
p25
sVProcessor Speed
p26
V2.7 GHz
p27
ssS'title'
p28
VHP Spectre x360 13t Premium Convertible Ultrabook Laptop in Dark Ash Silver (Intel i7 Processor, 16GB RAM, 512GB SSD, Thunderbolt 3, 13.3" FHD (1920x1080) Touchscreen, Active Stylus Pen, Win 10 Home )
p29
sb.