ccopy_reg
_reconstructor
p0
(c__main__
ProductRecord
p1
c__builtin__
object
p2
Ntp3
Rp4
(dp5
S'product_url'
p6
S'http://www.walmart.com/ip/Lenovo-ThinkPad-X1-Carbon-14-FullHD-Laptop-i5-7300U16GB-256GB-SSD-Win10-Pro/451518607'
p7
sS'price'
p8
V$1,703.83
p9
sS'properties'
p10
(dp11
VRAM Memory
p12
V16 Gigabytes
p13
sVOperating System
p14
VWindows 10 Pro (English)
p15
sVBrand
p16
VLenovo
p17
sVProcessor Speed
p18
V2.6 Gigahertz
p19
sVManufacturer Part Number
p20
V20HR000KUS
p21
sVHard Drive Capacity
p22
V256 Gigabytes
p23
sVModel
p24
V20HR000KUS
p25
sVScreen Size
p26
V14.00 Inches
p27
sVProcessor Type
p28
VIntel i5-7300U
p29
ssS'title'
p30
VLenovo ThinkPad X1 Carbon 14" FullHD Laptop i5-7300U16GB 256GB SSD Win10 Pro
p31
sb.