ccopy_reg
_reconstructor
p0
(c__main__
ProductRecord
p1
c__builtin__
object
p2
Ntp3
Rp4
(dp5
S'product_url'
p6
S'http://www.walmart.com/ip/Lenovo-ThinkPad-T460s-Business-Performance-Windows-10-Pro-Laptop-Intel-Core-i7-6600U-8GB-RAM-128GB-SSD-14-IPS-FHD-1920x1080-Matte-Display-Fingerprint/766524890'
p7
sS'price'
p8
V$1,729.24
p9
sS'properties'
p10
(dp11
VRAM Memory
p12
V8 Gigabytes
p13
sVOperating System
p14
VWindows 10
p15
sVBrand
p16
VLenovo
p17
sVProcessor Speed
p18
V3.4 Gigahertz
p19
sVManufacturer Part Number
p20
V20BU00CUUS
p21
sVMaximum RAM Supported
p22
V16 GB
p23
sVHard Drive Capacity
p24
V128 Gigabytes
p25
sVAssembled Product Dimensions (L x W x H)
p26
V9.20 x 13.30 x 0.80 Inches
p27
sVModel
p28
V20F9
p29
sVScreen Size
p30
V14 Inches
p31
sVProcessor Type
p32
Vcore_i7
p33
ssS'title'
p34
VLenovo ThinkPad T460s Business Performance Windows 10 Pro Laptop - Intel Core i7-6600U, 8GB RAM, 128GB SSD, 14" IPS FHD (1920x1080) Matte Display, Fingerprint Reader, Backlit Keyboard, AC WiFi
p35
sb.