ccopy_reg
_reconstructor
p0
(c__main__
ProductRecord
p1
c__builtin__
object
p2
Ntp3
Rp4
(dp5
S'product_url'
p6
S'http://www.walmart.com/ip/Lenovo-12-2-Miix-510-Multi-Touch-2-in-1-Notebook/676442793'
p7
sS'price'
p8
S'N/A'
p9
sS'properties'
p10
(dp11
VOperating System
p12
VMicrosoft Windows
p13
sVBrand
p14
VLenovo
p15
sVScreen Size
p16
V12.2\u005c"
p17
sVCondition
p18
VNew
p19
ssS'title'
p20
VLenovo 12.2" Miix 510 Multi-Touch 2-in-1 Notebook
p21
sb.