ccopy_reg
_reconstructor
p0
(c__main__
ProductRecord
p1
c__builtin__
object
p2
Ntp3
Rp4
(dp5
S'product_url'
p6
S'http://www.walmart.com/ip/REFURBISHED-HP-EliteBook-Revolve-810-G3-Tablet-Convertible-Core-i5-5300U-2-3-GHz/266692652'
p7
sS'price'
p8
S'N/A'
p9
sS'properties'
p10
(dp11
VBrand
p12
VHP
p13
ssS'title'
p14
VREFURBISHED HP EliteBook Revolve 810 G3 Tablet - Convertible - Core i5 5300U / 2.3 GHz
p15
sb.