ccopy_reg
_reconstructor
p0
(c__main__
ProductRecord
p1
c__builtin__
object
p2
Ntp3
Rp4
(dp5
S'product_url'
p6
S'http://www.walmart.com/ip/Lenovo-ThinkPad-X1-Carbon-14-Core-i7-6500U-8-GB-RAM-256-GB-SSD/601627602'
p7
sS'price'
p8
V$1,732.43
p9
sS'properties'
p10
(dp11
VRAM Memory
p12
V8 Gigabytes
p13
sVOperating System
p14
VWindows 7
p15
sVBrand
p16
VLenovo
p17
sVProcessor Speed
p18
V2.5 Gigahertz
p19
sVManufacturer Part Number
p20
V20K4002RUS
p21
sVHard Drive Capacity
p22
V256 Gigabytes
p23
sVBattery Life
p24
V0 h
p25
sVAssembled Product Dimensions (L x W x H)
p26
V5.00 x 8.60 x 0.60 Inches
p27
sVModel
p28
V20K4002RUS
p29
sVScreen Size
p30
V14.00 Inches
p31
sVProcessor Type
p32
VIntel i7-6500U
p33
sVCondition
p34
VNew
p35
ssS'title'
p36
VLenovo ThinkPad X1 Carbon - 14" - Core i7 6500U - 8 GB RAM - 256 GB SSD
p37
sb.