ccopy_reg
_reconstructor
p0
(c__main__
ProductRecord
p1
c__builtin__
object
p2
Ntp3
Rp4
(dp5
S'product_url'
p6
S'http://www.walmart.com/ip/Lenovo-Flex-4-1470-80SA0000US-2-in-1-14-HD-Touch-Pentium-4405U-2-1Ghz-4GB-500GB/183648578'
p7
sS'price'
p8
S'N/A'
p9
sS'properties'
p10
(dp11
VRAM Memory
p12
V4 KB
p13
sVOperating System
p14
VMicrosoft Windows
p15
sVColor Category
p16
VBlack
p17
sVLaptop Computer Type
p18
VPC Laptops
p19
sVBrand
p20
VLenovo
p21
sVManufacturer Part Number
p22
Vi7347-7550S
p23
sVWireless Technology
p24
VFast Ethernet
p25
sVHard Drive Capacity
p26
V500 KB
p27
sVProcessor Type
p28
VIntel Pentium
p29
sVScreen Size
p30
V14 in
p31
sVModel
p32
V80SA
p33
sVCondition
p34
VNew
p35
sVManufacturer
p36
VLENOVO
p37
ssS'title'
p38
VLenovo Flex 4 1470 80SA0000US 2-in-1 - 14" HD Touch - Pentium 4405U 2.1Ghz - 4GB - 500GB
p39
sb.