ccopy_reg
_reconstructor
p0
(c__main__
ProductRecord
p1
c__builtin__
object
p2
Ntp3
Rp4
(dp5
S'product_url'
p6
S'http://www.walmart.com/ip/HP-ProBook-x360-11-G2-Education-Edition-11-6-Core-m3-7Y30-8-GB-RAM-128-GB-SSD-US/214639608'
p7
sS'price'
p8
S'N/A'
p9
sS'properties'
p10
(dp11
VRAM Memory
p12
V8.00 GB
p13
sVOperating System
p14
VWindows 10
p15
sVBrand
p16
VHP
p17
sVProcessor Speed
p18
V1.00 GHz
p19
sVManufacturer Part Number
p20
V2EZ90UT#ABA
p21
sVHard Drive Capacity
p22
V128.00 GB
p23
sVBattery Life
p24
V11.00 h
p25
sVModel
p26
V2EZ90UT
p27
sVScreen Size
p28
V11.60 in
p29
sVProcessor Type
p30
Vm3-7Y30
p31
sVCondition
p32
VNew
p33
ssS'title'
p34
VHP ProBook x360 11 G2 - Education Edition - 11.6" - Core m3 7Y30 - 8 GB RAM - 128 GB SSD - US
p35
sb.