ccopy_reg
_reconstructor
p0
(c__main__
ProductRecord
p1
c__builtin__
object
p2
Ntp3
Rp4
(dp5
S'product_url'
p6
S'http://www.walmart.com/ip/HP-Elitebook-840-G4-14-FHD-Premium-Ultrabook-Business-Laptop-PC-Intel-i7-Processor-32GB-RAM-500GB-HDD-128GB-SSD-14-Full-HD-1920x1080-Fingerprint-Back/178840413'
p7
sS'price'
p8
V$1,783.95
p9
sS'properties'
p10
(dp11
VRAM Memory
p12
V32 GB
p13
sVOperating System
p14
VMicrosoft Windows
p15
sVBrand
p16
VMichaelElectronics2
p17
sVManufacturer Part Number
p18
VHP-14-02398-FHD-ME3
p19
sVHard Drive Capacity
p20
V628 GB
p21
sVProcessor Type
p22
V7th Generation Kaby Lake Intel Core i7-7500U (2.7 GHz, up to 3.5 GHz with Turbo Boost, 4 MB cache, 2 core) Processor
p23
sVScreen Size
p24
V14 in
p25
sVProcessor Speed
p26
V2.7 GHz
p27
ssS'title'
p28
VHP Elitebook 840 G4 14" FHD Premium Ultrabook Business Laptop PC (Intel i7 Processor, 32GB RAM, 500GB HDD + 128GB SSD, 14" Full HD (1920x1080), Fingerprint, Backlit Keyboard, Wifi, BT, Win 10 Pro)
p29
sb.