ccopy_reg
_reconstructor
p0
(c__main__
ProductRecord
p1
c__builtin__
object
p2
Ntp3
Rp4
(dp5
S'product_url'
p6
S'http://www.walmart.com/ip/HP-ProBook-x360-11-G2-Education-Edition-11-6-Core-m3-7Y30-8-GB-RAM-256-GB-SSD-US/559344963'
p7
sS'price'
p8
S'N/A'
p9
sS'properties'
p10
(dp11
VRAM Memory
p12
V8 GB
p13
sVOperating System
p14
VWindows 10
p15
sVFeatures
p16
VM3-7Y30 8GB 256GB 11.6IN W10P
p17
sVBrand
p18
VHP
p19
sVProcessor Speed
p20
V1 GHz
p21
sVManufacturer Part Number
p22
V2EZ91UT#ABA
p23
sVHard Drive Capacity
p24
V256 GB
p25
sVBattery Life
p26
V11 h
p27
sVAssembled Product Dimensions (L x W x H)
p28
V17.00 x 10.25 x 2.50 Inches
p29
sVModel
p30
V2EZ91UT
p31
sVScreen Size
p32
V11.6 in
p33
sVProcessor Type
p34
Vm3-7Y30
p35
sVCondition
p36
VNew
p37
ssS'title'
p38
VHP ProBook x360 11 G2 - Education Edition - 11.6" - Core m3 7Y30 - 8 GB RAM - 256 GB SSD - US
p39
sb.