ccopy_reg
_reconstructor
p0
(c__main__
ProductRecord
p1
c__builtin__
object
p2
Ntp3
Rp4
(dp5
S'product_url'
p6
S'http://www.walmart.com/ip/HP-ZBook-Studio-G3-Mobile-Workstation-15-6-Xeon-E3-1505MV5-16-GB-RAM-512-GB-SSD/184675535'
p7
sS'price'
p8
V$1,819.00
p9
sS'properties'
p10
(dp11
VRAM Memory
p12
V16.00 GB
p13
sVOperating System
p14
VWindows 7
p15
sVFeatures
p16
V2.8G 16GB 512GB SSD 15.6IN W10P DG
p17
sVVideo Game Platform
p18
VPlaystation
p19
sVBrand
p20
VHP
p21
sVProcessor Speed
p22
V2.80 GHz
p23
sVManufacturer Part Number
p24
VT6E85UT#ABA
p25
sVMaximum RAM Supported
p26
V32.00 GB
p27
sVHard Drive Capacity
p28
V512.00 GB
p29
sVModel
p30
VT6E85UTEXCESS
p31
sVScreen Size
p32
V15.60 in
p33
sVProcessor Type
p34
VXeon E3-1505M
p35
sVCondition
p36
VNew
p37
ssS'title'
p38
VHP ZBook Studio G3 Mobile Workstation - 15.6" - Xeon E3-1505MV5 - 16 GB RAM - 512 GB SSD
p39
sb.