ccopy_reg
_reconstructor
p0
(c__main__
ProductRecord
p1
c__builtin__
object
p2
Ntp3
Rp4
(dp5
S'product_url'
p6
S'http://www.walmart.com/ip/Lenovo-ThinkPad-X1-Yoga-14-Touchscreen-Laptop-i5-7200U-8GB-256GB-SSD-Win10-Pro/276396363'
p7
sS'price'
p8
V$1,852.77
p9
sS'properties'
p10
(dp11
VRAM Memory
p12
V0 GB
p13
sVOperating System
p14
VMicrosoft Windows, Windows 10 Pro (English)
p15
sVBrand
p16
VLenovo
p17
sVProcessor Speed
p18
V0 GHz
p19
sVHard Drive Capacity
p20
V256 GB
p21
sVBattery Life
p22
V0 h
p23
sVModel
p24
V20JDS03600
p25
sVScreen Size
p26
V14"
p27
sVProcessor Type
p28
VIntel Core i5
p29
sVCondition
p30
VNew
p31
sVmanufacturer_part_number
p32
V20jds03600
p33
ssS'title'
p34
VLenovo ThinkPad X1 Yoga 14" Touchscreen Laptop i5-7200U 8GB 256GB SSD Win10 Pro
p35
sb.