ccopy_reg
_reconstructor
p0
(c__main__
ProductRecord
p1
c__builtin__
object
p2
Ntp3
Rp4
(dp5
S'product_url'
p6
S'http://www.walmart.com/ip/Lenovo-ThinkPad-X1-Carbon-14-Core-i7-6600U-8-GB-RAM-512-GB-SSD/138447511'
p7
sS'price'
p8
V$1,899.00
p9
sS'properties'
p10
(dp11
VRAM Memory
p12
V8 Gigabytes
p13
sVOperating System
p14
VWindows 7
p15
sVVideo Game Platform
p16
VPC
p17
sVBrand
p18
VLenovo
p19
sVProcessor Speed
p20
V2.6 Gigahertz
p21
sVManufacturer Part Number
p22
V20FB002SUS
p23
sVMaximum RAM Supported
p24
V8 GB
p25
sVHard Drive Capacity
p26
V512 Gigabytes
p27
sVBattery Life
p28
V11 hours
p29
sVAssembled Product Dimensions (L x W x H)
p30
V5.00 x 5.00 x 5.00 Inches
p31
sVModel
p32
VThinkPad X1 Carbon 20FB002SUS Ultrabook
p33
sVScreen Size
p34
V14.00 in
p35
sVProcessor Type
p36
VIntel i7-6600U
p37
sVCondition
p38
VNew
p39
ssS'title'
p40
VLenovo ThinkPad X1 Carbon - 14" - Core i7 6600U - 8 GB RAM - 512 GB SSD
p41
sb.