ccopy_reg
_reconstructor
p0
(c__main__
ProductRecord
p1
c__builtin__
object
p2
Ntp3
Rp4
(dp5
S'product_url'
p6
S'http://www.walmart.com/ip/Dell-Latitude-7275-12-5-Core-m5-6Y57-8-GB-RAM-256-GB-SSD/151921155'
p7
sS'price'
p8
S'N/A'
p9
sS'properties'
p10
(dp11
VRAM Memory
p12
V8 GB
p13
sVOperating System
p14
VMicrosoft Windows, Windows 10
p15
sVVideo Game Platform
p16
VPC
p17
sVBrand
p18
VDell
p19
sVProcessor Speed
p20
V1.10 GHz
p21
sVManufacturer Part Number
p22
V59C32
p23
sVHard Drive Capacity
p24
V256, 256 Gigabytes
p25
sVAssembled Product Dimensions (L x W x H)
p26
V5.00 x 5.00 x 5.00 Inches
p27
sVModel
p28
V59C32
p29
sVScreen Size
p30
V12.5"
p31
sVProcessor Type
p32
VCore M
p33
ssS'title'
p34
VDell Latitude 7275 - 12.5" - Core m5 6Y57 - 8 GB RAM - 256 GB SSD
p35
sb.