ccopy_reg
_reconstructor
p0
(c__main__
ProductRecord
p1
c__builtin__
object
p2
Ntp3
Rp4
(dp5
S'product_url'
p6
S'http://www.walmart.com/ip/REFURBISHED-Hp-Elitebook-Revolve-810-G2-Tablet-Convertible-Core-I7-4600U-2-1-Ghz-Windows-7-Pro-64-Bit-Windows-7-8-Gb-Ram-256-Gb-Ssd/623860883'
p7
sS'price'
p8
S'N/A'
p9
sS'properties'
p10
(dp11
VBrand
p12
VHP
p13
sVRAM Memory
p14
V8 GB
p15
sVOperating System
p16
VMicrosoft Windows
p17
ssS'title'
p18
VREFURBISHED Hp, Elitebook Revolve 810 G2 Tablet Convertible Core I7 4600U / 2.1 Ghz Windows 7 Pro 64-Bit / Windows 7 , 8 Gb Ram 256 Gb Ssd"
p19
sb.