ccopy_reg
_reconstructor
p0
(c__main__
ProductRecord
p1
c__builtin__
object
p2
Ntp3
Rp4
(dp5
S'product_url'
p6
S'http://www.walmart.com/ip/Manufacturer-Refurbished-Acer-11-6-Intel-Celeron-1-1-GHz-4-GB-Ram-32-GB-Flash-Windows-10-Home-SP111-31N-C4UG/204057577'
p7
sS'price'
p8
S'N/A'
p9
sS'properties'
p10
(dp11
VRAM Memory
p12
V4.00 GB
p13
sVOperating System
p14
VWindows 10
p15
sVBrand
p16
VAcer
p17
sVProcessor Speed
p18
V1.10 GHz
p19
sVManufacturer Part Number
p20
VNX.GNGAA.001
p21
sVHard Drive Capacity
p22
V32.00 GB
p23
sVBattery Life
p24
V9.00 h
p25
sVModel
p26
VSP111-31N-C4UG
p27
sVScreen Size
p28
V11.60 in
p29
sVProcessor Type
p30
VIntel Celeron
p31
ssS'title'
p32
VManufacturer Refurbished Acer 11.6" Intel Celeron 1.1 GHz 4 GB Ram 32 GB Flash Windows 10 Home|SP111-31N-C4UG
p33
sb.