ccopy_reg
_reconstructor
p0
(c__main__
ProductRecord
p1
c__builtin__
object
p2
Ntp3
Rp4
(dp5
S'product_url'
p6
S'http://www.walmart.com/ip/HP-Elite-x2-1011-G1-Tablet-keyboard-dock-Core-M-5Y71-1-2-GHz-Win-8-1-Pro-64-bit-8-GB-RAM-256-GB-SSD-11-6-IPS-touchscreen-1920-x-1080-Full-HD-HD-Graph/44498448'
p7
sS'price'
p8
S'N/A'
p9
sS'properties'
p10
(dp11
VRAM Memory
p12
V8 GB
p13
sVOperating System
p14
VMicrosoft Windows
p15
sVBrand
p16
VIntel
p17
sVProcessor Speed
p18
V1.2 GHz
p19
sVManufacturer Part Number
p20
VL8D71UT#ABA
p21
sVHard Drive Capacity
p22
V256 GB
p23
sVBattery Life
p24
V14.25 hours
p25
sVAssembled Product Dimensions (L x W x H)
p26
V8.10 x 11.70 x 0.80 Inches
p27
sVModel
p28
V1011 G1
p29
sVScreen Size
p30
V11.6"
p31
sVProcessor Type
p32
VCore M
p33
sVCondition
p34
VNew
p35
ssS'title'
p36
VHP Elite x2 1011 G1 - Tablet - with keyboard dock - Core M 5Y71 / 1.2 GHz - Win 8.1 Pro 64-bit - 8 GB RAM - 256 GB SSD - 11.6" IPS touchscreen 1920 x 1080 (Full HD) - HD Graphics 5300 - Wi-Fi, 802.11ad (WiGig) - 4G - kbd: US - promo
p37
sb.