ccopy_reg
_reconstructor
p0
(c__main__
ProductRecord
p1
c__builtin__
object
p2
Ntp3
Rp4
(dp5
S'product_url'
p6
S'http://www.walmart.com/ip/Lenovo-ThinkPad-T450s-Touch-Performance-Windows-8-1-Pro-Laptop-Intel-Core-i7-5600U-20GB-RAM-1TB-SSD-14-IPS-FHD-19/118216945'
p7
sS'price'
p8
V$2,049.28
p9
sS'properties'
p10
(dp11
VRAM Memory
p12
V20 Gigabytes
p13
sVOperating System
p14
VWindows 8
p15
sVBrand
p16
VLenovo
p17
sVProcessor Speed
p18
V3.2 Gigahertz
p19
sVHard Drive Capacity
p20
V1 Terabytes
p21
sVModel
p22
V20BX
p23
sVScreen Size
p24
V14 Inches
p25
sVProcessor Type
p26
Vcore_i7
p27
sVCondition
p28
VNew
p29
ssS'title'
p30
VLenovo ThinkPad T450s Touch Performance Windows 8.1 Pro Laptop - Intel Core i7-5600U, 20GB RAM, 1TB SSD, 14  IPS FHD (19
p31
sb.