ccopy_reg
_reconstructor
p0
(c__main__
ProductRecord
p1
c__builtin__
object
p2
Ntp3
Rp4
(dp5
S'product_url'
p6
S'http://www.walmart.com/ip/ThinkPad-X1-Carbon-20HR005HUS-Ultrabook/279922980'
p7
sS'price'
p8
V$2,054.82
p9
sS'properties'
p10
(dp11
VRAM Memory
p12
V8.00 GB
p13
sVOperating System
p14
VWindows 10
p15
sVFeatures
p16
VLenovo Notebook 20HR005HUS TP X1 C5 14 inch Core i7-7600U 8GB 256GB SSD Windows 10 Pro 64 Retail
p17
sVBrand
p18
VLenovo
p19
sVProcessor Speed
p20
V2.80 GHz
p21
sVManufacturer Part Number
p22
V20HR005HUS
p23
sVHard Drive Capacity
p24
V256.00 GB
p25
sVAssembled Product Dimensions (L x W x H)
p26
V14.30 x 8.60 x 0.60 Inches
p27
sVModel
p28
V20HR005HUS
p29
sVScreen Size
p30
V14.00 in
p31
sVProcessor Type
p32
VIntel Core i7
p33
sVCondition
p34
VNew
p35
ssS'title'
p36
VThinkPad X1 Carbon 20HR005HUS Ultrabook
p37
sb.