ccopy_reg
_reconstructor
p0
(c__main__
ProductRecord
p1
c__builtin__
object
p2
Ntp3
Rp4
(dp5
S'product_url'
p6
S'http://www.walmart.com/ip/HP-ZBook-Studio-G3-T6E15UT-ABA-Mobile-Workstation/192522002'
p7
sS'price'
p8
V$2,058.45
p9
sS'properties'
p10
(dp11
VRAM Memory
p12
V8 Gigabytes
p13
sVOperating System
p14
VWindows 7
p15
sVVideo Game Platform
p16
VPC
p17
sVBrand
p18
VHP
p19
sVProcessor Speed
p20
V2.7
p21
sVMaximum RAM Supported
p22
V32 GB
p23
sVHard Drive Capacity
p24
V256
p25
sVModel
p26
VT6E15UT#ABA
p27
sVScreen Size
p28
V15.60 in
p29
sVProcessor Type
p30
VIntel i7-6820HQ
p31
sVCondition
p32
VNew
p33
sVmanufacturer_part_number
p34
Vt6e15ut # aba
p35
ssS'title'
p36
VHP ZBook Studio G3 T6E15UT#ABA Mobile Workstation
p37
sb.