ccopy_reg
_reconstructor
p0
(c__main__
ProductRecord
p1
c__builtin__
object
p2
Ntp3
Rp4
(dp5
S'product_url'
p6
S'http://www.walmart.com/ip/Lenovo-ThinkPad-X1-Carbon-4-Business-Ultrabook-Windows-10-Pro-Intel-Core-i7-6600U-1TB-NVMe-PCIe-SSD-16GB-RAM-14-FHD-IPS-1920x1080-Display-Fingerprint/983458523'
p7
sS'price'
p8
V$2,099.14
p9
sS'properties'
p10
(dp11
VRAM Memory
p12
V16 Gigabytes
p13
sVOperating System
p14
VWindows 10
p15
sVBrand
p16
VLenovo
p17
sVProcessor Speed
p18
V3.4 Gigahertz
p19
sVHard Drive Capacity
p20
V1 Terabytes
p21
sVModel
p22
V20FB
p23
sVScreen Size
p24
V14 Inches
p25
sVProcessor Type
p26
Vcore_i7
p27
sVCondition
p28
VNew
p29
ssS'title'
p30
VLenovo ThinkPad X1 Carbon 4 Business Ultrabook - Windows 10 Pro - Intel Core i7-6600U, 1TB NVMe-PCIe SSD, 16GB RAM, 14" FHD IPS (1920x1080) Display, Fingerprint Reader, Intel HD Graphics 520
p31
sb.