ccopy_reg
_reconstructor
p0
(c__main__
ProductRecord
p1
c__builtin__
object
p2
Ntp3
Rp4
(dp5
S'product_url'
p6
S'http://www.walmart.com/ip/Lenovo-ThinkPad-X1-Yoga-Multimode-Ultrabook-Windows-10-Pro-Intel-i7-7600U-512GB-SSD-16GB-RAM-14-WQHD-IPS-2560x1440-Touchscreen-w-Pen-Input-Fingerprin/459916338'
p7
sS'price'
p8
V$2,099.16
p9
sS'properties'
p10
(dp11
sS'title'
p12
VLenovo ThinkPad X1 Yoga Multimode Ultrabook - Windows 10 Pro - Intel i7-7600U, 512GB SSD, 16GB RAM, 14" WQHD IPS 2560x1440 Touchscreen w/ Pen Input, Fingerprint Reader, Thin & Light - Black
p13
sb.