ccopy_reg
_reconstructor
p0
(c__main__
ProductRecord
p1
c__builtin__
object
p2
Ntp3
Rp4
(dp5
S'product_url'
p6
S'http://www.walmart.com/ip/ASUS-UX461UA-DS51T-ZenBook-Flip-Ultra-Slim-2-in-1-Laptop-14-FHD-wideview-display-Intel-Core-i5-8th-Gen-8GB-RAM-256GB-SSD-Windows-10-Home-Backlit-keyb/283373019'
p7
sS'price'
p8
S'N/A'
p9
sS'properties'
p10
(dp11
VRAM Memory
p12
V8 GB
p13
sVOperating System
p14
VMicrosoft Windows
p15
sVBrand
p16
VMichaelElectronics2
p17
sVManufacturer Part Number
p18
VASU-14-07079-FHD-ME
p19
sVHard Drive Capacity
p20
V256 GB
p21
sVProcessor Type
p22
V8th Gen Quad-Core Intel i5-8250U Processor 6M Cache up to 3.40 GHz
p23
sVScreen Size
p24
V14 in
p25
sVProcessor Speed
p26
V1.6 GHz
p27
ssS'title'
p28
VASUS UX461UA-DS51T ZenBook Flip Ultra-Slim 2-in-1 Laptop 14\u201d FHD wideview display, Intel Core i5 8th Gen, 8GB RAM, 256GB SSD, Windows 10 Home, Backlit keyboard, Fingerprint, Stylus pen
p29
sb.