ccopy_reg
_reconstructor
p0
(c__main__
ProductRecord
p1
c__builtin__
object
p2
Ntp3
Rp4
(dp5
S'product_url'
p6
S'http://www.walmart.com/ip/Lenovo-ThinkPad-X1-Yoga-14-Core-i5-6300U-8-GB-RAM-512-GB-SSD/51844463'
p7
sS'price'
p8
V$2,027.04
p9
sS'properties'
p10
(dp11
VRAM Memory
p12
V8 Gigabytes
p13
sVOperating System
p14
VWindows 10 Pro (English)
p15
sVBrand
p16
VLenovo
p17
sVProcessor Speed
p18
V2.4 Gigahertz
p19
sVManufacturer Part Number
p20
V20FQ003JUS
p21
sVMaximum RAM Supported
p22
V8 GB
p23
sVHard Drive Capacity
p24
V512 Gigabytes
p25
sVBattery Life
p26
V11 hours
p27
sVAssembled Product Dimensions (L x W x H)
p28
V5.00 x 5.00 x 5.00 Inches
p29
sVModel
p30
VThinkPad X1 Yoga 20FQ003JUS 2 in 1 Ultrabook
p31
sVScreen Size
p32
V14.00 in
p33
sVProcessor Type
p34
VIntel i5-6300U
p35
sVCondition
p36
VNew
p37
ssS'title'
p38
VLenovo ThinkPad X1 Yoga - 14" - Core i5 6300U - 8 GB RAM - 512 GB SSD
p39
sb.