ccopy_reg
_reconstructor
p0
(c__main__
ProductRecord
p1
c__builtin__
object
p2
Ntp3
Rp4
(dp5
S'product_url'
p6
S'http://www.walmart.com/ip/Gigabyte-Notebook-X5-v7-KL3K3D-15-6-inch-Core-i7-7820HK-8GBx2-256GB-1TB-GeForce-GTX-1070-Windows-10-Home-Retail/391142111'
p7
sS'price'
p8
V$2,199.00
p9
sS'properties'
p10
(dp11
VRAM Memory
p12
V8 Gigabytes
p13
sVOperating System
p14
VWindows 10
p15
sVBrand
p16
VGIGABYTE
p17
sVProcessor Speed
p18
V2.9 Gigahertz
p19
sVManufacturer Part Number
p20
VX5 V7-KL3K3D
p21
sVMaximum RAM Supported
p22
V64 Gigabytes
p23
sVHard Drive Capacity
p24
V1 Terabytes
p25
sVAssembled Product Dimensions (L x W x H)
p26
V16.00 x 6.00 x 2.00 Inches
p27
sVModel
p28
VX5 V7-KL3K3D
p29
sVScreen Size
p30
V15.60 Inches
p31
sVProcessor Type
p32
VIntel i7-7820HK
p33
sVCondition
p34
VNew
p35
ssS'title'
p36
VGigabyte Notebook X5 v7-KL3K3D 15.6 inch Core i7-7820HK 8GBx2 256GB+1TB GeForce GTX 1070 Windows 10 Home Retail
p37
sb.