ccopy_reg
_reconstructor
p0
(c__main__
ProductRecord
p1
c__builtin__
object
p2
Ntp3
Rp4
(dp5
S'product_url'
p6
S'http://www.walmart.com/ip/Refurbished-Lenovo-ThinkPad-Yoga-370-20JH002FUS-13-3-Touchscreen-LCD-2-1-Notebook-Intel-Core-i7-7th-Gen-i7-7500U-Dual-core-2-Core-2-70-GHz-8-GB-DDR4-/289764839'
p7
sS'price'
p8
S'N/A'
p9
sS'properties'
p10
(dp11
sS'title'
p12
VRefurbished Lenovo ThinkPad Yoga 370 20JH002FUS 13.3" Touchscreen LCD 2 in 1 Notebook - Intel Core i7 (7th Gen) i7-7500U Dual-core (2 Core) 2.70 GHz - 8 GB DDR4 SDRAM - 256 GB SSD - Windows 10 Pro
p13
sb.