ccopy_reg
_reconstructor
p0
(c__main__
ProductRecord
p1
c__builtin__
object
p2
Ntp3
Rp4
(dp5
S'product_url'
p6
S'http://www.walmart.com/ip/Lenovo-ThinkPad-X1-Carbon-14-Core-i7-5600U-8-GB-RAM-256-GB-SSD/727577586'
p7
sS'price'
p8
V$2,492.48
p9
sS'properties'
p10
(dp11
VRAM Memory
p12
V8 GB
p13
sVOperating System
p14
VMicrosoft Windows
p15
sVBrand
p16
VLenovo
p17
sVProcessor Speed
p18
V2.6 GHz
p19
sVManufacturer Part Number
p20
V20BS0038US
p21
sVMaximum RAM Supported
p22
V8 GB
p23
sVBattery Life
p24
V9.9 hours
p25
sVAssembled Product Dimensions (L x W x H)
p26
V9.00 x 13.00 x 1.00 Inches
p27
sVModel
p28
V20BS0038US
p29
sVScreen Size
p30
V14"
p31
sVProcessor Type
p32
VIntel Core i7
p33
sVCondition
p34
VNew
p35
ssS'title'
p36
VLenovo ThinkPad X1 Carbon - 14" - Core i7 5600U - 8 GB RAM - 256 GB SSD
p37
sb.