ccopy_reg
_reconstructor
p0
(c__main__
ProductRecord
p1
c__builtin__
object
p2
Ntp3
Rp4
(dp5
S'product_url'
p6
S'http://www.walmart.com/ip/SWITCH-ALPHA-12-SA5-271-78M8-12IN-8GB-256GB-W10H-11AC-I7-6500U/54808092'
p7
sS'price'
p8
S'N/A'
p9
sS'properties'
p10
(dp11
VRAM Memory
p12
V8 GB
p13
sVOperating System
p14
VWindows 10
p15
sVColor Category
p16
VMulticolor
p17
sVVideo Game Platform
p18
VPC
p19
sVBrand
p20
VAcer
p21
sVManufacturer Part Number
p22
VNT.LCDAA.014
p23
sVHard Drive Capacity
p24
V256 GB
p25
sVLaptop Computer Type
p26
VTouchscreen
p27
sVProcessor Core Type
p28
VDual-core (2 Core)
p29
sVProcessor Type
p30
VIntel Core i7
p31
sVScreen Size
p32
V12.0"
p33
sVModel
p34
VNT.LCDAA.014
p35
sVCondition
p36
VNew
p37
sVManufacturer
p38
VACER - TABLETS
p39
ssS'title'
p40
VSWITCH ALPHA 12 SA5-271-78M8 12IN 8GB 256GB W10H 11AC I7-6500U
p41
sb.