ccopy_reg
_reconstructor
p0
(c__main__
ProductRecord
p1
c__builtin__
object
p2
Ntp3
Rp4
(dp5
S'product_url'
p6
S'http://www.walmart.com/ip/Dell-Latitude-13-3379-2-in-1-13-3-Core-i5-6300U-8-GB-RAM-256-GB-SSD/364814413'
p7
sS'price'
p8
S'N/A'
p9
sS'properties'
p10
(dp11
VRAM Memory
p12
V8 Gigabytes
p13
sVOperating System
p14
VWindows 10 Pro (English/French/Spanish)
p15
sVFeatures
p16
V8GB M.2 256 SATA SSD W10P 1YNBD
p17
sVVideo Game Platform
p18
VPC
p19
sVBrand
p20
VDell
p21
sVProcessor Speed
p22
V2.4 Gigahertz
p23
sVManufacturer Part Number
p24
V21FNP
p25
sVHard Drive Capacity
p26
V256 Gigabytes
p27
sVAssembled Product Dimensions (L x W x H)
p28
V5.00 x 5.00 x 5.00 Inches
p29
sVModel
p30
V21FNP
p31
sVScreen Size
p32
V13.30 Inches
p33
sVProcessor Type
p34
VIntel i5-6300U
p35
sVCondition
p36
VNew
p37
ssS'title'
p38
VDell Latitude 13 3379 2-in-1 - 13.3" - Core i5 6300U - 8 GB RAM - 256 GB SSD
p39
sb.