ccopy_reg
_reconstructor
p0
(c__main__
ProductRecord
p1
c__builtin__
object
p2
Ntp3
Rp4
(dp5
S'product_url'
p6
S'http://www.walmart.com/ip/PCIe-Touch-Lenovo-Thinkpad-T460s-Windows-8-1-Pro-Laptop-Intel-Core-i7-6600U-20GB-RAM-1TB-PCIe-NVMe-SSD-14-IPS-FHD-1920x1080-Matte-Touchscreen-Fingerp/847471976'
p7
sS'price'
p8
S'N/A'
p9
sS'properties'
p10
(dp11
sS'title'
p12
S'Missing'
p13
sb.