ccopy_reg
_reconstructor
p0
(c__main__
ProductRecord
p1
c__builtin__
object
p2
Ntp3
Rp4
(dp5
S'product_url'
p6
S'http://www.walmart.com/ip/Lenovo-20HR006SUS-ThinkPad-X1-Carbon-14in-Ultrabook-Intel-Core-i7-7600U-Dual-core-2-8GHz-16GB-LPDDR3-1TB-SSD-Windows-10-Pro-64bit-Black/441641266'
p7
sS'price'
p8
V$2,580.51
p9
sS'properties'
p10
(dp11
VOperating System
p12
VMicrosoft Windows
p13
sVBrand
p14
VLenovo
p15
sVHard Drive Capacity
p16
V1000 GB
p17
sVModel
p18
V20HR006SUS
p19
sVScreen Size
p20
V14\u005c"
p21
sVCondition
p22
VNew
p23
sVmanufacturer_part_number
p24
V20hr006sus
p25
ssS'title'
p26
VLenovo 20HR006SUS ThinkPad X1 Carbon 14in Ultrabook, Intel Core i7-7600U Dual-core 2.8GHz, 16GB LPDDR3, 1TB SSD, Windows 10 Pro 64bit, Black
p27
sb.