ccopy_reg
_reconstructor
p0
(c__main__
ProductRecord
p1
c__builtin__
object
p2
Ntp3
Rp4
(dp5
S'product_url'
p6
S'http://www.walmart.com/ip/Lenovo-ThinkPad-X1-Carbon-6th-Gen-20KH002GUS-14-LCD-Ultrabook-Intel-Core-i7-8th-Gen-i7-8650U-Quad-core-4-Core-1-90-GHz-16-GB-LPDDR3-512-GB-SSD-Window/930739228'
p7
sS'price'
p8
V$2,379.76
p9
sS'properties'
p10
(dp11
VRAM Memory
p12
V16 Gigabytes
p13
sVOperating System
p14
VWindows 10 Pro (English)
p15
sVBrand
p16
VLenovo
p17
sVProcessor Speed
p18
V1.9 Gigahertz
p19
sVManufacturer Part Number
p20
V20KH002GUS
p21
sVHard Drive Capacity
p22
V512 Gigabytes
p23
sVModel
p24
V20KH002GUS
p25
sVScreen Size
p26
V14.00 Inches
p27
sVProcessor Type
p28
VIntel i7-8650U
p29
ssS'title'
p30
VLenovo ThinkPad X1 Carbon 6th Gen 20KH002GUS 14" LCD Ultrabook - Intel Core i7 (8th Gen) i7-8650U Quad-core (4 Core) 1.90 GHz - 16 GB LPDDR3 - 512 GB SSD - Windows 10 Pro 64-bit (English) - 2560
p31
sb.