ccopy_reg
_reconstructor
p0
(c__main__
ProductRecord
p1
c__builtin__
object
p2
Ntp3
Rp4
(dp5
S'product_url'
p6
S'http://www.walmart.com/ip/HP-ZBook-Studio-G3-15-6-34-16-9-Mobile-Workstation-Ultrabook-1920-x-1080-In-plane-Switching-IPS-Technology-Intel-Core-i7-6th-Gen-i7-6700HQ-Quad-core-/123595442'
p7
sS'price'
p8
V$2,645.68
p9
sS'properties'
p10
(dp11
VOperating System
p12
VMicrosoft Windows
p13
sVBrand
p14
VHP INC. - SB MOBILE WKS
p15
sVScreen Size
p16
V15.6
p17
sVAssembled Product Dimensions (L x W x H)
p18
V21.90 x 12.00 x 3.00 Inches
p19
ssS'title'
p20
VHP ZBook Studio G3 15.6" 16:9 Mobile Workstation Ultrabook - 1920 x 1080 - In-plane Switching (IPS) Technology - Intel Core i7 (6th Gen) i7-6700HQ Quad-core (4 Core) 2.60 GHz - 8 GB DDR4 SDRA
p21
sb.