ccopy_reg
_reconstructor
p0
(c__main__
ProductRecord
p1
c__builtin__
object
p2
Ntp3
Rp4
(dp5
S'product_url'
p6
S'http://www.walmart.com/ip/HP-EliteBook-840-G3-14-Core-i7-6600U-8-GB-RAM-512-GB-SSD/100019972'
p7
sS'price'
p8
V$3,162.64
p9
sS'properties'
p10
(dp11
VRAM Memory
p12
V8 GB
p13
sVOperating System
p14
VMicrosoft Windows
p15
sVFeatures
p16
VHP EliteBook 840 G33-cell batteryPower adapter, Portable powerhouseCombine high performance technology and long battery life with Windows 10 Pro, 6th Gen Intel  Core  processors, and a PCIe Gen3 SSD. Drive performance with up to 32 GB of DDR4 memory, and dual storage options for your most demanding business applications and fast access to data.Slim new design with all the right portsConnect to essential ports without the hassle of dongles. At just 18.9 mm, the ultraslim and light HP EliteBook 840 comes with VGA, Display Port, RJ-45, USB, USB-C , and enterprise docking capabilities.Security inside and outHP helps protect you from malware and visual hacking. HP Sure Start with Dynamic Protection protects against BIOS attacks, and the optional HP Sure View integrated privacy screen shields your screen from prying eyes with the touch of a button.Designed for collaborationReplace your speaker phone with the HP EliteBook 840 with Audio by Bang & Olufsen plus HP Noise Reduction Software that provides a rich collaboration experience for applications like Skype for Business., Be free of dongles and get all the ports you need to connect on the 18.9 mm ultraslim design.Collaborate effectively with others using Audio by Bang & Olufsen and HP Noise Reduction Software.Combine high performance technology and long battery life with Windows 10 Pro, 6th Gen Intel Core processors, and a PCIe Gen3 SSD. Drive performance with up to 32 GB of DDR4 memory, and dual storage options for your most demanding business applications and fast access to data.Protect against BIOS attacks and visual hacking with HP Sure Start with Dynamic Protection and the optional HP Sure View integrated privacy screen.
p17
sVBrand
p18
VHP
p19
sVProcessor Speed
p20
V2.6 GHz
p21
sVManufacturer Part Number
p22
VV1H25UA#ABA
p23
sVMaximum RAM Supported
p24
V16 GB
p25
sVBattery Life
p26
V13.5 hours
p27
sVAssembled Product Dimensions (L x W x H)
p28
V5.00 x 5.00 x 5.00 Inches
p29
sVModel
p30
V840 G3
p31
sVScreen Size
p32
V14"
p33
sVProcessor Type
p34
VIntel Core i7
p35
sVCondition
p36
VNew
p37
ssS'title'
p38
VHP EliteBook 840 G3 - 14" - Core i7 6600U - 8 GB RAM - 512 GB SSD
p39
sb.