ccopy_reg
_reconstructor
p0
(c__main__
ProductRecord
p1
c__builtin__
object
p2
Ntp3
Rp4
(dp5
S'product_url'
p6
S'http://www.walmart.com/ip/HP-ZBook-Studio-G3-15-6-34-16-9-Mobile-Workstation-Ultrabook-3840-x-2160-In-plane-Switching-IPS-Technology-Intel-Xeon-E3-1505M-v5-Quad-core-4-Core-2-/170469915'
p7
sS'price'
p8
V$3,511.08
p9
sS'properties'
p10
(dp11
VAssembled Product Dimensions (L x W x H)
p12
V22.00 x 12.00 x 3.00 Inches
p13
sVBrand
p14
VHP INC. - SB MOBILE WKS
p15
sVScreen Size
p16
V15.6
p17
sVHard Drive Capacity
p18
V512
p19
ssS'title'
p20
VHP ZBook Studio G3 15.6" 16:9 Mobile Workstation Ultrabook - 3840 x 2160 - In-plane Switching (IPS) Technology - Intel Xeon E3-1505M v5 Quad-core (4 Core) 2.80 GHz - 16 GB DDR4 SDRAM - 512 GB
p21
sb.