ccopy_reg
_reconstructor
p0
(c__main__
ProductRecord
p1
c__builtin__
object
p2
Ntp3
Rp4
(dp5
S'product_url'
p6
S'http://www.walmart.com/ip/Lenovo-ThinkPad-P51s-15-6-Premium-Mobile-Workstation-Ultrabook-Laptop-Intel-i7-Processor-16GB-RAM-4TB-SSD-15-6-inch-FHD-1920x1080-IPS-Display-NVIDIA-/813564647'
p7
sS'price'
p8
V$3,663.45
p9
sS'properties'
p10
(dp11
VRAM Memory
p12
V16 GB
p13
sVOperating System
p14
VMicrosoft Windows
p15
sVBrand
p16
VMichaelElectronics2
p17
sVManufacturer Part Number
p18
VLEN-15-01217-P71ME13
p19
sVHard Drive Capacity
p20
V4 TB
p21
sVProcessor Type
p22
VIntel Core 7th Gen i7-7500U
p23
sVScreen Size
p24
V15.6 in
p25
sVProcessor Speed
p26
V2.7 GHz
p27
ssS'title'
p28
VLenovo ThinkPad P51s 15.6'' Premium Mobile Workstation Ultrabook Laptop (Intel i7 Processor, 16GB RAM, 4TB SSD, 15.6 inch FHD 1920x1080 IPS Display, NVIDIA Quadro M520M, FingerPrint, Win 10 Pro)
p29
sb.