ccopy_reg
_reconstructor
p0
(c__main__
ProductRecord
p1
c__builtin__
object
p2
Ntp3
Rp4
(dp5
S'product_url'
p6
S'http://www.walmart.com/ip/Samsung-15-Series-9-NP900X4C-Ultrabook-PC-with-Intel-Core-i5-3317U-Processor-and-Windows-8/22098070'
p7
sS'price'
p8
S'N/A'
p9
sS'properties'
p10
(dp11
VRAM Memory
p12
V8 GB
p13
sVOperating System
p14
VWindows 8
p15
sVVideo Game Platform
p16
VPC
p17
sVBrand
p18
VSamsung
p19
sVProcessor Speed
p20
V1.70 GHz, with a Max Turbo Speed of 2.60 GHz
p21
sVManufacturer Part Number
p22
VNP900X4C-A06US
p23
sVMaximum RAM Supported
p24
V8 GB
p25
sVHard Drive Capacity
p26
V128 GB
p27
sVBattery Life
p28
V9 Hour
p29
sVAssembled Product Dimensions (L x W x H)
p30
V19.60 x 4.60 x 12.80 Inches
p31
sVModel
p32
VNP900X4C-A06US
p33
sVScreen Size
p34
V15.0"
p35
sVProcessor Type
p36
VIntel Core i5
p37
ssS'title'
p38
VSamsung 15" Series 9 NP900X4C Ultrabook PC with Intel Core i5-3317U Processor and Windows 8
p39
sb.