ccopy_reg
_reconstructor
p0
(c__main__
ProductRecord
p1
c__builtin__
object
p2
Ntp3
Rp4
(dp5
S'product_url'
p6
S'http://www.walmart.com/ip/Dell-Silver-Anodized-Aluminum-13-3-XPS-13-XPS13R2-1100sLV-Ultrabook-PC-with-Intel-Core-i7-3537U-Processor-and-Windows-8-Operating-System/22867761'
p7
sS'price'
p8
S'N/A'
p9
sS'properties'
p10
(dp11
VRAM Memory
p12
V8 GB
p13
sVOperating System
p14
VMicrosoft Windows
p15
sVVideo Game Platform
p16
VPC
p17
sVBrand
p18
VDell
p19
sVProcessor Speed
p20
V2.0 GHz
p21
sVManufacturer Part Number
p22
VXPS13R2-1100sLV
p23
sVHard Drive Capacity
p24
V128 GB
p25
sVAssembled Product Dimensions (L x W x H)
p26
V8.07 x 12.44 x 0.71 Inches
p27
sVModel
p28
VXPS13R2-1100sLV
p29
sVScreen Size
p30
V13.3"
p31
sVProcessor Type
p32
VIntel Core i7
p33
sVCondition
p34
VNew
p35
ssS'title'
p36
VDell Silver Anodized Aluminum 13.3" XPS 13 XPS13R2-1100sLV Ultrabook PC with Intel Core i7-3537U Processor and Windows 8 Operating System
p37
sb.