ccopy_reg
_reconstructor
p0
(c__main__
ProductRecord
p1
c__builtin__
object
p2
Ntp3
Rp4
(dp5
S'product_url'
p6
S'http://www.walmart.com/ip/Asus-13-3-Zenbook-UX31E-XB51-Laptop-PC-with-Intel-Core-i5-2467M-Processor-and-Windows-7-Professional/21978261'
p7
sS'price'
p8
S'N/A'
p9
sS'properties'
p10
(dp11
VRAM Memory
p12
V4 GB
p13
sVOperating System
p14
VWindows 7
p15
sVColor Category
p16
VSilver
p17
sVVideo Game Platform
p18
VPC
p19
sVBrand
p20
VASUS
p21
sVManufacturer Part Number
p22
VUX31E-XB51
p23
sVWireless Technology
p24
VBluetooth 4.0
p25
sVHard Drive Capacity
p26
V128 GB
p27
sVLaptop Computer Type
p28
VBusiness Laptops
p29
sVProcessor Core Type
p30
VDual-core (2 Core)
p31
sVProcessor Type
p32
VIntel Core i5
p33
sVScreen Size
p34
V13.3"
p35
sVModel
p36
VUX31E-XB51
p37
sVManufacturer
p38
VAsus
p39
ssS'title'
p40
VAsus 13.3" Zenbook UX31E-XB51 Laptop PC with Intel Core i5-2467M Processor and Windows 7 Professional
p41
sb.