ccopy_reg
_reconstructor
p0
(c__main__
ProductRecord
p1
c__builtin__
object
p2
Ntp3
Rp4
(dp5
S'product_url'
p6
S'http://www.walmart.com/ip/Acer-Ultrabook-Silver-13-3-S3-391-6046-PC-with-Intel-Core-i3-2367M-processor-and-Windows-8-Operating-System/21317992'
p7
sS'price'
p8
V$544.71
p9
sS'properties'
p10
(dp11
VRAM Memory
p12
V8 GB
p13
sVOperating System
p14
VMicrosoft Windows
p15
sVColor Category
p16
VSilver
p17
sVVideo Game Platform
p18
VPC
p19
sVBrand
p20
VAcer
p21
sVManufacturer Part Number
p22
VNX.M4UAA.001
p23
sVHard Drive Capacity
p24
V320 GB
p25
sVLaptop Computer Type
p26
VUltrabooks
p27
sVProcessor Type
p28
VIntel Core i3
p29
sVScreen Size
p30
V13.3"
p31
sVModel
p32
VS3-391-6046
p33
sVCondition
p34
VNew
p35
sVManufacturer
p36
VAcer Computers
p37
ssS'title'
p38
VAcer Ultrabook Silver 13.3" S3-391-6046 PC with Intel Core i3-2367M processor and Windows 8 Operating System
p39
sb.