ccopy_reg
_reconstructor
p0
(c__main__
ProductRecord
p1
c__builtin__
object
p2
Ntp3
Rp4
(dp5
S'product_url'
p6
S'http://www.walmart.com/ip/Refurbished-HP-ENVY-TouchSmart-14-k110nr-Ultrabook-Core-i5-4200U-1-6-GHz-Windows-8-1-64-bit-8-GB-RAM-500-GB-HDD-24-GB-SSD-c/39959215'
p7
sS'price'
p8
V$598.00
p9
sS'properties'
p10
(dp11
VRAM Memory
p12
V8 GB
p13
sVOperating System
p14
VMicrosoft Windows
p15
sVFeatures
p16
VHP ENVY TouchSmart 14-k110nr3-cell battery, Totally engagingBrilliant, natural navigation. Pinch, rotate, scroll, and tap on the vibrant 14-inch diagonal HD touchscreen. Use multi-touch gestures to play more naturally.Take anywhere, create anywhereWherever you go, so does the thin, light Ultrabook. Keeps your creativity moving with long battery life. With its metal construction, the HP ENVY TouchSmart Ultrabook is engineered to be elegantly simple. And technology on the go, enjoy more mobility than ever with a thin and light PC you can take everywhere. Keep playing, even in dimly lit rooms or aboard red-eye flights. With an illuminated keyboard, you can type comfortably in more environments.Accelerated accessEach time you come back to your notebook, information is up to date thanks to Intel Smart Connect. It's the notebook that stays a step ahead, so you don't miss a thing. With a fast resume from even the deepest sleep, your notebook gets going in seconds thanks to Intel Rapid Start technology., 14-inch diagonal QHD+ touchscreenTake anywhere, create anywhereIntel Smart ConnectIntel Rapid Start technology
p17
sVVideo Game Platform
p18
VPC
p19
sVBrand
p20
VHP
p21
sVProcessor Speed
p22
V1.60 GHz
p23
sVManufacturer Part Number
p24
VE8A24UAR#ABA
p25
sVMaximum RAM Supported
p26
V16 GB
p27
sVHard Drive Capacity
p28
V500
p29
sVAssembled Product Dimensions (L x W x H)
p30
V0.87 x 13.65 x 9.42 Inches
p31
sVModel
p32
VE8A24UAR#ABA
p33
sVScreen Size
p34
V14"
p35
sVProcessor Type
p36
VIntel Core i5
p37
sVCondition
p38
VRefurbished
p39
ssS'title'
p40
VRefurbished HP ENVY TouchSmart 14-k110nr Ultrabook - Core i5 4200U / 1.6 GHz, Windows 8.1 64-bit, 8 GB RAM, 500 GB HDD ( 24 GB SSD c
p41
sb.