ccopy_reg
_reconstructor
p0
(c__main__
ProductRecord
p1
c__builtin__
object
p2
Ntp3
Rp4
(dp5
S'product_url'
p6
S'http://www.walmart.com/ip/Apple-Macbook-12-Retina-Display-Intel-Core-m3-8GB-Memory-256GB-Flash-Storage-Gold-Certified-Refurbished/50996581'
p7
sS'price'
p8
V$829.00
p9
sS'properties'
p10
(dp11
VRAM Memory
p12
V8 GB
p13
sVOperating System
p14
VMac OS X El Capitan
p15
sVVideo Game Platform
p16
VMac
p17
sVBrand
p18
VApple
p19
sVProcessor Speed
p20
V2.10 GHz, with a Max Turbo Speed of 2.40 GHz
p21
sVManufacturer Part Number
p22
VMK4M2LL/A
p23
sVHard Drive Capacity
p24
V256 KB
p25
sVBattery Life
p26
V9 h
p27
sVAssembled Product Dimensions (L x W x H)
p28
V11.00 x 0.05 x 7.70 Inches
p29
sVModel
p30
VMK4M2LL/A
p31
sVScreen Size
p32
V12 in
p33
sVProcessor Type
p34
VIntel Core M Dual-Core Processor
p35
sVCondition
p36
VRefurbished
p37
ssS'title'
p38
VApple Macbook 12" Retina Display Intel Core m3, 8GB Memory, 256GB Flash Storage - Gold (Certified Refurbished)
p39
sb.