ccopy_reg
_reconstructor
p0
(c__main__
ProductRecord
p1
c__builtin__
object
p2
Ntp3
Rp4
(dp5
S'product_url'
p6
S'http://www.walmart.com/ip/Refurbished-Apple-MacBook-Pro-13-3-LED-Intel-i5-3210M-Core-2-5GHz-4GB-500GB-Laptop-MD101LLA/132844770'
p7
sS'price'
p8
V$488.72
p9
sS'properties'
p10
(dp11
VRAM Memory
p12
V4 GB
p13
sVOperating System
p14
VMac OS
p15
sVBrand
p16
VApple
p17
sVProcessor Speed
p18
V2.5 GHz
p19
sVManufacturer Part Number
p20
VMD101LLA-PB-RCB-WAL6
p21
sVHard Drive Capacity
p22
V500 GB
p23
sVAssembled Product Dimensions (L x W x H)
p24
V11.50 x 9.50 x 0.55 Inches
p25
sVModel
p26
VMD101LL/A
p27
sVScreen Size
p28
V13 in
p29
sVProcessor Type
p30
VIntel Core i5
p31
ssS'title'
p32
VRefurbished Apple MacBook Pro 13.3" LED Intel i5-3210M Core 2.5GHz 4GB 500GB Laptop MD101LLA
p33
sb.