ccopy_reg
_reconstructor
p0
(c__main__
ProductRecord
p1
c__builtin__
object
p2
Ntp3
Rp4
(dp5
S'product_url'
p6
S'http://www.walmart.com/ip/Apple-MacBook-Air-13-3-Inch-Laptop-MJVE2LL-A-Intel-Core-i5-1-6GHz-4GB-RAM-128GB-SSD-Scratch-and-Dent-Refurbished/44635137'
p7
sS'price'
p8
V$689.99
p9
sS'properties'
p10
(dp11
VRAM Memory
p12
V4 KB
p13
sVOperating System
p14
VApple iOS
p15
sVFeatures
p16
VThin, light, powerful, Macbook Air does not have a Retina display on any model., 4 GB of 1600 MHz LPDDR3 RAM; 128 GB PCIe-based flash storage, OS X Yosemite, Up to 12 Hours of Battery Life, Intel HD Graphics 6000, 802.11ac Wi-Fi support, 13.3-Inch (diagonal) LED-backlit Glossy Widescreen Display, 1440 x 900 resolution, 1.6 GHz dual-core Intel Core i5 (Turbo Boost up to 2.7 GHz) with 3 MB shared L3 cache, Fast all-flash storage, Long battery life
p17
sVBrand
p18
VApple
p19
sVProcessor Speed
p20
V1.6 Hz
p21
sVManufacturer Part Number
p22
VMJVE2LL/A
p23
sVMaximum RAM Supported
p24
V8 KB
p25
sVHard Drive Capacity
p26
V128 KB
p27
sVBattery Life
p28
V12 h
p29
sVModel
p30
VMJVE2LL/A
p31
sVScreen Size
p32
V12 in
p33
sVProcessor Type
p34
VIntel Core i5
p35
sVCondition
p36
VNew
p37
ssS'title'
p38
VApple MacBook Air 13.3 Inch Laptop MJVE2LL/A Intel Core i5 1.6GHz, 4GB RAM, 128GB SSD (Scratch and Dent Refurbished)
p39
sb.