ccopy_reg
_reconstructor
p0
(c__main__
ProductRecord
p1
c__builtin__
object
p2
Ntp3
Rp4
(dp5
S'product_url'
p6
S'http://www.walmart.com/ip/Apple-MacBook-Pro-13-3-Inch-Laptop-2-26GHz-8GB-DDR3-Memory-500GB-SSHD-Solid-State-Hybrid-Hard-Drive-Refurbished/941938757'
p7
sS'price'
p8
V$499.00
p9
sS'properties'
p10
(dp11
VRAM Memory
p12
V8 Gigabytes, 8 GB
p13
sVOperating System
p14
VMac OS
p15
sVBrand
p16
VApple
p17
sVProcessor Speed
p18
V2.26 Gigahertz
p19
sVMaximum RAM Supported
p20
V8 Gigabytes
p21
sVHard Drive Capacity
p22
V500 Terabytes, 500 GB
p23
sVAssembled Product Dimensions (L x W x H)
p24
V12.80 x 8.90 x 0.90 Inches
p25
sVModel
p26
VMB990LL/A
p27
sVScreen Size
p28
V13.2 Inches
p29
sVProcessor Type
p30
V45 nm "Penryn" 2.26 GHz Intel "Core 2 Duo" processor
p31
ssS'title'
p32
VApple MacBook Pro 13.3-Inch Laptop 2.26GHz / 8GB DDR3 Memory / 500GB SSHD (Solid State Hybrid) Hard Drive - Refurbished
p33
sb.