ccopy_reg
_reconstructor
p0
(c__main__
ProductRecord
p1
c__builtin__
object
p2
Ntp3
Rp4
(dp5
S'product_url'
p6
S'http://www.walmart.com/ip/Apple-MacBook-Air-MC965LL-A-C-Intel-Core-i5-2557M-2nd-Gen-X2-1-7GHz-4GB-Silver-Scratch-And-Dent-Refurbished/225318401'
p7
sS'price'
p8
V$499.00
p9
sS'properties'
p10
(dp11
VRAM Memory
p12
V4 GB
p13
sVOperating System
p14
VMac OS
p15
sVColor Category
p16
VSilver
p17
sVBrand
p18
VApple
p19
sVManufacturer Part Number
p20
VMC965LL-A
p21
sVWireless Technology
p22
VBluetooth 4.0
p23
sVHard Drive Capacity
p24
V128 GB
p25
sVProcessor Core Type
p26
VDual-core (2 Core)
p27
sVProcessor Type
p28
VIntel Core i5
p29
sVScreen Size
p30
V13.3 in
p31
sVModel
p32
VMC965LL/A
p33
sVCondition
p34
VNew
p35
sVManufacturer
p36
VApple
p37
ssS'title'
p38
VApple MacBook Air MC965LL/A - C Intel Core i5-2557M 2nd Gen X2 1.7GHz 4GB,Silver (Scratch And Dent Refurbished)
p39
sb.