ccopy_reg
_reconstructor
p0
(c__main__
ProductRecord
p1
c__builtin__
object
p2
Ntp3
Rp4
(dp5
S'product_url'
p6
S'http://www.walmart.com/ip/Refurbished-Apple-Glossy-White-13-3-MC207LL-A-MacBook-with-Intel-Core-2-Duo-Processor-4GB-Memory-250GB-Hard-Drive-and-Mac-OS-X-10-11-El-Capitan/51564651'
p7
sS'price'
p8
V$338.82
p9
sS'properties'
p10
(dp11
VRAM Memory
p12
V4 GB
p13
sVOperating System
p14
VMac OS X 10.11 El Capitan
p15
sVVideo Game Platform
p16
VMac
p17
sVBrand
p18
VApple
p19
sVProcessor Speed
p20
V2.26 GHz
p21
sVManufacturer Part Number
p22
VMC207/C2D/4/250
p23
sVHard Drive Capacity
p24
V250 GB
p25
sVBattery Life
p26
V6 hours
p27
sVAssembled Product Dimensions (L x W x H)
p28
V4.50 x 19.75 x 15.50 Inches
p29
sVModel
p30
VMC207/C2D/4/250
p31
sVScreen Size
p32
V13.3"
p33
sVProcessor Type
p34
VIntel Core 2 Duo
p35
sVCondition
p36
VRefurbished
p37
ssS'title'
p38
VRefurbished Apple Glossy White 13.3" MC207LL/A MacBook with Intel Core 2 Duo Processor, 4GB Memory, 250GB Hard Drive and Mac OS X 10.11 El Capitan
p39
sb.