ccopy_reg
_reconstructor
p0
(c__main__
ProductRecord
p1
c__builtin__
object
p2
Ntp3
Rp4
(dp5
S'product_url'
p6
S'http://www.walmart.com/ip/Apple-MacBook-Air-MD760LL-A-Intel-Core-i5-4250U-X2-1-3GHz-4GB-128GB-SSD-Certified-Refurbished/162288782'
p7
sS'price'
p8
V$548.23
p9
sS'properties'
p10
(dp11
VRAM Memory
p12
V4 GB
p13
sVOperating System
p14
VMicrosoft Windows
p15
sVBrand
p16
VApple
p17
sVProcessor Speed
p18
V1.3 GHz
p19
sVManufacturer Part Number
p20
VMBA-MD760LLA-B2
p21
sVMaximum RAM Supported
p22
V8 GB
p23
sVHard Drive Capacity
p24
V128 GB
p25
sVBattery Life
p26
V12 hours
p27
sVAssembled Product Dimensions (L x W x H)
p28
V11.50 x 9.50 x 0.43 Inches
p29
sVModel
p30
VW-MD760-B
p31
sVScreen Size
p32
V13.3"
p33
sVProcessor Type
p34
VIntel Core i5
p35
sVCondition
p36
VRefurbished
p37
ssS'title'
p38
VApple MacBook Air MD760LL/A Intel Core i5-4250U X2 1.3GHz 4GB 128GB SSD (Certified Refurbished)
p39
sb.