ccopy_reg
_reconstructor
p0
(c__main__
ProductRecord
p1
c__builtin__
object
p2
Ntp3
Rp4
(dp5
S'product_url'
p6
S'http://www.walmart.com/ip/Apple-MacBook-Pro-13-3-MC700ll-A-Laptop-Computer-Intel-i5-Dual-Core-2-3GHz-4GB-320GB-Certified-Refurbished-Grade-C/131105937'
p7
sS'price'
p8
V$423.32
p9
sS'properties'
p10
(dp11
VRAM Memory
p12
V4 GB
p13
sVOperating System
p14
VApple iOS
p15
sVBrand
p16
VApple
p17
sVProcessor Speed
p18
V2.3 GHz
p19
sVManufacturer Part Number
p20
VMC700LLA-PB-RCC
p21
sVHard Drive Capacity
p22
V320 GB
p23
sVModel
p24
VMacBook
p25
sVScreen Size
p26
V13.3 in
p27
sVProcessor Type
p28
VIntel Core i5
p29
ssS'title'
p30
VApple MacBook Pro 13.3'' MC700ll/A Laptop Computer Intel i5 Dual Core 2.3GHz 4GB 320GB ( Certified Refurbished - Grade C )
p31
sb.