ccopy_reg
_reconstructor
p0
(c__main__
ProductRecord
p1
c__builtin__
object
p2
Ntp3
Rp4
(dp5
S'product_url'
p6
S'http://www.walmart.com/ip/Refurbished-Apple-MacBook-13-3-MC207LL-A-2-26GHz-Intel-Core-2-Duo-P7550-2GB-250GB-Laptop/174578320'
p7
sS'price'
p8
V$167.99
p9
sS'properties'
p10
(dp11
VRAM Memory
p12
V2 GB
p13
sVOperating System
p14
VApple iOS
p15
sVColor Category
p16
VWhite
p17
sVLaptop Computer Type
p18
VMacbooks
p19
sVBrand
p20
VApple
p21
sVManufacturer Part Number
p22
VMC207LLA-PB-4RCB
p23
sVProcessor Type
p24
VIntel Core 2 Duo
p25
sVScreen Size
p26
V5.0
p27
sVModel
p28
VMC207LL/A
p29
sVManufacturer
p30
VApple
p31
ssS'title'
p32
VRefurbished Apple MacBook 13.3" MC207LL/A 2.26GHz Intel Core 2 Duo P7550 2GB 250GB Laptop
p33
sb.