ccopy_reg
_reconstructor
p0
(c__main__
ProductRecord
p1
c__builtin__
object
p2
Ntp3
Rp4
(dp5
S'product_url'
p6
S'http://www.walmart.com/ip/Apple-MMGF2LL-A-MacBook-Air-13-3-Inch-Laptop-128-GB/52174601'
p7
sS'price'
p8
V$949.99
p9
sS'properties'
p10
(dp11
VRAM Memory
p12
V8 GB
p13
sVOperating System
p14
VMac OS X 10.11 El Capitan
p15
sVColor Category
p16
VSilver
p17
sVLaptop Computer Type
p18
VMacBooks
p19
sVBrand
p20
VApple
p21
sVManufacturer Part Number
p22
VMMGF2LL/A
p23
sVWireless Technology
p24
VIEEE 802.11g
p25
sVProcessor Core Type
p26
VDual-core (2 Core)
p27
sVProcessor Type
p28
VIntel Core i5
p29
sVScreen Size
p30
V13.3"
p31
sVModel
p32
VMMGF2LL/A
p33
sVCondition
p34
VNew
p35
sVManufacturer
p36
VApple
p37
ssS'title'
p38
VApple MMGF2LL/A MacBook Air 13.3-Inch Laptop (128 GB)
p39
sb.