ccopy_reg
_reconstructor
p0
(c__main__
ProductRecord
p1
c__builtin__
object
p2
Ntp3
Rp4
(dp5
S'product_url'
p6
S'http://www.walmart.com/ip/Refurbished-Apple-Macbook-Air-MD231LL-A-13-3-inch-Laptop-Intel-Core-i5-3427U-X2-1-6GHz-4GB-128GB-SSD/166620170'
p7
sS'price'
p8
V$579.99
p9
sS'properties'
p10
(dp11
VRAM Memory
p12
V4 GB
p13
sVOperating System
p14
VMac OS
p15
sVColor Category
p16
VSilver
p17
sVVideo Game Platform
p18
VMac OS
p19
sVBrand
p20
VApple
p21
sVManufacturer Part Number
p22
VMD231LL/A-RB
p23
sVWireless Technology
p24
VBluetooth, Wifi 802.11a/b/g/n
p25
sVHard Drive Capacity
p26
V128 GB
p27
sVLaptop Computer Type
p28
VMacBooks
p29
sVProcessor Core Type
p30
VDual Core
p31
sVProcessor Type
p32
VIntel Core i5
p33
sVScreen Size
p34
V13.3 in
p35
sVModel
p36
VMD231LL/A-RB
p37
sVCondition
p38
VRefurbished
p39
sVManufacturer
p40
VApple
p41
ssS'title'
p42
VRefurbished Apple Macbook Air MD231LL/A 13.3-inch Laptop Intel Core i5-3427U X2 1.6GHz 4GB 128GB SSD
p43
sb.