ccopy_reg
_reconstructor
p0
(c__main__
ProductRecord
p1
c__builtin__
object
p2
Ntp3
Rp4
(dp5
S'product_url'
p6
S'http://www.walmart.com/ip/Apple-13-MacBook-Air-1-8GHz-Intel-Core-i5-Dual-Core-Processor-8GB-RAM-128GB-SSD-Mac-OS-Silver-MQD32LL-A-Newest-Version/217995659'
p7
sS'price'
p8
V$859.49
p9
sS'properties'
p10
(dp11
VRAM Memory
p12
V8 GB
p13
sVOperating System
p14
VMicrosoft Windows
p15
sVFeatures
p16
V128GB SSD storage, 8GB 1600MHz LPDDR3 memory, 1.8GHz dual-core Intel Core i5 processor with Turbo Boost up to 2.9GHz, Intel HD Graphics 6000
p17
sVBrand
p18
VApple
p19
sVManufacturer Part Number
p20
VMQD32LL/A
p21
sVHard Drive Capacity
p22
V128 KB
p23
sVAssembled Product Dimensions (L x W x H)
p24
V14.30 x 10.50 x 2.20 Inches
p25
sVProcessor Type
p26
VIntel Core i5
p27
sVScreen Size
p28
V13 in
p29
sVCondition
p30
VNew
p31
ssS'title'
p32
VApple 13" MacBook Air, 1.8GHz Intel Core i5 Dual Core Processor, 8GB RAM, 128GB SSD, Mac OS, Silver, MQD32LL/A (Newest Version)
p33
sb.