ccopy_reg
_reconstructor
p0
(c__main__
ProductRecord
p1
c__builtin__
object
p2
Ntp3
Rp4
(dp5
S'product_url'
p6
S'http://www.walmart.com/ip/Apple-MacBook-Air-MJVM2LL-A-11-6-Inch-128GB-Laptop-w-4GB-Ram-Intel-Core-i5-1-6-GHz-Processor-Grade-A-Certified-Refurbished/45467496'
p7
sS'price'
p8
V$643.99
p9
sS'properties'
p10
(dp11
VRAM Memory
p12
V4 GB
p13
sVOperating System
p14
VMac OS
p15
sVFeatures
p16
VOS X Yosemite, Up to 9 Hours of Battery Life
p17
sVVideo Game Platform
p18
VMac
p19
sVBrand
p20
VApple
p21
sVProcessor Speed
p22
V1.6 GHz
p23
sVManufacturer Part Number
p24
VMJVM2LL/A
p25
sVMaximum RAM Supported
p26
V8 KB
p27
sVHard Drive Capacity
p28
V128 GB
p29
sVBattery Life
p30
V9 h
p31
sVAssembled Product Dimensions (L x W x H)
p32
V1.00 x 1.00 x 1.00 Inches
p33
sVModel
p34
VHD Graphics 6000
p35
sVScreen Size
p36
V11.6 in
p37
sVProcessor Type
p38
VIntel Core i5
p39
sVCondition
p40
VNew
p41
ssS'title'
p42
VApple MacBook Air MJVM2LL/A 11.6-Inch 128GB Laptop w/4GB Ram & Intel Core i5 1.6 GHz Processor -Grade A Certified Refurbished
p43
sb.