ccopy_reg
_reconstructor
p0
(c__main__
ProductRecord
p1
c__builtin__
object
p2
Ntp3
Rp4
(dp5
S'product_url'
p6
S'http://www.walmart.com/ip/Refurbished-Apple-MacBook-Pro-13-3-Intel-Core-2-Duo-2-26GHz-2GB-160GB-Laptop-MB990LL-A/137572840'
p7
sS'price'
p8
V$339.49
p9
sS'properties'
p10
(dp11
VOperating System
p12
VMay Come Standard with Mac OSX  10.5.7 or higher
p13
sVVideo Game Platform
p14
VMac OS
p15
sVBrand
p16
VApple
p17
sVProcessor Speed
p18
V2.2599999999999998 Gigahertz
p19
sVMaximum RAM Supported
p20
V2 Gigabytes
p21
sVHard Drive Capacity
p22
V160 Gigabytes
p23
sVModel
p24
VMB990LL/A
p25
sVScreen Size
p26
V13.3 Inches
p27
sVProcessor Type
p28
VIntel Core 2 Duo
p29
ssS'title'
p30
VRefurbished Apple MacBook Pro 13.3 Intel Core 2 Duo 2.26GHz 2GB 160GB Laptop MB990LL/A
p31
sb.