ccopy_reg
_reconstructor
p0
(c__main__
ProductRecord
p1
c__builtin__
object
p2
Ntp3
Rp4
(dp5
S'product_url'
p6
S'http://www.walmart.com/ip/Apple-MacBook-Pro-MD103LL-A-15-4-500GB-Intel-Core-i7-Four-core-2-30GHz-4GB-White/101448960'
p7
sS'price'
p8
V$699.99
p9
sS'properties'
p10
(dp11
VRAM Memory
p12
V4 GB
p13
sVOperating System
p14
VMac OS X 10.8 Mountain Lion
p15
sVFeatures
p16
VKensington Lock Slot
p17
sVBrand
p18
VApple
p19
sVProcessor Speed
p20
V2.30 GHz
p21
sVMaximum RAM Supported
p22
V8 GB
p23
sVHard Drive Capacity
p24
V500 GB
p25
sVBattery Life
p26
V7 Hour
p27
sVAssembled Product Dimensions (L x W x H)
p28
V9.80 x 14.40 x 1.00 Inches
p29
sVModel
p30
VHD 4000, GeForce GT 650M, MD103LL/A
p31
sVScreen Size
p32
V15.4"
p33
sVProcessor Type
p34
VIntel Core i7
p35
sVCondition
p36
VNew
p37
sVmanufacturer_part_number
p38
VMD103LL/A
p39
ssS'title'
p40
VApple MacBook Pro MD103LL/A 15.4" 500GB,Intel Core i7 Four-core,2.30GHz,4GB White
p41
sb.