ccopy_reg
_reconstructor
p0
(c__main__
ProductRecord
p1
c__builtin__
object
p2
Ntp3
Rp4
(dp5
S'product_url'
p6
S'http://www.walmart.com/ip/Apple-MacBook-Pro-13-3-Inch-Laptop-2-4GHz-16GB-DDR3-Memory-1TB-SSHD-Solid-State-Hybrid-Drive-Refurbished/410955835'
p7
sS'price'
p8
V$699.00
p9
sS'properties'
p10
(dp11
VRAM Memory
p12
V16 GB
p13
sVOperating System
p14
VMac OS
p15
sVBrand
p16
VApple
p17
sVManufacturer Part Number
p18
VW-MC374-161TB-B
p19
sVHard Drive Capacity
p20
V1 TB
p21
sVProcessor Type
p22
VIntel Core 2 Duo
p23
sVScreen Size
p24
V13.3 in
p25
sVModel
p26
VMC374LL/A
p27
sVCondition
p28
VRefurbished
p29
sVManufacturer
p30
VApple
p31
ssS'title'
p32
VApple MacBook Pro 13.3-Inch Laptop 2.4GHz / 16GB DDR3 Memory / 1TB SSHD (Solid State Hybrid) Drive - Refurbished
p33
sb.