ccopy_reg
_reconstructor
p0
(c__main__
ProductRecord
p1
c__builtin__
object
p2
Ntp3
Rp4
(dp5
S'product_url'
p6
S'http://www.walmart.com/ip/New-Apple-MMGF2LL-A-MacBook-Air-13-3-Inch-Laptop-8GB-RAM-128-GB-SSD-MMGF2-NEWEST-VERSION/105643181'
p7
sS'price'
p8
V$865.89
p9
sS'properties'
p10
(dp11
VRAM Memory
p12
V8 GB
p13
sVOperating System
p14
VMicrosoft Windows
p15
sVBrand
p16
VApple
p17
sVManufacturer Part Number
p18
VMMGF2D/A
p19
sVScreen Size
p20
V13.3
p21
sVCondition
p22
VNew
p23
sVManufacturer
p24
VApple
p25
ssS'title'
p26
VNew Apple MMGF2LL/A MacBook Air 13.3-Inch Laptop (8GB RAM 128 GB SSD) MMGF2 NEWEST VERSION
p27
sb.