ccopy_reg
_reconstructor
p0
(c__main__
ProductRecord
p1
c__builtin__
object
p2
Ntp3
Rp4
(dp5
S'product_url'
p6
S'http://www.walmart.com/ip/Certified-Refurbished-Apple-Macbook-Pro-13-i7-2012-2-9-8GB-750-MD102LL-A/120491235'
p7
sS'price'
p8
V$649.13
p9
sS'properties'
p10
(dp11
VRAM Memory
p12
V8 KB
p13
sVOperating System
p14
VMac OS
p15
sVColor Category
p16
VSilver
p17
sVLaptop Computer Type
p18
VMacBooks
p19
sVBrand
p20
VApple
p21
sVManufacturer Part Number
p22
VW-MD102-750gb-B
p23
sVWireless Technology
p24
V802.11a/b/g/n
p25
sVHard Drive Capacity
p26
V750 KB
p27
sVProcessor Type
p28
VIntel Core i7
p29
sVScreen Size
p30
V13 in
p31
sVModel
p32
VMD102LL/A
p33
sVCondition
p34
VRefurbished
p35
sVManufacturer
p36
VApple
p37
ssS'title'
p38
VCertified Refurbished Apple Macbook Pro 13" i7 2012 [2.9] [8GB] [750] MD102LL/A
p39
sb.