ccopy_reg
_reconstructor
p0
(c__main__
ProductRecord
p1
c__builtin__
object
p2
Ntp3
Rp4
(dp5
S'product_url'
p6
S'http://www.walmart.com/ip/Apple-MacBook-Air-MD231LL-A-C-Intel-Core-i5-3427U-X2-1-6GHz-4GB-128GB-SSD-Silver-Scratch-And-Dent-Refurbished/163199754'
p7
sS'price'
p8
V$499.99
p9
sS'properties'
p10
(dp11
VRAM Memory
p12
V4 GB
p13
sVOperating System
p14
VMac OS
p15
sVFeatures
p16
V128GBSSDSATA, 6-cellLithium-Polymer Battery, IntegratedIntel HD Graphics 6000, 2 x USB 3.0, 1MP Webcam and Integrated Microphone, 0.68" x 12.8" x 8.94" (HxWxD);3lbs, 13.3-inch(1440 x 900)LED Display, Energy Star Compliant, Gold EPEAT, Apple Mac OS X 10.8 Operating System, Intel Core i5-3427U Processor (Dual-Core, 1.6GHz, 3MB Cache), 10/100/1000 Gigabit Ethernet, 802.11ABGN and Bluetooth 4.0 + HS, Backlit Standard Keyboard and Touchpad, 4GBDDR3 System Memory
p17
sVBrand
p18
VApple
p19
sVProcessor Speed
p20
V1.6 GHz
p21
sVManufacturer Part Number
p22
VMD231LL/A - C-RFB
p23
sVMaximum RAM Supported
p24
V4 GB
p25
sVHard Drive Capacity
p26
V128 GB
p27
sVBattery Life
p28
V12 h
p29
sVAssembled Product Dimensions (L x W x H)
p30
V12.80 x 8.90 x 0.70 Inches
p31
sVModel
p32
VW-MD231-C1
p33
sVScreen Size
p34
V13.3 in
p35
sVProcessor Type
p36
VIntel Core i5
p37
ssS'title'
p38
VApple MacBook Air MD231LL/A - C Intel Core i5-3427U X2 1.6GHz 4GB 128GB SSD,Silver (Scratch And Dent Refurbished)
p39
sb.