ccopy_reg
_reconstructor
p0
(c__main__
ProductRecord
p1
c__builtin__
object
p2
Ntp3
Rp4
(dp5
S'product_url'
p6
S'http://www.walmart.com/ip/Refurbished-Apple-MacBook-Air-11-6-LED-Laptop-Intel-i5-3317-1-7GHz-4GB-64GB-SSD-MD223LLA/165231312'
p7
sS'price'
p8
V$414.78
p9
sS'properties'
p10
(dp11
VRAM Memory
p12
V4 GB
p13
sVOperating System
p14
VApple iOS
p15
sVColor Category
p16
VSilver
p17
sVLaptop Computer Type
p18
VMacBooks
p19
sVBrand
p20
VApple
p21
sVWireless Technology
p22
VIEEE 802.11g
p23
sVProcessor Core Type
p24
VDual Core
p25
sVProcessor Type
p26
VIntel Core i5
p27
sVManufacturer
p28
VApple
p29
sVScreen Size
p30
V5.0 in
p31
sVModel
p32
VMacBook
p33
sVCondition
p34
VRefurbished
p35
sVmanufacturer_part_number
p36
VMD223LL
p37
ssS'title'
p38
VRefurbished Apple MacBook Air 11.6" LED Laptop Intel i5-3317 1.7GHz 4GB 64GB SSD - MD223LLA
p39
sb.