ccopy_reg
_reconstructor
p0
(c__main__
ProductRecord
p1
c__builtin__
object
p2
Ntp3
Rp4
(dp5
S'product_url'
p6
S'http://www.walmart.com/ip/Apple-MacBook-Air-MJVM2LL-A-11-6-Inch-laptop-1-6-GHz-Intel-i5-128-GB-SSD-Integrated-Intel-HD-Graphics-6000-Mac-OS-X-Y/129171745'
p7
sS'price'
p8
V$780.59
p9
sS'properties'
p10
(dp11
VColor Category
p12
VSilver
p13
sVLaptop Computer Type
p14
VMacBooks
p15
sVBrand
p16
VApple
p17
sVManufacturer Part Number
p18
VMJVM2LL/A
p19
sVWireless Technology
p20
VIEEE 802.11g
p21
sVProcessor Type
p22
VIntel Core i5
p23
sVScreen Size
p24
V11.6"
p25
sVCondition
p26
VNew
p27
sVManufacturer
p28
VApple Computer
p29
ssS'title'
p30
VApple MacBook Air MJVM2LL/A 11.6-Inch laptop(1.6 GHz Intel i5, 128 GB SSD, Integrated Intel HD Graphics 6000, Mac OS X Y
p31
sb.