ccopy_reg
_reconstructor
p0
(c__main__
ProductRecord
p1
c__builtin__
object
p2
Ntp3
Rp4
(dp5
S'product_url'
p6
S'http://www.walmart.com/ip/Certified-Refurbished-Apple-MacBook-Pro-Retina-15-Inch-Laptop-2-6Ghz-Core-i7-8GB-RAM-512GB-SSD-MC976LL-A-Grade-B/808124557'
p7
sS'price'
p8
V$849.00
p9
sS'properties'
p10
(dp11
VRAM Memory
p12
V8 GB
p13
sVOperating System
p14
VMac OS X
p15
sVVideo Game Platform
p16
VMac
p17
sVBrand
p18
VApple
p19
sVProcessor Speed
p20
V2.6 GHz
p21
sVManufacturer Part Number
p22
VMC976LL/A
p23
sVHard Drive Capacity
p24
V512 GB
p25
sVBattery Life
p26
V7 h
p27
sVAssembled Product Dimensions (L x W x H)
p28
V9.70 x 14.10 x 0.70 Inches
p29
sVModel
p30
Vwith Retina display
p31
sVScreen Size
p32
V15.4 in
p33
sVProcessor Type
p34
VIntel Core i7
p35
ssS'title'
p36
VCertified Refurbished - Apple MacBook Pro Retina 15-Inch Laptop - 2.6Ghz Core i7 / 8GB RAM / 512GB SSD MC976LL/A (Grade B)
p37
sb.