ccopy_reg
_reconstructor
p0
(c__main__
ProductRecord
p1
c__builtin__
object
p2
Ntp3
Rp4
(dp5
S'product_url'
p6
S'http://www.walmart.com/ip/Refurbished-Apple-MacBook-Air-11-6-Laptop-Intel-Core-i5-4260U-1-4GHz-4GB-128GB-SSD-MD711LLB/39455203'
p7
sS'price'
p8
V$389.00
p9
sS'properties'
p10
(dp11
VRAM Memory
p12
V4 Gigabytes
p13
sVOperating System
p14
VApple Mac OS X 10.9??
p15
sVColor Category
p16
VSilver
p17
sVBrand
p18
VApple
p19
sVManufacturer Part Number
p20
VMD711LLB-PB-RCC-Walmart
p21
sVWireless Technology
p22
VBluetooth 4.0
p23
sVHard Drive Capacity
p24
V128 Gigabytes
p25
sVProcessor Core Type
p26
VDual-core (2 Core)
p27
sVProcessor Type
p28
VIntel Core i5
p29
sVScreen Size
p30
V11.6 Inches
p31
sVModel
p32
VMacBook
p33
sVManufacturer
p34
VApple
p35
ssS'title'
p36
VRefurbished Apple MacBook Air 11.6" Laptop Intel Core i5-4260U 1.4GHz 4GB 128GB SSD MD711LLB
p37
sb.