ccopy_reg
_reconstructor
p0
(c__main__
ProductRecord
p1
c__builtin__
object
p2
Ntp3
Rp4
(dp5
S'product_url'
p6
S'http://www.walmart.com/ip/HP-Envy-X360-15z-Premium-Yoga-Style-2-in-1-Convertible-Laptop-AMD-Ryzen-5-Quad-core-APU-Radeon-Vega-8-16GB-RAM-512GB-SSD-15-6-FHD-1920x1080-Touchscre/324958984'
p7
sS'price'
p8
S'N/A'
p9
sS'properties'
p10
(dp11
VRAM Memory
p12
V16 GB
p13
sVOperating System
p14
VMicrosoft Windows
p15
sVBrand
p16
VMichaelElectronics2
p17
sVManufacturer Part Number
p18
VHP-15-02395-FHD-ME13
p19
sVHard Drive Capacity
p20
V512 GB
p21
sVProcessor Type
p22
VAMD Ryzen 5 2500U Processor (4 Core/ 8Threads, 6MB cache, 3.6GHz Boost)
p23
sVScreen Size
p24
V15.6 in
p25
sVProcessor Speed
p26
V3.6 GHz
p27
ssS'title'
p28
VHP Envy X360 15z Premium Yoga Style 2-in-1 Convertible Laptop (AMD Ryzen 5 Quad core APU, Radeon Vega 8, 16GB RAM, 512GB SSD, 15.6" FHD 1920x1080 Touchscreen, Backlit Keyboard, Win 10 Pro)
p29
sb.