ccopy_reg
_reconstructor
p0
(c__main__
ProductRecord
p1
c__builtin__
object
p2
Ntp3
Rp4
(dp5
S'product_url'
p6
S'http://www.walmart.com/ip/Certified-Refurbished-Apple-MacBook-Pro-13-Inch-Laptop-2-4Ghz-Core-2-Duo-4GB-RAM-250GB-MC374LL-A-Grade-B/721518385'
p7
sS'price'
p8
V$369.99
p9
sS'properties'
p10
(dp11
VRAM Memory
p12
V4 GB
p13
sVOperating System
p14
VMac OS X
p15
sVVideo Game Platform
p16
VMac
p17
sVBrand
p18
VApple
p19
sVManufacturer Part Number
p20
VMC374LL/A
p21
sVHard Drive Capacity
p22
V250 GB
p23
sVLaptop Computer Type
p24
VMacBooks
p25
sVProcessor Type
p26
VIntel Core 2 Duo
p27
sVScreen Size
p28
V13.3 in
p29
sVModel
p30
VWM-MC374-B2
p31
sVManufacturer
p32
VApple
p33
ssS'title'
p34
VCertified Refurbished - Apple MacBook Pro 13-Inch Laptop - 2.4Ghz Core 2 Duo / 4GB RAM / 250GB MC374LL/A (Grade B)
p35
sb.