ccopy_reg
_reconstructor
p0
(c__main__
ProductRecord
p1
c__builtin__
object
p2
Ntp3
Rp4
(dp5
S'product_url'
p6
S'http://www.walmart.com/ip/Apple-MacBook-Air-MD760LL-A-Intel-Core-i5-4250U-X2-1-3GHz-4GB-128GB-SSD-Certified-Refurbished/170082368'
p7
sS'price'
p8
V$544.25
p9
sS'properties'
p10
(dp11
VRAM Memory
p12
V4 GB
p13
sVOperating System
p14
VMac OS
p15
sVColor Category
p16
VSilver
p17
sVLaptop Computer Type
p18
VMacBooks
p19
sVBrand
p20
VApple
p21
sVManufacturer Part Number
p22
VMD760LLA
p23
sVHard Drive Capacity
p24
V128 GB
p25
sVProcessor Type
p26
VIntel Core i5
p27
sVScreen Size
p28
V13.3 in
p29
sVModel
p30
VMD760LL/A
p31
sVCondition
p32
VRefurbished
p33
sVManufacturer
p34
VApple
p35
ssS'title'
p36
VApple MacBook Air MD760LL/A Intel Core i5-4250U X2 1.3GHz 4GB 128GB SSD (Certified Refurbished)
p37
sb.