ccopy_reg
_reconstructor
p0
(c__main__
ProductRecord
p1
c__builtin__
object
p2
Ntp3
Rp4
(dp5
S'product_url'
p6
S'http://www.walmart.com/ip/Apple-MacBook-Pro-Laptop-Intel-Core-i7-2-70GHz-4GB-RAM-500GB-HDD-MC724LL-A/360179797'
p7
sS'price'
p8
V$569.99
p9
sS'properties'
p10
(dp11
VRAM Memory
p12
V4 GB
p13
sVOperating System
p14
VMac OS X 10.7 Lion, Mac OS
p15
sVBrand
p16
VApple
p17
sVProcessor Speed
p18
V2.70 GHz
p19
sVManufacturer Part Number
p20
VMC724LL/A
p21
sVHard Drive Capacity
p22
V500 GB
p23
sVBattery Life
p24
V7 Hour
p25
sVModel
p26
VHD 3000, MC724LL/A
p27
sVScreen Size
p28
V13.3"
p29
sVProcessor Type
p30
VIntel Core i7
p31
ssS'title'
p32
VApple MacBook Pro Laptop Intel Core i7 2.70GHz 4GB RAM 500GB HDD MC724LL/A
p33
sb.