ccopy_reg
_reconstructor
p0
(c__main__
ProductRecord
p1
c__builtin__
object
p2
Ntp3
Rp4
(dp5
S'product_url'
p6
S'http://www.walmart.com/ip/Refurbished-Apple-MacBook-13-3-OS-X-Laptop-Intel-Core-2-Duo-T7200-2-0GHz-1GB-80GB-MB061LLA/50287708'
p7
sS'price'
p8
V$123.50
p9
sS'properties'
p10
(dp11
VRAM Memory
p12
V1 GB
p13
sVOperating System
p14
VApple iOS
p15
sVColor Category
p16
VSilver
p17
sVVideo Game Platform
p18
VPC
p19
sVBrand
p20
VApple
p21
sVLaptop Computer Type
p22
VMacBooks
p23
sVProcessor Core Type
p24
VIntel Core 2 Duo T7200 2.0 GHz processorIntel Core 2 Duo T7200 2.0 GHz processor
p25
sVProcessor Type
p26
VIntel Core 2 Duo
p27
sVmanufacturer_part_number
p28
VMB061LLA
p29
sVScreen Size
p30
V20.0 in
p31
sVModel
p32
VMacBook
p33
sVCondition
p34
VRefurbished
p35
sVManufacturer
p36
VApple
p37
ssS'title'
p38
VRefurbished Apple MacBook 13.3" OS X Laptop Intel Core 2 Duo T7200 2.0GHz 1GB 80GB, MB061LLA
p39
sb.