ccopy_reg
_reconstructor
p0
(c__main__
ProductRecord
p1
c__builtin__
object
p2
Ntp3
Rp4
(dp5
S'product_url'
p6
S'http://www.walmart.com/ip/Refurbished-Apple-Macbook-13-3-Laptop-Core-2-Duo-2-26GHz-2GB-250GB-GeForce-9400M-MC207LL-A/166936616'
p7
sS'price'
p8
V$219.99
p9
sS'properties'
p10
(dp11
VRAM Memory
p12
V2 GB
p13
sVOperating System
p14
VApple iOS
p15
sVBrand
p16
VApple
p17
sVProcessor Speed
p18
V2.2599999999999998 Gigahertz
p19
sVManufacturer Part Number
p20
VMC207LLA-PB-2RCB
p21
sVHard Drive Capacity
p22
V250 Gigabytes
p23
sVModel
p24
VMacBook
p25
sVScreen Size
p26
V13.3
p27
sVProcessor Type
p28
VIntel Core 2 Duo
p29
ssS'title'
p30
VRefurbished Apple Macbook 13.3" Laptop Core 2 Duo 2.26GHz 2GB 250GB GeForce 9400M MC207LL/A
p31
sb.