ccopy_reg
_reconstructor
p0
(c__main__
ProductRecord
p1
c__builtin__
object
p2
Ntp3
Rp4
(dp5
S'product_url'
p6
S'http://www.walmart.com/ip/Apple-MacBook-Pro-Retina-Core-i5-4258U-Dual-Core-2-4GHz-8GB-256GB-SSD-13-3-Notebook-OS-X-w-Webcam-BT-Late-2013-Refurbished/885345400'
p7
sS'price'
p8
V$739.99
p9
sS'properties'
p10
(dp11
VBrand
p12
VApple
p13
sVRAM Memory
p14
V8 GB
p15
sVScreen Size
p16
V13.3\u005c"
p17
sVHard Drive Capacity
p18
V256 GB
p19
ssS'title'
p20
VApple MacBook Pro Retina Core i5-4258U Dual-Core 2.4GHz 8GB 256GB SSD 13.3" Notebook OS X w/Webcam & BT (Late 2013) - Refurbished
p21
sb.