ccopy_reg
_reconstructor
p0
(c__main__
ProductRecord
p1
c__builtin__
object
p2
Ntp3
Rp4
(dp5
S'product_url'
p6
S'http://www.walmart.com/ip/Apple-MacBook-Pro-Core-i7-2-7GHz-4GB-500GB-13-3-MC724LL-A-Refurbished/836511715'
p7
sS'price'
p8
V$479.99
p9
sS'properties'
p10
(dp11
VRAM Memory
p12
V4 GB
p13
sVLaptop Computer Type
p14
VMacBooks
p15
sVBrand
p16
VApple
p17
sVHard Drive Capacity
p18
V500 GB
p19
sVProcessor Type
p20
VIntel Core i7
p21
sVScreen Size
p22
V13.3 in
p23
sVManufacturer
p24
VApple
p25
ssS'title'
p26
VApple MacBook Pro Core i7 2.7GHz 4GB 500GB 13.3" MC724LL/A - Refurbished
p27
sb.