ccopy_reg
_reconstructor
p0
(c__main__
ProductRecord
p1
c__builtin__
object
p2
Ntp3
Rp4
(dp5
S'product_url'
p6
S'http://www.walmart.com/ip/Refurbished-Apple-Grade-Macbook-Pro-15-4-inch-Laptop-Glossy-2-0Ghz-Quad-Core-i7-Early-2011-MC721LL-A-320-GB-HD-4-GB-Memory-1440x900-Display-macOS-Sie/420179377'
p7
sS'price'
p8
V$579.99
p9
sS'properties'
p10
(dp11
VRAM Memory
p12
V4.00 GB
p13
sVOperating System
p14
VMac OS
p15
sVLaptop Computer Type
p16
VMacBooks
p17
sVBrand
p18
VApple
p19
sVManufacturer Part Number
p20
VMC721LL/A-GS
p21
sVHard Drive Capacity
p22
V320.00 GB
p23
sVProcessor Type
p24
VIntel Core i7
p25
sVScreen Size
p26
V15.40 in
p27
sVManufacturer
p28
VApple
p29
ssS'title'
p30
VRefurbished Apple A Grade Macbook Pro 15.4-inch Laptop (Glossy) 2.0Ghz Quad Core i7 (Early 2011) MC721LL/A 320 GB HD 4 GB Memory 1440x900 Display macOS Sierra Power Adapter
p31
sb.