ccopy_reg
_reconstructor
p0
(c__main__
ProductRecord
p1
c__builtin__
object
p2
Ntp3
Rp4
(dp5
S'product_url'
p6
S'http://www.walmart.com/ip/Apple-MD096LL-A-Intel-Core-i7-3770-X4-3-4GHz-8GB-3TB-27-Silver-Refurbished/117261702'
p7
sS'price'
p8
V$999.99
p9
sS'properties'
p10
(dp11
VRAM Memory
p12
V8 Gigabytes
p13
sVOperating System
p14
VApple Mac OS X 10.8??
p15
sVBrand
p16
VApple
p17
sVHard Drive Capacity
p18
V3000 Gigabytes
p19
sVProcessor Type
p20
VIntel Core i7-3770
p21
sVProcessor Brand
p22
VIntel
p23
sVProcessor Speed
p24
V3.4 Gigahertz
p25
ssS'title'
p26
VApple MD096LL/A Intel Core i7-3770 X4 3.4GHz 8GB 3TB 27",Silver (Refurbished)
p27
sb.