ccopy_reg
_reconstructor
p0
(c__main__
ProductRecord
p1
c__builtin__
object
p2
Ntp3
Rp4
(dp5
S'product_url'
p6
S'http://www.walmart.com/ip/Apple-MacBook-Pro-15-4-Laptop-PC-Intel-Dual-Core-i5-520M-Processor-2-4-GHz-4GB-DDR3-Memory-320GB-Hard-Drive-OS-X-10-11-El-Capitan-A1286-Silver-Pre-Ow/705188472'
p7
sS'price'
p8
V$435.95
p9
sS'properties'
p10
(dp11
VHard Drive Capacity
p12
V320 GB
p13
sVBrand
p14
VApple
p15
sVRAM Memory
p16
V4 GB
p17
sVScreen Size
p18
V15.4\u005c"
p19
sVModel
p20
VA1286XRX
p21
ssS'title'
p22
VApple MacBook Pro 15.4" Laptop PC with Intel Dual-Core i5-520M Processor (2.4 GHz), 4GB DDR3 Memory, 320GB Hard Drive and OS X 10.11 El Capitan, A1286, Silver (Pre-Owned)
p23
sb.