ccopy_reg
_reconstructor
p0
(c__main__
ProductRecord
p1
c__builtin__
object
p2
Ntp3
Rp4
(dp5
S'product_url'
p6
S'http://www.walmart.com/ip/Certified-Refurbished-Apple-Macbook-13-unibody-core-2-duo-2009-2-26-250GB-2GB-MC207LL-A-90-Day-Warranty/340442669'
p7
sS'price'
p8
V$199.99
p9
sS'properties'
p10
(dp11
VRAM Memory
p12
V2 GB
p13
sVOperating System
p14
VOS x 10.6 Snow Leopard, Upgrades to OS X 10.10 Yosemite and OS X 10.11 El Capitan
p15
sVBrand
p16
VApple
p17
sVProcessor Speed
p18
V2.26 GHz
p19
sVManufacturer Part Number
p20
VETK-MC207LLA-PB-3RCC-WAL3
p21
sVHard Drive Capacity
p22
V250 GB
p23
sVBattery Life
p24
V7 h
p25
sVModel
p26
VMC207LL/A
p27
sVScreen Size
p28
V13 in
p29
sVProcessor Type
p30
VIntel Core 2 Duo
p31
sVCondition
p32
VRefurbished
p33
ssS'title'
p34
VCertified Refurbished Apple Macbook 13" unibody core 2 duo 2009 [2.26] [250GB] [2GB] MC207LL/A - 90 Day Warranty
p35
sb.