ccopy_reg
_reconstructor
p0
(c__main__
ProductRecord
p1
c__builtin__
object
p2
Ntp3
Rp4
(dp5
S'product_url'
p6
S'http://www.walmart.com/ip/Apple-MD063LL-A-27-Intel-Core-i7-2600-X4-3-4GHz-4GB-1TB-Silver-Refurbished/621317069'
p7
sS'price'
p8
V$665.61
p9
sS'properties'
p10
(dp11
VRAM Memory
p12
V4 Gigabytes
p13
sVOperating System
p14
VApple Mac OS X 10.6
p15
sVFeatures
p16
V170W Power Supply, 10/100/1000 Gigabit Ethernet, 802.11ABGN and Bluetooth 2.1 + EDR, SuperMulti-DVD Burner, 20.4" x 25.6" x 8.15" (HxWxD); 30.5lbs, 27-inch (2560 x 1440) IPS Display, 1MP Webcam, Dedicated AMD Radeon HD 6970M Graphics (1.0GB Dedicated Video Memory), Intel Core i7-2600 Processor (Quad-Core, 3.4GHz, 8MB Cache), Energy Star Compliant, Wireless Keyboard and Wireless Mouse, Apple Mac OS X 10.6 Operating System, 4GB DDR3 Memory, 1TB (7200RPM) SATA Hard Disk Drive (HDD), 4 x USB 2.0, 1 x Microphone-in, 1 x Firewire Port
p17
sVBrand
p18
VApple
p19
sVManufacturer Part Number
p20
VMD063LLA-PB-3RC-RFB
p21
sVMaximum RAM Supported
p22
V32 Gigabytes
p23
sVHard Drive Capacity
p24
V1000 Gigabytes
p25
sVAssembled Product Dimensions (L x W x H)
p26
V25.60 x 8.20 x 20.40 Inches
p27
sVProcessor Type
p28
VIntel Core i7-2600
p29
sVScreen Size
p30
V27 Inches
p31
sVProcessor Speed
p32
V3.4 Gigahertz
p33
ssS'title'
p34
VApple MD063LL/A 27" Intel Core i7-2600 X4 3.4GHz 4GB 1TB, Silver (Refurbished)
p35
sb.