ccopy_reg
_reconstructor
p0
(c__main__
ProductRecord
p1
c__builtin__
object
p2
Ntp3
Rp4
(dp5
S'product_url'
p6
S'http://www.walmart.com/ip/Apple-13-3-LED-Backlit-2560x1600-8GB-RAM-Macbook-Pro-FNQF2LL-A-Certified-Refurbished/554793290'
p7
sS'price'
p8
V$1,499.99
p9
sS'properties'
p10
(dp11
VAssembled Product Dimensions (L x W x H)
p12
V1.00 x 1.00 x 1.00 Inches
p13
sVBrand
p14
VApple
p15
sVRAM Memory
p16
V8 GB
p17
sVScreen Size
p18
V13.3\u005c"
p19
sVManufacturer Part Number
p20
VCRTAPFNQF2LLARB
p21
ssS'title'
p22
VApple 13.3" LED-Backlit 2560x1600 8GB RAM Macbook Pro FNQF2LL/A - (Certified Refurbished)
p23
sb.