ccopy_reg
_reconstructor
p0
(c__main__
ProductRecord
p1
c__builtin__
object
p2
Ntp3
Rp4
(dp5
S'product_url'
p6
S'http://www.walmart.com/ip/Apple-MacBook-Pro-MD313LL-A-13-3-Inch-Laptop-OLD-VERSION/104452936'
p7
sS'price'
p8
V$495.00
p9
sS'properties'
p10
(dp11
VAssembled Product Dimensions (L x W x H)
p12
V12.90 x 9.00 x 0.90 Inches
p13
sVFeatures
p14
VMac OS X v10.7 Lion, 7 Hour Battery Life
p15
sVAccessories Included
p16
VMacBook Pro MD313LL/A NotebookLithium Polymer Battery60W MagSafe Power AdapterDisplay Cleaning ClothAC Wall Plug and Power LeadPrinted and Electronic Documentation
p17
sVColor
p18
VSilver
p19
sVBrand
p20
VApple
p21
sVCompatible Devices
p22
VSDXC
p23
sVManufacturer Part Number
p24
VMD313LL/A
p25
sVModel
p26
VA1278
p27
sVScreen Size
p28
V13.00 in
p29
sVAssembled Product Weight
p30
V8.00 Pounds
p31
ssS'title'
p32
VApple MacBook Pro MD313LL/A 13.3-Inch Laptop (OLD VERSION)
p33
sb.