ccopy_reg
_reconstructor
p0
(c__main__
ProductRecord
p1
c__builtin__
object
p2
Ntp3
Rp4
(dp5
S'product_url'
p6
S'http://www.walmart.com/ip/Apple-MacBook-Air-13-3-Core-i5-8-GB-RAM-256-GB-SSD-English/666586428'
p7
sS'price'
p8
V$1,016.73
p9
sS'properties'
p10
(dp11
VRAM Memory
p12
V8 KB
p13
sVOperating System
p14
VMac OS Sierra
p15
sVColor Category
p16
VSilver
p17
sVBrand
p18
VApple
p19
sVManufacturer Part Number
p20
VMQD42LL/A
p21
sVHard Drive Capacity
p22
V256 GB
p23
sVProcessor Core Type
p24
VDual-core (2 Core)
p25
sVProcessor Type
p26
VIntel Core i5
p27
sVScreen Size
p28
V13.3 in
p29
sVModel
p30
VHD Graphics 6000
p31
sVCondition
p32
VNew
p33
sVManufacturer
p34
VApple
p35
ssS'title'
p36
VApple MacBook Air - 13.3" - Core i5 - 8 GB RAM - 256 GB SSD - English
p37
sb.