ccopy_reg
_reconstructor
p0
(c__main__
ProductRecord
p1
c__builtin__
object
p2
Ntp3
Rp4
(dp5
S'product_url'
p6
S'http://www.walmart.com/ip/Refurbished-Apple-MacBook-Pro-15-4-Laptop-Intel-i7-Quad-Core-2-3GHz-4GB-500GB-MD103LL-A/929380310'
p7
sS'price'
p8
V$649.99
p9
sS'properties'
p10
(dp11
VRAM Memory
p12
V4 GB
p13
sVOperating System
p14
VMicrosoft Windows
p15
sVBrand
p16
VApple
p17
sVManufacturer Part Number
p18
VMD103LLA-PB-4RCC
p19
sVHard Drive Capacity
p20
V500 GB
p21
sVModel
p22
VMacBook Pro
p23
sVScreen Size
p24
V15.4\u005c"
p25
ssS'title'
p26
VRefurbished Apple MacBook Pro 15.4" Laptop Intel i7 Quad Core 2.3GHz 4GB 500GB - MD103LL/A
p27
sb.