ccopy_reg
_reconstructor
p0
(c__main__
ProductRecord
p1
c__builtin__
object
p2
Ntp3
Rp4
(dp5
S'product_url'
p6
S'http://www.walmart.com/ip/Refurbished-Apple-MacBook-Air-11-6-Laptop-Intel-Core-i5-4260U-1-4GHz-4GB-128GB-SSD-MD711LLB/366928604'
p7
sS'price'
p8
V$399.95
p9
sS'properties'
p10
(dp11
VRAM Memory
p12
V4 Gigabytes
p13
sVOperating System
p14
VMac OS X
p15
sVBrand
p16
VApple
p17
sVProcessor Speed
p18
V1.4 Gigahertz
p19
sVManufacturer Part Number
p20
VMD711LLB-PB-RCC-WAL8
p21
sVHard Drive Capacity
p22
V128
p23
sVModel
p24
VMacBook
p25
sVScreen Size
p26
V11.6
p27
sVProcessor Type
p28
Vcore_i5
p29
ssS'title'
p30
VRefurbished Apple MacBook Air 11.6" Laptop Intel Core i5-4260U 1.4GHz 4GB 128GB SSD MD711LLB
p31
sb.