ccopy_reg
_reconstructor
p0
(c__main__
ProductRecord
p1
c__builtin__
object
p2
Ntp3
Rp4
(dp5
S'product_url'
p6
S'http://www.walmart.com/ip/Apple-MacBook-Pro-13-3-Intel-Core-2-Duo-2-26GHz-2GB-160GB-Laptop-MB990LL-A-Certified-Refurbished/121228240'
p7
sS'price'
p8
V$344.99
p9
sS'properties'
p10
(dp11
sS'title'
p12
VApple MacBook Pro 13.3 Intel Core 2 Duo 2.26GHz 2GB 160GB Laptop MB990LL/A - Certified Refurbished
p13
sb.