ccopy_reg
_reconstructor
p0
(c__main__
ProductRecord
p1
c__builtin__
object
p2
Ntp3
Rp4
(dp5
S'product_url'
p6
S'http://www.walmart.com/ip/Apple-MQD32LL-A-MB829LL-A-13-3-MacBook-Air-2017-Laptop-Magic-Mouse-1-8GHz-Intel-i5-Dual-Core-8GB-RAM-128GB-SSD-Silver-Newest-Version/963206052'
p7
sS'price'
p8
V$1,278.97
p9
sS'properties'
p10
(dp11
VBrand
p12
VApple
p13
sVRAM Memory
p14
V8 GB
p15
sVScreen Size
p16
V13.3\u005c"
p17
sVHard Drive Capacity
p18
V128 GB
p19
sVCondition
p20
VNew
p21
ssS'title'
p22
VApple MQD32LL/A + MB829LL/A 13.3" MacBook Air 2017 Laptop + Magic Mouse, 1.8GHz Intel i5 Dual-Core, 8GB RAM, 128GB SSD, Silver (Newest Version)
p23
sb.