ccopy_reg
_reconstructor
p0
(c__main__
ProductRecord
p1
c__builtin__
object
p2
Ntp3
Rp4
(dp5
S'product_url'
p6
S'http://www.walmart.com/ip/Apple-MJVG2LL-A-MacBook-Air-13-3-256GB-SSD-Intel-Core-i5-1-6GHz-Laptop-Computer/46529711'
p7
sS'price'
p8
V$1,099.99
p9
sS'properties'
p10
(dp11
VRAM Memory
p12
V4 GB
p13
sVOperating System
p14
VApple iOS
p15
sVBrand
p16
VApple
p17
sVProcessor Speed
p18
V1.6 GHz
p19
sVManufacturer Part Number
p20
VMJVG2LL/A
p21
sVMaximum RAM Supported
p22
V8 GB
p23
sVHard Drive Capacity
p24
V256 GB
p25
sVBattery Life
p26
V12 hours
p27
sVModel
p28
VMJVG2LL/A
p29
sVScreen Size
p30
V5.0
p31
sVProcessor Type
p32
VIntel Core i5
p33
sVCondition
p34
VNew
p35
ssS'title'
p36
VApple MJVG2LL/A MacBook Air 13.3" 256GB SSD Intel Core i5 1.6GHz Laptop Computer
p37
sb.