ccopy_reg
_reconstructor
p0
(c__main__
ProductRecord
p1
c__builtin__
object
p2
Ntp3
Rp4
(dp5
S'product_url'
p6
S'http://www.walmart.com/ip/Apple-MacBook-Air-11-6-Inch-Laptop-MC968LL-A-Certified-Refurbished/139234288'
p7
sS'price'
p8
V$449.99
p9
sS'properties'
p10
(dp11
VRAM Memory
p12
V2 KB
p13
sVAssembled Product Dimensions (L x W x H)
p14
V11.00 x 7.70 x 0.38 Inches
p15
sVBrand
p16
VApple
p17
sVManufacturer Part Number
p18
VMBA-MC968LLA-B2
p19
sVHard Drive Capacity
p20
V64 KB
p21
sVModel
p22
VW-MC968-BC
p23
sVScreen Size
p24
V11.6 in
p25
sVProcessor Speed
p26
V1.6 Hz
p27
ssS'title'
p28
VApple MacBook Air 11.6 Inch Laptop MC968LL/A (Certified Refurbished)
p29
sb.