ccopy_reg
_reconstructor
p0
(c__main__
ProductRecord
p1
c__builtin__
object
p2
Ntp3
Rp4
(dp5
S'product_url'
p6
S'http://www.walmart.com/ip/Apple-MacBook-Air-MD760LL-A-13-3-Inch-Laptop-Intel-Core-i5-Dual-Core-1-3GHz-2-6GHz-4GB-RAM-128GB-SSD-Wi-Fi-Bluetooth-4-0-Certified-Refurbished/153459331'
p7
sS'price'
p8
V$598.98
p9
sS'properties'
p10
(dp11
VRAM Memory
p12
V4 Gigabytes
p13
sVOperating System
p14
VMac OS X
p15
sVBrand
p16
VApple
p17
sVHard Drive Capacity
p18
V128
p19
sVProcessor Type
p20
Vcore_i5
p21
sVScreen Size
p22
V13.3
p23
sVProcessor Speed
p24
V1.3 Gigahertz
p25
ssS'title'
p26
VApple MacBook Air MD760LL/A 13.3-Inch Laptop (Intel Core i5 Dual-Core 1.3GHz up to 2.6GHz, 4GB RAM, 128GB SSD, Wi-Fi, Bluetooth 4.0) (Certified Refurbished)
p27
sb.