ccopy_reg
_reconstructor
p0
(c__main__
ProductRecord
p1
c__builtin__
object
p2
Ntp3
Rp4
(dp5
S'product_url'
p6
S'http://www.walmart.com/ip/Refurbished-Apple-MacBook-Pro-13-3-2-4GHz-Dual-Core-Intel-i5-4GB-500GB-HDD-Laptop-MD313LLA/176251471'
p7
sS'price'
p8
V$428.18
p9
sS'properties'
p10
(dp11
VRAM Memory
p12
V4 GB
p13
sVOperating System
p14
VApple iOS
p15
sVBrand
p16
VApple
p17
sVManufacturer Part Number
p18
VMD313LLA-PB-RCC
p19
sVHard Drive Capacity
p20
V500 GB
p21
sVAssembled Product Dimensions (L x W x H)
p22
V12.78 x 9.25 x 0.65 Inches
p23
sVModel
p24
VMacBook
p25
sVScreen Size
p26
V13.3 in
p27
sVProcessor Type
p28
VIntel Core i5
p29
ssS'title'
p30
VRefurbished Apple MacBook Pro 13.3" 2.4GHz Dual-Core Intel i5 4GB 500GB HDD Laptop MD313LLA
p31
sb.