ccopy_reg
_reconstructor
p0
(c__main__
ProductRecord
p1
c__builtin__
object
p2
Ntp3
Rp4
(dp5
S'product_url'
p6
S'http://www.walmart.com/ip/Apple-MacBook-12-Laptop-with-Retina-Display-Gold-256GB-HD-8GB-Ram-MK4M2LL-A-Manufacturer-Refurbished/996537856'
p7
sS'price'
p8
V$1,149.99
p9
sS'properties'
p10
(dp11
VRAM Memory
p12
V8.00 GB
p13
sVOperating System
p14
VMac OS X 10.10 Yosemite
p15
sVBrand
p16
VApple
p17
sVProcessor Speed
p18
V1.10 GHz
p19
sVManufacturer Part Number
p20
VVR
p21
sVHard Drive Capacity
p22
V256 GB
p23
sVModel
p24
VVR
p25
sVScreen Size
p26
V12.00 in
p27
sVProcessor Type
p28
VDual-Core 1.1 GHz
p29
ssS'title'
p30
VApple MacBook 12" Laptop with Retina Display Gold 256GB HD 8GB Ram MK4M2LL/A ( Manufacturer Refurbished)
p31
sb.