ccopy_reg
_reconstructor
p0
(c__main__
ProductRecord
p1
c__builtin__
object
p2
Ntp3
Rp4
(dp5
S'product_url'
p6
S'http://www.walmart.com/ip/Lenovo-Yoga-710-2-in-1-15-6-Touch-Screen-Laptop-Intel-Core-i5-8GB-Memory-256GB-Solid-State-Drive-Black-Tablet-PC-Notebook-Computer-80V50010US/324962650'
p7
sS'price'
p8
S'N/A'
p9
sS'properties'
p10
(dp11
VRAM Memory
p12
V8 GB
p13
sVOperating System
p14
VMicrosoft Windows
p15
sVLaptop Computer Type
p16
VTouchscreen
p17
sVBrand
p18
VLenovo
p19
sVModel
p20
V80V5
p21
sVManufacturer
p22
VLENOVO
p23
sVScreen Size
p24
V15.6
p25
sVmanufacturer_part_number
p26
V80v50010us
p27
ssS'title'
p28
VLenovo - Yoga 710 2-in-1 15.6" Touch-Screen Laptop - Intel Core i5 - 8GB Memory - 256GB Solid State Drive - Black Tablet PC Notebook Computer 80V50010US
p29
sb.