ccopy_reg
_reconstructor
p0
(c__main__
ProductRecord
p1
c__builtin__
object
p2
Ntp3
Rp4
(dp5
S'product_url'
p6
S'http://www.walmart.com/ip/Refurbished-Apple-MacBook-Pro-15-4-Core-2-Duo-P8700-2-53GHz-4GB-250GB-Laptop-MC118LLA/652649282'
p7
sS'price'
p8
V$349.95
p9
sS'properties'
p10
(dp11
VRAM Memory
p12
V4 GB
p13
sVOperating System
p14
VMicrosoft Windows
p15
sVBrand
p16
VApple
p17
sVManufacturer Part Number
p18
VMC118LLA-PB-RCC
p19
sVHard Drive Capacity
p20
V250 GB
p21
sVModel
p22
VMC118LLA
p23
sVScreen Size
p24
V15.4\u005c"
p25
ssS'title'
p26
VRefurbished Apple MacBook Pro 15.4" Core 2 Duo P8700 2.53GHz 4GB 250GB Laptop MC118LLA
p27
sb.