ccopy_reg
_reconstructor
p0
(c__main__
ProductRecord
p1
c__builtin__
object
p2
Ntp3
Rp4
(dp5
S'product_url'
p6
S'http://www.walmart.com/ip/Refurbished-Apple-Macbook-Air-11-6-Laptop-Intel-1-3GHz-i5-4250U-8GB-256GB-SSD-MD712LLA/991564813'
p7
sS'price'
p8
V$570.51
p9
sS'properties'
p10
(dp11
VOperating System
p12
VApple iOS
p13
sVBrand
p14
VApple
p15
sVManufacturer Part Number
p16
VMD712LLA-PB-4RCC
p17
sVHard Drive Capacity
p18
V256
p19
sVModel
p20
VMacBook
p21
sVScreen Size
p22
V11.6
p23
sVProcessor Type
p24
VIntel Core i5
p25
ssS'title'
p26
VRefurbished Apple Macbook Air 11.6" Laptop Intel 1.3GHz i5-4250U 8GB 256GB SSD - MD712LLA
p27
sb.