ccopy_reg
_reconstructor
p0
(c__main__
ProductRecord
p1
c__builtin__
object
p2
Ntp3
Rp4
(dp5
S'product_url'
p6
S'http://www.walmart.com/ip/Certified-Refurbished-Apple-Macbook-Air-13-i5-2011-1-7-128GB-4GB-MC965LL-A-90-Day-Warranty/709697695'
p7
sS'price'
p8
V$519.49
p9
sS'properties'
p10
(dp11
VRAM Memory
p12
V4 GB
p13
sVOperating System
p14
VOS x 10.7 Lion
p15
sVBrand
p16
VApple
p17
sVProcessor Speed
p18
V1.7 GHz
p19
sVHard Drive Capacity
p20
V128 GB
p21
sVBattery Life
p22
V7 h
p23
sVModel
p24
VMC965LL/A
p25
sVScreen Size
p26
V13 in
p27
sVProcessor Type
p28
VIntel Core i5
p29
sVCondition
p30
VRefurbished
p31
ssS'title'
p32
VCertified Refurbished Apple Macbook Air 13" i5 2011 [1.7] [128GB] [4GB] MC965LL/A - 90 Day Warranty
p33
sb.