ccopy_reg
_reconstructor
p0
(c__main__
ProductRecord
p1
c__builtin__
object
p2
Ntp3
Rp4
(dp5
S'product_url'
p6
S'http://www.walmart.com/ip/Refurbished-Apple-MacBook-Pro-Retina-Display-13-3-i5-2-7-128GB-8GB-MF839LL-A-2015/179042518'
p7
sS'price'
p8
V$826.85
p9
sS'properties'
p10
(dp11
VRAM Memory
p12
V8 GB
p13
sVAssembled Product Dimensions (L x W x H)
p14
V12.78 x 9.00 x 0.95 Inches
p15
sVBrand
p16
VApple
p17
sVManufacturer Part Number
p18
VW-MF839-C
p19
sVHard Drive Capacity
p20
V128 GB
p21
sVModel
p22
VMF839LL/ARFB
p23
sVScreen Size
p24
V13 in
p25
sVProcessor Speed
p26
V2.7 GHz
p27
ssS'title'
p28
VRefurbished Apple MacBook Pro Retina Display 13.3" i5 [2.7] [128GB] [8GB] MF839LL/A(2015)
p29
sb.