ccopy_reg
_reconstructor
p0
(c__main__
ProductRecord
p1
c__builtin__
object
p2
Ntp3
Rp4
(dp5
S'product_url'
p6
S'http://www.walmart.com/ip/Certified-Refurbished-Apple-Macbook-Pro-15-retina-display-i7-2013-2-3-512GB-16GB-ME294LL-A-90-Day-Warranty/879518951'
p7
sS'price'
p8
V$1,169.00
p9
sS'properties'
p10
(dp11
VRAM Memory
p12
V16 GB
p13
sVOperating System
p14
VOS x Mac OS X El Capitan
p15
sVBrand
p16
VApple
p17
sVProcessor Speed
p18
V2.3 GHz
p19
sVHard Drive Capacity
p20
V512 GB
p21
sVBattery Life
p22
V8 h
p23
sVModel
p24
VME294LL/A
p25
sVScreen Size
p26
V15 in
p27
sVProcessor Type
p28
VIntel Core i7
p29
sVCondition
p30
VRefurbished
p31
ssS'title'
p32
VCertified Refurbished Apple Macbook Pro 15" retina display i7 2013 [2.3] [512GB] [16GB] ME294LL/A - 90 Day Warranty
p33
sb.