ccopy_reg
_reconstructor
p0
(c__main__
ProductRecord
p1
c__builtin__
object
p2
Ntp3
Rp4
(dp5
S'product_url'
p6
S'http://www.walmart.com/ip/Refurbished-Apple-MacBook-Pro-15-4-Intel-Core-2-Duo-2-53GHz-4GB-250GB-Laptop-MC118LL-A/150853025'
p7
sS'price'
p8
V$458.77
p9
sS'properties'
p10
(dp11
VRAM Memory
p12
V4 GB
p13
sVOperating System
p14
VMac OS
p15
sVColor Category
p16
VSilver
p17
sVVideo Game Platform
p18
VMac OS
p19
sVBrand
p20
VApple
p21
sVManufacturer Part Number
p22
VW-MC118-B2
p23
sVHard Drive Capacity
p24
V250 GB
p25
sVLaptop Computer Type
p26
VMacBooks
p27
sVProcessor Type
p28
VIntel Core 2 Duo
p29
sVScreen Size
p30
V15.4 in
p31
sVModel
p32
VMC118LL/A
p33
sVManufacturer
p34
VApple
p35
ssS'title'
p36
VRefurbished Apple MacBook Pro 15.4 Intel Core 2 Duo 2.53GHz 4GB 250GB Laptop MC118LL/A
p37
sb.