ccopy_reg
_reconstructor
p0
(c__main__
ProductRecord
p1
c__builtin__
object
p2
Ntp3
Rp4
(dp5
S'product_url'
p6
S'http://www.walmart.com/ip/Apple-MacBook-Air-MD760LL-A-Intel-Core-i5-4250U-X2-1-3GHz-4GB-128GB-SSD-Certified-Refurbished/135750307'
p7
sS'price'
p8
V$549.18
p9
sS'properties'
p10
(dp11
VRAM Memory
p12
V4 KB
p13
sVColor Category
p14
VSilver
p15
sVLaptop Computer Type
p16
VMacBooks
p17
sVBrand
p18
VApple
p19
sVManufacturer Part Number
p20
VMBA-MD760LLA-B1
p21
sVHard Drive Capacity
p22
V128 KB
p23
sVModel
p24
VWM-MD760-MBA-B
p25
sVScreen Size
p26
V13.3 in
p27
sVCondition
p28
VRefurbished
p29
sVManufacturer
p30
VApple
p31
ssS'title'
p32
VApple MacBook Air MD760LL/A Intel Core i5-4250U X2 1.3GHz 4GB 128GB SSD (Certified Refurbished)
p33
sb.