ccopy_reg
_reconstructor
p0
(c__main__
ProductRecord
p1
c__builtin__
object
p2
Ntp3
Rp4
(dp5
S'product_url'
p6
S'http://www.walmart.com/ip/Apple-MacBook-Pro-MC373LL-A-Intel-Core-i7-620M-X2-2-66GHz-4GB-500GB-DVD-15-4-Silver-Refurbished/114948806'
p7
sS'price'
p8
V$529.99
p9
sS'properties'
p10
(dp11
VRAM Memory
p12
V4 Gigabytes
p13
sVOperating System
p14
VApple Mac OS X 10.6??
p15
sVLaptop Computer Type
p16
VMacBooks
p17
sVBrand
p18
VApple
p19
sVManufacturer Part Number
p20
VCX-MC373LLA-PB-RCB-RFB
p21
sVHard Drive Capacity
p22
V500 Gigabytes
p23
sVProcessor Type
p24
VIntel Core i7-620M
p25
sVScreen Size
p26
V15.4 Inches
p27
sVManufacturer
p28
VApple
p29
ssS'title'
p30
VApple MacBook Pro MC373LL/A Intel Core i7-620M X2 2.66GHz 4GB 500GB DVD 15.4", Silver (Refurbished)
p31
sb.