ccopy_reg
_reconstructor
p0
(c__main__
ProductRecord
p1
c__builtin__
object
p2
Ntp3
Rp4
(dp5
S'product_url'
p6
S'http://www.walmart.com/ip/Lenovo-ThinkPad-Yoga-370-13-3-Core-i5-7200U-4-GB-RAM-256-GB-SSD/991371893'
p7
sS'price'
p8
S'N/A'
p9
sS'properties'
p10
(dp11
VRAM Memory
p12
V4 Gigabytes
p13
sVOperating System
p14
VWindows 10 Pro (English)
p15
sVVideo Game Platform
p16
VSee Description
p17
sVBrand
p18
VLenovo
p19
sVProcessor Speed
p20
V2.5 Gigahertz
p21
sVManufacturer Part Number
p22
V20JH002CUS
p23
sVHard Drive Capacity
p24
V256 Gigabytes
p25
sVBattery Life
p26
V0 h
p27
sVAssembled Product Dimensions (L x W x H)
p28
V12.00 x 6.00 x 12.00 Inches
p29
sVModel
p30
V20JH002CUS
p31
sVScreen Size
p32
V13.3 in
p33
sVProcessor Type
p34
VIntel i5-7200U
p35
sVCondition
p36
VNew
p37
ssS'title'
p38
VLenovo ThinkPad Yoga 370 - 13.3" - Core i5 7200U - 4 GB RAM - 256 GB SSD
p39
sb.