ccopy_reg
_reconstructor
p0
(c__main__
ProductRecord
p1
c__builtin__
object
p2
Ntp3
Rp4
(dp5
S'product_url'
p6
S'http://www.walmart.com/ip/Refurbished-Apple-MacBook-Pro-15-4-Intel-Core-i7-2-5GHz-16GB-512GB-Laptop-MGXC2LL-A/162177009'
p7
sS'price'
p8
V$1,379.99
p9
sS'properties'
p10
(dp11
VRAM Memory
p12
V16 GB
p13
sVOperating System
p14
VMay Come Standard with Mac OSX 10.9.4 or higherMay Come Standard with Mac OSX 10.9.4 or higher
p15
sVColor Category
p16
VSilver
p17
sVVideo Game Platform
p18
VMac OS
p19
sVBrand
p20
VApple
p21
sVManufacturer Part Number
p22
VW-MGXA2-C1
p23
sVHard Drive Capacity
p24
V512 GB
p25
sVLaptop Computer Type
p26
VMacBooks
p27
sVProcessor Type
p28
VIntel Core i7
p29
sVScreen Size
p30
V15.4 in
p31
sVModel
p32
VMGXC2LL/A
p33
sVManufacturer
p34
VApple
p35
ssS'title'
p36
VRefurbished Apple MacBook Pro 15.4 Intel Core i7 2.5GHz 16GB 512GB Laptop MGXC2LL/A
p37
sb.