ccopy_reg
_reconstructor
p0
(c__main__
ProductRecord
p1
c__builtin__
object
p2
Ntp3
Rp4
(dp5
S'product_url'
p6
S'http://www.walmart.com/ip/Apple-MacBook-Pro-13-3-Core-2-Duo-2-4GHz-4GB-250GB-DVD-RW-w-Webcam-Bluetooth-Mid-2010-Refurbished/353766231'
p7
sS'price'
p8
V$439.99
p9
sS'properties'
p10
(dp11
VBrand
p12
VApple
p13
sVRAM Memory
p14
V4 GB
p15
sVScreen Size
p16
V13.3\u005c"
p17
sVHard Drive Capacity
p18
V250 GB
p19
ssS'title'
p20
VApple MacBook Pro 13.3" Core 2 Duo 2.4GHz 4GB 250GB DVD?RW w/Webcam & Bluetooth (Mid 2010) - Refurbished
p21
sb.