ccopy_reg
_reconstructor
p0
(c__main__
ProductRecord
p1
c__builtin__
object
p2
Ntp3
Rp4
(dp5
S'product_url'
p6
S'http://www.walmart.com/ip/Certified-Refurbished-Apple-MacBook-Pro-MC700LL-A-13-Inch-Laptop-2-3Ghz-Core-i5-4GB-RAM-320GB/101539171'
p7
sS'price'
p8
V$449.96
p9
sS'properties'
p10
(dp11
VRAM Memory
p12
V4 MB
p13
sVOperating System
p14
VApple Mac OS X 10.6
p15
sVFeatures
p16
VHigh Speed Thunderbolt Port, FaceTime HD Camera, Mac OS X v10.7 Lion
p17
sVBrand
p18
VApple
p19
sVProcessor Speed
p20
V2.3 GHz
p21
sVManufacturer Part Number
p22
VMC700LL/A
p23
sVMaximum RAM Supported
p24
V16 KB
p25
sVHard Drive Capacity
p26
V320 MB
p27
sVBattery Life
p28
V6 h
p29
sVAssembled Product Dimensions (L x W x H)
p30
V12.78 x 8.94 x 0.95 Inches
p31
sVModel
p32
VMC700LL/A
p33
sVScreen Size
p34
V13.3 in
p35
sVProcessor Type
p36
VIntel Core i5
p37
sVCondition
p38
VRefurbished
p39
ssS'title'
p40
VCertified Refurbished - Apple MacBook Pro MC700LL/A 13-Inch Laptop - 2.3Ghz Core i5 / 4GB RAM / 320GB
p41
sb.