ccopy_reg
_reconstructor
p0
(c__main__
ProductRecord
p1
c__builtin__
object
p2
Ntp3
Rp4
(dp5
S'product_url'
p6
S'http://www.walmart.com/ip/Refurbished-Apple-MacBook-Air-MD711LL-A-Mac-Book-Laptop-Notebook-11-6-i5-1-3-GHz-4GB-128GB/161170103'
p7
sS'price'
p8
V$488.12
p9
sS'properties'
p10
(dp11
VRAM Memory
p12
V4 GB
p13
sVOperating System
p14
VMicrosoft Windows
p15
sVBrand
p16
VApple
p17
sVManufacturer Part Number
p18
VW-MD711-MBA-B
p19
sVHard Drive Capacity
p20
V128 GB
p21
sVAssembled Product Dimensions (L x W x H)
p22
V10.85 x 8.68 x 0.38 Inches
p23
sVModel
p24
VW-MD711-MBA-B
p25
sVScreen Size
p26
V\u005c\u005c", 11.6
p27
sVProcessor Speed
p28
V1.3 GHz
p29
ssS'title'
p30
VRefurbished Apple MacBook Air MD711LL/A Mac Book Laptop Notebook 11.6" i5 1.3 GHz 4GB 128GB
p31
sb.