ccopy_reg
_reconstructor
p0
(c__main__
ProductRecord
p1
c__builtin__
object
p2
Ntp3
Rp4
(dp5
S'product_url'
p6
S'http://www.walmart.com/ip/Certified-Refurbished-Apple-Macbook-Pro-15-i7-2010-2-66-500GB-4GB-MC373LL-A-90-Day-Warranty/207921293'
p7
sS'price'
p8
V$639.28
p9
sS'properties'
p10
(dp11
VRAM Memory
p12
V4 GB
p13
sVOperating System
p14
VOS x 10.6 Snow Leopard
p15
sVColor Category
p16
VSilver
p17
sVBrand
p18
VApple
p19
sVWireless Technology
p20
V802.11a/b/g/n
p21
sVHard Drive Capacity
p22
V500 GB
p23
sVProcessor Type
p24
VIntel Core i7
p25
sVScreen Size
p26
V15 in
p27
sVModel
p28
VMC373LL/A
p29
sVCondition
p30
VRefurbished
p31
sVManufacturer
p32
VApple
p33
ssS'title'
p34
VCertified Refurbished - Apple Macbook Pro 15" i7 2010 [2.66] [500GB] [4GB] MC373LL/A - 90 Day Warranty
p35
sb.