ccopy_reg
_reconstructor
p0
(c__main__
ProductRecord
p1
c__builtin__
object
p2
Ntp3
Rp4
(dp5
S'product_url'
p6
S'http://www.walmart.com/ip/Certified-Refurbished-Apple-Macbook-Pro-13-core-2-duo-2009-2-53-250GB-4GB-MB991LL-A/855855270'
p7
sS'price'
p8
V$433.33
p9
sS'properties'
p10
(dp11
VRAM Memory
p12
V4 GB
p13
sVOperating System
p14
VMac OS
p15
sVBrand
p16
VApple
p17
sVProcessor Speed
p18
V2.53 GHz
p19
sVManufacturer Part Number
p20
VW-MB991-A
p21
sVHard Drive Capacity
p22
V250 GB
p23
sVBattery Life
p24
V7 h
p25
sVAssembled Product Dimensions (L x W x H)
p26
V11.68 x 9.50 x 0.68 Inches
p27
sVModel
p28
VMB991LL/A
p29
sVScreen Size
p30
V13 in
p31
sVProcessor Type
p32
VIntel Core 2 Duo
p33
sVCondition
p34
VRefurbished
p35
ssS'title'
p36
VCertified Refurbished - Apple Macbook Pro 13" core 2 duo 2009 [2.53] [250GB] [4GB] MB991LL/A
p37
sb.