ccopy_reg
_reconstructor
p0
(c__main__
ProductRecord
p1
c__builtin__
object
p2
Ntp3
Rp4
(dp5
S'product_url'
p6
S'http://www.walmart.com/ip/Refurbished-Apple-Grade-MacBook-Air-13-3-inch-Laptop-1-8GHz-Intel-Dual-Core-i5-Unibody-Mid-2012-MD231LL-A-128-GB-HD-4-GB-Memory-1440-x-900-Display-Ma/196970040'
p7
sS'price'
p8
V$599.98
p9
sS'properties'
p10
(dp11
VRAM Memory
p12
V4.00 GB
p13
sVOperating System
p14
VMac OS
p15
sVFeatures
p16
VCondition: Refurbished
p17
sVBrand
p18
VApple
p19
sVManufacturer Part Number
p20
VMD231LL/A-GS
p21
sVMaximum RAM Supported
p22
V4.00 GB
p23
sVHard Drive Capacity
p24
V128.00 GB
p25
sVProcessor Type
p26
VIntel Core i5
p27
sVScreen Size
p28
V13.30 in
p29
sVProcessor Speed
p30
V1.80 GHz
p31
ssS'title'
p32
VRefurbished Apple A Grade MacBook Air 13.3-inch Laptop 1.8GHz Intel Dual Core i5 Unibody(Mid 2012) MD231LL/A 128 GB HD 4 GB Memory 1440 x 900 Display Mac OS X v10.12 Sierra Power Adapter
p33
sb.