ccopy_reg
_reconstructor
p0
(c__main__
ProductRecord
p1
c__builtin__
object
p2
Ntp3
Rp4
(dp5
S'product_url'
p6
S'http://www.walmart.com/ip/Refurbished-Apple-MacBook-Pro-13-Retina-Display-i5-2-4-256GB-8GB-ME865LL-A-2013/161624527'
p7
sS'price'
p8
V$869.00
p9
sS'properties'
p10
(dp11
VHard Drive Capacity
p12
V256 Gigabytes
p13
sVBrand
p14
VApple
p15
sVScreen Size
p16
V13 Inches
p17
sVModel
p18
VME865LL/ARFB
p19
sVProcessor Speed
p20
V2.4 Gigahertz
p21
ssS'title'
p22
VRefurbished Apple MacBook Pro 13" Retina Display i5 [2.4] [256GB] [8GB] ME865LL/A(2013)
p23
sb.