ccopy_reg
_reconstructor
p0
(c__main__
ProductRecord
p1
c__builtin__
object
p2
Ntp3
Rp4
(dp5
S'product_url'
p6
S'http://www.walmart.com/ip/Apple-13-3-MacBook-Air-Mid-2017-Silver-MQD42LL-A/426389676'
p7
sS'price'
p8
V$1,089.77
p9
sS'properties'
p10
(dp11
VBrand
p12
VApple
p13
sVScreen Size
p14
V13.3 in
p15
sVModel
p16
VMQD42LL/A
p17
sVCondition
p18
VNew
p19
sVManufacturer Part Number
p20
VMQD42LL/A
p21
ssS'title'
p22
VApple 13.3" MacBook Air (Mid 2017, Silver) # MQD42LL/A
p23
sb.