ccopy_reg
_reconstructor
p0
(c__main__
ProductRecord
p1
c__builtin__
object
p2
Ntp3
Rp4
(dp5
S'product_url'
p6
S'http://www.walmart.com/ip/Apple-MacBook-Air-MD760LL-A-13-3-Inch-Laptop-Intel-Core-i5-Dual-Core-1-3GHz-2-6GHz-4GB-RAM-128GB-SSD-Wi-Fi-Bluetooth-4-0-Certified-Refurbished/984065346'
p7
sS'price'
p8
V$598.97
p9
sS'properties'
p10
(dp11
VRAM Memory
p12
V4 Gigabytes
p13
sVOperating System
p14
VMac OS X
p15
sVLaptop Computer Type
p16
VMacBooks
p17
sVBrand
p18
VApple
p19
sVHard Drive Capacity
p20
V128
p21
sVProcessor Type
p22
Vcore_i5
p23
sVScreen Size
p24
V13.3
p25
sVManufacturer
p26
VApple
p27
ssS'title'
p28
VApple MacBook Air MD760LL/A 13.3-Inch Laptop (Intel Core i5 Dual-Core 1.3GHz up to 2.6GHz, 4GB RAM, 128GB SSD, Wi-Fi, Bluetooth 4.0) (Certified Refurbished)
p29
sb.