ccopy_reg
_reconstructor
p0
(c__main__
ProductRecord
p1
c__builtin__
object
p2
Ntp3
Rp4
(dp5
S'product_url'
p6
S'http://www.walmart.com/ip/Apple-MacBook-2-13GHz-Intel-Core-2-Duo-1GB-Ram-160-HD-13-3-Laptop-MC240LL-A-Refurbushed/709877376'
p7
sS'price'
p8
V$299.99
p9
sS'properties'
p10
(dp11
VRAM Memory
p12
V1 GB
p13
sVBrand
p14
VApple
p15
sVManufacturer Part Number
p16
VMC240LL/A
p17
sVModel
p18
VMC240LL/A
p19
sVScreen Size
p20
V13.3\u005c"
p21
sVCondition
p22
VNew
p23
ssS'title'
p24
VApple MacBook 2.13GHz Intel Core 2 Duo 1GB Ram 160 HD 13.3" Laptop MC240LL/A (Refurbushed)
p25
sb.