ccopy_reg
_reconstructor
p0
(c__main__
ProductRecord
p1
c__builtin__
object
p2
Ntp3
Rp4
(dp5
S'product_url'
p6
S'http://www.walmart.com/ip/Apple-MacBook-13-3-Refurbished-A1181-Notebook-Intel-Core-2-Duo-1-GB-RAM-120-gb-HDD-DVD-Writer-Nvidia-GeForce-9400M-Wifi-Webcam-Mac-OS-10-75-Lion/199409412'
p7
sS'price'
p8
V$116.99
p9
sS'properties'
p10
(dp11
VBrand
p12
VApple
p13
sVScreen Size
p14
V13.3
p15
sVHard Drive Capacity
p16
V120
p17
ssS'title'
p18
VApple MacBook 13.3" Refurbished - A1181 Notebook - Intel Core 2 Duo - 1 GB RAM - 120 gb HDD - DVD-Writer - Nvidia GeForce 9400M - Wifi - Webcam - Mac OS 10.75 Lion
p19
sb.