ccopy_reg
_reconstructor
p0
(c__main__
ProductRecord
p1
c__builtin__
object
p2
Ntp3
Rp4
(dp5
S'product_url'
p6
S'http://www.walmart.com/ip/Apple-MacBook-1-2-Rose-Gold-Core-m5-1-10GHz-8GB-12-Early-2016-MMGM2LL-A-Power-Adapter-Refurbished/908144337'
p7
sS'price'
p8
V$1,309.00
p9
sS'properties'
p10
(dp11
VRAM Memory
p12
V8.00 GB
p13
sVOperating System
p14
VMac OS X 10.11.4, Mac OS
p15
sVBrand
p16
VApple
p17
sVManufacturer Part Number
p18
VA1534
p19
sVHard Drive Capacity
p20
V512.00 GB
p21
sVProcessor Type
p22
VCore M5
p23
sVScreen Size
p24
V12 in
p25
sVProcessor Speed
p26
V1.20 GHz
p27
ssS'title'
p28
VApple MacBook 1.2 Rose Gold "Core m5" 1.10GHz 8GB 12" Early 2016 (MMGM2LL/A) + Power Adapter (Refurbished)
p29
sb.