ccopy_reg
_reconstructor
p0
(c__main__
ProductRecord
p1
c__builtin__
object
p2
Ntp3
Rp4
(dp5
S'product_url'
p6
S'http://www.walmart.com/ip/Apple-MacBook-Air-MD711LL-A-11-6-Intel-i5-1-3-GHz-Dual-Core-4GB-RAM-128GB-HD-Refurbished-Scratch-and-Dent/138786873'
p7
sS'price'
p8
V$499.99
p9
sS'properties'
p10
(dp11
VRAM Memory
p12
V8 KB
p13
sVOperating System
p14
VMac OS
p15
sVColor Category
p16
VSilver
p17
sVLaptop Computer Type
p18
VMacBooks
p19
sVBrand
p20
VApple
p21
sVManufacturer Part Number
p22
VMD711LL/A
p23
sVWireless Technology
p24
VBluetooth 4.0
p25
sVHard Drive Capacity
p26
V128 KB
p27
sVProcessor Core Type
p28
VDual-core (2 Core)
p29
sVProcessor Type
p30
VIntel Core i7
p31
sVScreen Size
p32
V11.6 in
p33
sVModel
p34
VHD 5000
p35
sVCondition
p36
VRefurbished
p37
sVManufacturer
p38
VApple Computer
p39
ssS'title'
p40
VApple MacBook Air MD711LL/A 11.6" Intel i5 1.3 GHz Dual-Core 4GB RAM 128GB HD, Refurbished Scratch and Dent
p41
sb.