ccopy_reg
_reconstructor
p0
(c__main__
ProductRecord
p1
c__builtin__
object
p2
Ntp3
Rp4
(dp5
S'product_url'
p6
S'http://www.walmart.com/ip/Apple-MacBook-12-Core-m5-8-GB-RAM-512-GB-flash-storage-English/165066686'
p7
sS'price'
p8
V$1,422.00
p9
sS'properties'
p10
(dp11
VRAM Memory
p12
V8 GB
p13
sVOperating System
p14
VMac OS X 10.11 El Capitan, Mac OS
p15
sVVideo Game Platform
p16
VXbox One
p17
sVBrand
p18
VApple
p19
sVProcessor Speed
p20
V1.20 GHz
p21
sVManufacturer Part Number
p22
VMMGM2LL/A
p23
sVBattery Life
p24
V11 h
p25
sVAssembled Product Dimensions (L x W x H)
p26
V7.70 x 11.00 x 0.50 Inches
p27
sVModel
p28
VMMGM2LL/A
p29
sVScreen Size
p30
V12 in
p31
sVProcessor Type
p32
VCore M
p33
sVCondition
p34
VNew
p35
ssS'title'
p36
VApple MacBook - 12" - Core m5 - 8 GB RAM - 512 GB flash storage - English
p37
sb.