ccopy_reg
_reconstructor
p0
(c__main__
ProductRecord
p1
c__builtin__
object
p2
Ntp3
Rp4
(dp5
S'product_url'
p6
S'http://www.walmart.com/ip/Apple-MacBook-Air-MD760LL-A-Intel-Core-i5-4250U-X2-1-3GHz-4GB-128GB-SSD-Silver-Scratch-And-Dent-Refurbished/102463160'
p7
sS'price'
p8
V$598.98
p9
sS'properties'
p10
(dp11
VRAM Memory
p12
V4 KB
p13
sVOperating System
p14
VApple Mac OS X 10.8
p15
sVFeatures
p16
V128GBSSDSATA, 2 x USB 3.0, 1MP Webcam and Integrated Microphone, 0.68" x 12.8" x 8.94" (HxWxD);3lbs, Apple Mac OS X 10.8 Operating System, IntegratedIntel HD Graphics, Energy Star Compliant, 6-cellLithium-Ion Battery, Intel Core i5-4250U Processor (Dual-Core, 1.3GHz, 3MB Cache), 13.3-inch(1440x900)LED Display, 10/100/1000 Gigabit Ethernet, 802.11AACBGN and Bluetooth 4.0 + HS, Backlit Standard Keyboard and Touchpad, 4GBDDR3 System Memory
p17
sVBrand
p18
VApple
p19
sVManufacturer Part Number
p20
VMD760LL/A-RFB
p21
sVMaximum RAM Supported
p22
V4 KB
p23
sVHard Drive Capacity
p24
V128 KB
p25
sVBattery Life
p26
V7 h
p27
sVAssembled Product Dimensions (L x W x H)
p28
V12.80 x 8.90 x 0.70 Inches
p29
sVProcessor Type
p30
VIntel Core i5
p31
sVScreen Size
p32
V13.3 in
p33
sVProcessor Speed
p34
V1.3 Hz
p35
ssS'title'
p36
VApple MacBook Air MD760LL/A Intel Core i5-4250U X2 1.3GHz 4GB 128GB SSD, Silver (Scratch And Dent Refurbished)
p37
sb.