ccopy_reg
_reconstructor
p0
(c__main__
ProductRecord
p1
c__builtin__
object
p2
Ntp3
Rp4
(dp5
S'product_url'
p6
S'http://www.walmart.com/ip/Apple-Macbook-MLHA2LL-A-Intel-Core-m3-256GB-Silver-Early-2016-Certified-Refurbished/779074677'
p7
sS'price'
p8
V$889.95
p9
sS'properties'
p10
(dp11
VRAM Memory
p12
V8 Gigabytes
p13
sVOperating System
p14
VmacOS Sierra
p15
sVBrand
p16
VApple
p17
sVProcessor Speed
p18
V1.1000000000000001 Gigahertz
p19
sVManufacturer Part Number
p20
VTAC100063A
p21
sVHard Drive Capacity
p22
V256 Gigabytes
p23
sVBattery Life
p24
V30 Days
p25
sVAssembled Product Dimensions (L x W x H)
p26
V11.40 x 0.52 x 7.74 Inches
p27
sVModel
p28
VA1534
p29
sVScreen Size
p30
V12 Inches
p31
sVProcessor Type
p32
VDual-Core 1.1 GHz (w/ Turbo Boost up to 2.2 GHz)
p33
ssS'title'
p34
VApple Macbook (MLHA2LL/A) Intel Core m3 256GB - Silver (Early 2016) (Certified Refurbished)
p35
sb.