ccopy_reg
_reconstructor
p0
(c__main__
ProductRecord
p1
c__builtin__
object
p2
Ntp3
Rp4
(dp5
S'product_url'
p6
S'http://www.walmart.com/ip/Apple-MacBook-Pro-13-3-MC374LL-A-Intel-Core-2-Duo-2-4GHz-4GB-250GB-Laptop-Scratch-and-Dent-Refurbished/917855398'
p7
sS'price'
p8
V$399.99
p9
sS'properties'
p10
(dp11
VRAM Memory
p12
V4 GB
p13
sVOperating System
p14
VMac OS
p15
sVBrand
p16
VApple
p17
sVProcessor Speed
p18
V2.4 GHz
p19
sVManufacturer Part Number
p20
VWM-MC374-C
p21
sVHard Drive Capacity
p22
V250 GB
p23
sVAssembled Product Dimensions (L x W x H)
p24
V12.78 x 8.94 x 0.95 Inches
p25
sVModel
p26
VWM-MC374-C
p27
sVScreen Size
p28
V13.3 in
p29
sVProcessor Type
p30
VIntel Core 2 Duo
p31
ssS'title'
p32
VApple MacBook Pro 13.3 MC374LL/A Intel Core 2 Duo 2.4GHz 4GB 250GB Laptop (Scratch and Dent Refurbished)
p33
sb.