ccopy_reg
_reconstructor
p0
(c__main__
ProductRecord
p1
c__builtin__
object
p2
Ntp3
Rp4
(dp5
S'product_url'
p6
S'http://www.walmart.com/ip/Refurbished-Apple-MacBook-Pro-15-4-Core-i7-3635QM-2-4GHz-16GB-256GB-SSD-Laptop-ME664LL-A/174805331'
p7
sS'price'
p8
V$1,562.73
p9
sS'properties'
p10
(dp11
VRAM Memory
p12
V16 GB
p13
sVOperating System
p14
VApple iOS
p15
sVColor Category
p16
VSilver
p17
sVVideo Game Platform
p18
VMac
p19
sVBrand
p20
VApple
p21
sVManufacturer Part Number
p22
VME664LLA-PB-RCC
p23
sVLaptop Computer Type
p24
VMacBooks
p25
sVProcessor Type
p26
VIntel Core i7
p27
sVScreen Size
p28
V15.4
p29
sVModel
p30
VME664LLA-PB-RCC
p31
sVManufacturer
p32
VApple
p33
ssS'title'
p34
VRefurbished Apple MacBook Pro 15.4" Core i7-3635QM 2.4GHz 16GB 256GB SSD Laptop - ME664LL/A
p35
sb.