ccopy_reg
_reconstructor
p0
(c__main__
ProductRecord
p1
c__builtin__
object
p2
Ntp3
Rp4
(dp5
S'product_url'
p6
S'http://www.walmart.com/ip/Apple-Laptop-MacBook-Pro-MD318LL-A-R-Intel-Core-i7-2675QM-2-20-GHz-4-GB-Memory-500-GB-HDD-AMD-Radeon-HD-6750M-15-4-Mac-OS-X-v10-7-Lion-Refurbished/114732548'
p7
sS'price'
p8
V$749.99
p9
sS'properties'
p10
(dp11
VRAM Memory
p12
V4 GB
p13
sVOperating System
p14
VMac OS X 10.7 Lion, Mac OS
p15
sVBrand
p16
VApple
p17
sVProcessor Speed
p18
V2.2 GHz
p19
sVManufacturer Part Number
p20
VMD318LL/A
p21
sVMaximum RAM Supported
p22
V8 GB
p23
sVHard Drive Capacity
p24
V500 GB
p25
sVBattery Life
p26
V7 h
p27
sVAssembled Product Dimensions (L x W x H)
p28
V9.80 x 14.30 x 0.90 Inches
p29
sVModel
p30
VHD 3000
p31
sVScreen Size
p32
V15.4 in
p33
sVProcessor Type
p34
VIntel Core i7
p35
ssS'title'
p36
VApple Laptop MacBook Pro MD318LL/A-R Intel Core i7 2675QM (2.20 GHz) 4 GB Memory 500 GB HDD AMD Radeon HD 6750M 15.4" Mac OS X v10.7 Lion Refurbished
p37
sb.