ccopy_reg
_reconstructor
p0
(c__main__
ProductRecord
p1
c__builtin__
object
p2
Ntp3
Rp4
(dp5
S'product_url'
p6
S'http://www.walmart.com/ip/Refurbished-Apple-MacBook-Air-13-3-Intel-Core-i5-1-7-4GB-128GB-Laptop-MC965LL-A/192574631'
p7
sS'price'
p8
V$489.97
p9
sS'properties'
p10
(dp11
VOperating System
p12
VMay Come Standard with Mac OSX  10.7 or higher
p13
sVVideo Game Platform
p14
VMac OS
p15
sVBrand
p16
VApple
p17
sVProcessor Speed
p18
V1.7 Gigahertz
p19
sVManufacturer Part Number
p20
VMC965LLA-PB-RCB
p21
sVMaximum RAM Supported
p22
V4 Gigabytes
p23
sVHard Drive Capacity
p24
V128 Gigabytes
p25
sVAssembled Product Dimensions (L x W x H)
p26
V17.00 x 16.00 x 5.00 Inches
p27
sVModel
p28
VMC965LL/A
p29
sVScreen Size
p30
V13.3 Inches
p31
sVProcessor Type
p32
VIntel Core i5
p33
ssS'title'
p34
VRefurbished Apple MacBook Air 13.3 Intel Core i5 1.7 4GB 128GB Laptop MC965LL/A
p35
sb.