ccopy_reg
_reconstructor
p0
(c__main__
ProductRecord
p1
c__builtin__
object
p2
Ntp3
Rp4
(dp5
S'product_url'
p6
S'http://www.walmart.com/ip/Certified-Refurbished-Apple-MacBook-Pro-15-Inch-Laptop-2-2Ghz-Core-i7-4GB-RAM-500GB-MD318LL-A-Grade-B/696335624'
p7
sS'price'
p8
V$637.50
p9
sS'properties'
p10
(dp11
VRAM Memory
p12
V4 Gigabytes
p13
sVOperating System
p14
VMac OS X
p15
sVLaptop Computer Type
p16
VMacBooks
p17
sVBrand
p18
VApple
p19
sVManufacturer Part Number
p20
VMD318LL/A
p21
sVHard Drive Capacity
p22
V500 Gigabytes
p23
sVProcessor Type
p24
VIntel Core i7
p25
sVScreen Size
p26
V15.4 Inches
p27
ssS'title'
p28
VCertified Refurbished - Apple MacBook Pro 15-Inch Laptop  - 2.2Ghz Core i7 / 4GB RAM / 500GB MD318LL/A (Grade B)
p29
sb.