ccopy_reg
_reconstructor
p0
(c__main__
ProductRecord
p1
c__builtin__
object
p2
Ntp3
Rp4
(dp5
S'product_url'
p6
S'http://www.walmart.com/ip/Apple-MacBook-Pro-13-3-Inch-Laptop-2-4GHz-256GB-SSD-16GB-Memory-Refurbished/985356604'
p7
sS'price'
p8
V$675.00
p9
sS'properties'
p10
(dp11
VRAM Memory
p12
V16 KB
p13
sVOperating System
p14
VMac OS
p15
sVBrand
p16
VApple
p17
sVProcessor Speed
p18
V2.4 Hz
p19
sVManufacturer Part Number
p20
VW-MC374-16250-B
p21
sVMaximum RAM Supported
p22
V16 KB
p23
sVHard Drive Capacity
p24
V240 KB
p25
sVAssembled Product Dimensions (L x W x H)
p26
V11.68 x 9.50 x 0.68 Inches
p27
sVModel
p28
VMC374LL/A
p29
sVScreen Size
p30
V13.3 in
p31
sVProcessor Type
p32
VIntel Core 2 Duo
p33
ssS'title'
p34
VApple MacBook Pro 13.3-Inch Laptop 2.4GHz 256GB SSD / 16GB Memory - Refurbished
p35
sb.