ccopy_reg
_reconstructor
p0
(c__main__
ProductRecord
p1
c__builtin__
object
p2
Ntp3
Rp4
(dp5
S'product_url'
p6
S'http://www.walmart.com/ip/Apple-15-4-MacBook-Pro-with-Retina-display-quad-core-Intel-Core-i7-2-7GHz-16GB-DDR3-RAM-512GB-flash-storage-Refurbished/459288954'
p7
sS'price'
p8
V$1,399.00
p9
sS'properties'
p10
(dp11
VRAM Memory
p12
V16 Gigabytes, 16 GB
p13
sVOperating System
p14
VMac OS
p15
sVBrand
p16
VApple
p17
sVProcessor Speed
p18
V2.7 Gigahertz
p19
sVMaximum RAM Supported
p20
V16 Gigabytes
p21
sVHard Drive Capacity
p22
V512 Gigabytes, 512 GB
p23
sVAssembled Product Dimensions (L x W x H)
p24
V14.30 x 9.80 x 0.90 Inches
p25
sVModel
p26
VME665LL/A
p27
sVScreen Size
p28
V15.4 Inches
p29
sVProcessor Type
p30
V22 nm "Ivy Bridge" 2.7 GHz Intel "Core i7"
p31
ssS'title'
p32
VApple 15.4" MacBook Pro with Retina display quad-core Intel Core i7 2.7GHz, 16GB DDR3 RAM, 512GB flash storage - Refurbished
p33
sb.