ccopy_reg
_reconstructor
p0
(c__main__
ProductRecord
p1
c__builtin__
object
p2
Ntp3
Rp4
(dp5
S'product_url'
p6
S'http://www.walmart.com/ip/Manufacturer-Refurbished-Apple-MacBook-Pro-MD101LL-A-13-3-Laptop-Intel-i5-3210m-2-5GHz-4GB-500GB-Mac-OS-X/239899579'
p7
sS'price'
p8
V$549.87
p9
sS'properties'
p10
(dp11
VRAM Memory
p12
V4 GB
p13
sVOperating System
p14
VMac OS
p15
sVColor Category
p16
VSilver
p17
sVLaptop Computer Type
p18
VMacBooks
p19
sVBrand
p20
VApple
p21
sVManufacturer Part Number
p22
VMD101LL/A-RF
p23
sVHard Drive Capacity
p24
V500 GB
p25
sVModel
p26
VMD101LL/A-RF
p27
sVManufacturer
p28
VApple
p29
ssS'title'
p30
VManufacturer Refurbished - Apple MacBook Pro MD101LL/A 13.3 Laptop Intel i5-3210m 2.5GHz 4GB 500GB Mac OS X
p31
sb.