ccopy_reg
_reconstructor
p0
(c__main__
ProductRecord
p1
c__builtin__
object
p2
Ntp3
Rp4
(dp5
S'product_url'
p6
S'http://www.walmart.com/ip/Apple-MacBook-Air-MC505LL-A-11-6-Inch-Laptop-Dual-Core-1-4GHz-2GB-64GB-SSD-Scratch-and-Dent-Refurbished/715928843'
p7
sS'price'
p8
V$371.91
p9
sS'properties'
p10
(dp11
VRAM Memory
p12
V2 GB
p13
sVOperating System
p14
VMac OS
p15
sVFeatures
p16
V2GBDDR3 System Memory, 0.67" x 11.8" x 7.56" (HxWxD);2.3lbs, 1MP Webcam and Integrated Microphone, DedicatedNVIDIA GeForce 320M Graphics(0.3MB Dedicated Video Memory), 6-cellLithium-Polymer Battery, Energy Star Compliant, 2 x USB 2.0, 11.6-inch(1366 x 768)LED Display, 60GBSSDSSD, Apple Mac OS X 10.6 Operating System, Intel Core Duo SU9400 Processor (Dual-Core, 1.4GHz, 3MB Cache), Full Size (10 Key) Keyboard and Touchpad, No Ethernet, 802.11ABGN and Bluetooth 2.1 + EDR
p17
sVBrand
p18
VApple
p19
sVProcessor Speed
p20
V1.4 GHz
p21
sVManufacturer Part Number
p22
VMC505LL/A2-R-RFB
p23
sVMaximum RAM Supported
p24
V4 GB
p25
sVHard Drive Capacity
p26
V64 GB
p27
sVBattery Life
p28
V5 h
p29
sVAssembled Product Dimensions (L x W x H)
p30
V11.80 x 7.60 x 0.70 Inches
p31
sVModel
p32
VW-MC505-C4
p33
sVScreen Size
p34
V11.6 in
p35
sVProcessor Type
p36
VIntel Core Duo SU9400
p37
ssS'title'
p38
VApple MacBook Air MC505LL/A 11.6-Inch Laptop Dual-Core 1.4GHz 2GB 64GB SSD - Scratch and Dent Refurbished
p39
sb.