ccopy_reg
_reconstructor
p0
(c__main__
ProductRecord
p1
c__builtin__
object
p2
Ntp3
Rp4
(dp5
S'product_url'
p6
S'http://www.walmart.com/ip/Refurbished-Apple-MacBook-Pro-15-i5-2-53-500GB-4GB-MC372LL-A-2010/105381022'
p7
sS'price'
p8
V$499.33
p9
sS'properties'
p10
(dp11
VHard Drive Capacity
p12
V500 Gigabytes
p13
sVBrand
p14
VApple
p15
sVScreen Size
p16
V15 Inches
p17
sVModel
p18
VMC372LL/ARFB
p19
sVProcessor Speed
p20
V2.5299999999999998 Gigahertz
p21
ssS'title'
p22
VRefurbished Apple MacBook Pro 15" i5 [2.53] [500GB] [4GB] MC372LL/A(2010)
p23
sb.