ccopy_reg
_reconstructor
p0
(c__main__
ProductRecord
p1
c__builtin__
object
p2
Ntp3
Rp4
(dp5
S'product_url'
p6
S'http://www.walmart.com/ip/REFURBISHED-Apple-MacBook-Pro-2-9GHz-Dual-Core-i7-8GB-500GB-DVD-RW-13-LAPTOP-MD102LL-A/125735780'
p7
sS'price'
p8
V$608.94
p9
sS'properties'
p10
(dp11
VRAM Memory
p12
V8 Gigabytes
p13
sVOperating System
p14
VSnow Leopard (10.6)
p15
sVColor Category
p16
VWhite
p17
sVLaptop Computer Type
p18
VMacBooks
p19
sVBrand
p20
VApple
p21
sVWireless Technology
p22
V802 11 ABGN
p23
sVHard Drive Capacity
p24
V500 Gibibytes
p25
sVProcessor Type
p26
VIntel Core i7
p27
sVScreen Size
p28
V13 Inches
p29
sVModel
p30
VMacBook Pro MD102LL/A
p31
sVManufacturer
p32
VApple
p33
ssS'title'
p34
VREFURBISHED Apple MacBook Pro 2.9GHz Dual Core i7 8GB 500GB DVD-RW 13" LAPTOP MD102LL/A
p35
sb.