ccopy_reg
_reconstructor
p0
(c__main__
ProductRecord
p1
c__builtin__
object
p2
Ntp3
Rp4
(dp5
S'product_url'
p6
S'http://www.walmart.com/ip/Refurbished-Apple-MacBook-Pro-13-3-LED-Intel-i5-3210M-Core-2-5GHz-4GB-500GB-Laptop-MD101LLA/119571954'
p7
sS'price'
p8
V$524.95
p9
sS'properties'
p10
(dp11
VHard Drive Capacity
p12
V500
p13
sVBrand
p14
VApple
p15
sVOperating System
p16
VMicrosoft Windows
p17
sVModel
p18
VMD101LL/A
p19
sVManufacturer Part Number
p20
VMD101LLA-PB-RCB-WAL7
p21
ssS'title'
p22
VRefurbished Apple MacBook Pro 13.3" LED Intel i5-3210M Core 2.5GHz 4GB 500GB Laptop MD101LLA
p23
sb.