ccopy_reg
_reconstructor
p0
(c__main__
ProductRecord
p1
c__builtin__
object
p2
Ntp3
Rp4
(dp5
S'product_url'
p6
S'http://www.walmart.com/ip/Apple-13-MacBook-Air-1-3GHz-Intel-Core-i5-4GB-RAM-128GB-SSD-Refurbished/509597596'
p7
sS'price'
p8
V$599.00
p9
sS'properties'
p10
(dp11
VRAM Memory
p12
V4 GB
p13
sVOperating System
p14
VMac OS 10.12 Sierra
p15
sVBrand
p16
VApple
p17
sVProcessor Speed
p18
V1.4 GHz
p19
sVManufacturer Part Number
p20
VMD760LL/A
p21
sVMaximum RAM Supported
p22
V4 GB
p23
sVHard Drive Capacity
p24
V128 GB
p25
sVModel
p26
VMD760LL/A
p27
sVScreen Size
p28
V13.3 in
p29
sVProcessor Type
p30
VIntel Core i5
p31
ssS'title'
p32
VApple 13" MacBook Air 1.3GHz Intel Core i5 / 4GB RAM, 128GB SSD(Refurbished)
p33
sb.