ccopy_reg
_reconstructor
p0
(c__main__
ProductRecord
p1
c__builtin__
object
p2
Ntp3
Rp4
(dp5
S'product_url'
p6
S'http://www.walmart.com/ip/Refurbished-Apple-MacBook-Pro-15-4-Laptop-Intel-Core-i7-2-3GHz-4GB-500GB-DVDRW-MD103LL-A/434108350'
p7
sS'price'
p8
V$699.95
p9
sS'properties'
p10
(dp11
VRAM Memory
p12
V4 GB
p13
sVOperating System
p14
VMicrosoft Windows
p15
sVBrand
p16
VApple
p17
sVManufacturer Part Number
p18
VMD103LLA-PB-4RCC
p19
sVHard Drive Capacity
p20
V500
p21
sVScreen Size
p22
V15.4
p23
ssS'title'
p24
VRefurbished Apple MacBook Pro 15.4" Laptop Intel Core i7 2.3GHz 4GB 500GB DVDRW MD103LL/A
p25
sb.