ccopy_reg
_reconstructor
p0
(c__main__
ProductRecord
p1
c__builtin__
object
p2
Ntp3
Rp4
(dp5
S'product_url'
p6
S'http://www.walmart.com/ip/Refurbished-Apple-MacBook-13-3-2010-A1342-Laptop-Core-2-Duo-2-40GHz-8GB-DDR3-1TB-HDD-OS-X-10-9-X-Mavericks/102272703'
p7
sS'price'
p8
V$499.95
p9
sS'properties'
p10
(dp11
VRAM Memory
p12
V8 Gigabytes
p13
sVOperating System
p14
VOS X 10.9.X Mavericks
p15
sVVideo Game Platform
p16
VMac
p17
sVBrand
p18
VApple
p19
sVProcessor Speed
p20
V2.4 Gigahertz
p21
sVHard Drive Capacity
p22
V1 Terabytes
p23
sVModel
p24
VA1342
p25
sVScreen Size
p26
V13.3 Inches
p27
sVProcessor Type
p28
VIntel Core 2 Duo
p29
ssS'title'
p30
VRefurbished Apple MacBook 13.3\u201d 2010 A1342 Laptop, Core 2 Duo 2.40GHz, 8GB DDR3, 1TB HDD, OS X 10.9.X Mavericks
p31
sb.