ccopy_reg
_reconstructor
p0
(c__main__
ProductRecord
p1
c__builtin__
object
p2
Ntp3
Rp4
(dp5
S'product_url'
p6
S'http://www.walmart.com/ip/Apple-MacBook-Air-Core-i5-1-6GHz-4GB-128GB-SSD-11-6-LED-Notebook-MJVM2LL-A-Early-2015-Refurbished/666508359'
p7
sS'price'
p8
V$614.99
p9
sS'properties'
p10
(dp11
VRAM Memory
p12
V4 GB
p13
sVOperating System
p14
VMac OS
p15
sVBrand
p16
VApple
p17
sVManufacturer Part Number
p18
Vmjvm2ll/a
p19
sVHard Drive Capacity
p20
V128 GB
p21
sVAssembled Product Dimensions (L x W x H)
p22
V11.68 x 7.56 x 0.68 Inches
p23
sVModel
p24
VW-MJVM2-A3
p25
sVScreen Size
p26
V11.6 in
p27
sVProcessor Speed
p28
V1.6 GHz
p29
sVCondition
p30
VRefurbished
p31
ssS'title'
p32
VApple MacBook Air Core i5 1.6GHz 4GB 128GB SSD 11.6" LED Notebook - MJVM2LL/A (Early 2015) - Refurbished
p33
sb.