ccopy_reg
_reconstructor
p0
(c__main__
ProductRecord
p1
c__builtin__
object
p2
Ntp3
Rp4
(dp5
S'product_url'
p6
S'http://www.walmart.com/ip/Apple-MacBook-Pro-MC374LL-A-13-3-Laptop-Silver-Refurbished/360162569'
p7
sS'price'
p8
V$429.99
p9
sS'properties'
p10
(dp11
VBrand
p12
VApple
p13
sVScreen Size
p14
V13.3
p15
sVManufacturer Part Number
p16
VMC374LLA
p17
ssS'title'
p18
VApple MacBook Pro MC374LL/A 13.3" Laptop (Silver) (Refurbished)
p19
sb.