ccopy_reg
_reconstructor
p0
(c__main__
ProductRecord
p1
c__builtin__
object
p2
Ntp3
Rp4
(dp5
S'product_url'
p6
S'http://www.walmart.com/ip/Refurbished-Apple-MacBook-Pro-MD104LL-A-i7-2-6GHz-8GB-750GB-OS-X-10-10-Yosemite-15-LCD-DVD/111644806'
p7
sS'price'
p8
V$844.94
p9
sS'properties'
p10
(dp11
VBrand
p12
VApple
p13
sVModel
p14
VMacBook Pro
p15
sVManufacturer Part Number
p16
VMD104LLA-PB-RCC
p17
ssS'title'
p18
VRefurbished Apple MacBook Pro MD104LL/A i7 2.6GHz 8GB 750GB OS X 10.10 Yosemite 15" LCD DVD
p19
sb.