ccopy_reg
_reconstructor
p0
(c__main__
ProductRecord
p1
c__builtin__
object
p2
Ntp3
Rp4
(dp5
S'product_url'
p6
S'http://www.walmart.com/ip/Refurbished-Apple-MacBook-Pro-13-i5-2-3-4GB-320GB-MC700LL-A-2011/140126336'
p7
sS'price'
p8
V$399.97
p9
sS'properties'
p10
(dp11
VRAM Memory
p12
V4 GB
p13
sVLaptop Computer Type
p14
VMacBooks
p15
sVBrand
p16
VApple
p17
sVManufacturer Part Number
p18
VW-MC700-C
p19
sVHard Drive Capacity
p20
V320 GB
p21
sVModel
p22
VMC700LL/ARFB
p23
sVScreen Size
p24
V13 in
p25
sVManufacturer
p26
VApple
p27
ssS'title'
p28
VRefurbished Apple MacBook Pro 13" i5 [2.3] [4GB] [320GB] MC700LL/A(2011)
p29
sb.