ccopy_reg
_reconstructor
p0
(c__main__
ProductRecord
p1
c__builtin__
object
p2
Ntp3
Rp4
(dp5
S'product_url'
p6
S'http://www.walmart.com/ip/Apple-MacBook-Pro-13-3-Inch-Laptop-Intel-Core-i5-2-5-GHz-4-GB-1600MHz-DDR3L-RAM-500-GB-HDD-MD101LL-A-Certified-Refurbished/151343933'
p7
sS'price'
p8
V$749.99
p9
sS'properties'
p10
(dp11
VOperating System
p12
VMicrosoft Windows
p13
sVColor Category
p14
VSilver
p15
sVLaptop Computer Type
p16
VMacBooks
p17
sVBrand
p18
VApple
p19
sVManufacturer Part Number
p20
VMBP-MD101LLA-B1
p21
sVScreen Size
p22
V13.3 in
p23
sVManufacturer
p24
VApple
p25
ssS'title'
p26
VApple MacBook Pro 13.3 Inch Laptop (Intel Core i5 2.5 GHz, 4 GB 1600MHz DDR3L RAM, 500 GB HDD) MD101LL/A (Certified Refurbished)
p27
sb.