ccopy_reg
_reconstructor
p0
(c__main__
ProductRecord
p1
c__builtin__
object
p2
Ntp3
Rp4
(dp5
S'product_url'
p6
S'http://www.walmart.com/ip/Apple-Refurbished-MacBook-Pro-MD104LL-A-Intel-Core-i7-3720QM-X4-2-6GHz-8GB-750GB-Scratch-And-Dent-Refurbished/190175171'
p7
sS'price'
p8
V$699.99
p9
sS'properties'
p10
(dp11
VRAM Memory
p12
V8 Gigabytes
p13
sVOperating System
p14
VApple Mac OS X 10.7
p15
sVBrand
p16
VApple
p17
sVManufacturer Part Number
p18
VMD104LL/A-RFB
p19
sVMaximum RAM Supported
p20
V16 Gigabytes
p21
sVHard Drive Capacity
p22
V750 Gigabytes
p23
sVBattery Life
p24
V6 Hours
p25
sVAssembled Product Dimensions (L x W x H)
p26
V14.40 x 9.80 x 1.00 Inches
p27
sVProcessor Type
p28
VIntel Core i7-3720QM
p29
sVScreen Size
p30
V15.4 Inches
p31
sVProcessor Speed
p32
V2.6 Gigahertz
p33
ssS'title'
p34
VApple Refurbished MacBook Pro MD104LL/A Intel Core i7-3720QM X4 2.6GHz 8GB 750GB (Scratch And Dent Refurbished)
p35
sb.