ccopy_reg
_reconstructor
p0
(c__main__
ProductRecord
p1
c__builtin__
object
p2
Ntp3
Rp4
(dp5
S'product_url'
p6
S'http://www.walmart.com/ip/Certified-Refurbished-Apple-MacBook-Pro-13-Inch-Laptop-2-5Ghz-Core-i5-4GB-RAM-500GB-MD101LL-A-Grade-B/197812893'
p7
sS'price'
p8
V$571.64
p9
sS'properties'
p10
(dp11
VRAM Memory
p12
V4 GB
p13
sVOperating System
p14
VMac OS X
p15
sVVideo Game Platform
p16
VMac
p17
sVBrand
p18
VApple
p19
sVManufacturer Part Number
p20
VMD101LL/A
p21
sVHard Drive Capacity
p22
V500 GB
p23
sVProcessor Type
p24
VIntel Core i5
p25
sVScreen Size
p26
V13.3 in
p27
sVManufacturer
p28
VApple
p29
ssS'title'
p30
VCertified Refurbished - Apple MacBook Pro 13-Inch Laptop  - 2.5Ghz Core i5 / 4GB RAM / 500GB MD101LL/A (Grade B)
p31
sb.