ccopy_reg
_reconstructor
p0
(c__main__
ProductRecord
p1
c__builtin__
object
p2
Ntp3
Rp4
(dp5
S'product_url'
p6
S'http://www.walmart.com/ip/Mid-2015-Apple-MacBook-Pro-15-Inch-Retina-Laptop-i7-2-8GHz-16GB-DDR3-Ram-1TB-PCIe-Flash-SSD-Radeon-R9-M370X-2GB-Video-OS-X-Sierra-Thunderbolt-HDMI-MJ/344341939'
p7
sS'price'
p8
V$2,299.95
p9
sS'properties'
p10
(dp11
VRAM Memory
p12
V16 GB
p13
sVOperating System
p14
VMac OS X 10.13 High Sierra
p15
sVFeatures
p16
V1TB Pcie Flash Solid State HDD, AMD Radeon R9 M370X with 2GB GDDR5 memory
p17
sVBrand
p18
VApple
p19
sVProcessor Speed
p20
V2.8 GHz
p21
sVManufacturer Part Number
p22
VMJLU2LL/A
p23
sVMaximum RAM Supported
p24
V16 GB
p25
sVHard Drive Capacity
p26
V1000 GB
p27
sVBattery Life
p28
V9 h
p29
sVModel
p30
VMJLU2LL/A
p31
sVScreen Size
p32
V15.4 in
p33
sVProcessor Type
p34
VIntel Quad Core i7, Intel Core i7
p35
ssS'title'
p36
VMid 2015 Apple MacBook Pro 15-Inch Retina Laptop i7 2.8GHz / 16GB DDR3 Ram / 1TB PCIe Flash SSD / Radeon R9 M370X 2GB Video / OS X Sierra / Thunderbolt / HDMI / MJLU2LL/A (Refurbished)
p37
sb.