ccopy_reg
_reconstructor
p0
(c__main__
ProductRecord
p1
c__builtin__
object
p2
Ntp3
Rp4
(dp5
S'product_url'
p6
S'http://www.walmart.com/ip/Pre-Owned-Apple-MacBook-Pro-15-i7-2-2-500GB-4GB-MC723LL-A-2011/147698487'
p7
sS'price'
p8
V$665.22
p9
sS'properties'
p10
(dp11
VBrand
p12
VApple
p13
sVHard Drive Capacity
p14
V500 Gigabytes
p15
sVRAM Memory
p16
V4 GB
p17
sVScreen Size
p18
V15 Inches
p19
sVModel
p20
VMC723LL/ARFB
p21
ssS'title'
p22
VPre-Owned Apple MacBook Pro 15" i7 [2.2] [500GB] [4GB] MC723LL/A(2011)
p23
sb.