ccopy_reg
_reconstructor
p0
(c__main__
ProductRecord
p1
c__builtin__
object
p2
Ntp3
Rp4
(dp5
S'product_url'
p6
S'http://www.walmart.com/ip/Apple-MacBook-Pro-15-Inch-Retina-Laptop-Quad-i7-2-7GHz-16GB-DDR3-Memory-1TB-SSD-Geforce-GT-650M-1GB-Video-OS-X-Sierra-Thunderbolt-HDMI-Refurbished/529351991'
p7
sS'price'
p8
V$1,699.95
p9
sS'properties'
p10
(dp11
VRAM Memory
p12
V16 GB
p13
sVOperating System
p14
VMac OS X 10.12 Sierra, Mac OS
p15
sVBrand
p16
VApple
p17
sVProcessor Speed
p18
V2.7 GHz
p19
sVManufacturer Part Number
p20
VME665LL/A
p21
sVHard Drive Capacity
p22
V1 TB
p23
sVBattery Life
p24
V9 h
p25
sVModel
p26
VNvidia Geforce 650M 1GB Graphics
p27
sVScreen Size
p28
V15.4 in
p29
sVProcessor Type
p30
VIntel Quad Core i7, Intel Core i7
p31
ssS'title'
p32
VApple MacBook Pro 15-Inch Retina Laptop Quad i7 2.7GHz / 16GB DDR3 Memory / 1TB SSD / Geforce GT 650M 1GB Video / OS X Sierra / Thunderbolt / HDMI (Refurbished)
p33
sb.