ccopy_reg
_reconstructor
p0
(c__main__
ProductRecord
p1
c__builtin__
object
p2
Ntp3
Rp4
(dp5
S'product_url'
p6
S'http://www.walmart.com/ip/Apple-MacBook-Pro-Core-2-Duo-2-4GHz-4GB-250GB-13-3-OS-X-MC374LL-A-Refurbished/316255451'
p7
sS'price'
p8
V$419.98
p9
sS'properties'
p10
(dp11
VRAM Memory
p12
V4 GB
p13
sVAssembled Product Dimensions (L x W x H)
p14
V11.68 x 9.50 x 0.68 Inches
p15
sVBrand
p16
VApple
p17
sVManufacturer Part Number
p18
VW-MC374-A2
p19
sVHard Drive Capacity
p20
V250 GB
p21
sVModel
p22
VW-MC374-A2
p23
sVScreen Size
p24
V13.3 in
p25
sVProcessor Speed
p26
V2.4 GHz
p27
sVCondition
p28
VRefurbished
p29
ssS'title'
p30
VApple MacBook Pro Core 2 Duo 2.4GHz 4GB 250GB 13.3" OS X MC374LL/A - Refurbished
p31
sb.