ccopy_reg
_reconstructor
p0
(c__main__
ProductRecord
p1
c__builtin__
object
p2
Ntp3
Rp4
(dp5
S'product_url'
p6
S'http://www.walmart.com/ip/Apple-MacBook-13-3-Refurbished-A1181-Notebook-Intel-Core-2-Duo-2-GB-RAM-500-gb-HDD-DVD-Writer-Nvidia-GeForce-9400M-Wifi-Webcam-Mac-OS-10-6-Snow-Leopa/124310765'
p7
sS'price'
p8
V$139.79
p9
sS'properties'
p10
(dp11
VRAM Memory
p12
V2 GB
p13
sVOperating System
p14
VMicrosoft Windows
p15
sVLaptop Computer Type
p16
VMacBooks
p17
sVBrand
p18
VApple
p19
sVHard Drive Capacity
p20
V500
p21
sVScreen Size
p22
V13.3
p23
ssS'title'
p24
VApple MacBook 13.3" Refurbished - A1181 Notebook - Intel Core 2 Duo - 2 GB RAM - 500 gb HDD - DVD-Writer - Nvidia GeForce 9400M - Wifi - Webcam - Mac OS 10.6 Snow Leopard
p25
sb.