ccopy_reg
_reconstructor
p0
(c__main__
ProductRecord
p1
c__builtin__
object
p2
Ntp3
Rp4
(dp5
S'product_url'
p6
S'http://www.walmart.com/ip/Refurbished-Apple-MacBook-Pro-MD102LL-A-i7-2-9GHz-8GB-240SSD-OS-X-10-7-Lion-13-DRW-B/214259232'
p7
sS'price'
p8
V$679.99
p9
sS'properties'
p10
(dp11
VRAM Memory
p12
V8 Gigabytes
p13
sVOperating System
p14
V10.7 Lion
p15
sVBrand
p16
VApple
p17
sVProcessor Speed
p18
V2.9 Gigahertz
p19
sVMaximum RAM Supported
p20
V16 Gigabytes
p21
sVHard Drive Capacity
p22
V240 Gigabytes
p23
sVModel
p24
VMacBook Pro
p25
sVScreen Size
p26
V13
p27
sVProcessor Type
p28
VIntel Core i7
p29
ssS'title'
p30
VRefurbished Apple MacBook Pro MD102LL/A i7 2.9GHz 8GB 240SSD OS X 10.7 Lion 13" DRW B
p31
sb.