ccopy_reg
_reconstructor
p0
(c__main__
ProductRecord
p1
c__builtin__
object
p2
Ntp3
Rp4
(dp5
S'product_url'
p6
S'http://www.walmart.com/ip/Apple-MacBook-MC721LL-A-A-Intel-Core-i7-2635QM-X3-2GHz-4GB-500GB-15-4-MacOSX-Silver-Refurbished/188482715'
p7
sS'price'
p8
V$723.17
p9
sS'properties'
p10
(dp11
VRAM Memory
p12
V4 Gigabytes
p13
sVOperating System
p14
VApple Mac OS X 10.6
p15
sVFeatures
p16
VFingerprint Reader, 6-cellLithium-Polymer Battery, 10/100/1000 Gigabit Ethernet, 802.11ABGN and Bluetooth 2.1 + EDR, SuperMulti-DVD Burner, Intel Core i7-2635QM Processor (Triple-Core, 2GHz, 6MB Cache), Standard Keyboard and Touchpad, 500GB(5400RPM)SATA Hard Drive, 14.3" x 9.8" x 0.9" (HxWxD);5.6lbs, 15.4-inch(1440 x 900)LED Display, 2 x USB 2.0, Apple Mac OS X 10.6 Operating System, DedicatedAMD Radeon HD 6490M Graphics(0.3MB Dedicated Video Memory), 1MP Webcam and No Integrated Microphone, 4GBDDR3 System Memory
p17
sVBrand
p18
VApple
p19
sVManufacturer Part Number
p20
VMC721LL/A-A-RFB
p21
sVMaximum RAM Supported
p22
V4 Gigabytes
p23
sVHard Drive Capacity
p24
V500 Gigabytes
p25
sVBattery Life
p26
V7 Hours
p27
sVAssembled Product Dimensions (L x W x H)
p28
V9.80 x 0.90 x 14.30 Inches
p29
sVProcessor Type
p30
VIntel Core i7-2635QM
p31
sVScreen Size
p32
V15.4 Inches
p33
sVProcessor Speed
p34
V2 Gigahertz
p35
ssS'title'
p36
VApple MacBook MC721LL/A-A Intel Core i7-2635QM X3 2GHz 4GB 500GB 15.4" MacOSX,Silver (Refurbished)
p37
sb.