ccopy_reg
_reconstructor
p0
(c__main__
ProductRecord
p1
c__builtin__
object
p2
Ntp3
Rp4
(dp5
S'product_url'
p6
S'http://www.walmart.com/ip/Apple-MacBook-Air-Core-i5-4250U-Dual-Core-1-3GHz-4GB-128GB-SSD-11-6-LED-Notebook-AirPort-OS-X-w-Webcam-2013/987079618'
p7
sS'price'
p8
V$609.99
p9
sS'properties'
p10
(dp11
VBrand
p12
VApple
p13
sVScreen Size
p14
V11.6
p15
sVHard Drive Capacity
p16
V128
p17
sVCondition
p18
VNew
p19
ssS'title'
p20
VApple MacBook Air Core i5-4250U Dual-Core 1.3GHz 4GB 128GB SSD 11.6" LED Notebook AirPort OS X w/Webcam (2013)
p21
sb.