ccopy_reg
_reconstructor
p0
(c__main__
ProductRecord
p1
c__builtin__
object
p2
Ntp3
Rp4
(dp5
S'product_url'
p6
S'http://www.walmart.com/ip/Apple-Macbook-Pro-MC721LL-A-Intel-Core-i7-X4-2-00-Ghz-4GB-500GB-15-4-OSX-Silver-Refurbished/197933466'
p7
sS'price'
p8
V$579.47
p9
sS'properties'
p10
(dp11
VRAM Memory
p12
V4 Gigabytes
p13
sVOperating System
p14
VApple Mac OS X 10.8??
p15
sVLaptop Computer Type
p16
VMacbooks
p17
sVBrand
p18
VApple
p19
sVManufacturer Part Number
p20
VMC721LL/A-RFB
p21
sVWireless Technology
p22
VBluetooth 2.1
p23
sVHard Drive Capacity
p24
V500 Gigabytes
p25
sVProcessor Core Type
p26
VQuad-core (4 Core)
p27
sVProcessor Type
p28
VIntel Core i7-2635QM
p29
sVScreen Size
p30
V15.4 Inches
p31
sVModel
p32
VRadeon HD 6490M
p33
sVManufacturer
p34
VApple
p35
ssS'title'
p36
VApple Macbook Pro MC721LL/A Intel Core i7 X4 2.00 Ghz 4GB 500GB 15.4" OSX, Silver (Refurbished)
p37
sb.