ccopy_reg
_reconstructor
p0
(c__main__
ProductRecord
p1
c__builtin__
object
p2
Ntp3
Rp4
(dp5
S'product_url'
p6
S'http://www.walmart.com/ip/Apple-MacBook-Pro-MC723LL-A-Intel-Core-i7-2720QM-X4-2-20GHz-4GB-750GB-15-4-Silver-Refurbished/110309212'
p7
sS'price'
p8
V$629.99
p9
sS'properties'
p10
(dp11
VRAM Memory
p12
V4 Gigabytes
p13
sVOperating System
p14
VApple Mac OS X 10.6
p15
sVFeatures
p16
V4GB DDR3 System Memory, 10/100/1000 Gigabit Ethernet, 802.11ABGN and Bluetooth 2.1 + EDR, SuperMulti-DVD Burner, Intel Core i7-2720QM Processor (Quad-Core, 2.20GHz, 6MB Cache), 750GB (5400RPM) SATA Hard Disk Drive (HDD), 6-cell Lithium-Polymer Battery, 15.4-inch (1440 x 900) LED Display, 1MP Webcam and Integrated Microphone, Energy Star Compliant, 2 x USB 2.0, Apple Mac OS X 10.6 Operating System, Dedicated AMD Radeon HD 6750M Graphics (1.0GB Dedicated Video Memory), Backlit Standard Keyboard and Touchpad, 9.82" x 14.35" x 0.95" (HxWxD); 5lbs
p17
sVBrand
p18
VApple
p19
sVProcessor Speed
p20
V2.20 Gigahertz
p21
sVManufacturer Part Number
p22
VMC723LL/A-RFB
p23
sVMaximum RAM Supported
p24
V8 Gigabytes
p25
sVHard Drive Capacity
p26
V750 Gigabytes
p27
sVBattery Life
p28
V7 Hours
p29
sVAssembled Product Dimensions (L x W x H)
p30
V14.40 x 1.00 x 9.80 Inches
p31
sVModel
p32
VHD 3000, Radeon HD 6750M, MC723LL/A
p33
sVScreen Size
p34
V15.4 Inches
p35
sVProcessor Type
p36
VIntel Core i7-2720QM
p37
ssS'title'
p38
VApple MacBook Pro MC723LL/A Intel Core i7-2720QM X4 2.20GHz 4GB 750GB 15.4", Silver (Refurbished)
p39
sb.