ccopy_reg
_reconstructor
p0
(c__main__
ProductRecord
p1
c__builtin__
object
p2
Ntp3
Rp4
(dp5
S'product_url'
p6
S'http://www.walmart.com/ip/Refurbished-Apple-MacBook-Pro-15-i7-2-3-750GB-4GB-MD035LL-A-2011/157114962'
p7
sS'price'
p8
V$688.46
p9
sS'properties'
p10
(dp11
VRAM Memory
p12
V4 GB
p13
sVLaptop Computer Type
p14
VMacbooks
p15
sVBrand
p16
VApple
p17
sVManufacturer Part Number
p18
VMD035LLA-PB-2RCB
p19
sVHard Drive Capacity
p20
V750 Gigabytes
p21
sVModel
p22
VMD035LL/ARFB
p23
sVScreen Size
p24
V15 Inches
p25
sVManufacturer
p26
VApple
p27
ssS'title'
p28
VRefurbished Apple MacBook Pro 15" i7 [2.3] [750GB] [4GB] MD035LL/A(2011)
p29
sb.