ccopy_reg
_reconstructor
p0
(c__main__
ProductRecord
p1
c__builtin__
object
p2
Ntp3
Rp4
(dp5
S'product_url'
p6
S'http://www.walmart.com/ip/Apple-MacBook-13-3-Refurbished-A1181-Notebook-Intel-Core-2-Duo-4-GB-RAM-160-gb-HDD-DVD-Writer-Nvidia-GeForce-9400M-Wifi-Webcam-Mac-OS-10-6-Snow-Leopa/116232372'
p7
sS'price'
p8
V$116.99
p9
sS'properties'
p10
(dp11
VOperating System
p12
VMicrosoft Windows
p13
sVBrand
p14
VApple
p15
sVScreen Size
p16
V13.3
p17
ssS'title'
p18
VApple MacBook 13.3" Refurbished - A1181 Notebook - Intel Core 2 Duo - 4 GB RAM - 160 gb HDD - DVD-Writer - Nvidia GeForce 9400M - Wifi - Webcam - Mac OS 10.6 Snow Leopard
p19
sb.