ccopy_reg
_reconstructor
p0
(c__main__
ProductRecord
p1
c__builtin__
object
p2
Ntp3
Rp4
(dp5
S'product_url'
p6
S'http://www.walmart.com/ip/Apple-MacBook-Pro-Core-i5-2-5GHz-4GB-500GB-DVD-RW-13-3-Notebook-MD101LL-A-2012-Refurbished/292533388'
p7
sS'price'
p8
V$669.99
p9
sS'properties'
p10
(dp11
VRAM Memory
p12
V4 GB
p13
sVOperating System
p14
VMicrosoft Windows
p15
sVBrand
p16
VApple
p17
sVHard Drive Capacity
p18
V500 GB
p19
sVScreen Size
p20
V13.3\u005c"
p21
sVCondition
p22
VRefurbished
p23
ssS'title'
p24
VApple MacBook Pro Core i5 2.5GHz 4GB 500GB DVD?RW 13.3" Notebook MD101LL/A (2012) - Refurbished
p25
sb.