ccopy_reg
_reconstructor
p0
(c__main__
ProductRecord
p1
c__builtin__
object
p2
Ntp3
Rp4
(dp5
S'product_url'
p6
S'http://www.walmart.com/ip/Apple-MacBook-Pro-Retina-Core-i7-2-8GHz-16GB-512GB-SSD-15-4-Notebook-Early-2013/634722014'
p7
sS'price'
p8
V$1,449.99
p9
sS'properties'
p10
(dp11
VBrand
p12
VApple
p13
sVScreen Size
p14
V15.4
p15
sVHard Drive Capacity
p16
V512
p17
sVCondition
p18
VNew
p19
sVManufacturer Part Number
p20
VA1398-28i7-GSA
p21
ssS'title'
p22
VApple MacBook Pro Retina Core i7 2.8GHz 16GB 512GB SSD 15.4" Notebook (Early 2013)
p23
sb.