ccopy_reg
_reconstructor
p0
(c__main__
ProductRecord
p1
c__builtin__
object
p2
Ntp3
Rp4
(dp5
S'product_url'
p6
S'http://www.walmart.com/ip/Refurbished-Apple-MacBook-Air-11-6-Notebook-Intel-i7-3667U-2-0GHz-4GB-128GB-SSD-MD845LL-A/881669265'
p7
sS'price'
p8
V$529.95
p9
sS'properties'
p10
(dp11
VRAM Memory
p12
V4 GB
p13
sVOperating System
p14
VMicrosoft Windows
p15
sVBrand
p16
VApple
p17
sVManufacturer Part Number
p18
VMD845LLA-PB-RCC
p19
sVHard Drive Capacity
p20
V128
p21
sVScreen Size
p22
V11.6
p23
ssS'title'
p24
VRefurbished Apple MacBook Air 11.6" Notebook Intel i7-3667U 2.0GHz 4GB 128GB SSD MD845LL/A
p25
sb.