ccopy_reg
_reconstructor
p0
(c__main__
ProductRecord
p1
c__builtin__
object
p2
Ntp3
Rp4
(dp5
S'product_url'
p6
S'http://www.walmart.com/ip/661-7347-Apple-Macbook-Pro-13-Early-2013-8GB-w-Intel-i7-3540M-3Ghz-CPU/180030814'
p7
sS'price'
p8
V$421.00
p9
sS'properties'
p10
(dp11
VRAM Memory
p12
V8 GB
p13
sVFeatures
p14
VReplacement Part Only. No accessories, cables or manuals are included unless otherwise noted
p15
sVBrand
p16
VApple
p17
sVManufacturer Part Number
p18
V661-7347
p19
sVScreen Size
p20
V13\u005c"
p21
sVCondition
p22
VGrade A Used Like New. 100% Tested and Working
p23
ssS'title'
p24
V661-7347 Apple Macbook Pro 13" Early 2013 8GB w/ Intel i7-3540M 3Ghz CPU
p25
sb.