ccopy_reg
_reconstructor
p0
(c__main__
ProductRecord
p1
c__builtin__
object
p2
Ntp3
Rp4
(dp5
S'product_url'
p6
S'http://www.walmart.com/ip/Apple-MacBook-Air-MD761LL-AU-Intel-Core-i7-4650U-X2-1-7GHz-4GB-256GB-SSD-13-3-Silver-Refurbished/108830025'
p7
sS'price'
p8
V$703.02
p9
sS'properties'
p10
(dp11
VRAM Memory
p12
V4 Gigabytes
p13
sVOperating System
p14
VApple Mac OS X 10.8
p15
sVFeatures
p16
V2 x USB 3.0, 1MP Webcam and Integrated Microphone, 0.68" x 12.8" x 8.94" (HxWxD);3lbs, Apple Mac OS X 10.8 Operating System, IntegratedIntel HD Graphics, Energy Star Compliant, 256GBSolid State Drive, 6-cellLithium-Ion Battery, 13.3-inch(1440x900)LED Display, 10/100/1000 Gigabit Ethernet, 802.11AACBGN and Bluetooth 4.0 + HS, Backlit Standard Keyboard and Touchpad, Intel Core i7-4650U Processor (Dual-Core, 1.7GHz, 4MB Cache), 4GBDDR3 System Memory
p17
sVBrand
p18
VApple
p19
sVManufacturer Part Number
p20
VMD761LL/AU-RFB
p21
sVMaximum RAM Supported
p22
V4 Gigabytes
p23
sVHard Drive Capacity
p24
V256 Gigabytes
p25
sVBattery Life
p26
V7 Hours
p27
sVAssembled Product Dimensions (L x W x H)
p28
V12.80 x 8.90 x 0.70 Inches
p29
sVProcessor Type
p30
VIntel Core i7-4650U
p31
sVScreen Size
p32
V13.3 Inches
p33
sVProcessor Speed
p34
V1.7 Gigahertz
p35
ssS'title'
p36
VApple MacBook Air MD761LL/AU Intel Core i7-4650U X2 1.7GHz 4GB 256GB SSD 13.3",Silver (Refurbished)
p37
sb.