ccopy_reg
_reconstructor
p0
(c__main__
ProductRecord
p1
c__builtin__
object
p2
Ntp3
Rp4
(dp5
S'product_url'
p6
S'http://www.walmart.com/ip/Certified-Refurbished-Apple-Macbook-12-intel-m-core-2015-1-1-256GB-8GB-MK4M2LL-A-Gold-90-Day-Warranty/368805406'
p7
sS'price'
p8
V$779.00
p9
sS'properties'
p10
(dp11
VRAM Memory
p12
V8.00 GB
p13
sVOperating System
p14
VOS X 10.10 "Yosemite" or Higher
p15
sVBrand
p16
VApple
p17
sVProcessor Speed
p18
V1.10 GHz
p19
sVHard Drive Capacity
p20
V256.00 GB
p21
sVBattery Life
p22
V9 h
p23
sVModel
p24
VMK4M2LL/A
p25
sVScreen Size
p26
V12 in
p27
sVProcessor Type
p28
VIntel M Core
p29
sVCondition
p30
VRefurbished
p31
ssS'title'
p32
VCertified Refurbished Apple Macbook 12" intel m core 2015 [1.1] [256GB] [8GB] MK4M2LL/A- Gold - 90 Day Warranty
p33
sb.