ccopy_reg
_reconstructor
p0
(c__main__
ProductRecord
p1
c__builtin__
object
p2
Ntp3
Rp4
(dp5
S'product_url'
p6
S'http://www.walmart.com/ip/Apple-MacBook-Air-11-6-Inch-Laptop-1-6GHz-4GB-DDR3-Memory-128GB-SSD-Solid-State-Drive-OS-X-10-12-Sierra-Refurbished/770357544'
p7
sS'price'
p8
V$499.00
p9
sS'properties'
p10
(dp11
VRAM Memory
p12
V4 Gigabytes, 4 GB
p13
sVOperating System
p14
VMac OS
p15
sVBrand
p16
VApple
p17
sVProcessor Speed
p18
V1.6 Gigahertz
p19
sVMaximum RAM Supported
p20
V4 Gigabytes
p21
sVHard Drive Capacity
p22
V128 Gigabytes, 128 GB
p23
sVAssembled Product Dimensions (L x W x H)
p24
V7.60 x 11.80 x 0.70 Inches
p25
sVModel
p26
VMC906LL/A
p27
sVScreen Size
p28
V11.6 Inches
p29
sVProcessor Type
p30
V1.6 GHz Intel "Core 2 Duo"
p31
ssS'title'
p32
VApple MacBook Air 11.6-Inch Laptop 1.6GHz / 4GB DDR3 Memory / 128GB SSD (Solid State Drive) / OS X 10.12 Sierra - Refurbished
p33
sb.