ccopy_reg
_reconstructor
p0
(c__main__
ProductRecord
p1
c__builtin__
object
p2
Ntp3
Rp4
(dp5
S'product_url'
p6
S'http://www.walmart.com/ip/Refurbished-Apple-MacBook-Air-11-6-Intel-Dual-Core-i5-3317U-1-7GHz-128GB-SSD-4GB-MD223LL-A/671923142'
p7
sS'price'
p8
V$444.95
p9
sS'properties'
p10
(dp11
VOperating System
p12
VMicrosoft Windows
p13
sVBrand
p14
VApple
p15
sVManufacturer Part Number
p16
VMD223LLA-PB-2RCB-WALMART
p17
sVHard Drive Capacity
p18
V128 GB
p19
sVModel
p20
VMacBook Air
p21
sVScreen Size
p22
V11.6\u005c"
p23
ssS'title'
p24
VRefurbished Apple MacBook Air 11.6" Intel Dual Core i5-3317U 1.7GHz 128GB SSD 4GB MD223LL/A
p25
sb.