ccopy_reg
_reconstructor
p0
(c__main__
ProductRecord
p1
c__builtin__
object
p2
Ntp3
Rp4
(dp5
S'product_url'
p6
S'http://www.walmart.com/ip/Apple-MC968-I5-1-6-2GB-64GB-Certified-Preloved-11-6-Macbook-Air/56208141'
p7
sS'price'
p8
V$799.99
p9
sS'properties'
p10
(dp11
VOperating System
p12
VMicrosoft Windows
p13
sVBrand
p14
VApple
p15
sVManufacturer Part Number
p16
VMC968/I5/1.6/2GB/64GB
p17
sVAssembled Product Dimensions (L x W x H)
p18
V19.90 x 15.70 x 4.90 Inches
p19
sVModel
p20
VMC968/I5/1.6/2GB/64GB
p21
sVScreen Size
p22
V11.6\u005c"
p23
sVCondition
p24
VRefurbished
p25
ssS'title'
p26
VApple MC968/I5/1.6/2GB/64GB Certified Preloved 11.6" Macbook Air
p27
sb.