ccopy_reg
_reconstructor
p0
(c__main__
ProductRecord
p1
c__builtin__
object
p2
Ntp3
Rp4
(dp5
S'product_url'
p6
S'http://www.walmart.com/ip/Refurbished-Apple-MacBook-Air-11-6-Laptop-Intel-Core-i5-4260U-1-4GHz-4GB-128GB-SSD-MD711LLB/196561642'
p7
sS'price'
p8
V$399.95
p9
sS'properties'
p10
(dp11
VRAM Memory
p12
V4 Gibibytes
p13
sVOperating System
p14
VOS X Mountain Lion
p15
sVBrand
p16
VApple
p17
sVProcessor Speed
p18
V1.4 Gigahertz
p19
sVManufacturer Part Number
p20
VMD711LLB-PB-RCC-WAL3
p21
sVHard Drive Capacity
p22
V128 Gibibytes
p23
sVBattery Life
p24
V9 Hours
p25
sVAssembled Product Dimensions (L x W x H)
p26
V11.60 x 0.10 x 11.80 Inches
p27
sVModel
p28
VMacBook
p29
sVScreen Size
p30
V11.6 Inches
p31
sVProcessor Type
p32
VDual-Core Intel Core i5
p33
sVCondition
p34
VRefurbished
p35
sVAssembled Product Weight
p36
V3.50 Pounds
p37
ssS'title'
p38
VRefurbished Apple MacBook Air 11.6" Laptop Intel Core i5-4260U 1.4GHz 4GB 128GB SSD MD711LLB
p39
sb.