ccopy_reg
_reconstructor
p0
(c__main__
ProductRecord
p1
c__builtin__
object
p2
Ntp3
Rp4
(dp5
S'product_url'
p6
S'http://www.walmart.com/ip/Refurbished-Apple-15-4IN-MACBOOK-PRO-MGXA2LL-A-C-MACBOOK-PRO/600298235'
p7
sS'price'
p8
V$5,494.95
p9
sS'properties'
p10
(dp11
VBrand
p12
VApple
p13
sVScreen Size
p14
V15.4\u005c"
p15
sVCondition
p16
VRefurbished
p17
sVmanufacturer_part_number
p18
Vmgxa2ll-a
p19
ssS'title'
p20
VRefurbished "Apple 15.4IN MACBOOK PRO MGXA2LL-A - C MACBOOK PRO"
p21
sb.