ccopy_reg
_reconstructor
p0
(c__main__
ProductRecord
p1
c__builtin__
object
p2
Ntp3
Rp4
(dp5
S'product_url'
p6
S'http://www.walmart.com/ip/Apple-MacBook-Pro-MLH42LL-A-Intel-Core-i7-6820HQ-X4-2-7GHz-16GB-512GB-SSD-Certified-Refurbished/736553610'
p7
sS'price'
p8
V$1,999.99
p9
sS'properties'
p10
(dp11
VRAM Memory
p12
V16 Gigabytes
p13
sVOperating System
p14
VmacOS 10.12
p15
sVFeatures
p16
V16GB DDR3 System Memory, Fingerprint Reader, 6-cell Lithium-Polymer Battery, 1MP Webcam and Integrated Microphone, This Certified Refurbished product is tested and certified to look and work like new. The refurbishing process includes functionality testing, basic cleaning, inspection, and repackaging. The product ships with all relevant accessories, a minimum 90-day warranty, and may arrive in a generic box., 0.61" x 13.75" x 9.48" (HxWxD); 4lbs, Hybrid AMD Radeon Pro 450 Graphics (2.0GB Dedicated Video Memory), macOS 10.12 Operating System, Intel Core i7-6820HQ Processor (Quad-Core, 2.7GHz, 8MB Cache), Energy Star Compliant, 15.6-inch (2880 x 1800) LED Display, No Ethernet, 802.11AC and Bluetooth 4.2, 512GB Solid State Drive (SSD), Backlit Standard Keyboard and Touchpad
p17
sVBrand
p18
VApple
p19
sVManufacturer Part Number
p20
VMLH42LL/A-RFB
p21
sVHard Drive Capacity
p22
V512 Gigabytes
p23
sVBattery Life
p24
V10 Hours
p25
sVAssembled Product Dimensions (L x W x H)
p26
V13.80 x 9.50 x 0.60 Inches
p27
sVProcessor Type
p28
VIntel Core i7-6820HQ
p29
sVScreen Size
p30
V15.6 Inches
p31
sVProcessor Speed
p32
V2.7 Gigahertz
p33
ssS'title'
p34
VApple MacBook Pro MLH42LL/A Intel Core i7-6820HQ X4 2.7GHz 16GB 512GB SSD (Certified Refurbished)
p35
sb.