ccopy_reg
_reconstructor
p0
(c__main__
ProductRecord
p1
c__builtin__
object
p2
Ntp3
Rp4
(dp5
S'product_url'
p6
S'http://www.walmart.com/ip/Apple-MacBook-Pro-Retina-Core-i7-2-8GHz-16GB-1TB-15-4-IPS-Notebook-Mid-2014-MGXC2LL-A-Refurbished/455001253'
p7
sS'price'
p8
V$1,749.99
p9
sS'properties'
p10
(dp11
VBrand
p12
VApple
p13
sVRAM Memory
p14
V16 GB
p15
sVScreen Size
p16
V15.4\u005c"
p17
sVCondition
p18
VRefurbished
p19
ssS'title'
p20
VApple MacBook Pro Retina Core i7 2.8GHz 16GB 1TB 15.4" IPS Notebook - (Mid 2014) MGXC2LL/A - Refurbished
p21
sb.