ccopy_reg
_reconstructor
p0
(c__main__
ProductRecord
p1
c__builtin__
object
p2
Ntp3
Rp4
(dp5
S'product_url'
p6
S'http://www.walmart.com/ip/Apple-MacBook-13-3-Core-2-Duo-P7450-2-13GHz-2GB-RAM-160GB-Notebook-MC240LL-A-Refurbished/644253691'
p7
sS'price'
p8
V$159.99
p9
sS'properties'
p10
(dp11
VOperating System
p12
VMicrosoft Windows
p13
sVBrand
p14
VApple
p15
sVRAM Memory
p16
V2 GB
p17
sVScreen Size
p18
V13.3\u005c"
p19
sVHard Drive Capacity
p20
V160 GB
p21
ssS'title'
p22
VApple MacBook 13.3" Core 2 Duo P7450 2.13GHz 2GB RAM 160GB Notebook MC240LL/A (Refurbished)
p23
sb.