ccopy_reg
_reconstructor
p0
(c__main__
ProductRecord
p1
c__builtin__
object
p2
Ntp3
Rp4
(dp5
S'product_url'
p6
S'http://www.walmart.com/ip/Apple-13-3-Inch-MacBook-NoteBook-2-13GHz-Intel-Core-2-Duo-1GB-Ram-120-HD-Laptop-Manufacturer-Refurbished/816887687'
p7
sS'price'
p8
V$249.99
p9
sS'properties'
p10
(dp11
VRAM Memory
p12
V1 GB
p13
sVOperating System
p14
VMicrosoft Windows
p15
sVBrand
p16
VApple
p17
sVManufacturer Part Number
p18
VMC240LL/A
p19
sVModel
p20
VMC240LL/A
p21
sVScreen Size
p22
V13.3\u005c"
p23
ssS'title'
p24
VApple 13.3-Inch MacBook NoteBook 2.13GHz Intel Core 2 Duo 1GB Ram 120 HD Laptop (Manufacturer Refurbished)
p25
sb.