ccopy_reg
_reconstructor
p0
(c__main__
ProductRecord
p1
c__builtin__
object
p2
Ntp3
Rp4
(dp5
S'product_url'
p6
S'http://www.walmart.com/ip/Apple-MacBook-Pro-Z0TV-MNQF32-13-3-Dual-Core-i7-3-30GHz-16GB-1TB-OSX-Sierra-Space-Gray/799703012'
p7
sS'price'
p8
V$2,999.99
p9
sS'properties'
p10
(dp11
VRAM Memory
p12
V16 GB
p13
sVBrand
p14
VApple
p15
sVManufacturer Part Number
p16
VZ0TV-MNQF32
p17
sVHard Drive Capacity
p18
V1000 GB
p19
sVModel
p20
VZ0TV-MNQF32
p21
sVScreen Size
p22
V13.3\u005c"
p23
sVCondition
p24
VNew
p25
ssS'title'
p26
VApple MacBook Pro Z0TV-MNQF32 13.3" Dual Core i7 3.30GHz 16GB 1TB OSX Sierra, Space Gray
p27
sb.