ccopy_reg
_reconstructor
p0
(c__main__
ProductRecord
p1
c__builtin__
object
p2
Ntp3
Rp4
(dp5
S'product_url'
p6
S'http://www.walmart.com/ip/Refurbished-Apple-MacBook-Pro-15-4-Intel-Core-i7-2-6GHz-8GB-750GB-Laptop-MD104LL-A-Scratch-and-Dent/122384216'
p7
sS'price'
p8
V$833.20
p9
sS'properties'
p10
(dp11
VOperating System
p12
VMay Come Standard with Mac OSX  10.7.3 or higher
p13
sVVideo Game Platform
p14
VMac OS
p15
sVBrand
p16
VApple
p17
sVProcessor Speed
p18
V2.6 Gigahertz
p19
sVMaximum RAM Supported
p20
V8 Gigabytes
p21
sVHard Drive Capacity
p22
V750 Gigabytes
p23
sVModel
p24
VMD104LL/A
p25
sVScreen Size
p26
V15.4 Inches
p27
sVProcessor Type
p28
VIntel Core i7
p29
ssS'title'
p30
VRefurbished Apple MacBook Pro 15.4 Intel Core i7 2.6GHz 8GB 750GB Laptop MD104LL/A (Scratch and Dent)
p31
sb.