ccopy_reg
_reconstructor
p0
(c__main__
ProductRecord
p1
c__builtin__
object
p2
Ntp3
Rp4
(dp5
S'product_url'
p6
S'http://www.walmart.com/ip/Apple-MQD32LL-A-13-MacBook-Air-Intel-Dual-Core-i5-1-8GHz-Processor-8GB-RAM-128GB-SSD-WiFi-802-11ac-Bluetooth-4-0-Mac-OS-Silver/557801212'
p7
sS'price'
p8
V$858.00
p9
sS'properties'
p10
(dp11
VRAM Memory
p12
V8 GB
p13
sVOperating System
p14
VMicrosoft Windows
p15
sVFeatures
p16
V128GB SSD storage, 802.11ac Wi-Fi | Bluetooth 4.0 Thunderbolt 2 | USB 3.0 720p FaceTime HD Camera | SDXC Card Slot Stereo Speakers | Dual Built-In Mics, 13.3" 1440 x 900 Glossy Display, 8GB 1600MHz LPDDR3 memory, Operating System: MAC OS, 1.8GHz dual-core Intel Core i5 processor with Turbo Boost up to 2.9GHz
p17
sVBrand
p18
VApple
p19
sVManufacturer Part Number
p20
VOEM
p21
sVHard Drive Capacity
p22
V128 GB
p23
sVAssembled Product Dimensions (L x W x H)
p24
V14.30 x 2.20 x 10.20 Inches
p25
sVScreen Size
p26
V13\u005c"
p27
ssS'title'
p28
VApple MQD32LL/A 13" MacBook Air, Intel Dual-Core i5 1.8GHz Processor, 8GB RAM, 128GB SSD, WiFi 802.11ac, Bluetooth 4.0, Mac OS, Silver
p29
sb.