ccopy_reg
_reconstructor
p0
(c__main__
ProductRecord
p1
c__builtin__
object
p2
Ntp3
Rp4
(dp5
S'product_url'
p6
S'http://www.walmart.com/ip/Refurbished-Apple-MC724LL-A-MacBook-Pro-13-3-Notebook-Intel-Core-i7-2-7GHz-4GB-RAM-500GB-Hard-Drive/136001277'
p7
sS'price'
p8
V$499.99
p9
sS'properties'
p10
(dp11
VOperating System
p12
VMicrosoft Windows
p13
sVBrand
p14
VApple
p15
sVRAM Memory
p16
V4 GB
p17
sVScreen Size
p18
V13.3\u005c"
p19
sVHard Drive Capacity
p20
V500 GB
p21
ssS'title'
p22
VRefurbished Apple MC724LL/A MacBook Pro 13.3" Notebook - Intel Core i7 2.7GHz, 4GB RAM, 500GB Hard Drive
p23
sb.