ccopy_reg
_reconstructor
p0
(c__main__
ProductRecord
p1
c__builtin__
object
p2
Ntp3
Rp4
(dp5
S'product_url'
p6
S'http://www.walmart.com/ip/Apple-MacBook-Pro-Retina-Core-i7-4770HQ-Quad-Core-2-2GHz-16GB-256GB-SSD-15-4-LED-Notebook-OS-X-w-Webcam-Mid-2014-Refurbished/756854293'
p7
sS'price'
p8
V$1,269.99
p9
sS'properties'
p10
(dp11
VBrand
p12
VApple
p13
sVRAM Memory
p14
V16 GB
p15
sVScreen Size
p16
V15.4\u005c"
p17
sVHard Drive Capacity
p18
V256 GB
p19
sVCondition
p20
VRefurbished
p21
ssS'title'
p22
VApple MacBook Pro Retina Core i7-4770HQ Quad-Core 2.2GHz 16GB 256GB SSD 15.4" LED Notebook OS X w/Webcam (Mid 2014) - Refurbished
p23
sb.