ccopy_reg
_reconstructor
p0
(c__main__
ProductRecord
p1
c__builtin__
object
p2
Ntp3
Rp4
(dp5
S'product_url'
p6
S'http://www.walmart.com/ip/Apple-MacBook-Air-MD224LLA-Intel-Core-i5-3317U-X2-1-7GHz-4GB-128GB-SSD-Silver-Scratch-And-Dent-Refurbished/438533923'
p7
sS'price'
p8
V$399.99
p9
sS'properties'
p10
(dp11
VRAM Memory
p12
V4 Gigabytes
p13
sVOperating System
p14
VApple Mac OS X 10.8
p15
sVFeatures
p16
VIntegrated Intel HD Graphics 4000, 11.6-inch (1366 x 768) LED Display, 0.68" x 11.8" x 7.56" (HxWxD); 2.4lbs, 4GB DDR3 System Memory, 2 x USB 3.0, 1MP Webcam and Integrated Microphone, Standard Keyboard and Touchpad, 128GB Solid State Drive (SSD), No Ethernet, 802.11N and Bluetooth 4.0 + HS, Intel Core i5-3317U Processor (Dual-Core, 1.7GHz, 3MB Cache), Apple Mac OS X 10.8 Operating System, Gold EPEAT, 4-cell Lithium-Polymer Battery
p17
sVBrand
p18
VApple
p19
sVManufacturer Part Number
p20
VMD224LL/A-RFB
p21
sVHard Drive Capacity
p22
V128 Gigabytes
p23
sVBattery Life
p24
V8 Hours
p25
sVAssembled Product Dimensions (L x W x H)
p26
V11.80 x 7.60 x 0.70 Inches
p27
sVProcessor Type
p28
VIntel Core i5
p29
sVScreen Size
p30
V11.6 Inches
p31
sVProcessor Speed
p32
V1.7 Gigahertz
p33
ssS'title'
p34
VApple MacBook Air MD224LLA Intel Core i5-3317U X2 1.7GHz 4GB 128GB SSD, Silver (Scratch And Dent Refurbished)
p35
sb.