ccopy_reg
_reconstructor
p0
(c__main__
ProductRecord
p1
c__builtin__
object
p2
Ntp3
Rp4
(dp5
S'product_url'
p6
S'http://www.walmart.com/ip/Apple-MC724LL-A-MacBook-Pro-13-3-Notebook-Intel-Core-i7-2-7GHz-4GB-RAM-500GB-Hard-Drive-Refurbished/312393741'
p7
sS'price'
p8
V$499.99
p9
sS'properties'
p10
(dp11
VRAM Memory
p12
V4 GB
p13
sVOperating System
p14
VMicrosoft Windows
p15
sVBrand
p16
VApple
p17
sVHard Drive Capacity
p18
V500 GB
p19
sVScreen Size
p20
V13.3\u005c"
p21
sVmanufacturer_part_number
p22
Vmc724ll/a
p23
ssS'title'
p24
VApple MC724LL/A MacBook Pro 13.3" Notebook - Intel Core i7 2.7GHz, 4GB RAM, 500GB Hard Drive Refurbished
p25
sb.