ccopy_reg
_reconstructor
p0
(c__main__
ProductRecord
p1
c__builtin__
object
p2
Ntp3
Rp4
(dp5
S'product_url'
p6
S'http://www.walmart.com/ip/Refurbished-Apple-13-3IN-MACBOOK-AIR-MD761LL-B-C-MACBOOK-AIR-MD761LL-B-C/370079610'
p7
sS'price'
p8
V$2,494.95
p9
sS'properties'
p10
(dp11
VBrand
p12
VApple
p13
sVScreen Size
p14
V13.3\u005c"
p15
sVmanufacturer_part_number
p16
Vmd761ll-b
p17
ssS'title'
p18
VRefurbished "Apple 13.3IN MACBOOK AIR MD761LL-B - C MACBOOK AIR MD761LL-B-C"
p19
sb.