ccopy_reg
_reconstructor
p0
(c__main__
ProductRecord
p1
c__builtin__
object
p2
Ntp3
Rp4
(dp5
S'product_url'
p6
S'http://www.walmart.com/ip/Lenovo-Thinkpad-Yoga-260-Convertible-Multimode-Ultrabook-Intel-Core-i7-6500U-8GB-RAM-512GB-SSD-12-5-IPS-Full-HD-1920x1080-Touchscreen-Digitizer-Pen-B/559784777'
p7
sS'price'
p8
S'N/A'
p9
sS'properties'
p10
(dp11
VRAM Memory
p12
V8 Gigabytes
p13
sVOperating System
p14
VWindows 10
p15
sVBrand
p16
VLenovo
p17
sVProcessor Speed
p18
V2.8 Gigahertz
p19
sVHard Drive Capacity
p20
V500 Gigabytes
p21
sVModel
p22
V20FD
p23
sVScreen Size
p24
V12.5 Inches
p25
sVProcessor Type
p26
Vcore_i7
p27
sVCondition
p28
VNew
p29
ssS'title'
p30
VLenovo Thinkpad Yoga 260 Convertible Multimode Ultrabook - Intel Core i7-6500U, 8GB RAM, 512GB SSD, 12.5" IPS Full HD (1920x1080) Touchscreen + Digitizer Pen, Backlit Keyboard, Windows 10 Pro 64-bit
p31
sb.