ccopy_reg
_reconstructor
p0
(c__main__
ProductRecord
p1
c__builtin__
object
p2
Ntp3
Rp4
(dp5
S'product_url'
p6
S'http://www.walmart.com/ip/Apple-MacBook-Pro-Core-i7-2760QM-Quad-Core-2-4GHz-4GB-750GB-DVD-RW-Radeon-HD-6770M-15-4-Notebook-OSX-Late-2011/328895689'
p7
sS'price'
p8
V$899.99
p9
sS'properties'
p10
(dp11
VRAM Memory
p12
V4 Gigabytes
p13
sVOperating System
p14
VApple Mac OS X 10.7
p15
sVFeatures
p16
VIntel Core i7-2760QM Processor (Quad-Core, 2.4GHz, 6MB Cache), 4GB DDR3 System Memory, 10/100/1000 Gigabit Ethernet, 802.11ABGN and Bluetooth 2.1 + EDR, 15.4-inch (1440 x 900) LED-backlit widescreen TFT, Dedicated AMD Radeon HD 6770 Graphics (1.0GB Dedicated Video Memory), 6-cell Lithium-Polymer Battery, 1MP Webcam and Integrated Microphone, Apple Mac OS X 10.7 Operating System, Energy Star Compliant, Gold EPEAT, DVD+/-RW, 750GB (5400RPM) SATA Hard Drive, 0.95" x 14.35" x 9.82" (HxWxD); 5.6lbs, 2 x USB 2.0, Scratch and Dent computers will not have scratches or pits on the screen, missing or illegible letters on the keyboard, or damage to the touchpad or palm rest., Backlit Standard Keyboard and Touchpad
p17
sVBrand
p18
VApple
p19
sVManufacturer Part Number
p20
VMD322LL/A-R-C-RFB
p21
sVMaximum RAM Supported
p22
V16 Gigabytes
p23
sVHard Drive Capacity
p24
V750 Gigabytes
p25
sVBattery Life
p26
V7 Hours
p27
sVAssembled Product Dimensions (L x W x H)
p28
V14.40 x 9.80 x 1.00 Inches
p29
sVProcessor Type
p30
VIntel Core i7-2760QM
p31
sVScreen Size
p32
V15.4 Inches
p33
sVProcessor Speed
p34
V2.4 Gigahertz
p35
ssS'title'
p36
VApple MacBook Pro Core i7-2760QM Quad-Core 2.4GHz 4GB 750GB DVD?RW Radeon HD 6770M 15.4" Notebook OSX (Late 2011)
p37
sb.