ccopy_reg
_reconstructor
p0
(c__main__
ProductRecord
p1
c__builtin__
object
p2
Ntp3
Rp4
(dp5
S'product_url'
p6
S'http://www.walmart.com/ip/Apple-MacBook-Pro-MF839LL-A-Intel-Core-i5-5257U-X2-2-7GHz-8GB-256GB-SSD-13-3-Silver-Refurbished/861729883'
p7
sS'price'
p8
V$939.48
p9
sS'properties'
p10
(dp11
VRAM Memory
p12
V8 Gigabytes
p13
sVOperating System
p14
VApple Mac OS X 10.10
p15
sVFeatures
p16
VIntel Core i5-5257U Processor (Dual-Core, 2.7GHz, 3MB Cache), Backlit Standard Keyboard and Multi-touch Trackpad, 6-cell Lithium-Polymer Battery, 1MP Webcam and Integrated Microphone, Apple Mac OS X 10.10 Operating System, 2 x USB 3.0, 1 x HDMI, No Ethernet, 802.11AC and Bluetooth 4.0 + HS, 0.75" x 12.35" x 8.62" (HxWxD); 3.5lbs, 13.3-inch (2560 x 1600) LED Display, Integrated Intel Iris Graphics 6100, 8GB DDR3 System Memory, 256GB Solid State Drive (SSD)
p17
sVBrand
p18
VApple
p19
sVManufacturer Part Number
p20
VMF839LLA-PB-2RCB-RFB
p21
sVMaximum RAM Supported
p22
V8 Gigabytes
p23
sVHard Drive Capacity
p24
V256 Gigabytes
p25
sVBattery Life
p26
V8 Hours
p27
sVAssembled Product Dimensions (L x W x H)
p28
V12.40 x 8.60 x 0.80 Inches
p29
sVProcessor Type
p30
VIntel Core i5
p31
sVScreen Size
p32
V13.3 Inches
p33
sVProcessor Speed
p34
V2.7 Gigahertz
p35
ssS'title'
p36
VApple MacBook Pro MF839LL/A Intel Core i5-5257U X2 2.7GHz 8GB 256GB SSD 13.3", Silver (Refurbished)
p37
sb.