ccopy_reg
_reconstructor
p0
(c__main__
ProductRecord
p1
c__builtin__
object
p2
Ntp3
Rp4
(dp5
S'product_url'
p6
S'http://www.walmart.com/ip/Refurbished-Apple-MacBook-Air-MD231LL-A-13-A1466/741266468'
p7
sS'price'
p8
V$591.78
p9
sS'properties'
p10
(dp11
VRAM Memory
p12
V4.00 GB
p13
sVOperating System
p14
VMac OS X
p15
sVBrand
p16
VApple
p17
sVProcessor Speed
p18
V1.80 GHz
p19
sVManufacturer Part Number
p20
VMD231ll/A
p21
sVMaximum RAM Supported
p22
V8.00 GB
p23
sVHard Drive Capacity
p24
V128.00 GB
p25
sVBattery Life
p26
V7.00 h
p27
sVModel
p28
VMD231ll/A
p29
sVScreen Size
p30
V13.00 in
p31
sVProcessor Type
p32
VCore i5 (I5-3427U)
p33
sVCondition
p34
VRefurbished
p35
ssS'title'
p36
VRefurbished Apple MacBook Air MD231LL/A 13' A1466
p37
sb.