ccopy_reg
_reconstructor
p0
(c__main__
ProductRecord
p1
c__builtin__
object
p2
Ntp3
Rp4
(dp5
S'product_url'
p6
S'http://www.walmart.com/ip/Apple-MacBook-MNYF2LL-A-Intel-Core-M3-7Y32-X2-1-1GHz-8GB-256GB-SSD-12-Gray-Certified-Refurbished/706373522'
p7
sS'price'
p8
V$935.22
p9
sS'properties'
p10
(dp11
VRAM Memory
p12
V8 Gigabytes
p13
sVOperating System
p14
VmacOS 10.12
p15
sVFeatures
p16
VNo Ethernet, 802.11AACBGN and Bluetooth 4.2, 6-cell Lithium-Polymer Battery, 1MP Webcam and Integrated Microphone, 11" x 0.5" x 7.7" (HxWxD); 2lbs, This Certified Refurbished product is tested and certified to look and work like new. The refurbishing process includes functionality testing, basic cleaning, inspection, and repackaging. The product ships with all relevant accessories, a minimum 90-day warranty, and may arrive in a generic box., 12-inch (2304 x 1440) IPS Display, macOS 10.12 Operating System, Intel Core M3-7Y32 Processor (Dual-Core, 1.1GHz, 4MB Cache), Energy Star Compliant, 8GB DDR3 System Memory, Integrated Intel HD Graphics, Backlit Standard Keyboard and Touchpad, 256GB Solid State Drive (SSD)
p17
sVBrand
p18
VApple
p19
sVManufacturer Part Number
p20
VMNYF2LL/A-RFB
p21
sVMaximum RAM Supported
p22
V8 Gigabytes
p23
sVHard Drive Capacity
p24
V256 Gigabytes
p25
sVBattery Life
p26
V9 Hours
p27
sVAssembled Product Dimensions (L x W x H)
p28
V0.50 x 7.70 x 11.00 Inches
p29
sVProcessor Type
p30
VIntel Core M3-7Y32
p31
sVScreen Size
p32
V12 Inches
p33
sVProcessor Speed
p34
V1.1 Gigahertz
p35
ssS'title'
p36
VApple MacBook MNYF2LL/A Intel Core M3-7Y32 X2 1.1GHz 8GB 256GB SSD 12", Gray (Certified Refurbished)
p37
sb.