ccopy_reg
_reconstructor
p0
(c__main__
ProductRecord
p1
c__builtin__
object
p2
Ntp3
Rp4
(dp5
S'product_url'
p6
S'http://www.walmart.com/ip/Apple-Macbook-12-0-Gold-8GB-512GB-Notebook-5K4N2LL-A-2015-Refurbished/402601271'
p7
sS'price'
p8
V$1,124.99
p9
sS'properties'
p10
(dp11
VBrand
p12
VApple
p13
sVRAM Memory
p14
V8 GB
p15
sVCondition
p16
VRefurbished
p17
sVmanufacturer_part_number
p18
V5k4n2ll/a
p19
ssS'title'
p20
VApple Macbook 12.0 Gold 8GB 512GB Notebook 5K4N2LL/A (2015) - Refurbished
p21
sb.