ccopy_reg
_reconstructor
p0
(c__main__
ProductRecord
p1
c__builtin__
object
p2
Ntp3
Rp4
(dp5
S'product_url'
p6
S'http://www.walmart.com/ip/Refurbished-Apple-MacBook-Pro-15-4-Intel-Core-i7-2-2GHz-16GB-256GB-Laptop-MGXA2LL-A/132516268'
p7
sS'price'
p8
V$1,282.05
p9
sS'properties'
p10
(dp11
VRAM Memory
p12
V16 GB
p13
sVColor Category
p14
VSilver
p15
sVVideo Game Platform
p16
VMac OS
p17
sVBrand
p18
VApple
p19
sVHard Drive Capacity
p20
V256 Gigabytes
p21
sVLaptop Computer Type
p22
VMacbooks
p23
sVProcessor Type
p24
VIntel Core i7
p25
sVScreen Size
p26
V15.4 Inches
p27
sVModel
p28
VMGXA2LL/A
p29
ssS'title'
p30
VRefurbished Apple MacBook Pro 15.4 Intel Core i7 2.2GHz 16GB 256GB Laptop MGXA2LL/A
p31
sb.