ccopy_reg
_reconstructor
p0
(c__main__
ProductRecord
p1
c__builtin__
object
p2
Ntp3
Rp4
(dp5
S'product_url'
p6
S'http://www.walmart.com/ip/Refurbished-Apple-MacBook-Pro-ME867LL-A-i7-2-8GHz-8GB-500SSD-OS-X-10-9-Mavericks-13-LCD-B/824775582'
p7
sS'price'
p8
V$850.50
p9
sS'properties'
p10
(dp11
VBrand
p12
VApple
p13
sVRAM Memory
p14
V8 GB
p15
sVScreen Size
p16
V13\u005c"
p17
sVModel
p18
VMacBook Pro A1502
p19
ssS'title'
p20
VRefurbished Apple MacBook Pro ME867LL/A i7 2.8GHz 8GB 500SSD OS X 10.9 Mavericks 13" LCD B
p21
sb.