ccopy_reg
_reconstructor
p0
(c__main__
ProductRecord
p1
c__builtin__
object
p2
Ntp3
Rp4
(dp5
S'product_url'
p6
S'http://www.walmart.com/ip/Refurbished-Apple-MacBook-Pro-MF843LL-A-i7-3-1GHz-16GB-500SSD-OS-X-10-10-Yosemite-13-LCD/436733679'
p7
sS'price'
p8
V$1,205.40
p9
sS'properties'
p10
(dp11
VBrand
p12
VApple
p13
sVRAM Memory
p14
V16 GB
p15
sVModel
p16
VMacBook Pro A1502
p17
ssS'title'
p18
VRefurbished Apple MacBook Pro MF843LL/A i7 3.1GHz 16GB 500SSD OS X 10.10 Yosemite 13" LCD
p19
sb.