ccopy_reg
_reconstructor
p0
(c__main__
ProductRecord
p1
c__builtin__
object
p2
Ntp3
Rp4
(dp5
S'product_url'
p6
S'http://www.walmart.com/ip/Apple-27-inch-iMac-4-0GHz-Quad-core-Intel-Core-i7-with-Retina-display-3TB-Fusion-drive-macOS-10-12-Sierra-Certified-Refurbished/672805033'
p7
sS'price'
p8
V$2,043.39
p9
sS'properties'
p10
(dp11
VOperating System
p12
VMicrosoft Windows
p13
sVBrand
p14
VApple
p15
sVScreen Size
p16
V27\u005c"
p17
sVHard Drive Capacity
p18
V3000 GB
p19
sVCondition
p20
VRefurbished
p21
ssS'title'
p22
VApple 27-inch iMac 4.0GHz Quad-core Intel Core i7 with Retina display 3TB Fusion drive macOS 10.12, Sierra (Certified Refurbished)
p23
sb.