ccopy_reg
_reconstructor
p0
(c__main__
ProductRecord
p1
c__builtin__
object
p2
Ntp3
Rp4
(dp5
S'product_url'
p6
S'http://www.walmart.com/ip/Apple-MacBook-Pro-MB470LL-A-5-4-Inch-Laptop-2-4-GHz-Intel-Core-2-Duo-Processor-2-GB-DDR3-RAM-250-GB-Hard-Drive-osx-10-7-Refurbished/514455210'
p7
sS'price'
p8
V$449.00
p9
sS'properties'
p10
(dp11
VRAM Memory
p12
V4 GB
p13
sVOperating System
p14
VOSX 10.7 Lion
p15
sVFeatures
p16
VKensington lock slot, Graphic Details:nVIDIA GeForce 9600M GT with 256MB GDDR3 SDRAMnVIDIA GeForce 9400M with 256MB DDR3 SDRAM shared
p17
sVBrand
p18
VApple
p19
sVProcessor Speed
p20
V2 GHz
p21
sVManufacturer Part Number
p22
VMB470LL/A
p23
sVMaximum RAM Supported
p24
V4 GB
p25
sVHard Drive Capacity
p26
V250 GB
p27
sVBattery Life
p28
V5 h
p29
sVModel
p30
VGeForce 9600M GT
p31
sVScreen Size
p32
V15.4 in
p33
sVProcessor Type
p34
VIntel Core 2 Duo
p35
ssS'title'
p36
VApple MacBook Pro MB470LL/A 5.4-Inch Laptop (2.4 GHz Intel Core 2 Duo Processor, 2 GB DDR3 RAM, 250 GB Hard Drive osx 10.7 Refurbished
p37
sb.