ccopy_reg
_reconstructor
p0
(c__main__
ProductRecord
p1
c__builtin__
object
p2
Ntp3
Rp4
(dp5
S'product_url'
p6
S'http://www.walmart.com/ip/Apple-Macbook-Pro-A1278-i5-4GB-Ram-320GB-H-D-Refurbished/255192178'
p7
sS'price'
p8
V$435.00
p9
sS'properties'
p10
(dp11
VBrand
p12
VApple
p13
sVRAM Memory
p14
V4 GB
p15
sVHard Drive Capacity
p16
V320 GB
p17
ssS'title'
p18
VApple Macbook Pro A1278  i5 4GB Ram 320GB H/D Refurbished
p19
sb.