ccopy_reg
_reconstructor
p0
(c__main__
ProductRecord
p1
c__builtin__
object
p2
Ntp3
Rp4
(dp5
S'product_url'
p6
S'http://www.walmart.com/ip/Apple-Certified-Refurbished-Grade-Macbook-Pro-15-4-inch-Laptop-Retina-DG-2-6Ghz-Quad-Core-i7-Late-2013-ME874LL-A-512-GB-SSD-16-GB-Memory-2880x1800-Di/521510520'
p7
sS'price'
p8
V$1,353.45
p9
sS'properties'
p10
(dp11
VRAM Memory
p12
V16.00 GB
p13
sVOperating System
p14
VMac OS
p15
sVFeatures
p16
VCondition: Refurbished
p17
sVBrand
p18
VApple
p19
sVManufacturer Part Number
p20
VME874LL/A-GS-EX
p21
sVMaximum RAM Supported
p22
V16.00 GB
p23
sVHard Drive Capacity
p24
V512.00 GB
p25
sVProcessor Type
p26
VIntel Core i7
p27
sVScreen Size
p28
V15.40 in
p29
sVProcessor Speed
p30
V2.60 GHz
p31
ssS'title'
p32
VApple Certified Refurbished A Grade Macbook Pro 15.4-inch Laptop (Retina DG) 2.6Ghz Quad Core i7 (Late 2013) ME874LL/A 512 GB SSD 16 GB Memory 2880x1800 Display macOS Sierra Power Adapter
p33
sb.