ccopy_reg
_reconstructor
p0
(c__main__
ProductRecord
p1
c__builtin__
object
p2
Ntp3
Rp4
(dp5
S'product_url'
p6
S'http://www.walmart.com/ip/Refurbished-Dell-i3168-3271BLU-11-6-HD-2-in-1-Laptop-Pentium-N3710-1-6GHz-4-GB-DDR3L-SDRAM-500-GB-HDD-Win-10-Bali-Blue/503668035'
p7
sS'price'
p8
S'N/A'
p9
sS'properties'
p10
(dp11
VBrand
p12
VDell
p13
sVHard Drive Capacity
p14
V500
p15
sVmanufacturer_part_number
p16
Vi3168-3271blu
p17
ssS'title'
p18
VRefurbished Dell i3168-3271BLU 11.6 HD 2-in-1 Laptop Pentium N3710 1.6GHz, 4 GB DDR3L SDRAM, 500 GB HDD, Win 10 Bali Blue
p19
sb.