ccopy_reg
_reconstructor
p0
(c__main__
ProductRecord
p1
c__builtin__
object
p2
Ntp3
Rp4
(dp5
S'product_url'
p6
S'http://www.walmart.com/ip/Apple-MacBook-Pro-ME662LL-A-Intel-Core-i5-3230M-X2-2-6GHz-8GB-256GB-Silver-Certified-Refurbished/572387160'
p7
sS'price'
p8
V$1,187.14
p9
sS'properties'
p10
(dp11
VRAM Memory
p12
V8 Gigabytes
p13
sVOperating System
p14
VmacOS 10.12
p15
sVFeatures
p16
VIntegrated Intel HD Graphics 4000, No Ethernet, 802.11ABGN and Bluetooth 4.0 + HS, 6-cell Lithium-Polymer Battery, 1MP Webcam and Integrated Microphone, This Certified Refurbished product is tested and certified to look and work like new. The refurbishing process includes functionality testing, basic cleaning, inspection, and repackaging. The product ships with all relevant accessories, a minimum 90-day warranty, and may arrive in a generic box., 2 x USB 3.0, 1 x HDMI, macOS 10.12 Operating System, Intel Core i5-3230M Processor (Dual-Core, 2.6GHz, 3MB Cache), Energy Star Compliant, 8GB DDR3 System Memory, 13.3-inch (2560 x 1600) LCD Display, 0.75" x 12.35" x 8.62" (HxWxD); 3.6lbs, Backlit Standard Keyboard and Touchpad, 256GB Solid State Drive (SSD)
p17
sVBrand
p18
VApple
p19
sVManufacturer Part Number
p20
V4887394-RFB
p21
sVMaximum RAM Supported
p22
V16 Gigabytes
p23
sVHard Drive Capacity
p24
V256 Gigabytes
p25
sVBattery Life
p26
V7 Hours
p27
sVAssembled Product Dimensions (L x W x H)
p28
V12.40 x 8.60 x 0.80 Inches
p29
sVProcessor Type
p30
VIntel Core i5
p31
sVScreen Size
p32
V13.3 Inches
p33
sVProcessor Speed
p34
V2.6 Gigahertz
p35
ssS'title'
p36
VApple MacBook Pro ME662LL/A Intel Core i5-3230M X2 2.6GHz 8GB 256GB, Silver (Certified Refurbished)
p37
sb.