ccopy_reg
_reconstructor
p0
(c__main__
ProductRecord
p1
c__builtin__
object
p2
Ntp3
Rp4
(dp5
S'product_url'
p6
S'http://www.walmart.com/ip/Refurbished-Apple-MacBook-Pro-13-3-Intel-Core-i5-2-6GHz-8GB-256GB-Laptop-ME662LL-A-Scratch-and-Dent/178474712'
p7
sS'price'
p8
V$1,073.83
p9
sS'properties'
p10
(dp11
VRAM Memory
p12
V8 GB
p13
sVColor Category
p14
VSilver
p15
sVVideo Game Platform
p16
VMac OS
p17
sVBrand
p18
VApple
p19
sVHard Drive Capacity
p20
V256 Gigabytes
p21
sVLaptop Computer Type
p22
VMacbooks
p23
sVProcessor Type
p24
VIntel Core i5
p25
sVScreen Size
p26
V13.3 Inches
p27
sVModel
p28
VME662LL/A
p29
ssS'title'
p30
VRefurbished Apple MacBook Pro 13.3 Intel Core i5 2.6GHz 8GB 256GB Laptop ME662LL/A (Scratch and Dent)
p31
sb.