ccopy_reg
_reconstructor
p0
(c__main__
ProductRecord
p1
c__builtin__
object
p2
Ntp3
Rp4
(dp5
S'product_url'
p6
S'http://www.walmart.com/ip/Axiom-C530N-Series-Mac-Desktop-solid-state-drive-480-GB-SATA-6Gb-s/250335308'
p7
sS'price'
p8
V$191.87
p9
sS'properties'
p10
(dp11
VOperating System
p12
VMicrosoft Windows
p13
sVFeatures
p14
V480GB C530N MAC DESKTOP
p15
sVBrand
p16
VAxiom
p17
sVManufacturer Part Number
p18
VAPSSD356N480-AX
p19
sVHard Drive Capacity
p20
V480 GB
p21
sVModel
p22
VAPSSD356N480-AX
p23
sVCondition
p24
VNew
p25
ssS'title'
p26
VAxiom C530N Series Mac Desktop - solid state drive - 480 GB - SATA 6Gb/s
p27
sb.