ccopy_reg
_reconstructor
p0
(c__main__
ProductRecord
p1
c__builtin__
object
p2
Ntp3
Rp4
(dp5
S'product_url'
p6
S'http://www.walmart.com/ip/922-9057-Apple-MacBook-Pro-13-3-2-26GHz-Core-2-Duo-Right-Speaker-Subwoofer/112979736'
p7
sS'price'
p8
V$21.00
p9
sS'properties'
p10
(dp11
VBrand
p12
VApple
p13
sVScreen Size
p14
V13.3
p15
sVManufacturer Part Number
p16
V922-9057
p17
sVCondition
p18
VGrade A Used Like New. 100% Tested and Working
p19
sVFeatures
p20
VReplacement Part Only. No accessories, cables or manuals are included unless otherwise noted
p21
ssS'title'
p22
V922-9057 Apple MacBook Pro 13.3" 2.26GHz Core 2 Duo Right Speaker/Subwoofer
p23
sb.