ccopy_reg
_reconstructor
p0
(c__main__
ProductRecord
p1
c__builtin__
object
p2
Ntp3
Rp4
(dp5
S'product_url'
p6
S'http://www.walmart.com/ip/922-9058-Apple-MacBook-13-3-2-0GHz-Core-2-Duo-Left-Speaker/106982730'
p7
sS'price'
p8
V$21.00
p9
sS'properties'
p10
(dp11
VBrand
p12
VApple
p13
sVScreen Size
p14
V13.3
p15
sVFeatures
p16
VReplacement Part Only. No accessories, cables or manuals are included unless otherwise noted
p17
sVCondition
p18
VGrade A Used Like New. 100% Tested and Working
p19
sVManufacturer Part Number
p20
V922-9058
p21
ssS'title'
p22
V922-9058 Apple MacBook 13.3" 2.0GHz Core 2 Duo Left Speaker
p23
sb.