ccopy_reg
_reconstructor
p0
(c__main__
ProductRecord
p1
c__builtin__
object
p2
Ntp3
Rp4
(dp5
S'product_url'
p6
S'http://www.walmart.com/ip/Apple-MABOOK-PRO-MA897CH-A-17-PRO-MB166CH-A-17-MacBook-Pro-17-A1151-Pro-17-MA092-Pro-17-MA092CH-A-Pro-17-MA092J-A-Pro-17-MA092KH-A-Pro-17-MA092LL-A-S/125908160'
p7
sS'price'
p8
V$36.00
p9
sS'properties'
p10
(dp11
VBrand
p12
VUnbranded
p13
sVScreen Size
p14
V17\u005c"
p15
ssS'title'
p16
VApple MABOOK PRO MA897CH/A 17" PRO MB166CH/A 17" MacBook Pro 17" A1151 Pro 17" MA092 Pro 17" MA092CH/A Pro 17" MA092J/A Pro 17" MA092KH/A Pro 17" MA092LL/A Silver 68Wh 3 Cell Compatible Battery
p17
sb.