ccopy_reg
_reconstructor
p0
(c__main__
ProductRecord
p1
c__builtin__
object
p2
Ntp3
Rp4
(dp5
S'product_url'
p6
S'http://www.walmart.com/ip/CWK-Long-Life-Replacement-Laptop-Notebook-Battery-Apple-Pro-15-A1286-2011-Mid-2012-USA-A1382-Apple-MacBook-Pro-15-Inch-I7-I7-Unibody-Mc723g-US-Ship-A/186804475'
p7
sS'price'
p8
V$50.99
p9
sS'properties'
p10
(dp11
VBrand
p12
VCWK
p13
ssS'title'
p14
VCWK Long Life Replacement Laptop Notebook Battery for Apple Pro 15" A1286 2011 Mid 2012 IN USA A1382 Apple MacBook Pro 15" Inch I7 I7 Unibody Mc723g a US Ship A1382 Apple MacBook
p15
sb.