ccopy_reg
_reconstructor
p0
(c__main__
ProductRecord
p1
c__builtin__
object
p2
Ntp3
Rp4
(dp5
S'product_url'
p6
S'http://www.walmart.com/ip/Apple-MacBook-Core2Duo-2-4GHz-2GB-250GB-13-MC516LL-A-Refurbished/561773515'
p7
sS'price'
p8
V$139.97
p9
sS'properties'
p10
(dp11
VRAM Memory
p12
V2 GB
p13
sVBrand
p14
VApple
p15
sVHard Drive Capacity
p16
V250 GB
p17
sVProcessor Type
p18
VIntel Core 2 Duo
p19
sVScreen Size
p20
V13.3 in
p21
sVProcessor Speed
p22
V2.40 GHz
p23
ssS'title'
p24
VApple MacBook Core2Duo 2.4GHz 2GB 250GB 13" MC516LL/A - Refurbished
p25
sb.