ccopy_reg
_reconstructor
p0
(c__main__
ProductRecord
p1
c__builtin__
object
p2
Ntp3
Rp4
(dp5
S'product_url'
p6
S'http://www.walmart.com/ip/Apple-MacBook-13-3-Notebook-Intel-Core-2-Duo-2-4GHz-8GB-DDR3-Ram-240GB-SSD-WebCam-Refurbished/23262015'
p7
sS'price'
p8
V$399.99
p9
sS'properties'
p10
(dp11
VRAM Memory
p12
V4 GB
p13
sVOperating System
p14
VMicrosoft Windows
p15
sVColor Category
p16
VBlack
p17
sVLaptop Computer Type
p18
VMacBooks
p19
sVBrand
p20
VApple
p21
sVManufacturer Part Number
p22
V2344BZU
p23
sVWireless Technology
p24
VFast Ethernet
p25
sVHard Drive Capacity
p26
V500 GB
p27
sVProcessor Core Type
p28
VDual-core (2 Core)
p29
sVProcessor Type
p30
VIntel Core i5
p31
sVScreen Size
p32
V14"
p33
sVModel
p34
V2344BZU
p35
sVManufacturer
p36
VLenovo Group Limited
p37
ssS'title'
p38
VApple MacBook 13.3" Notebook - Intel Core 2 Duo 2.4GHz, 8GB DDR3 Ram, 240GB SSD, WebCam Refurbished
p39
sb.