ccopy_reg
_reconstructor
p0
(c__main__
ProductRecord
p1
c__builtin__
object
p2
Ntp3
Rp4
(dp5
S'product_url'
p6
S'http://www.walmart.com/ip/Pre-Owned-Apple-MacBook-Pro-13-Core-2-Duo-2-66-320GB-4GB-MC375LL-A-2010/119645575'
p7
sS'price'
p8
V$430.55
p9
sS'properties'
p10
(dp11
VHard Drive Capacity
p12
V320 Gigabytes
p13
sVBrand
p14
VApple
p15
sVScreen Size
p16
V13 Inches
p17
sVModel
p18
VMC375LL/ARFB
p19
sVProcessor Speed
p20
V2.66 Gigahertz
p21
ssS'title'
p22
VPre-Owned Apple MacBook Pro 13" Core 2 Duo [2.66] [320GB] [4GB] MC375LL/A(2010)
p23
sb.