ccopy_reg
_reconstructor
p0
(c__main__
ProductRecord
p1
c__builtin__
object
p2
Ntp3
Rp4
(dp5
S'product_url'
p6
S'http://www.walmart.com/ip/Refurbished-Apple-MacBook-Pro-13-Core-2-Duo-2-66-320GB-4GB-MC375LL-A-2010/145302393'
p7
sS'price'
p8
V$497.08
p9
sS'properties'
p10
(dp11
VRAM Memory
p12
V4.00 GB
p13
sVBrand
p14
VApple
p15
sVProcessor Speed
p16
V2.66 Gigahertz
p17
sVManufacturer Part Number
p18
VMC375LL/A
p19
sVHard Drive Capacity
p20
V320 Gigabytes
p21
sVModel
p22
VMC375LL/ARFB
p23
sVScreen Size
p24
V13 Inches
p25
sVProcessor Type
p26
VIntel
p27
ssS'title'
p28
VRefurbished Apple MacBook Pro 13" Core 2 Duo [2.66] [320GB] [4GB] MC375LL/A(2010)
p29
sb.