ccopy_reg
_reconstructor
p0
(c__main__
ProductRecord
p1
c__builtin__
object
p2
Ntp3
Rp4
(dp5
S'product_url'
p6
S'http://www.walmart.com/ip/Pre-Owned-Apple-MacBook-Pro-15-i5-2-53-500GB-4GB-MC372LL-A-2010/117652620'
p7
sS'price'
p8
V$499.45
p9
sS'properties'
p10
(dp11
VRAM Memory
p12
V4 GB
p13
sVBrand
p14
VApple
p15
sVHard Drive Capacity
p16
V500 Gigabytes
p17
sVModel
p18
VMC372LL/ARFB
p19
sVScreen Size
p20
V15 Inches
p21
sVProcessor Speed
p22
V2.5299999999999998 Gigahertz
p23
ssS'title'
p24
VPre-Owned Apple MacBook Pro 15" i5 [2.53] [500GB] [4GB] MC372LL/A(2010)
p25
sb.