ccopy_reg
_reconstructor
p0
(c__main__
ProductRecord
p1
c__builtin__
object
p2
Ntp3
Rp4
(dp5
S'product_url'
p6
S'http://www.walmart.com/ip/Refurbished-Apple-MacBook-Pro-MC724LL-A-13-3-Inch-Laptop-OLD-VERSION-Scratched-and-Dented/529763710'
p7
sS'price'
p8
V$499.99
p9
sS'properties'
p10
(dp11
VBrand
p12
VApple
p13
sVScreen Size
p14
V13.3\u005c"
p15
ssS'title'
p16
VRefurbished Apple MacBook Pro MC724LL/A 13.3-Inch Laptop (OLD VERSION)  (Scratched and Dented)
p17
sb.