ccopy_reg
_reconstructor
p0
(c__main__
ProductRecord
p1
c__builtin__
object
p2
Ntp3
Rp4
(dp5
S'product_url'
p6
S'http://www.walmart.com/ip/ASUS-ZenBook-Flip-UX461UA-Ultra-Slim-Convertible-2-in-1-14-Laptop-Intel-8th-Gen-i5-Quad-Core-8GB-RAM-1TB-SSD-14-Full-HD-1920x1080-Touchscreen-USB-C-F/455233090'
p7
sS'price'
p8
S'N/A'
p9
sS'properties'
p10
(dp11
VRAM Memory
p12
V8 GB
p13
sVOperating System
p14
VMicrosoft Windows
p15
sVBrand
p16
VMichaelElectronics2
p17
sVManufacturer Part Number
p18
VASU-14-07079-FHD-ME6
p19
sVHard Drive Capacity
p20
V1 TB
p21
sVProcessor Type
p22
V8th Gen Quad-Core Intel i5-8250U Processor 6M Cache up to 3.40 GHz
p23
sVScreen Size
p24
V14 in
p25
sVProcessor Speed
p26
V1.6 GHz
p27
ssS'title'
p28
VASUS ZenBook Flip UX461UA Ultra-Slim Convertible 2-in-1 14\u201d Laptop (Intel 8th Gen i5 Quad Core, 8GB RAM, 1TB SSD, 14" Full HD (1920x1080) Touchscreen, USB-C, Fingerprint, Stylus Pen, Win 10 Pro)
p29
sb.