ccopy_reg
_reconstructor
p0
(c__main__
ProductRecord
p1
c__builtin__
object
p2
Ntp3
Rp4
(dp5
S'product_url'
p6
S'http://www.walmart.com/ip/Refurbished-Apple-MacBook-Air-A1466-1-7GHz-i7-4GB-120GB-SSD-Yosemite-13-LCD-Webcam/328965448'
p7
sS'price'
p8
V$516.60
p9
sS'properties'
p10
(dp11
VOperating System
p12
VMicrosoft Windows
p13
sVBrand
p14
VApple
p15
sVRAM Memory
p16
V4 GB
p17
sVScreen Size
p18
V13\u005c"
p19
sVModel
p20
VMacBook Air A1466
p21
ssS'title'
p22
VRefurbished Apple MacBook Air A1466 1.7GHz i7 4GB 120GB SSD Yosemite 13" LCD Webcam
p23
sb.