ccopy_reg
_reconstructor
p0
(c__main__
ProductRecord
p1
c__builtin__
object
p2
Ntp3
Rp4
(dp5
S'product_url'
p6
S'http://www.walmart.com/ip/Refurbished-Apple-MacBook-Pro-13-3-Laptop-Intel-i5-Dual-Core-2-5GHz-4GB-250GB-MD101LLA/821888762'
p7
sS'price'
p8
V$519.95
p9
sS'properties'
p10
(dp11
VRAM Memory
p12
V4 GB
p13
sVOperating System
p14
VMicrosoft Windows
p15
sVBrand
p16
VApple
p17
sVManufacturer Part Number
p18
VMD101LLA-PB-4RCC
p19
sVHard Drive Capacity
p20
V250 GB
p21
sVModel
p22
VA1278
p23
sVScreen Size
p24
V13.3\u005c"
p25
ssS'title'
p26
VRefurbished Apple MacBook Pro 13.3" Laptop Intel i5 Dual Core 2.5GHz 4GB 250GB MD101LLA
p27
sb.