ccopy_reg
_reconstructor
p0
(c__main__
ProductRecord
p1
c__builtin__
object
p2
Ntp3
Rp4
(dp5
S'product_url'
p6
S'http://www.walmart.com/ip/Refurbished-Apple-MacBook-Air-MD711LL-A-11-6-Inch-Laptop-OLD-VERSION/156331903'
p7
sS'price'
p8
V$519.99
p9
sS'properties'
p10
(dp11
VBrand
p12
VApple
p13
sVScreen Size
p14
V11.6
p15
ssS'title'
p16
VRefurbished Apple MacBook Air MD711LL/A 11.6-Inch Laptop (OLD VERSION)
p17
sb.