ccopy_reg
_reconstructor
p0
(c__main__
ProductRecord
p1
c__builtin__
object
p2
Ntp3
Rp4
(dp5
S'product_url'
p6
S'http://www.walmart.com/ip/Apple-MacBook-Air-MD711LL-A-Intel-Core-i5-4250U-X2-1-3GHz-4GB-128GB-SSD-Silver-Scratch-And-Dent-Refurbished/193419932'
p7
sS'price'
p8
V$559.99
p9
sS'properties'
p10
(dp11
VRAM Memory
p12
V4 Gigabytes
p13
sVOperating System
p14
VApple Mac OS X 10.9
p15
sVFeatures
p16
V11.6-inch (1366 x 768) LED Display, 0.68" x 11.8" x 7.56" (HxWxD); 2.4lbs, 4GB DDR3 System Memory, 6-cell Lithium-Polymer Battery, 1MP Webcam and Integrated Microphone, Standard Keyboard and Touchpad, 128GB Solid State Drive (SSD), Apple Mac OS X 10.9 Operating System, Energy Star Compliant, 10/100/1000 Gigabit Ethernet, 802.11ABGN and Bluetooth 4.0 + HS, 2 x USB 2.0, Intel Core i5-4250U Processor (Dual-Core, 1.3GHz, 3MB Cache), Integrated Intel HD Graphics
p17
sVBrand
p18
VApple
p19
sVManufacturer Part Number
p20
VMD711LL/A - C-RFB
p21
sVMaximum RAM Supported
p22
V8 Gigabytes
p23
sVHard Drive Capacity
p24
V128 Gigabytes
p25
sVBattery Life
p26
V9 Hours
p27
sVAssembled Product Dimensions (L x W x H)
p28
V11.80 x 7.60 x 0.70 Inches
p29
sVProcessor Type
p30
VIntel Core i5
p31
sVScreen Size
p32
V11.6 Inches
p33
sVProcessor Speed
p34
V1.3 Gigahertz
p35
ssS'title'
p36
VApple MacBook Air MD711LL/A Intel Core i5-4250U X2 1.3GHz 4GB 128GB SSD, Silver (Scratch And Dent Refurbished)
p37
sb.