ccopy_reg
_reconstructor
p0
(c__main__
ProductRecord
p1
c__builtin__
object
p2
Ntp3
Rp4
(dp5
S'product_url'
p6
S'http://www.walmart.com/ip/Refurbished-Apple-MacBook-Air-11-6-LED-Laptop-1-6GHz-Intel-i5-4GB-128GB-SSD-MJVM2LLA/503336865'
p7
sS'price'
p8
V$566.00
p9
sS'properties'
p10
(dp11
VRAM Memory
p12
V4 KB
p13
sVOperating System
p14
VMicrosoft Windows
p15
sVBrand
p16
VApple
p17
sVManufacturer Part Number
p18
VMJVM2LLA-PB-RCB-WAL7
p19
sVHard Drive Capacity
p20
V128 KB
p21
sVAssembled Product Dimensions (L x W x H)
p22
V11.68 x 7.56 x 0.68 Inches
p23
sVModel
p24
VMJVM2LLA
p25
sVScreen Size
p26
V11.6 in
p27
ssS'title'
p28
VRefurbished - Apple MacBook Air 11.6" LED Laptop 1.6GHz Intel i5 4GB 128GB SSD MJVM2LLA
p29
sb.