ccopy_reg
_reconstructor
p0
(c__main__
ProductRecord
p1
c__builtin__
object
p2
Ntp3
Rp4
(dp5
S'product_url'
p6
S'http://www.walmart.com/ip/Apple-Macbook-Air-MD231ll-A-13-3-inch-Laptop-OLD-VERSION-Scratched-and-Dented/241166605'
p7
sS'price'
p8
V$579.99
p9
sS'properties'
p10
(dp11
VOperating System
p12
VMicrosoft Windows
p13
sVBrand
p14
VApple
p15
sVScreen Size
p16
V13.3\u005c"
p17
ssS'title'
p18
VApple Macbook Air MD231ll/A 13.3-inch Laptop (OLD VERSION) (Scratched and Dented)
p19
sb.