ccopy_reg
_reconstructor
p0
(c__main__
ProductRecord
p1
c__builtin__
object
p2
Ntp3
Rp4
(dp5
S'product_url'
p6
S'http://www.walmart.com/ip/Refurbished-Apple-MacBook-Pro-MGX72LL-A-i5-2-6GHz-2GB-240SSD-OS-X-10-10-Yosemite-13-LCD-B/921953201'
p7
sS'price'
p8
V$571.90
p9
sS'properties'
p10
(dp11
VBrand
p12
VApple
p13
sVRAM Memory
p14
V2 GB
p15
sVScreen Size
p16
V13\u005c"
p17
sVModel
p18
VMacBook Pro A1502
p19
ssS'title'
p20
VRefurbished Apple MacBook Pro MGX72LL/A i5 2.6GHz 2GB 240SSD OS X 10.10 Yosemite 13" LCD B
p21
sb.