ccopy_reg
_reconstructor
p0
(c__main__
ProductRecord
p1
c__builtin__
object
p2
Ntp3
Rp4
(dp5
S'product_url'
p6
S'http://www.walmart.com/ip/Refurbished-Apple-MacBook-Pro-MC975LL-A-2-3GHz-i7-8GB-240GB-SSD-Lion-15-LCD-Webcam-B/762370338'
p7
sS'price'
p8
V$576.00
p9
sS'properties'
p10
(dp11
VBrand
p12
VApple
p13
sVRAM Memory
p14
V8 GB
p15
sVScreen Size
p16
V15\u005c"
p17
sVModel
p18
VMacBook Pro A1398
p19
ssS'title'
p20
VRefurbished Apple MacBook Pro MC975LL/A 2.3GHz i7 8GB 240GB SSD Lion 15" LCD Webcam B
p21
sb.