ccopy_reg
_reconstructor
p0
(c__main__
ProductRecord
p1
c__builtin__
object
p2
Ntp3
Rp4
(dp5
S'product_url'
p6
S'http://www.walmart.com/ip/Lenovo-ThinkPad-Yoga-370-13-3-Touchscreen-Laptop-i5-7200U-8GB-180GB-SSD-Win10/153243843'
p7
sS'price'
p8
S'N/A'
p9
sS'properties'
p10
(dp11
VRAM Memory
p12
V8 Gigabytes
p13
sVOperating System
p14
VWindows 10 Pro (English)
p15
sVBrand
p16
VLenovo
p17
sVProcessor Speed
p18
V2.5 Gigahertz
p19
sVManufacturer Part Number
p20
V20JH002XUS
p21
sVHard Drive Capacity
p22
V180 Gigabytes
p23
sVModel
p24
V20JH002XUS
p25
sVScreen Size
p26
V13.30 Inches
p27
sVProcessor Type
p28
VIntel i5-7200U
p29
sVCondition
p30
VNew
p31
ssS'title'
p32
VLenovo ThinkPad Yoga 370 13.3" Touchscreen Laptop i5-7200U 8GB 180GB SSD Win10
p33
sb.