ccopy_reg
_reconstructor
p0
(c__main__
ProductRecord
p1
c__builtin__
object
p2
Ntp3
Rp4
(dp5
S'product_url'
p6
S'http://www.walmart.com/ip/Refurbished-Apple-MacBook-Air-13-3-Intel-Core-i5-1-7-4GB-128GB-Laptop-MC965LL-A-Scratch-and-Dent/197656750'
p7
sS'price'
p8
V$587.82
p9
sS'properties'
p10
(dp11
VOperating System
p12
VMay Come Standard with Mac OSX  10.7 or higher
p13
sVVideo Game Platform
p14
VMac OS
p15
sVBrand
p16
VApple
p17
sVProcessor Speed
p18
V1.7 Gigahertz
p19
sVMaximum RAM Supported
p20
V4 Gigabytes
p21
sVHard Drive Capacity
p22
V128 Gigabytes
p23
sVModel
p24
VMC965LL/A
p25
sVScreen Size
p26
V13.3 Inches
p27
sVProcessor Type
p28
VIntel Core i5
p29
ssS'title'
p30
VRefurbished Apple MacBook Air 13.3 Intel Core i5 1.7 4GB 128GB Laptop MC965LL/A (Scratch and Dent)
p31
sb.