ccopy_reg
_reconstructor
p0
(c__main__
ProductRecord
p1
c__builtin__
object
p2
Ntp3
Rp4
(dp5
S'product_url'
p6
S'http://www.walmart.com/ip/Refurbished-Apple-MacBook-Air-11-6-LED-Laptop-1-6GHz-Intel-i5-4GB-128GB-SSD-MJVM2LLA/165885956'
p7
sS'price'
p8
V$599.95
p9
sS'properties'
p10
(dp11
VRAM Memory
p12
V4 KB
p13
sVOperating System
p14
VApple Mac OS X 10.8
p15
sVFeatures
p16
V6-cellLithium-Polymer Battery, IntegratedIntel HD Graphics 6000, 2 x USB 3.0, 1MP Webcam and Integrated Microphone, Intel Core i5-3317U Processor (Dual-Core, 1.6GHz, 3MB Cache), Apple Mac OS X 10.8 Operating System, 0.68" x 11.8" x 7.56" (HxWxD);2.4lbs, Energy Star Compliant, 128GBSSDSSD, 10/100/1000 Gigabit Ethernet, 802.11AACBGN and Bluetooth 4.0 + HS, 11.6-inch(1366x768)LED Display, Backlit Standard Keyboard and Touchpad, 4GBDDR3 System Memory
p17
sVBrand
p18
VApple
p19
sVProcessor Speed
p20
V1.6 Hz
p21
sVManufacturer Part Number
p22
VMJVM2LLA-PB-RCB-WAL1
p23
sVMaximum RAM Supported
p24
V0 KB
p25
sVHard Drive Capacity
p26
V128 KB
p27
sVBattery Life
p28
V9 h
p29
sVAssembled Product Dimensions (L x W x H)
p30
V20.00 x 4.00 x 14.00 Inches
p31
sVModel
p32
VMJVM2LLA
p33
sVScreen Size
p34
V11.6 in
p35
sVProcessor Type
p36
VIntel Core i5
p37
ssS'title'
p38
VRefurbished - Apple MacBook Air 11.6" LED Laptop 1.6GHz Intel i5 4GB 128GB SSD MJVM2LLA
p39
sb.