ccopy_reg
_reconstructor
p0
(c__main__
ProductRecord
p1
c__builtin__
object
p2
Ntp3
Rp4
(dp5
S'product_url'
p6
S'http://www.walmart.com/ip/Apple-MacBook-Pro-MC721LL-A-15-4-Inch-Laptop-500-GB-Hard-drive-i7-Quad-Core-Processor-4GB-SDRAM-Certified-Refurbished-Scratched-and-Dented/898800763'
p7
sS'price'
p8
V$599.99
p9
sS'properties'
p10
(dp11
VOperating System
p12
VMicrosoft Windows
p13
sVBrand
p14
VApple
p15
sVRAM Memory
p16
V4 GB
p17
sVScreen Size
p18
V15.4\u005c"
p19
sVHard Drive Capacity
p20
V500 GB
p21
ssS'title'
p22
VApple MacBook Pro MC721LL/A 15.4-Inch Laptop (500 GB Hard drive, i7 Quad Core Processor, 4GB SDRAM)(Certified Refurbished)(Scratched and Dented)
p23
sb.