ccopy_reg
_reconstructor
p0
(c__main__
ProductRecord
p1
c__builtin__
object
p2
Ntp3
Rp4
(dp5
S'product_url'
p6
S'http://www.walmart.com/ip/Certified-Refurbished-Apple-MacBook-Pro-15-Inch-Laptop-2-0Ghz-Core-i7-4GB-RAM-500GB-MC721LL-A-Scratched-and-Dented/871775460'
p7
sS'price'
p8
V$599.99
p9
sS'properties'
p10
(dp11
VOperating System
p12
VMicrosoft Windows
p13
sVBrand
p14
VApple
p15
sVRAM Memory
p16
V4 GB
p17
sVScreen Size
p18
V15\u005c"
p19
sVHard Drive Capacity
p20
V500 GB
p21
ssS'title'
p22
VCertified Refurbished - Apple MacBook Pro 15-Inch Laptop - 2.0Ghz Core i7 / 4GB RAM / 500GB MC721LL/A (Scratched and Dented)
p23
sb.