ccopy_reg
_reconstructor
p0
(c__main__
ProductRecord
p1
c__builtin__
object
p2
Ntp3
Rp4
(dp5
S'product_url'
p6
S'http://www.walmart.com/ip/Apple-MacBook-Air-Core-i5-4260U-Dual-Core-1-4GHz-4GB-256GB-SSD-11-6-LED-Notebook-AirPort-OS-X-w-Webcam-Early-2014-Refurbished/717493767'
p7
sS'price'
p8
V$599.99
p9
sS'properties'
p10
(dp11
VBrand
p12
VApple
p13
sVRAM Memory
p14
V4 GB
p15
sVScreen Size
p16
V11.6\u005c"
p17
sVHard Drive Capacity
p18
V256 GB
p19
ssS'title'
p20
VApple MacBook Air Core i5-4260U Dual-Core 1.4GHz 4GB 256GB SSD 11.6" LED Notebook AirPort OS X w/Webcam (Early 2014) - Refurbished
p21
sb.