ccopy_reg
_reconstructor
p0
(c__main__
ProductRecord
p1
c__builtin__
object
p2
Ntp3
Rp4
(dp5
S'product_url'
p6
S'http://www.walmart.com/ip/Apple-MacBook-Air-11-6-LED-backlit-Glossy-Widescreen-Display-Laptop-4GB-128GB-1-6GHz-MC969LL-A-Manufacturer-Refurbished/545244283'
p7
sS'price'
p8
V$649.99
p9
sS'properties'
p10
(dp11
VRAM Memory
p12
V4 GB
p13
sVBrand
p14
VApple
p15
sVManufacturer Part Number
p16
VMC969LL/A
p17
sVHard Drive Capacity
p18
V128 GB
p19
sVModel
p20
VMC969LL/A
p21
sVScreen Size
p22
V11.6 in
p23
ssS'title'
p24
VApple MacBook Air 11.6" LED-backlit Glossy Widescreen Display Laptop (4GB, 128GB, 1.6GHz) -MC969LL/A (Manufacturer Refurbished)
p25
sb.