ccopy_reg
_reconstructor
p0
(c__main__
ProductRecord
p1
c__builtin__
object
p2
Ntp3
Rp4
(dp5
S'product_url'
p6
S'http://www.walmart.com/ip/Refurbished-Apple-MacBook-Air-13-3-LED-Laptop-Intel-i5-5250U-Dual-Core-1-6GHz-4GB-128GB-SSD/912621198'
p7
sS'price'
p8
V$654.95
p9
sS'properties'
p10
(dp11
VRAM Memory
p12
V4 GB
p13
sVOperating System
p14
VMicrosoft Windows
p15
sVBrand
p16
VApple
p17
sVManufacturer Part Number
p18
VMJVE2LLA-PB-RCC
p19
sVHard Drive Capacity
p20
V128 GB
p21
sVModel
p22
VMacBook Air A1466
p23
sVScreen Size
p24
V13.3\u005c"
p25
ssS'title'
p26
VRefurbished Apple MacBook Air 13.3" LED Laptop Intel i5-5250U Dual Core 1.6GHz 4GB 128GB SSD
p27
sb.