ccopy_reg
_reconstructor
p0
(c__main__
ProductRecord
p1
c__builtin__
object
p2
Ntp3
Rp4
(dp5
S'product_url'
p6
S'http://www.walmart.com/ip/Refurbished-Apple-MacBook-Pro-MD102LL-A-i7-2-9GHz-4GB-240SSD-OS-X-10-7-Lion-13-DRW-B/637324078'
p7
sS'price'
p8
V$672.75
p9
sS'properties'
p10
(dp11
VBrand
p12
VApple
p13
sVRAM Memory
p14
V4 GB
p15
sVScreen Size
p16
V13\u005c"
p17
sVModel
p18
VMacBook Pro
p19
ssS'title'
p20
VRefurbished Apple MacBook Pro MD102LL/A i7 2.9GHz 4GB 240SSD OS X 10.7 Lion 13" DRW B
p21
sb.