ccopy_reg
_reconstructor
p0
(c__main__
ProductRecord
p1
c__builtin__
object
p2
Ntp3
Rp4
(dp5
S'product_url'
p6
S'http://www.walmart.com/ip/Upgraded-Apple-MacBook-Pro-13-3-Inch-Laptop-Intel-Core-i5-2-5GHz-8GB-DDR3-Memory-500GB-SSHD-Solid-State-Hybrid-Drive-Refurbished/904667988'
p7
sS'price'
p8
V$699.00
p9
sS'properties'
p10
(dp11
VRAM Memory
p12
V8.00 GB
p13
sVOperating System
p14
VMac OS Sierra
p15
sVBrand
p16
VApple
p17
sVProcessor Speed
p18
V2.50 GHz
p19
sVMaximum RAM Supported
p20
V16.00 GB
p21
sVHard Drive Capacity
p22
V500.00 GB
p23
sVModel
p24
VMD101LL/A
p25
sVScreen Size
p26
V13.30 in
p27
sVProcessor Type
p28
VIntel "Core i5" 64-Bit
p29
ssS'title'
p30
VUpgraded Apple MacBook Pro 13.3-Inch Laptop Intel Core i5 2.5GHz / 8GB DDR3 Memory / 500GB SSHD (Solid State Hybrid) Drive - Refurbished
p31
sb.