ccopy_reg
_reconstructor
p0
(c__main__
ProductRecord
p1
c__builtin__
object
p2
Ntp3
Rp4
(dp5
S'product_url'
p6
S'http://www.walmart.com/ip/Apple-MacBook-Air-13-3-Laptop-MD761LL-A-silver-Certified-Refurbished/399161843'
p7
sS'price'
p8
V$699.99
p9
sS'properties'
p10
(dp11
VBrand
p12
VApple
p13
sVScreen Size
p14
V13.3 in
p15
ssS'title'
p16
VApple MacBook Air 13.3" Laptop MD761LL/A (silver) (Certified Refurbished)
p17
sb.