ccopy_reg
_reconstructor
p0
(c__main__
ProductRecord
p1
c__builtin__
object
p2
Ntp3
Rp4
(dp5
S'product_url'
p6
S'http://www.walmart.com/ip/Apple-MacBook-Pro-Core-i7-2635QM-Quad-Core-2-0GHz-4GB-500GB-DVD-RW-Radeon-HD-6490M-15-4-OS-Sierra-w-Webcam-MC721LL-A-Early-2011-Refurbished-FREE-Case/164325807'
p7
sS'price'
p8
V$729.99
p9
sS'properties'
p10
(dp11
VRAM Memory
p12
V4 GB
p13
sVOperating System
p14
VMicrosoft Windows
p15
sVBrand
p16
VApple
p17
sVHard Drive Capacity
p18
V500 GB
p19
sVScreen Size
p20
V15.4 in
p21
sVCondition
p22
VRefurbished
p23
ssS'title'
p24
VApple MacBook Pro Core i7-2635QM Quad-Core 2.0GHz 4GB 500GB DVD?RW Radeon HD 6490M 15.4" OS Sierra w/Webcam MC721LL/A (Early 2011) - Refurbished with FREE Case
p25
sb.