ccopy_reg
_reconstructor
p0
(c__main__
ProductRecord
p1
c__builtin__
object
p2
Ntp3
Rp4
(dp5
S'product_url'
p6
S'http://www.walmart.com/ip/Pre-Owned-Apple-MacBook-Pro-15-i7-2-2-500GB-4GB-MD318LL-A-2011/131446246'
p7
sS'price'
p8
V$756.64
p9
sS'properties'
p10
(dp11
VHard Drive Capacity
p12
V500 Gigabytes
p13
sVBrand
p14
VApple
p15
sVScreen Size
p16
V15 Inches
p17
sVModel
p18
VMD318LL/ARFB
p19
sVProcessor Speed
p20
V2.2000000000000002 Gigahertz
p21
ssS'title'
p22
VPre-Owned Apple MacBook Pro 15" i7 [2.2] [500GB] [4GB] MD318LL/A(2011)
p23
sb.