ccopy_reg
_reconstructor
p0
(c__main__
ProductRecord
p1
c__builtin__
object
p2
Ntp3
Rp4
(dp5
S'product_url'
p6
S'http://www.walmart.com/ip/Apple-Certified-Refurbished-Grade-Macbook-12-inch-Laptop-Retina-Gold-1-1GHz-Core-M-MK4M2LL-A-256-GB-SSD-8-GB-Memory-2304x1440-Display-Mac-OS-X-v10-12/279107116'
p7
sS'price'
p8
V$817.95
p9
sS'properties'
p10
(dp11
VRAM Memory
p12
V8.00 GB
p13
sVOperating System
p14
VMac OS
p15
sVFeatures
p16
VCondition: Refurbished
p17
sVBrand
p18
VApple
p19
sVManufacturer Part Number
p20
VMK4M2LL/A-GS-EX
p21
sVMaximum RAM Supported
p22
V8.00 GB
p23
sVHard Drive Capacity
p24
V256.00 GB
p25
sVProcessor Type
p26
VIntel Core M
p27
sVScreen Size
p28
V12 in
p29
sVProcessor Speed
p30
V1.10 GHz
p31
sVCondition
p32
VRefurbished
p33
ssS'title'
p34
VApple Certified Refurbished A Grade Macbook 12-inch Laptop (Retina, Gold) 1.1GHz Core M MK4M2LL/A 256 GB SSD 8 GB Memory 2304x1440 Display Mac OS X v10.12 Sierra Power Adapte
p35
sb.