ccopy_reg
_reconstructor
p0
(c__main__
ProductRecord
p1
c__builtin__
object
p2
Ntp3
Rp4
(dp5
S'product_url'
p6
S'http://www.walmart.com/ip/Refurbished-Apple-MacBook-Pro-15-4-Retina-Laptop-Intel-i7-3635QM-Quad-Core-8GB-256GB-SSD/990379317'
p7
sS'price'
p8
V$859.95
p9
sS'properties'
p10
(dp11
VRAM Memory
p12
V8.00 GB
p13
sVOperating System
p14
VMac OS
p15
sVFeatures
p16
VCondition: Refurbished
p17
sVBrand
p18
VApple
p19
sVProcessor Speed
p20
V2.40 GHz
p21
sVManufacturer Part Number
p22
VME664LLA-PB-2RCC-WAL2
p23
sVMaximum RAM Supported
p24
V8.00 GB
p25
sVHard Drive Capacity
p26
V256.00 GB
p27
sVModel
p28
VMacBook Pro Retina A1398
p29
sVScreen Size
p30
V15.40 in
p31
sVProcessor Type
p32
VIntel Core i7
p33
ssS'title'
p34
VRefurbished Apple MacBook Pro 15.4" Retina Laptop Intel i7-3635QM Quad Core 8GB 256GB SSD
p35
sb.