ccopy_reg
_reconstructor
p0
(c__main__
ProductRecord
p1
c__builtin__
object
p2
Ntp3
Rp4
(dp5
S'product_url'
p6
S'http://www.walmart.com/ip/Apple-13-MacBook-Air-1-8GHz-Intel-Core-i5-Dual-Core-Processor-8GB-RAM-128GB-SSD-Mac-OS-Silver-MQD32LL-A-Newest-Version-Certified-Refurbished/255663915'
p7
sS'price'
p8
V$866.19
p9
sS'properties'
p10
(dp11
VOperating System
p12
VMicrosoft Windows
p13
sVBrand
p14
VApple
p15
sVRAM Memory
p16
V8 GB
p17
sVScreen Size
p18
V13\u005c"
p19
sVHard Drive Capacity
p20
V128 GB
p21
ssS'title'
p22
VApple 13" MacBook Air, 1.8GHz Intel Core i5 Dual Core Processor, 8GB RAM, 128GB SSD, Mac OS, Silver, MQD32LL/A (Newest Version) (Certified Refurbished)
p23
sb.