ccopy_reg
_reconstructor
p0
(c__main__
ProductRecord
p1
c__builtin__
object
p2
Ntp3
Rp4
(dp5
S'product_url'
p6
S'http://www.walmart.com/ip/Apple-MacBook-Pro-Retina-15-4-Core-i7-2-3GHz-16GB-256GB-SSD-Notebook-OSX-ME293LL-A-Late-2013-Refurbished/103294986'
p7
sS'price'
p8
V$899.00
p9
sS'properties'
p10
(dp11
VRAM Memory
p12
V8 GB
p13
sVOperating System
p14
VSierra, Mac OS X V 10.12 Sierra
p15
sVFeatures
p16
VApple MacBook Pro with Retina displayPower adapter, Retina display: multimillion-pixel viewLong-lasting batteryFaster all-flash storage: there's a reason they call it "flash"Thunderbolt 2: the most advanced I/O gets 2x fasterAudio and visualMulti-touch trackpad and backlit keyboardiCloud: everything you need, everywhere you need it
p17
sVBrand
p18
VApple
p19
sVProcessor Speed
p20
V2.0 GHz
p21
sVManufacturer Part Number
p22
VME293LL/A
p23
sVHard Drive Capacity
p24
V256 GB
p25
sVBattery Life
p26
V8 hours
p27
sVAssembled Product Dimensions (L x W x H)
p28
V9.70 x 14.10 x 0.70 Inches
p29
sVModel
p30
Vwith Retina display
p31
sVScreen Size
p32
V15.4 in
p33
sVProcessor Type
p34
VQuad Core i7, Intel i7
p35
sVCondition
p36
VRefurbished
p37
ssS'title'
p38
VApple MacBook Pro Retina 15.4" / Core i7 / 2.3GHz / 16GB / 256GB SSD Notebook OSX ME293LL/A (Late 2013) - Refurbished
p39
sb.