ccopy_reg
_reconstructor
p0
(c__main__
ProductRecord
p1
c__builtin__
object
p2
Ntp3
Rp4
(dp5
S'product_url'
p6
S'http://www.walmart.com/ip/Apple-Grade-Macbook-12-inch-Retina-Gold-1-2GHz-Core-m5-Early-2016-MLHF2LL-A-512-GB-SSD-8-GB-Memory-2304x1440-Display-Mac-OS-X-v10-12-Sierra-Power-Ada/938624704'
p7
sS'price'
p8
V$909.00
p9
sS'properties'
p10
(dp11
VRAM Memory
p12
V8.00 GB
p13
sVOperating System
p14
VMac OS
p15
sVFeatures
p16
VCondition: Refurbished
p17
sVBrand
p18
VApple
p19
sVManufacturer Part Number
p20
VMLHF2LL/A-GS
p21
sVMaximum RAM Supported
p22
V8.00 GB
p23
sVHard Drive Capacity
p24
V512.00 GB
p25
sVProcessor Type
p26
VIntel Core M5
p27
sVScreen Size
p28
V12.00 in
p29
sVProcessor Speed
p30
V1.20 GHz
p31
ssS'title'
p32
VApple A Grade Macbook 12-inch (Retina, Gold) 1.2GHz Core m5 (Early 2016) MLHF2LL/A 512 GB SSD 8 GB Memory 2304x1440 Display Mac OS X v10.12 Sierra Power Adapter Included
p33
sb.