ccopy_reg
_reconstructor
p0
(c__main__
ProductRecord
p1
c__builtin__
object
p2
Ntp3
Rp4
(dp5
S'product_url'
p6
S'http://www.walmart.com/ip/Apple-ME087LL-A-Intel-Core-i5-4570S-X4-2-9GHz-8GB-1TB-21-5-Silver-Certified-Refurbished/415182228'
p7
sS'price'
p8
V$921.33
p9
sS'properties'
p10
(dp11
VRAM Memory
p12
V8 Gigabytes
p13
sVOperating System
p14
VApple Mac OS X 10.9
p15
sVFeatures
p16
V170W Power Supply, Dedicated NVIDIA GeForce GT 750M Graphics (1.0GB Dedicated Video Memory), This Certified Refurbished product is tested and certified to look and work like new. The refurbishing process includes functionality testing, basic cleaning, inspection, and repackaging. The product ships with all relevant accessories, a minimum 90-day warranty, and may arrive in a generic box., 1MP Webcam, 1TB (5400RPM) SATA Hard Disk Drive (HDD), 8GB DDR3 Memory, Apple Mac OS X 10.9 Operating System, 4 x USB 3.0, 1 x Microphone-in, Energy Star Compliant, 17.7" x 20.8" x 6.9" (HxWxD); 12.5lbs, 10/100/1000 Gigabit Ethernet, 802.11ABGN and Bluetooth 4.0 + HS, Wireless Keyboard and Wireless Mouse, Intel Core i5-4570S Processor (Quad-Core, 2.9GHz, 3MB Cache), 21.5-inch (1920 x 1080) LED Display
p17
sVBrand
p18
VApple
p19
sVManufacturer Part Number
p20
V4950939-RFB
p21
sVMaximum RAM Supported
p22
V16 Gigabytes
p23
sVHard Drive Capacity
p24
V1000 Gigabytes
p25
sVAssembled Product Dimensions (L x W x H)
p26
V20.80 x 6.90 x 17.70 Inches
p27
sVProcessor Type
p28
VIntel Core i5-4570S
p29
sVScreen Size
p30
V21.5 Inches
p31
sVProcessor Speed
p32
V2.9 Gigahertz
p33
ssS'title'
p34
VApple ME087LL/A Intel Core i5-4570S X4 2.9GHz 8GB 1TB 21.5", Silver (Certified Refurbished)
p35
sb.