ccopy_reg
_reconstructor
p0
(c__main__
ProductRecord
p1
c__builtin__
object
p2
Ntp3
Rp4
(dp5
S'product_url'
p6
S'http://www.walmart.com/ip/Apple-Macbook-Air-G0NY2LL-A-11-Inch-Laptop-1-7GHz-dual-core-Intel-i7-8GB-RAM-512GB-SSD-Refurbished/244643589'
p7
sS'price'
p8
V$998.89
p9
sS'properties'
p10
(dp11
VBrand
p12
VApple
p13
sVScreen Size
p14
V11\u005c"
p15
sVHard Drive Capacity
p16
V512 GB
p17
ssS'title'
p18
VApple Macbook Air G0NY2LL/A 11-Inch Laptop (1.7GHz dual-core Intel i7 ,8GB RAM, 512GB SSD)(Refurbished)
p19
sb.