ccopy_reg
_reconstructor
p0
(c__main__
ProductRecord
p1
c__builtin__
object
p2
Ntp3
Rp4
(dp5
S'product_url'
p6
S'http://www.walmart.com/ip/DELL-Latitude-7285-PY9V9-Intel-Core-i5-7th-Gen-7Y57-1-20-GHz-8-GB-Memory-256-GB-SSD-Intel-HD-Graphics-615-12-3-Touchscreen-2880-x-1920-2-in-1-Laptop-/55628615'
p7
sS'price'
p8
S'N/A'
p9
sS'properties'
p10
(dp11
VRAM Memory
p12
V8.00 GB
p13
sVOperating System
p14
VWindows 10
p15
sVFeatures
p16
VWireless, Bluetooth, HDMI Outputs
p17
sVVideo Game Platform
p18
VPC
p19
sVBrand
p20
VDell
p21
sVProcessor Speed
p22
V1.20 GHz
p23
sVManufacturer Part Number
p24
VPY9V9
p25
sVMaximum RAM Supported
p26
V16.00 GB
p27
sVHard Drive Capacity
p28
V256.00 GB
p29
sVAssembled Product Dimensions (L x W x H)
p30
V13.30 x 7.00 x 15.10 Inches
p31
sVModel
p32
VLATI7285PY9V9
p33
sVScreen Size
p34
V12.30 in
p35
sVProcessor Type
p36
VIntel Core i5
p37
ssS'title'
p38
VDELL Latitude 7285 (PY9V9) Intel Core i5 7th Gen 7Y57 (1.20 GHz) 8 GB Memory 256 GB SSD Intel HD Graphics 615 12.3" Touchscreen 2880 x 1920 2-in-1 Laptop Windows 10 Pro 64-Bit
p39
sb.