ccopy_reg
_reconstructor
p0
(c__main__
ProductRecord
p1
c__builtin__
object
p2
Ntp3
Rp4
(dp5
S'product_url'
p6
S'http://www.walmart.com/ip/Refurbished-Apple-MacBook-Pro-Retina-Core-i7-4770HQ-Quad-Core-2-2GHz-16GB-256GB-SSD-15-4-LED-Notebook-OS-X-w-Webcam-Mid-2014-B/717428313'
p7
sS'price'
p8
V$1,179.00
p9
sS'properties'
p10
(dp11
VRAM Memory
p12
V16.00 GB
p13
sVOperating System
p14
VMac OS
p15
sVFeatures
p16
VCondition: Refurbished
p17
sVBrand
p18
VApple
p19
sVManufacturer Part Number
p20
VMGXA2LLA-PB-RCB
p21
sVMaximum RAM Supported
p22
V16.00 GB
p23
sVHard Drive Capacity
p24
V128 GB
p25
sVProcessor Type
p26
VIntel Core i7
p27
sVScreen Size
p28
V15.4 in
p29
sVProcessor Speed
p30
V2.20 GHz
p31
ssS'title'
p32
VRefurbished Apple MacBook Pro Retina Core i7-4770HQ Quad-Core 2.2GHz 16GB 256GB SSD 15.4" LED Notebook OS X w/Webcam (Mid 2014) - B
p33
sb.