ccopy_reg
_reconstructor
p0
(c__main__
ProductRecord
p1
c__builtin__
object
p2
Ntp3
Rp4
(dp5
S'product_url'
p6
S'http://www.walmart.com/ip/Refurbished-Fujitsu-LIFEBOOK-T726-XBUY-T726-R730-Convertible-Notebook-PC-Intel-Core-i5-6300U-2-4-GHz-Dual-Core-Processor-8-GB-DDR4-SDRAM-256-GB-Solid/602221368'
p7
sS'price'
p8
S'N/A'
p9
sS'properties'
p10
(dp11
sS'title'
p12
VRefurbished Fujitsu LIFEBOOK T726 XBUY-T726-R730 Convertible Notebook PC - Intel Core i5-6300U 2.4 GHz Dual-Core Processor - 8 GB DDR4 SDRAM - 256 GB Solid State Drive - 12.5-inch Display - Windows
p13
sb.