ccopy_reg
_reconstructor
p0
(c__main__
ProductRecord
p1
c__builtin__
object
p2
Ntp3
Rp4
(dp5
S'product_url'
p6
S'http://www.walmart.com/ip/Apple-MD096LL-A-Intel-Core-i7-3770-X4-3-4GHz-8GB-1TB-27-Silver-Scratch-And-Dent-Refurbished/314829385'
p7
sS'price'
p8
V$1,237.25
p9
sS'properties'
p10
(dp11
VRAM Memory
p12
V8 Gigabytes
p13
sVOperating System
p14
VApple Mac OS X 10.8
p15
sVFeatures
p16
V170W Power Supply, Intel Core i7-3770 Processor (Quad-Core, 3.4GHz, 8MB Cache), 20.3" x 25.6" x 8" (HxWxD); 21lbs, Dedicated NVIDIA GeForce GTX 675MX Graphics (1.0GB Dedicated Video Memory), 1MP Webcam, 8GB DDR3 Memory, Apple Mac OS X 10.8 Operating System, 4 x USB 3.0, 1 x Microphone-in, 27-inch (2560 x 1440) LED Display, Energy Star Compliant, Wireless Keyboard and Wireless Mouse, 1TB (7200RPM) SATA Hard Disk Drive (HDD), 10/100/1000 Gigabit Ethernet, 802.11AC and Bluetooth 4.0 + HS
p17
sVBrand
p18
VApple
p19
sVManufacturer Part Number
p20
V4715846-RFB
p21
sVMaximum RAM Supported
p22
V32 Gigabytes
p23
sVHard Drive Capacity
p24
V1000 Gigabytes
p25
sVAssembled Product Dimensions (L x W x H)
p26
V25.60 x 8.00 x 20.30 Inches
p27
sVProcessor Type
p28
VIntel Core i7-3770
p29
sVScreen Size
p30
V27 Inches
p31
sVProcessor Speed
p32
V3.4 Gigahertz
p33
ssS'title'
p34
VApple MD096LL/A Intel Core i7-3770 X4 3.4GHz 8GB 1TB 27", Silver (Scratch And Dent Refurbished)
p35
sb.