ccopy_reg
_reconstructor
p0
(c__main__
ProductRecord
p1
c__builtin__
object
p2
Ntp3
Rp4
(dp5
S'product_url'
p6
S'http://www.walmart.com/ip/Apple-12-MacBook-Mid-2017-Silver-256GB-SSD-MNYH2LL-A-Padded-Case-For-Macbook-Fibercloth-Bundle/239971746'
p7
sS'price'
p8
V$1,290.49
p9
sS'properties'
p10
(dp11
VBrand
p12
VApple
p13
sVScreen Size
p14
V12
p15
sVHard Drive Capacity
p16
V256
p17
sVCondition
p18
VNew
p19
ssS'title'
p20
VApple 12" MacBook (Mid 2017 Silver) 256GB SSD #MNYH2LL/A + Padded Case For Macbook + Fibercloth Bundle
p21
sb.