ccopy_reg
_reconstructor
p0
(c__main__
ProductRecord
p1
c__builtin__
object
p2
Ntp3
Rp4
(dp5
S'product_url'
p6
S'http://www.walmart.com/ip/Fujitsu-LIFEBOOK-T726-XBUY-T726-R730-Convertible-Notebook-PC-Refurbished/584971438'
p7
sS'price'
p8
S'N/A'
p9
sS'properties'
p10
(dp11
VRAM Memory
p12
V8 GB
p13
sVOperating System
p14
VWindows 7
p15
sVBrand
p16
VFujitsu
p17
sVProcessor Speed
p18
V2.4 GHz
p19
sVHard Drive Capacity
p20
V256 GB
p21
sVModel
p22
VXBUY-T726-R730
p23
sVScreen Size
p24
V12.5 in
p25
sVProcessor Type
p26
VIntel Core i5
p27
sVCondition
p28
VRefurbished
p29
ssS'title'
p30
VFujitsu LIFEBOOK T726 XBUY-T726-R730 Convertible Notebook PC - (Refurbished)
p31
sb.