ccopy_reg
_reconstructor
p0
(c__main__
ProductRecord
p1
c__builtin__
object
p2
Ntp3
Rp4
(dp5
S'product_url'
p6
S'http://www.walmart.com/ip/Apple-MacBook-Pro-Retina-15-4-Core-i7-2-8GHz-16GB-768GB-SSD-Notebook-Early-2013-Refurbished/723415121'
p7
sS'price'
p8
V$1,499.99
p9
sS'properties'
p10
(dp11
VBrand
p12
VApple
p13
sVScreen Size
p14
V15.4
p15
sVHard Drive Capacity
p16
V768
p17
sVCondition
p18
VRefurbished
p19
ssS'title'
p20
VApple MacBook Pro Retina 15.4" Core i7 2.8GHz 16GB 768GB SSD Notebook (Early 2013) - Refurbished
p21
sb.