ccopy_reg
_reconstructor
p0
(c__main__
ProductRecord
p1
c__builtin__
object
p2
Ntp3
Rp4
(dp5
S'product_url'
p6
S'http://www.walmart.com/ip/Apple-MacBook-Pro-Retina-display-Core-i7-2-2-GHz-OS-X-10-13-Sierra-16-GB-RAM-256-GB-flash-storage-15-4-IPS-2880-x-1800-Iris-Pro-Graphics-Wi-Fi-kbd-Sp/105364087'
p7
sS'price'
p8
V$1,875.29
p9
sS'properties'
p10
(dp11
VRAM Memory
p12
V16 GB
p13
sVOperating System
p14
VMac OS X 10.10 Yosemite
p15
sVColor Category
p16
VSilver
p17
sVLaptop Computer Type
p18
VMacBooks
p19
sVBrand
p20
VApple
p21
sVManufacturer Part Number
p22
VMJLQ2E/A
p23
sVWireless Technology
p24
VIEEE 802.11g
p25
sVProcessor Core Type
p26
VQuad-core (4 Core)
p27
sVProcessor Type
p28
VIntel Core i7
p29
sVScreen Size
p30
V15.4"
p31
sVModel
p32
VMJLQ2E/A
p33
sVManufacturer
p34
VApple, Inc
p35
ssS'title'
p36
VApple MacBook Pro with Retina display - Core i7 2.2 GHz - OS X 10.13 Sierra - 16 GB RAM - 256 GB flash storage - 15.4" IPS 2880 x 1800 - Iris Pro Graphics - Wi-Fi - kbd: Spanish
p37
sb.