ccopy_reg
_reconstructor
p0
(c__main__
ProductRecord
p1
c__builtin__
object
p2
Ntp3
Rp4
(dp5
S'product_url'
p6
S'http://www.walmart.com/ip/Apple-13-3-MacBook-Pro-Space-Gray-512GB-SSD-MPXW2LL-A-Padded-Case-For-Macbook-Fibercloth-Bundle/781623016'
p7
sS'price'
p8
V$1,924.29
p9
sS'properties'
p10
(dp11
VBrand
p12
VApple
p13
sVScreen Size
p14
V13.3
p15
sVHard Drive Capacity
p16
V512
p17
sVCondition
p18
VNew
p19
ssS'title'
p20
VApple 13.3" MacBook Pro (Space Gray) 512GB SSD #MPXW2LL/A + Padded Case For Macbook + Fibercloth Bundle
p21
sb.