ccopy_reg
_reconstructor
p0
(c__main__
ProductRecord
p1
c__builtin__
object
p2
Ntp3
Rp4
(dp5
S'product_url'
p6
S'http://www.walmart.com/ip/Apple-27-inch-iMac-3-5GHz-Quad-Core-Intel-Core-i7-1TB-Flash-Storage-macOS-10-12-Sierra-Certified-Refurbished/147529244'
p7
sS'price'
p8
V$2,423.89
p9
sS'properties'
p10
(dp11
VOperating System
p12
VMicrosoft Windows
p13
sVBrand
p14
VApple
p15
sVScreen Size
p16
V27\u005c"
p17
sVHard Drive Capacity
p18
V1000 GB
p19
ssS'title'
p20
VApple 27-inch iMac 3.5GHz Quad-Core Intel Core i7 1TB Flash Storage macOS 10.12, Sierra (Certified Refurbished)
p21
sb.