ccopy_reg
_reconstructor
p0
(c__main__
ProductRecord
p1
c__builtin__
object
p2
Ntp3
Rp4
(dp5
S'product_url'
p6
S'http://www.walmart.com/ip/Refurbished-HP-Stream-Laptop-14-ax030wm-N3060-CPU-4GB-RAM-32GB-HD/56136485'
p7
sS'price'
p8
V$149.00
p9
sS'properties'
p10
(dp11
VLaptop Computer Type
p12
VPC Laptops
p13
sVBrand
p14
VHP
p15
sVManufacturer Part Number
p16
VRB 14-ax030wm
p17
sVHard Drive Capacity
p18
V32
p19
sVModel
p20
VRB 14-ax030wm
p21
sVCondition
p22
VRefurbished
p23
sVManufacturer
p24
VGeneric
p25
ssS'title'
p26
VRefurbished HP Stream Laptop 14-ax030wm N3060 CPU, 4GB RAM, 32GB HD
p27
sb.