ccopy_reg
_reconstructor
p0
(c__main__
ProductRecord
p1
c__builtin__
object
p2
Ntp3
Rp4
(dp5
S'product_url'
p6
S'http://www.walmart.com/ip/REFURBISHED-HP-Elitebook-8560p-15-6-Intel-Core-i5-2520M-2-5GHz-4GB-250GB-HDD-Windows-7-New-Battery-No-Webcam/170817451'
p7
sS'price'
p8
V$169.99
p9
sS'properties'
p10
(dp11
VRAM Memory
p12
V4 Gigabytes
p13
sVFeatures
p14
VSuperMulti-DVD Burner, 250GB(7200RPM)SATA Hard Drive, No Webcam and Integrated Microphone, 2 x USB 3.0, 2 x USB 2.0, 10/100 Ethernet, 802.11BGN, Standard Keyboard and Touchpad, 15.6-inch(1600 x 900)LED Display, Intel Core i5-2520M Processor (Dual-Core, 2.5GHz, 3MB Cache), IntegratedIntel HD Graphics, Energy Star Compliant, 3-cellLithium-Ion Battery, 4GBDDR3 System Memory, Microsoft Windows 7Professional Operating System, 1.3" x 14.7" x 9.9" (HxWxD);6.4lbs
p15
sVBrand
p16
VHP
p17
sVManufacturer Part Number
p18
VXU066UAABA
p19
sVMaximum RAM Supported
p20
V8 Gigabytes
p21
sVBattery Life
p22
V8 Hours
p23
sVModel
p24
V8560P
p25
ssS'title'
p26
VREFURBISHED HP Elitebook 8560p 15.6" Intel Core i5-2520M 2.5GHz 4GB  250GB HDD Windows 7 & New Battery (No Webcam)
p27
sb.