ccopy_reg
_reconstructor
p0
(c__main__
ProductRecord
p1
c__builtin__
object
p2
Ntp3
Rp4
(dp5
S'product_url'
p6
S'http://www.walmart.com/ip/Refurbished-HP-14-AX040WM-Stream-14-Jet-Black-Laptop-Intel-Celeron-N3060-CPU-4GB-RAM-32GB/470010299'
p7
sS'price'
p8
V$137.83
p9
sS'properties'
p10
(dp11
VRAM Memory
p12
V4 GB
p13
sVLaptop Computer Type
p14
VPC Laptops
p15
sVBrand
p16
VHP
p17
sVManufacturer Part Number
p18
V14-ax040wm
p19
sVHard Drive Capacity
p20
V32 GB
p21
sVModel
p22
VVIPRB-14-ax040wm
p23
sVScreen Size
p24
V14\u005c"
p25
sVCondition
p26
VRefurbished
p27
sVManufacturer
p28
VHP
p29
ssS'title'
p30
VRefurbished HP 14-AX040WM Stream 14" Jet Black Laptop, Intel Celeron N3060 CPU, 4GB RAM 32GB
p31
sb.