ccopy_reg
_reconstructor
p0
(c__main__
ProductRecord
p1
c__builtin__
object
p2
Ntp3
Rp4
(dp5
S'product_url'
p6
S'http://www.walmart.com/ip/Refurbished-Grade-A-Apple-iMac-21-5-Intel-Core-i5-Processor-4GB-Memory-500GB-Hard-Drive-Mac-OS-with-Keyboard-and-Mouse/55332678'
p7
sS'price'
p8
V$459.00
p9
sS'properties'
p10
(dp11
VRAM Memory
p12
V4 GB
p13
sVOperating System
p14
VMac OS
p15
sVFeatures
p16
VWireless, Bluetooth
p17
sVColor
p18
VSilver
p19
sVVideo Game Platform
p20
VMac
p21
sVBrand
p22
VApple
p23
sVProcessor Type
p24
VIntel Core i5 Quad-Core Processor
p25
sVHard Drive Capacity
p26
V500 GB
p27
sVAssembled Product Dimensions (L x W x H)
p28
V17.75 x 20.80 x 7.42 Inches
p29
sVModel
p30
VMC309LLA-Refurb A
p31
sVScreen Size
p32
V21.5"
p33
sVProcessor Speed
p34
V2.5 GHz
p35
sVAssembled Product Weight
p36
V20.5 oz
p37
ssS'title'
p38
VRefurbished Grade A Apple iMac 21.5" Intel Core i5 Processor 4GB Memory 500GB Hard Drive Mac OS with Keyboard and Mouse
p39
sb.