ccopy_reg
_reconstructor
p0
(c__main__
ProductRecord
p1
c__builtin__
object
p2
Ntp3
Rp4
(dp5
S'product_url'
p6
S'http://www.walmart.com/ip/Dell-Latitude-D630-Notebook/339996604'
p7
sS'price'
p8
V$99.00
p9
sS'properties'
p10
(dp11
VLaptop Computer Type
p12
VPC Laptops
p13
sVBrand
p14
VDell
p15
sVOperating System
p16
VMicrosoft Windows
p17
ssS'title'
p18
VDell Latitude D630 Notebook
p19
sb.