ccopy_reg
_reconstructor
p0
(c__main__
ProductRecord
p1
c__builtin__
object
p2
Ntp3
Rp4
(dp5
S'product_url'
p6
S'http://www.walmart.com/ip/Refurbished-Dell-i5559-1350SLV-15-6-HD-Laptop-Intel-Core-i3-6100U-2-3GHz-Processor-6-GB-DDR3L-SDRAM-1-TB-HDD-Windows-10-Silver-Matte/114041965'
p7
sS'price'
p8
V$279.00
p9
sS'properties'
p10
(dp11
VLaptop Computer Type
p12
VPC Laptops
p13
sVBrand
p14
VDell
p15
sVOperating System
p16
VMicrosoft Windows
p17
sVmanufacturer_part_number
p18
Vi5559-1350slv
p19
ssS'title'
p20
VRefurbished Dell i5559-1350SLV 15.6 HD Laptop (Intel Core i3-6100U 2.3GHz Processor, 6 GB DDR3L SDRAM, 1 TB HDD, Windows 10) Silver Matte
p21
sb.