ccopy_reg
_reconstructor
p0
(c__main__
ProductRecord
p1
c__builtin__
object
p2
Ntp3
Rp4
(dp5
S'product_url'
p6
S'http://www.walmart.com/ip/Dell-Latitude-E6500-15-4-Windows-10-Laptop-Notebook-PC-4GB-Ram-a-320GB-Hard-Drive-and-Wifi-Refurbished-Laptop/293818546'
p7
sS'price'
p8
V$148.88
p9
sS'properties'
p10
(dp11
VRAM Memory
p12
V4 GB
p13
sVOperating System
p14
VMicrosoft Windows
p15
sVLaptop Computer Type
p16
VPC Laptops
p17
sVBrand
p18
VDell
p19
sVManufacturer Part Number
p20
VE6500
p21
sVHard Drive Capacity
p22
V320
p23
sVModel
p24
VE6500
p25
sVScreen Size
p26
V15.4
p27
ssS'title'
p28
VDell Latitude E6500 15.4" Windows 10 Laptop Notebook PC 4GB Ram a 320GB Hard Drive and Wifi - Refurbished Laptop
p29
sb.