ccopy_reg
_reconstructor
p0
(c__main__
ProductRecord
p1
c__builtin__
object
p2
Ntp3
Rp4
(dp5
S'product_url'
p6
S'http://www.walmart.com/ip/Refurbished-HP-Elitebook-840-G1-Laptop-Intel-Core-i5-1-9GHz-4th-Gen-4GB-DDR3-250GB-SATA-HDD-Battery-Charger-14-LED-Windows-10-Pro-64bit-w-Restore-Par/224503079'
p7
sS'price'
p8
V$235.97
p9
sS'properties'
p10
(dp11
VRAM Memory
p12
V4.00 Gigabytes
p13
sVOperating System
p14
VWindows 10 Pro 64bit
p15
sVBrand
p16
VHP
p17
sVHard Drive Capacity
p18
V250.00 Gigabytes
p19
sVProcessor Type
p20
VIntel Core i5
p21
sVScreen Size
p22
V14.00 Inches
p23
sVProcessor Speed
p24
V1.90 Gigahertz
p25
ssS'title'
p26
VRefurbished HP Elitebook 840 G1 Laptop, Intel Core i5 1.9GHz 4th Gen., 4GB DDR3, 250GB SATA HDD, Battery, Charger, 14" LED, Windows 10 Pro 64bit w/ Restore Partition
p27
sb.