ccopy_reg
_reconstructor
p0
(c__main__
ProductRecord
p1
c__builtin__
object
p2
Ntp3
Rp4
(dp5
S'product_url'
p6
S'http://www.walmart.com/ip/Refurbished-HP-EliteBook-8460p-Intel-Core-i5-2-50GHz-4GB-RAM-320GB-HDD-Webcam-Win-7-x64/117012214'
p7
sS'price'
p8
V$189.95
p9
sS'properties'
p10
(dp11
VRAM Memory
p12
V4 Gigabytes
p13
sVOperating System
p14
VWindows 7
p15
sVVideo Game Platform
p16
VPC
p17
sVBrand
p18
VHP
p19
sVHard Drive Capacity
p20
V320 Gigabytes
p21
sVLaptop Computer Type
p22
VBusiness Laptops
p23
sVProcessor Type
p24
VIntel Core i5
p25
sVScreen Size
p26
V14 Inches
p27
sVManufacturer
p28
VHP
p29
ssS'title'
p30
VRefurbished HP EliteBook 8460p, Intel Core i5, 2.50GHz, 4GB RAM  320GB HDD,  Webcam, Win-7 x64
p31
sb.