ccopy_reg
_reconstructor
p0
(c__main__
ProductRecord
p1
c__builtin__
object
p2
Ntp3
Rp4
(dp5
S'product_url'
p6
S'http://www.walmart.com/ip/Refurbished-Lenovo-15-6-ThinkPad-T530-Laptop-PC-with-Intel-Core-i5-3320M-Processor-12GB-Memory-750GB-Hard-Drive-and-Windows-10-Pro/47935626'
p7
sS'price'
p8
V$339.99
p9
sS'properties'
p10
(dp11
VRAM Memory
p12
V12 GB
p13
sVOperating System
p14
VWindows 10
p15
sVColor
p16
VBlack
p17
sVVideo Game Platform
p18
VPC
p19
sVBrand
p20
VLenovo
p21
sVProcessor Type
p22
VIntel Core i5
p23
sVHard Drive Capacity
p24
V750 GB
p25
sVAssembled Product Dimensions (L x W x H)
p26
V14.60 x 1.20 x 9.60 Inches
p27
sVModel
p28
VT530
p29
sVScreen Size
p30
V15.6"
p31
sVProcessor Speed
p32
V2.60 GHz
p33
sVCondition
p34
VRefurbished
p35
ssS'title'
p36
VRefurbished Lenovo 15.6" ThinkPad T530 Laptop PC with Intel Core i5-3320M Processor, 12GB Memory, 750GB Hard Drive and Windows 10 Pro
p37
sb.