ccopy_reg
_reconstructor
p0
(c__main__
ProductRecord
p1
c__builtin__
object
p2
Ntp3
Rp4
(dp5
S'product_url'
p6
S'http://www.walmart.com/ip/Refurbished-Dell-Inspiron-i5559-3347SLV-15-6-Inch-Laptop-Intel-Core-i5-8-GB-RAM-1-TB-HDD-Silver-Matte/142555448'
p7
sS'price'
p8
V$389.00
p9
sS'properties'
p10
(dp11
VRAM Memory
p12
V8 GB
p13
sVOperating System
p14
VMicrosoft Windows
p15
sVLaptop Computer Type
p16
VPC Laptops
p17
sVBrand
p18
VDell
p19
sVHard Drive Capacity
p20
V1000
p21
sVmanufacturer_part_number
p22
Vi5559-3347slv
p23
ssS'title'
p24
VRefurbished Dell Inspiron i5559-3347SLV 15.6 Inch Laptop (Intel Core i5, 8 GB RAM, 1 TB HDD, Silver Matte)
p25
sb.