ccopy_reg
_reconstructor
p0
(c__main__
ProductRecord
p1
c__builtin__
object
p2
Ntp3
Rp4
(dp5
S'product_url'
p6
S'http://www.walmart.com/ip/Dell-Latitude-D630-Laptop-Win-7-Pro-Core-2-Duo-2-0GHZ-60GB-HD-2GB-RAM-Refurbished/228409964'
p7
sS'price'
p8
V$110.00
p9
sS'properties'
p10
(dp11
VRAM Memory
p12
V2.00 GB
p13
sVOperating System
p14
VMicrosoft Windows
p15
sVColor Category
p16
VBlack
p17
sVBrand
p18
VDell
p19
sVHard Drive Capacity
p20
V60.00 GB
p21
sVProcessor Type
p22
VIntel Core 2 Duo
p23
sVScreen Size
p24
V14.10 in
p25
sVManufacturer
p26
VDell
p27
ssS'title'
p28
VDell Latitude D630 Laptop Win 7 Pro Core 2 Duo 2.0GHZ 60GB HD 2GB RAM Refurbished
p29
sb.