ccopy_reg
_reconstructor
p0
(c__main__
ProductRecord
p1
c__builtin__
object
p2
Ntp3
Rp4
(dp5
S'product_url'
p6
S'http://www.walmart.com/ip/REFURBISHED-HP-6470B-Probook-14-I3-3110M-2-4GHZ-8GB-320GB-Windows-7-Professional-No-Webcam/937337784'
p7
sS'price'
p8
V$164.99
p9
sS'properties'
p10
(dp11
VRAM Memory
p12
V8 GB
p13
sVOperating System
p14
VMicrosoft Windows
p15
sVBrand
p16
VHP
p17
sVManufacturer Part Number
p18
VA1G24AV-8320
p19
sVHard Drive Capacity
p20
V320 GB
p21
sVModel
p22
V6470B
p23
sVScreen Size
p24
V14\u005c"
p25
sVCondition
p26
VRefurbished
p27
ssS'title'
p28
VREFURBISHED HP 6470B Probook 14" I3-3110M 2.4GHZ 8GB 320GB Windows 7 Professional No Webcam
p29
sb.