ccopy_reg
_reconstructor
p0
(c__main__
ProductRecord
p1
c__builtin__
object
p2
Ntp3
Rp4
(dp5
S'product_url'
p6
S'http://www.walmart.com/ip/Dell-Latitude-E6430-14-Windows-10-Laptop-Notebook-Intel-i7-3520M-PC-2-9-GHz-8GB-Ram-500GB-Hard-Drive-Wifi-and-Webcam-Refurbished-Laptop/620394512'
p7
sS'price'
p8
V$257.00
p9
sS'properties'
p10
(dp11
VHard Drive Capacity
p12
V500
p13
sVBrand
p14
VDell
p15
sVScreen Size
p16
V14
p17
sVModel
p18
VE6430
p19
sVManufacturer Part Number
p20
VE6430
p21
ssS'title'
p22
VDell Latitude E6430 14" Windows 10 Laptop Notebook Intel i7-3520M PC 2.9 GHz 8GB Ram 500GB Hard Drive Wifi and Webcam - Refurbished Laptop
p23
sb.