ccopy_reg
_reconstructor
p0
(c__main__
ProductRecord
p1
c__builtin__
object
p2
Ntp3
Rp4
(dp5
S'product_url'
p6
S'http://www.walmart.com/ip/Refurbished-HP-EliteBook-8460P-Laptop-i5-2520M-4GB-500GB-Win-7-Pro-1-Yr-Wty-A-v-BBW/804054723'
p7
sS'price'
p8
V$224.15
p9
sS'properties'
p10
(dp11
VRAM Memory
p12
V4 Gigabytes
p13
sVOperating System
p14
VWindows 7
p15
sVBrand
p16
VHP
p17
sVProcessor Speed
p18
V2.5 Gigahertz
p19
sVManufacturer Part Number
p20
V8460P
p21
sVHard Drive Capacity
p22
V500 Gigabytes
p23
sVAssembled Product Dimensions (L x W x H)
p24
V14.00 x 6.00 x 20.00 Inches
p25
sVModel
p26
V8460P
p27
sVScreen Size
p28
V14 Inches
p29
sVProcessor Type
p30
Vi5-2520M
p31
ssS'title'
p32
VRefurbished HP EliteBook 8460P Laptop  i5-2520M 4GB 500GB Win 7 Pro 1 Yr Wty A v.BBW
p33
sb.