ccopy_reg
_reconstructor
p0
(c__main__
ProductRecord
p1
c__builtin__
object
p2
Ntp3
Rp4
(dp5
S'product_url'
p6
S'http://www.walmart.com/ip/Refurbished-Lenovo-ThinkPad-T410-14-1-Notebook-Laptop-i5-520M-2-4GHz-8GB-RAM-120GB-SSD-DVD-RW-WiFi-Windows-7-Professional-64-bit/848947154'
p7
sS'price'
p8
V$249.99
p9
sS'properties'
p10
(dp11
VRAM Memory
p12
V8 GB
p13
sVOperating System
p14
VWindows 7
p15
sVBrand
p16
VLenovo
p17
sVManufacturer Part Number
p18
VT410
p19
sVModel
p20
VT410
p21
sVScreen Size
p22
V14.1\u005c"
p23
sVProcessor Type
p24
VIntel Core i5
p25
sVCondition
p26
VRefurbished
p27
ssS'title'
p28
VRefurbished Lenovo ThinkPad T410 14.1" Notebook Laptop i5-520M 2.4GHz 8GB RAM 120GB SSD DVD-RW WiFi Windows 7 Professional 64-bit
p29
sb.