ccopy_reg
_reconstructor
p0
(c__main__
ProductRecord
p1
c__builtin__
object
p2
Ntp3
Rp4
(dp5
S'product_url'
p6
S'http://www.walmart.com/ip/Refurbished-HP-EliteBook-725-G2-1-9GHz-AMD-A8-8GB-128SSD-Windows-10-Pro-64-Laptop-B-CAM/896871589'
p7
sS'price'
p8
V$200.00
p9
sS'properties'
p10
(dp11
VBrand
p12
VHP
p13
sVRAM Memory
p14
V8 GB
p15
sVOperating System
p16
VMicrosoft Windows
p17
sVModel
p18
VEliteBook 725 G2
p19
ssS'title'
p20
VRefurbished HP EliteBook 725 G2 1.9GHz AMD A8 8GB 128SSD Windows 10 Pro 64 Laptop B CAM
p21
sb.