ccopy_reg
_reconstructor
p0
(c__main__
ProductRecord
p1
c__builtin__
object
p2
Ntp3
Rp4
(dp5
S'product_url'
p6
S'http://www.walmart.com/ip/Lenovo-ThinkPad-X1-Tablet-12-Core-i7-7Y75-8-GB-RAM-256-GB-SSD/213300564'
p7
sS'price'
p8
S'N/A'
p9
sS'properties'
p10
(dp11
VOperating System
p12
VWindows 10 Pro (English)
p13
sVFeatures
p14
VX1 TABLET,WIN10P,I7,8GB,256SSD,3YR
p15
sVAccessories Included
p16
VThinkPad X1 Tablet 20JB002LUS 2 in 1 NotebookLithium Polymer BatteryAC Adapter Stylus
p17
sVColor
p18
VMidnight Black
p19
sVBrand
p20
VLenovo
p21
sVManufacturer Part Number
p22
V20JB002LUS
p23
sVBattery Life
p24
V0 h
p25
sVAssembled Product Dimensions (L x W x H)
p26
V5.00 x 5.00 x 5.00 Inches
p27
sVModel
p28
V20JB002LUS
p29
sVScreen Size
p30
V12 Inches
p31
ssS'title'
p32
VLenovo ThinkPad X1 Tablet - 12" - Core i7 7Y75 - 8 GB RAM - 256 GB SSD
p33
sb.