ccopy_reg
_reconstructor
p0
(c__main__
ProductRecord
p1
c__builtin__
object
p2
Ntp3
Rp4
(dp5
S'product_url'
p6
S'http://www.walmart.com/ip/Refurbished-Lenovo-80E301Y6US-G50-AMD-A8-Series-A8-6410-2-00-GHz-4-GB-Memory-1-TB-HDD-15-6-Windows-10-Home-Laptop/368639062'
p7
sS'price'
p8
V$279.00
p9
sS'properties'
p10
(dp11
VBrand
p12
VLenovo
p13
sVHard Drive Capacity
p14
V1000
p15
sVmanufacturer_part_number
p16
V80e301y6us
p17
ssS'title'
p18
VRefurbished Lenovo 80E301Y6US G50 AMD A8-Series A8-6410 2.00 GHz 4 GB Memory 1 TB HDD 15.6 Windows 10 Home Laptop
p19
sb.