ccopy_reg
_reconstructor
p0
(c__main__
ProductRecord
p1
c__builtin__
object
p2
Ntp3
Rp4
(dp5
S'product_url'
p6
S'http://www.walmart.com/ip/Refurbished-HP-Pavilion-Laptop-Computer-15-6-Screen-5th-Gen-Intel-Core-i3-Processor-8GB-500GB-Windows-10-15-ab157nr/189919427'
p7
sS'price'
p8
V$338.90
p9
sS'properties'
p10
(dp11
VBrand
p12
VHP
p13
sVHard Drive Capacity
p14
V500
p15
ssS'title'
p16
VRefurbished HP Pavilion Laptop Computer 15.6 Screen & 5th Gen Intel Core i3 Processor 8GB 500GB Windows 10, 15-ab157nr
p17
sb.