ccopy_reg
_reconstructor
p0
(c__main__
ProductRecord
p1
c__builtin__
object
p2
Ntp3
Rp4
(dp5
S'product_url'
p6
S'http://www.walmart.com/ip/Refurbished-Dell-Latitude-E6520-Intel-Core-i5-2-5GHz-2ND-GEN-2520M-4GB-Memory-128GB-SSD-DVDRW-15-6-Windows-7-Professional-64b/44869755'
p7
sS'price'
p8
V$294.15
p9
sS'properties'
p10
(dp11
VRAM Memory
p12
V4 GB
p13
sVOperating System
p14
VMicrosoft Windows, @generated
p15
sVBrand
p16
VDell
p17
sVManufacturer Part Number
p18
VRB-825633306509
p19
sVHard Drive Capacity
p20
V128 GB
p21
sVModel
p22
VRB-825633306509
p23
sVScreen Size
p24
V15.6 in
p25
sVCondition
p26
VRefurbished
p27
ssS'title'
p28
VRefurbished Dell Latitude E6520 Intel Core i5 2.5GHz 2ND GEN 2520M, 4GB Memory, 128GB SSD, DVDRW, 15.6", Windows 7 Professional 64b
p29
sb.