ccopy_reg
_reconstructor
p0
(c__main__
ProductRecord
p1
c__builtin__
object
p2
Ntp3
Rp4
(dp5
S'product_url'
p6
S'http://www.walmart.com/ip/Refurbished-Dell-Latitude-E6520-Intel-Core-i7-4GB-Memory-500GB-HDD-15-6-Notebook-Windows-7-Professional-64-bit-Off-Lease-RB-825/41538664'
p7
sS'price'
p8
V$334.32
p9
sS'properties'
p10
(dp11
VRAM Memory
p12
V4 GB
p13
sVOperating System
p14
VMicrosoft Windows
p15
sVBrand
p16
VDell
p17
sVManufacturer Part Number
p18
VRB-825633303935
p19
sVHard Drive Capacity
p20
V500 KB
p21
sVModel
p22
VRB-825633303935
p23
sVScreen Size
p24
V15.6 in
p25
sVCondition
p26
VRefurbished
p27
ssS'title'
p28
VRefurbished Dell Latitude E6520 Intel Core i7 4GB Memory 500GB HDD 15.6" Notebook Windows 7 Professional 64-bit (Off-Lease) - RB-825
p29
sb.