ccopy_reg
_reconstructor
p0
(c__main__
ProductRecord
p1
c__builtin__
object
p2
Ntp3
Rp4
(dp5
S'product_url'
p6
S'http://www.walmart.com/ip/Refrubished-Dell-Latitude-E6230-Laptop-HDMI-Webcam-Intel-Core-i5-2-6ghz-3rd-Gen-6GB-DDR3-128GB-SSD-Windows-10-Home-64bit-w-Restore-Partition/105857785'
p7
sS'price'
p8
V$255.99
p9
sS'properties'
p10
(dp11
VRAM Memory
p12
V6.00 Gigabytes
p13
sVOperating System
p14
VWindows 10 Home 64bit
p15
sVBrand
p16
VDell
p17
sVHard Drive Capacity
p18
V128.00 Gigabytes
p19
sVProcessor Type
p20
VIntel Core i5 3rd Gen.
p21
sVScreen Size
p22
V12.50 Inches
p23
sVProcessor Speed
p24
V2.60 Gigahertz
p25
ssS'title'
p26
VRefrubished Dell Latitude E6230 Laptop, HDMI, Webcam, Intel Core i5 2.6ghz 3rd Gen., 6GB DDR3, 128GB SSD, Windows 10 Home 64bit w/ Restore Partition
p27
sb.