ccopy_reg
_reconstructor
p0
(c__main__
ProductRecord
p1
c__builtin__
object
p2
Ntp3
Rp4
(dp5
S'product_url'
p6
S'http://www.walmart.com/ip/Refurbished-HP-Elitebook-8440p-Laptop-Notebook-Intel-Core-i5-2-4GHz-8GB-DDR3-250GB-SATA-HDD-DVDRW-Windows-10-Home-64bit-w-Restore-Partition/224205107'
p7
sS'price'
p8
V$229.98
p9
sS'properties'
p10
(dp11
VRAM Memory
p12
V8.00 Gigabytes
p13
sVOperating System
p14
VWindows 10 Home 64bit
p15
sVBrand
p16
VHP
p17
sVHard Drive Capacity
p18
V250.00 Gigabytes
p19
sVProcessor Type
p20
VIntel Core i5
p21
sVScreen Size
p22
V14.10 Inches
p23
sVProcessor Speed
p24
V2.40 Gigahertz
p25
ssS'title'
p26
VRefurbished HP Elitebook 8440p Laptop Notebook, Intel Core i5 2.4GHz, 8GB DDR3, 250GB SATA HDD, DVDRW, Windows 10 Home 64bit w/ Restore Partition
p27
sb.