ccopy_reg
_reconstructor
p0
(c__main__
ProductRecord
p1
c__builtin__
object
p2
Ntp3
Rp4
(dp5
S'product_url'
p6
S'http://www.walmart.com/ip/Refurbished-HP-EliteBook-8470p-14-Laptop-PC-Intel-Core-i7-2-90GHz-16GB-DDR3-2TB-HDD-Win-7-x64/120588999'
p7
sS'price'
p8
V$449.99
p9
sS'properties'
p10
(dp11
VRAM Memory
p12
V16 Gigabytes
p13
sVOperating System
p14
VWindows 7
p15
sVVideo Game Platform
p16
VPC
p17
sVBrand
p18
VHP
p19
sVHard Drive Capacity
p20
V2 Terabytes
p21
sVProcessor Type
p22
VIntel Core i7
p23
sVScreen Size
p24
V14 Inches
p25
sVProcessor Speed
p26
V2.9 Gigahertz
p27
ssS'title'
p28
VRefurbished HP EliteBook 8470p 14\u201d Laptop PC, Intel Core i7 2.90GHz, 16GB DDR3, 2TB HDD, Win-7 x64
p29
sb.