ccopy_reg
_reconstructor
p0
(c__main__
ProductRecord
p1
c__builtin__
object
p2
Ntp3
Rp4
(dp5
S'product_url'
p6
S'http://www.walmart.com/ip/Dell-Latitude-D620-Notebook-Core-2-Duo/452601349'
p7
sS'price'
p8
V$119.00
p9
sS'properties'
p10
(dp11
VRAM Memory
p12
V4.00 GB
p13
sVBrand
p14
VDell
p15
sVProcessor Speed
p16
V1.66 GHz
p17
sVHard Drive Capacity
p18
V80.00 GB
p19
sVModel
p20
VD620
p21
sVScreen Size
p22
V14.10 in
p23
sVProcessor Type
p24
VCore 2 Dou
p25
ssS'title'
p26
VDell Latitude D620 Notebook Core 2 Duo
p27
sb.