ccopy_reg
_reconstructor
p0
(c__main__
ProductRecord
p1
c__builtin__
object
p2
Ntp3
Rp4
(dp5
S'product_url'
p6
S'http://www.walmart.com/ip/Refurbished-Lenovo-ThinkPad-T510-Intel-Core-i5-4GB-Memory-250GB-HDD-15-4-Notebook-Windows-7-Professional-64-bit-Off-Lease-RB-LE/45082323'
p7
sS'price'
p8
V$238.00
p9
sS'properties'
p10
(dp11
VRAM Memory
p12
V4 GB
p13
sVOperating System
p14
VMicrosoft Windows
p15
sVBrand
p16
VLenovo
p17
sVManufacturer Part Number
p18
VRB-LENOVOLP00310009
p19
sVHard Drive Capacity
p20
V250 KB
p21
sVModel
p22
VRB-LENOVOLP00310009
p23
sVScreen Size
p24
V15.4 in
p25
sVCondition
p26
VRefurbished
p27
ssS'title'
p28
VRefurbished Lenovo ThinkPad T510 Intel Core i5 4GB Memory 250GB HDD 15.4" Notebook Windows 7 Professional 64-bit (Off-Lease) - RB-LE
p29
sb.