ccopy_reg
_reconstructor
p0
(c__main__
ProductRecord
p1
c__builtin__
object
p2
Ntp3
Rp4
(dp5
S'product_url'
p6
S'http://www.walmart.com/ip/Dell-Latitude-E6440-HD-14-Intel-Core-i5-4300M-2-6GHz-3-3GHz-8GB-Memory-500GB-Hard-Drive-AMD-Radeon-Webcam-Backlit-Keyboard-Bluetooth-Windows-7-Laptop/755926295'
p7
sS'price'
p8
V$439.99
p9
sS'properties'
p10
(dp11
sS'title'
p12
VDell Latitude E6440 HD 14" Intel Core i5 4300M (2.6GHz-3.3GHz) 8GB Memory 500GB Hard Drive AMD Radeon Webcam Backlit Keyboard Bluetooth Windows 7 Laptop (Manufacturer Refurbished)
p13
sb.