ccopy_reg
_reconstructor
p0
(c__main__
ProductRecord
p1
c__builtin__
object
p2
Ntp3
Rp4
(dp5
S'product_url'
p6
S'http://www.walmart.com/ip/Refurbished-HP-17-BS014CY-Laptop-17-BS014CY-Laptop/312180728'
p7
sS'price'
p8
V$481.95
p9
sS'properties'
p10
(dp11
VOperating System
p12
VMicrosoft Windows
p13
sVBrand
p14
VHP
p15
sVManufacturer Part Number
p16
V2KW13UAR#ABA
p17
sVHard Drive Capacity
p18
V2000 GB
p19
sVAssembled Product Dimensions (L x W x H)
p20
V13.40 x 22.20 x 2.60 Inches
p21
sVModel
p22
V2KW13UAR#ABA
p23
sVScreen Size
p24
V17.3\u005c"
p25
sVCondition
p26
VRefurbished
p27
ssS'title'
p28
VRefurbished "HP 17-BS014CY Laptop 17-BS014CY Laptop"
p29
sb.