ccopy_reg
_reconstructor
p0
(c__main__
ProductRecord
p1
c__builtin__
object
p2
Ntp3
Rp4
(dp5
S'product_url'
p6
S'http://www.walmart.com/ip/Refurbished-Lenovo-ThinkPad-T440p-2-8GHz-i7-16GB-512SSD-DRW-Windows-10-Pro-64-Laptop-B-Camera/555921126'
p7
sS'price'
p8
V$521.29
p9
sS'properties'
p10
(dp11
VBrand
p12
VLenovo
p13
sVRAM Memory
p14
V16 GB
p15
sVOperating System
p16
VMicrosoft Windows
p17
sVModel
p18
VThinkPad T440p
p19
ssS'title'
p20
VRefurbished Lenovo ThinkPad T440p 2.8GHz i7 16GB 512SSD DRW Windows 10 Pro 64 Laptop B Camera
p21
sb.