ccopy_reg
_reconstructor
p0
(c__main__
ProductRecord
p1
c__builtin__
object
p2
Ntp3
Rp4
(dp5
S'product_url'
p6
S'http://www.walmart.com/ip/Dell-Latitude-E6530-HD-15-6-Intel-Core-i5-3380M-2-9GHz-3-6GHz-8GB-Memory-500GB-Hard-Drive-HDMI-DVD-RW-Windows-7-Professional-Laptop-Refurbished/175813483'
p7
sS'price'
p8
V$364.52
p9
sS'properties'
p10
(dp11
VRAM Memory
p12
V8 GB
p13
sVOperating System
p14
VMicrosoft Windows
p15
sVVideo Game Platform
p16
VPC
p17
sVBrand
p18
VDell
p19
sVWireless Technology
p20
VWi-Fi
p21
sVHard Drive Capacity
p22
V500 GB
p23
sVLaptop Computer Type
p24
VPC Laptops
p25
sVProcessor Type
p26
VIntel Core i5
p27
sVScreen Size
p28
V15.6 in
p29
sVModel
p30
VE6530
p31
sVManufacturer
p32
VDell
p33
ssS'title'
p34
VDell Latitude E6530 HD 15.6" Intel Core i5 3380M (2.9GHz-3.6GHz) 8GB Memory 500GB Hard Drive HDMI DVD-RW Windows 7 Professional Laptop (Refurbished)
p35
sb.