ccopy_reg
_reconstructor
p0
(c__main__
ProductRecord
p1
c__builtin__
object
p2
Ntp3
Rp4
(dp5
S'product_url'
p6
S'http://www.walmart.com/ip/Refurbished-Dell-Latitude-E6420-Intel-Dual-Core-i5-2520M-2-5GHz-4GB-250GB-DVD-RW-14-Laptop/41127366'
p7
sS'price'
p8
V$199.99
p9
sS'properties'
p10
(dp11
VRAM Memory
p12
V4 GB
p13
sVOperating System
p14
VMicrosoft Windows
p15
sVColor Category
p16
VMulticolor
p17
sVLaptop Computer Type
p18
VPC Laptops
p19
sVBrand
p20
Vintel
p21
sVManufacturer Part Number
p22
VE6420
p23
sVHard Drive Capacity
p24
V320 GB
p25
sVProcessor Core Type
p26
VDual-core (2 Core)
p27
sVProcessor Type
p28
VIntel Core i5
p29
sVScreen Size
p30
V14"
p31
sVModel
p32
VE6420
p33
sVCondition
p34
VRefurbished
p35
sVManufacturer
p36
VDell
p37
ssS'title'
p38
VRefurbished Dell Latitude E6420 Intel Dual Core i5-2520M 2.5GHz 4GB 250GB DVD-RW 14" Laptop
p39
sb.