ccopy_reg
_reconstructor
p0
(c__main__
ProductRecord
p1
c__builtin__
object
p2
Ntp3
Rp4
(dp5
S'product_url'
p6
S'http://www.walmart.com/ip/Refurbished-Direkt-Tek-DTLAPC14-1-PK-14-32KB-Ultra-Slim-Laptop-Windows-10-Home-Rose-Gold/915945911'
p7
sS'price'
p8
V$108.85
p9
sS'properties'
p10
(dp11
VOperating System
p12
VMicrosoft Windows
p13
sVFeatures
p14
VNo features description available
p15
sVBrand
p16
VDirekt-Tek
p17
sVManufacturer Part Number
p18
VDTLAPC14-1-PK
p19
sVAssembled Product Dimensions (L x W x H)
p20
V11.55 x 1.89 x 8.45 Inches
p21
sVModel
p22
VVIPRB-DTLAPC14-1-PK
p23
sVScreen Size
p24
V14\u005c"
p25
sVCondition
p26
VRefurbished
p27
ssS'title'
p28
VRefurbished Direkt-Tek DTLAPC14-1-PK 14" 32KB Ultra Slim Laptop, Windows 10 Home, Rose Gold
p29
sb.