ccopy_reg
_reconstructor
p0
(c__main__
ProductRecord
p1
c__builtin__
object
p2
Ntp3
Rp4
(dp5
S'product_url'
p6
S'http://www.walmart.com/ip/Refurbished-Dell-M4700-Core-i7-3840QM-2-8GHz-16G-500SSD-DVDRW-15-6-Win10P64/56262925'
p7
sS'price'
p8
V$529.57
p9
sS'properties'
p10
(dp11
VAssembled Product Dimensions (L x W x H)
p12
V14.80 x 1.30 x 10.00 Inches
p13
sVBrand
p14
VPrecision Brand
p15
sVManufacturer Part Number
p16
VWA5-30873
p17
sVOperating System
p18
VMicrosoft Windows
p19
sVModel
p20
VM4700
p21
sVCondition
p22
VRefurbished
p23
ssS'title'
p24
VRefurbished Dell M4700 Core i7-3840QM 2.8GHz/16G/500SSD/DVDRW/15.6/Win10P64
p25
sb.