ccopy_reg
_reconstructor
p0
(c__main__
ProductRecord
p1
c__builtin__
object
p2
Ntp3
Rp4
(dp5
S'product_url'
p6
S'http://www.walmart.com/ip/Braun-8000CP-51S-Replacement-Foil-and-Cutter-Combo/132805119'
p7
sS'price'
p8
V$46.95
p9
sS'properties'
p10
(dp11
VGender
p12
VMale
p13
sVBrand
p14
VBraun
p15
sVmanufacturer_part_number
p16
V8000cp
p17
ssS'title'
p18
VBraun 8000CP / 51S Replacement Foil and Cutter Combo
p19
sb.