ccopy_reg
_reconstructor
p0
(c__main__
ProductRecord
p1
c__builtin__
object
p2
Ntp3
Rp4
(dp5
S'product_url'
p6
S'http://www.walmart.com/ip/Refurbished-Latitude-D630-14-1-Notebook-120GB-2GB-DVD-Windows-XP-Professional/174616891'
p7
sS'price'
p8
V$102.99
p9
sS'properties'
p10
(dp11
VOperating System
p12
VWindows XP Pro
p13
sVBrand
p14
VDell
p15
sVScreen Size
p16
V14.1
p17
sVManufacturer Part Number
p18
VDoes Not Apply
p19
sVProcessor Type
p20
VIntel Core 2 Duo
p21
ssS'title'
p22
VRefurbished Latitude D630 14.1" Notebook - 120GB, 2GB, DVD, Windows XP Professional
p23
sb.