ccopy_reg
_reconstructor
p0
(c__main__
ProductRecord
p1
c__builtin__
object
p2
Ntp3
Rp4
(dp5
S'product_url'
p6
S'http://www.walmart.com/ip/Dell-Alienware-Alpha-D07U-CPU-Heatsink-and-Fan-DP81V/473302242'
p7
sS'price'
p8
V$39.93
p9
sS'properties'
p10
(dp11
VBrand
p12
VAlienware
p13
sVCondition
p14
VNew
p15
sVmanufacturer_part_number
p16
Vd0t02us
p17
ssS'title'
p18
VDell Alienware Alpha D07U CPU Heatsink and Fan DP81V
p19
sb.