ccopy_reg
_reconstructor
p0
(c__main__
ProductRecord
p1
c__builtin__
object
p2
Ntp3
Rp4
(dp5
S'product_url'
p6
S'http://www.walmart.com/ip/Refurbished-Acer-Aspire-One-AO722-0825-11-6-Inch-Netbook-Black/435315982'
p7
sS'price'
p8
V$129.99
p9
sS'properties'
p10
(dp11
VLaptop Computer Type
p12
VPC Laptops
p13
sVBrand
p14
VDell
p15
sVOperating System
p16
VMicrosoft Windows
p17
ssS'title'
p18
VRefurbished Latitude D630 14.1" Notebook - 120GB, 2GB, DVD, Windows 7 Professional 64 Bit
p19
sb.