ccopy_reg
_reconstructor
p0
(c__main__
ProductRecord
p1
c__builtin__
object
p2
Ntp3
Rp4
(dp5
S'product_url'
p6
S'http://www.walmart.com/ip/Refurbished-HP-Elitebook-8440p-Laptop-Notebook-Intel-Core-i5-2-4GHz-8GB-DDR3-500GB-SATA-HDD-DVDRW-Windows-10-Home-64bit-w-Restore-Partition/481887780'
p7
sS'price'
p8
V$255.58
p9
sS'properties'
p10
(dp11
VRAM Memory
p12
V8.00 Gigabytes
p13
sVOperating System
p14
VWindows 10 Home 64bit
p15
sVColor Category
p16
VSilver
p17
sVLaptop Computer Type
p18
VPC Laptops
p19
sVBrand
p20
VHP
p21
sVManufacturer Part Number
p22
VNB-HP-ELITEBOOK_8440P-NB-i7-2.67-8-500-RW-N-10H-ANB-HP-ELITEBOOK_8440P-NB-i7-2.67-8-500-RW-N-10H-A
p23
sVWireless Technology
p24
V802_11_BGN
p25
sVHard Drive Capacity
p26
V500.00 Gigabytes
p27
sVProcessor Type
p28
VIntel Core i5
p29
sVScreen Size
p30
V14.10 Inches
p31
sVModel
p32
VEliteBook 8440p
p33
sVManufacturer
p34
VHP
p35
ssS'title'
p36
VRefurbished HP Elitebook 8440p Laptop Notebook, Intel Core i5 2.4GHz, 8GB DDR3, 500GB SATA HDD, DVDRW, Windows 10 Home 64bit w/ Restore Partition
p37
sb.