ccopy_reg
_reconstructor
p0
(c__main__
ProductRecord
p1
c__builtin__
object
p2
Ntp3
Rp4
(dp5
S'product_url'
p6
S'http://www.walmart.com/ip/Refurbished-Dell-XPS-13-9360-i5-7200U-8GB-256GB-PCIe-SSD-FHD-INFINITY-Windows-10-PROFESSIONAL-laptop-silver/656764913'
p7
sS'price'
p8
V$974.88
p9
sS'properties'
p10
(dp11
VRAM Memory
p12
V8 Gigabytes
p13
sVOperating System
p14
VWindows 10 Professional
p15
sVColor Category
p16
VSilver
p17
sVLaptop Computer Type
p18
VPC Laptops
p19
sVBrand
p20
VDell
p21
sVManufacturer Part Number
p22
V1481078127-RB
p23
sVWireless Technology
p24
VKiller N1535 Wireless-AC
p25
sVHard Drive Capacity
p26
V256 Gigabytes
p27
sVProcessor Type
p28
VIntel Core i5
p29
sVScreen Size
p30
V13.3 Inches
p31
sVCondition
p32
VRefurbished
p33
sVManufacturer
p34
VDell
p35
ssS'title'
p36
VRefurbished Dell XPS 13 9360 i5-7200U 8GB 256GB PCIe SSD FHD INFINITY Windows 10 PROFESSIONAL laptop silver
p37
sb.