ccopy_reg
_reconstructor
p0
(c__main__
ProductRecord
p1
c__builtin__
object
p2
Ntp3
Rp4
(dp5
S'product_url'
p6
S'http://www.walmart.com/ip/Apple-MacBook-Air-13-3-Inch-Laptop-MD760LL-A-Certified-Refurbished/445811423'
p7
sS'price'
p8
V$598.99
p9
sS'properties'
p10
(dp11
VColor
p12
VSilver
p13
sVBrand
p14
VApple
p15
sVManufacturer Part Number
p16
VMBA-MD760LLA-B2
p17
ssS'title'
p18
VApple MacBook Air 13.3 Inch Laptop MD760LL/A (Certified Refurbished)
p19
sb.