ccopy_reg
_reconstructor
p0
(c__main__
ProductRecord
p1
c__builtin__
object
p2
Ntp3
Rp4
(dp5
S'product_url'
p6
S'http://www.walmart.com/ip/HP-Chromebook-x360-11-G1-EE-11-6-Touchscreen-Chromebook-N3450-QuadCore-4GB-64GB/610626445'
p7
sS'price'
p8
S'N/A'
p9
sS'properties'
p10
(dp11
VRAM Memory
p12
V4 Gigabytes
p13
sVOperating System
p14
VChrome OS
p15
sVLaptop Computer Type
p16
V2-in-1s
p17
sVBrand
p18
VHP
p19
sVManufacturer Part Number
p20
V2QU86UT#ABA
p21
sVHard Drive Capacity
p22
V64 Gigabytes
p23
sVProcessor Core Type
p24
VQuad-core (4 Core)
p25
sVProcessor Type
p26
VIntel N3450
p27
sVScreen Size
p28
V11.60 Inches
p29
sVModel
p30
V2QU86UT#ABA
p31
sVManufacturer
p32
VHewlett Packard
p33
ssS'title'
p34
VHP Chromebook x360 11 G1 EE 11.6" Touchscreen Chromebook N3450 QuadCore 4GB 64GB
p35
sb.