ccopy_reg
_reconstructor
p0
(c__main__
ProductRecord
p1
c__builtin__
object
p2
Ntp3
Rp4
(dp5
S'product_url'
p6
S'http://www.walmart.com/ip/Refurbished-Lenovo-G505s-AMD-A10-5750M-Laptop-PC-3-5GHz-8G-1TB-DVDRW-WiFi-BT-15-6-Windows-8-1/510481417'
p7
sS'price'
p8
V$369.00
p9
sS'properties'
p10
(dp11
VBrand
p12
VLenovo
p13
sVHard Drive Capacity
p14
V1000
p15
ssS'title'
p16
VRefurbished Lenovo G505s AMD A10-5750M Laptop PC 3.5GHz 8G 1TB DVDRW WiFi BT 15.6 Windows 8.1
p17
sb.