ccopy_reg
_reconstructor
p0
(c__main__
ProductRecord
p1
c__builtin__
object
p2
Ntp3
Rp4
(dp5
S'product_url'
p6
S'http://www.walmart.com/ip/Refurbished-HP-NOTEBOOK-15-BA069NR-15-6-7th-Gen-AMD-A10-1TB-HDD-6GB-RAM-Windows-10/603322183'
p7
sS'price'
p8
V$332.09
p9
sS'properties'
p10
(dp11
VBrand
p12
VHP
p13
sVHard Drive Capacity
p14
V1000
p15
ssS'title'
p16
VRefurbished HP NOTEBOOK 15-BA069NR [15.6, 7th Gen. AMD A10, 1TB HDD, 6GB RAM, Windows 10]
p17
sb.