ccopy_reg
_reconstructor
p0
(c__main__
ProductRecord
p1
c__builtin__
object
p2
Ntp3
Rp4
(dp5
S'product_url'
p6
S'http://www.walmart.com/ip/Certified-Refurbished-Apple-Macbook-Pro-15-i7-2-0-500GB-4GB-MC721LL-A-90-Day-Warranty/162511543'
p7
sS'price'
p8
V$579.53
p9
sS'properties'
p10
(dp11
VModel
p12
VMC721LL/A
p13
sVRAM Memory
p14
V4 GB
p15
sVOperating System
p16
VOS x 10.6 Snow Leopard
p17
sVBrand
p18
VApple
p19
sVColor
p20
VSilver
p21
sVScreen Size
p22
V15 in
p23
sVDisplay Technology
p24
VLED-backlit display
p25
sVGraphics Information
p26
VIntel HD Graphics 3000 graphics
p27
sVHard Drive Capacity
p28
V500 GB
p29
sVBattery Life
p30
V7 h
p31
sVProcessor Type
p32
VIntel Core i7
p33
sVResolution
p34
V1440 x 900
p35
sVProcessor Speed
p36
V2 GHz
p37
ssS'title'
p38
VCertified Refurbished - Apple Macbook Pro 15" i7 [2.0] [500GB] [4GB] MC721LL/A - 90 Day Warranty
p39
sb.