ccopy_reg
_reconstructor
p0
(c__main__
ProductRecord
p1
c__builtin__
object
p2
Ntp3
Rp4
(dp5
S'product_url'
p6
S'http://www.walmart.com/ip/Dell-Latitude-E6400-Core-2-Duo-2-2Ghz-4GB-160GB-Combo-Windows-7-Home-Refurbished-laptop/171101757'
p7
sS'price'
p8
V$159.99
p9
sS'properties'
p10
(dp11
VRAM Memory
p12
V4 Gigabytes
p13
sVOperating System
p14
VWin 7 Home
p15
sVLaptop Computer Type
p16
VPC Laptops
p17
sVBrand
p18
VDell
p19
sVHard Drive Capacity
p20
V160
p21
sVProcessor Type
p22
V2.2Ghz
p23
sVManufacturer
p24
VDell
p25
ssS'title'
p26
VDell Latitude E6400 Core 2 Duo 2.2Ghz 4GB 160GB Combo Windows 7 Home Refurbished laptop
p27
sb.