ccopy_reg
_reconstructor
p0
(c__main__
ProductRecord
p1
c__builtin__
object
p2
Ntp3
Rp4
(dp5
S'product_url'
p6
S'http://www.walmart.com/ip/Refurbished-HP-Notebook-15-ay061-15-6-Intel-Pentium-Processor-8-GB-RAM-500-GB-HD-Windows-10-Home-Notebook/186361966'
p7
sS'price'
p8
V$248.99
p9
sS'properties'
p10
(dp11
VBrand
p12
VHP
p13
sVHard Drive Capacity
p14
V500
p15
ssS'title'
p16
VRefurbished HP Notebook 15-ay061, 15.6, Intel Pentium Processor, 8 GB RAM, 500 GB HD, Windows 10 Home Notebook
p17
sb.