ccopy_reg
_reconstructor
p0
(c__main__
ProductRecord
p1
c__builtin__
object
p2
Ntp3
Rp4
(dp5
S'product_url'
p6
S'http://www.walmart.com/ip/Panasonic-Toughbook-CF-19-Refurbished-I5-160GB-HDD-4GB-Ram-Windows-7-Pro/505276561'
p7
sS'price'
p8
V$299.99
p9
sS'properties'
p10
(dp11
VRAM Memory
p12
V4 GB
p13
sVOperating System
p14
VMicrosoft Windows
p15
sVBrand
p16
VPanasonic
p17
sVManufacturer Part Number
p18
V9SIA9UW3ZZ7664
p19
sVHard Drive Capacity
p20
V160 GB
p21
sVCondition
p22
VRefurbished
p23
ssS'title'
p24
VPanasonic Toughbook CF-19  (Refurbished) I5, 160GB HDD, 4GB Ram, Windows 7 Pro
p25
sb.