ccopy_reg
_reconstructor
p0
(c__main__
ProductRecord
p1
c__builtin__
object
p2
Ntp3
Rp4
(dp5
S'product_url'
p6
S'http://www.walmart.com/ip/REFURBISHED-HP-Compaq-Business-Notebook-NC6000-14-1-TFT-DD522AV/394019144'
p7
sS'price'
p8
V$149.95
p9
sS'properties'
p10
(dp11
VLaptop Computer Type
p12
VPC Laptops
p13
sVBrand
p14
VHP
p15
sVScreen Size
p16
V14.1
p17
sVOperating System
p18
VMicrosoft Windows
p19
sVCondition
p20
VRefurbished
p21
ssS'title'
p22
VREFURBISHED - HP Compaq Business Notebook NC6000 - 14.1" TFT ( DD522AV )
p23
sb.