ccopy_reg
_reconstructor
p0
(c__main__
ProductRecord
p1
c__builtin__
object
p2
Ntp3
Rp4
(dp5
S'product_url'
p6
S'http://www.walmart.com/ip/Refurbished-Dell-Inspiron-i3552-4042BLK-15-6-Inch-Laptop-Intel-Celeron-4-GB-RAM-500-GB-HDD-Black/177992699'
p7
sS'price'
p8
V$229.00
p9
sS'properties'
p10
(dp11
VBrand
p12
VDell
p13
sVRAM Memory
p14
V4 GB
p15
sVOperating System
p16
VMicrosoft Windows
p17
sVHard Drive Capacity
p18
V500, GB
p19
sVmanufacturer_part_number
p20
Vi3552-4042blk
p21
ssS'title'
p22
VRefurbished Dell Inspiron i3552-4042BLK 15.6 Inch Laptop (Intel Celeron, 4 GB RAM, 500 GB HDD, Black)
p23
sb.