ccopy_reg
_reconstructor
p0
(c__main__
ProductRecord
p1
c__builtin__
object
p2
Ntp3
Rp4
(dp5
S'product_url'
p6
S'http://www.walmart.com/ip/Refurbished-HP-ProBook-645-G1-14-LED-Notebook-AMD-A-Series-A8-5550M-2-1GHz/660391932'
p7
sS'price'
p8
V$349.00
p9
sS'properties'
p10
(dp11
VOperating System
p12
VMicrosoft Windows
p13
sVBrand
p14
VHP
p15
sVScreen Size
p16
V\u005c\u005c", 14
p17
sVCondition
p18
VRefurbished
p19
ssS'title'
p20
VRefurbished HP ProBook 645 G1 14 LED Notebook - AMD - A-Series A8-5550M 2.1GHz
p21
sb.