ccopy_reg
_reconstructor
p0
(c__main__
ProductRecord
p1
c__builtin__
object
p2
Ntp3
Rp4
(dp5
S'product_url'
p6
S'http://www.walmart.com/ip/Refurbished-Lenovo-ThinkPad-T420s-Laptop-PC-Intel-Core-i5-2-6GHz-8GB-DDR3-128GB-SSD-Win-7-Pro/612770329'
p7
sS'price'
p8
V$299.99
p9
sS'properties'
p10
(dp11
VRAM Memory
p12
V8 Gigabytes
p13
sVOperating System
p14
VWindows 7
p15
sVVideo Game Platform
p16
VPC
p17
sVBrand
p18
VLenovo
p19
sVHard Drive Capacity
p20
V128 Gigabytes
p21
sVProcessor Type
p22
VIntel Core i5
p23
sVScreen Size
p24
V14 Inches
p25
sVProcessor Speed
p26
V2.6 Gigahertz
p27
ssS'title'
p28
VRefurbished Lenovo ThinkPad T420s Laptop PC, Intel Core i5 2.6GHz, 8GB DDR3, 128GB SSD, Win-7 Pro
p29
sb.