ccopy_reg
_reconstructor
p0
(c__main__
ProductRecord
p1
c__builtin__
object
p2
Ntp3
Rp4
(dp5
S'product_url'
p6
S'http://www.walmart.com/ip/Refurbished-ASUS-15-6-X553SA-WS01-RD-Laptop-PC-with-Intel-Celeron-N3050-Processor-4GB-Memory-500GB-Hard-Drive-and-Windows-10/106183470'
p7
sS'price'
p8
V$198.90
p9
sS'properties'
p10
(dp11
VLaptop Computer Type
p12
VPC Laptops
p13
sVHard Drive Capacity
p14
V500
p15
sVRAM Memory
p16
V4 GB
p17
sVOperating System
p18
VMicrosoft Windows
p19
sVBrand
p20
VASUS
p21
ssS'title'
p22
VRefurbished ASUS 15.6 X553SA-WS01-RD Laptop PC with Intel Celeron N3050 Processor, 4GB Memory, 500GB Hard Drive and Windows 10
p23
sb.