ccopy_reg
_reconstructor
p0
(c__main__
ProductRecord
p1
c__builtin__
object
p2
Ntp3
Rp4
(dp5
S'product_url'
p6
S'http://www.walmart.com/ip/Refurbished-EliteBook-8560w-Intel-Core-i5-2540m-2-6GHz-4GB-320GB-15-6in-W7HP/186725134'
p7
sS'price'
p8
V$238.99
p9
sS'properties'
p10
(dp11
VBrand
p12
VHP
p13
sVHard Drive Capacity
p14
V320
p15
ssS'title'
p16
VRefurbished EliteBook 8560w Intel Core i5-2540m 2.6GHz 4GB 320GB 15.6in W7HP
p17
sb.