ccopy_reg
_reconstructor
p0
(c__main__
ProductRecord
p1
c__builtin__
object
p2
Ntp3
Rp4
(dp5
S'product_url'
p6
S'http://www.walmart.com/ip/Refurbished-K53E-1BSX-Core-i5-Laptop-PC-2-5GHz-4GB-5/121535985'
p7
sS'price'
p8
V$331.50
p9
sS'properties'
p10
(dp11
VBrand
p12
VASUS
p13
sVmanufacturer_part_number
p14
Vk53e-1bsx
p15
ssS'title'
p16
VRefurbished K53E-1BSX Core i5 Laptop PC 2.5GHz 4GB 5
p17
sb.