ccopy_reg
_reconstructor
p0
(c__main__
ProductRecord
p1
c__builtin__
object
p2
Ntp3
Rp4
(dp5
S'product_url'
p6
S'http://www.walmart.com/ip/Refurbished-Acer-10-1-Aspire-Laptop-Computer-with-Intel-Atom-Z3735-Black-SW3-013-10/542910407'
p7
sS'price'
p8
V$203.57
p9
sS'properties'
p10
(dp11
VBrand
p12
VLaptop
p13
ssS'title'
p14
VRefurbished Acer 10.1 Aspire Laptop Computer with Intel Atom Z3735 - Black (SW3-013-10)
p15
sb.