ccopy_reg
_reconstructor
p0
(c__main__
ProductRecord
p1
c__builtin__
object
p2
Ntp3
Rp4
(dp5
S'product_url'
p6
S'http://www.walmart.com/ip/Manufacturer-Refurbished-HP-14-ac159nr-14-Laptop-Intel-Celeron-N3050-1-6GHz-2GB-32GB-eMMC-Windows-10/137599434'
p7
sS'price'
p8
V$154.99
p9
sS'properties'
p10
(dp11
VBrand
p12
VHP
p13
sVModel
p14
V14-ac159nr-RF
p15
sVManufacturer Part Number
p16
V14-ac159nr-RF
p17
ssS'title'
p18
VManufacturer Refurbished - HP 14-ac159nr 14" Laptop Intel Celeron N3050 1.6GHz 2GB 32GB eMMC Windows 10
p19
sb.