ccopy_reg
_reconstructor
p0
(c__main__
ProductRecord
p1
c__builtin__
object
p2
Ntp3
Rp4
(dp5
S'product_url'
p6
S'http://www.walmart.com/ip/Refurbished-HP-800-G1-TWR-i5-Processor-8GB-500GB-Windows-10-Pro-Wi-Fi/135391427'
p7
sS'price'
p8
V$286.67
p9
sS'properties'
p10
(dp11
VRAM Memory
p12
V8 GB
p13
sVOperating System
p14
VWindows 10
p15
sVFeatures
p16
VComes with new wired keyboard and mouse
p17
sVBrand
p18
VHP
p19
sVProcessor Speed
p20
V3.2 GHz
p21
sVManufacturer Part Number
p22
V0062805557849
p23
sVMaximum RAM Supported
p24
V16 KB
p25
sVHard Drive Capacity
p26
V500 GB
p27
sVAssembled Product Dimensions (L x W x H)
p28
V21.00 x 21.00 x 12.00 Inches
p29
sVModel
p30
V0062805557849
p31
sVProcessor Type
p32
VIntel Core i5
p33
sVCondition
p34
VRefurbished
p35
ssS'title'
p36
VRefurbished HP 800 G1 TWR, i5 Processor, 8GB, 500GB, Windows 10 Pro, Wi-Fi
p37
sb.