ccopy_reg
_reconstructor
p0
(c__main__
ProductRecord
p1
c__builtin__
object
p2
Ntp3
Rp4
(dp5
S'product_url'
p6
S'http://www.walmart.com/ip/Dell-Inspiron-15-5566-Intel-Core-i7-7500U-X2-2-7GHz-8GB-512GB-SSD-15-6-Black-Scratch-And-Dent-Refurbished/346186366'
p7
sS'price'
p8
V$580.80
p9
sS'properties'
p10
(dp11
VRAM Memory
p12
V8 Gigabytes
p13
sVOperating System
p14
VMicrosoft Windows 10Professional
p15
sVFeatures
p16
V10/100 Ethernet, 802.11BGN and Bluetooth 4.0 + HS, 512GBSSDSSD, SuperMulti-DVD Burner, 4-cellLithium-Ion Battery, 2 x USB 3.0, 1 x USB 2.0, 1 x HDMI, 0.94" x 14.9" x 10.25" (HxWxD);5.2lbs, 1MP Webcam and Integrated Microphone, Microsoft Windows 10Professional Operating System, Intel Core i7-7500U Processor (Dual-Core, 2.7GHz, 4MB Cache), IntegratedIntel HD Graphics, 8GBDDR4 System Memory, Energy Star Compliant, 15.6-inch(1366 x 768)LED Display, Full Size (10 Key) Keyboard and Multi-touch Trackpad
p17
sVBrand
p18
VDell
p19
sVManufacturer Part Number
p20
V1500308688-RFB
p21
sVMaximum RAM Supported
p22
V8 Gigabytes
p23
sVHard Drive Capacity
p24
V512 Gigabytes
p25
sVBattery Life
p26
V6 Hours
p27
sVAssembled Product Dimensions (L x W x H)
p28
V14.90 x 10.30 x 0.90 Inches
p29
sVProcessor Type
p30
VIntel Core i7-7500U
p31
sVScreen Size
p32
V15.6 Inches
p33
sVProcessor Speed
p34
V2.7 Gigahertz
p35
ssS'title'
p36
VDell Inspiron 15-5566 Intel Core i7-7500U X2 2.7GHz 8GB 512GB SSD 15.6",Black (Scratch And Dent Refurbished)
p37
sb.