ccopy_reg
_reconstructor
p0
(c__main__
ProductRecord
p1
c__builtin__
object
p2
Ntp3
Rp4
(dp5
S'product_url'
p6
S'http://www.walmart.com/ip/Refurbished-Acer-Laptop-15-6-Intel-Core-i5-3-40GHz-8GB-Ram-256GB-SSD-Windows-10/386228415'
p7
sS'price'
p8
V$487.19
p9
sS'properties'
p10
(dp11
VRAM Memory
p12
V8 GB
p13
sVOperating System
p14
VWindows 10
p15
sVBrand
p16
VAcer
p17
sVProcessor Speed
p18
V1.60 GHz
p19
sVManufacturer Part Number
p20
VNX.GTPAA.002
p21
sVHard Drive Capacity
p22
V256 GB
p23
sVModel
p24
VA515-51-596K
p25
sVScreen Size
p26
V15.6 in
p27
sVProcessor Type
p28
VIntel Core i5
p29
sVCondition
p30
VRefurbished
p31
ssS'title'
p32
VRefurbished Acer Laptop 15.6" Intel Core i5 3.40GHz 8GB Ram 256GB SSD Windows 10
p33
sb.