ccopy_reg
_reconstructor
p0
(c__main__
ProductRecord
p1
c__builtin__
object
p2
Ntp3
Rp4
(dp5
S'product_url'
p6
S'http://www.walmart.com/ip/HP-Pavilion-x360-15-2-in-1-Touch-Laptop-Core-i5-7200U-8GB-RAM-1TB-HDD-15-6-Full-HD/129412691'
p7
sS'price'
p8
S'N/A'
p9
sS'properties'
p10
(dp11
VRAM Memory
p12
V8 Gigabytes
p13
sVOperating System
p14
VMicrosoft Windows 10
p15
sVBrand
p16
VHP
p17
sVProcessor Speed
p18
V2.5 Gigahertz
p19
sVMaximum RAM Supported
p20
V8 Gigabytes
p21
sVHard Drive Capacity
p22
V1 Terabytes
p23
sVBattery Life
p24
V8 Hours
p25
sVAssembled Product Dimensions (L x W x H)
p26
V1.00 x 1.00 x 1.00 Inches
p27
sVModel
p28
Vpavilion x360
p29
sVScreen Size
p30
V15.6 Inches
p31
sVProcessor Type
p32
VThe 7th Gen Intel Dual-Core i5 delivers the most responsive performance to date with features like built-in security and 4K resolution support.
p33
ssS'title'
p34
VHP Pavilion x360 15 2 in 1 Touch Laptop: Core i5-7200U, 8GB RAM, 1TB HDD, 15.6" Full HD
p35
sb.