ccopy_reg
_reconstructor
p0
(c__main__
ProductRecord
p1
c__builtin__
object
p2
Ntp3
Rp4
(dp5
S'product_url'
p6
S'http://www.walmart.com/ip/Refurbished-HP-Elitebook-2760P-121-WXGA-TS-HYD-LCD-649753-001/895475294'
p7
sS'price'
p8
V$239.92
p9
sS'properties'
p10
(dp11
VBattery Life
p12
V8.50 Hour
p13
sVtype
p14
VYes, Shared
p15
sVProcessor Speed
p16
V2.10 GHz
p17
sVAssembled Product Weight
p18
V3.08 lb
p19
sVBattery Capacity
p20
V4000 mAh
p21
sVDisplay Resolution
p22
V1366 x 768
p23
sVRAM Memory
p24
V8 GB
p25
sVOperating System
p26
VMicrosoft Windows
p27
sVForm
p28
VConvertible
p29
sVBrand
p30
VHP
p31
sVMaterial
p32
VRugged
p33
sVManufacturer Part Number
p34
VD3K50UT
p35
sVAspect Ratio
p36
V16:9
p37
sVBacklight Type
p38
VLED
p39
sVScreen Size
p40
V11.6"
p41
sVWatts
p42
V45 Watts
p43
sVContained Battery Type
p44
VLithium Polymer (Li-Polymer)
p45
sVMaximum RAM Supported
p46
V12 GB
p47
sVInterface Type
p48
VGigabit Ethernet
p49
sVModel
p50
VHD 4000, 810 G1, QM77 Express
p51
sVAccessories Included
p52
VEliteBook Revolve 810 G1 2 in 1 NetbookLithium Polymer BatteryAC AdapterPower CordGenuine Windows 8 Pro License Media
p53
sVVolts
p54
V110 V AC, 220 V AC
p55
sVMicrophone Included
p56
VY
p57
sVCompatible Devices
p58
VmicroSD
p59
sVHas Bluetooth
p60
VY
p61
sVSeries
p62
V810 G1
p63
sVProcessor Type
p64
VIntel Core i7
p65
sVDisplay Technology
p66
VLCD
p67
ssS'title'
p68
VRefurbished HP Elitebook 2760P 121 WXGA TS HYD LCD 649753-001
p69
sb.