ccopy_reg
_reconstructor
p0
(c__main__
ProductRecord
p1
c__builtin__
object
p2
Ntp3
Rp4
(dp5
S'product_url'
p6
S'http://www.walmart.com/ip/Refurbished-Dell-Latitude-E5520-Laptop-i5-2-5G-4G-320G-15-6-HD-w-DVDRW-Windows-7-Pro-Refurbished/562740054'
p7
sS'price'
p8
V$288.24
p9
sS'properties'
p10
(dp11
VOperating System
p12
VMicrosoft Windows
p13
sVBrand
p14
VDell
p15
sVScreen Size
p16
V15.6 in
p17
sVCondition
p18
VRefurbished
p19
ssS'title'
p20
VRefurbished Dell Latitude E5520 Laptop i5 2.5G 4G 320G 15.6" HD w/ DVDRW Windows 7 Pro (Refurbished)
p21
sb.