ccopy_reg
_reconstructor
p0
(c__main__
ProductRecord
p1
c__builtin__
object
p2
Ntp3
Rp4
(dp5
S'product_url'
p6
S'http://www.walmart.com/ip/Refurbished-Lenovo-Black-ThinkPad-T400-14-1-PC-Laptop-Intel-Core-2-Duo-2-0GHz-4GB-RAM-160GB-HDD-Intel-Graphics-4500MHD-1280-x-800-Display-Windows-10-/177958193'
p7
sS'price'
p8
V$146.15
p9
sS'properties'
p10
(dp11
VRAM Memory
p12
V4 Gigabytes
p13
sVOperating System
p14
VWindows 10
p15
sVBrand
p16
VLenovo
p17
sVProcessor Speed
p18
V2 Gigahertz
p19
sVManufacturer Part Number
p20
VT400
p21
sVHard Drive Capacity
p22
V160 Gigabytes
p23
sVModel
p24
VT400
p25
sVScreen Size
p26
V14.1 Inches
p27
sVProcessor Type
p28
VIntel Core 2 Duo
p29
ssS'title'
p30
VRefurbished Lenovo Black ThinkPad T400 14.1'' PC Laptop Intel Core 2 Duo 2.0GHz 4GB RAM 160GB HDD Intel Graphics 4500MHD 1280 x 800 Display Windows 10 Home 64-Bit
p31
sb.