ccopy_reg
_reconstructor
p0
(c__main__
ProductRecord
p1
c__builtin__
object
p2
Ntp3
Rp4
(dp5
S'product_url'
p6
S'http://www.walmart.com/ip/Refurbished-Dell-Latitude-E6430-Laptop-Core-i7-3520M-2-9GHz-8GB-RAM-750GB-HDD-14-High-Definition-with-Nvidia-5200M-1G-Webcam-Windows-7-Refurbished/307283421'
p7
sS'price'
p8
V$394.95
p9
sS'properties'
p10
(dp11
VRAM Memory
p12
V8 GB
p13
sVOperating System
p14
VMicrosoft Windows
p15
sVBrand
p16
VDell
p17
sVHard Drive Capacity
p18
V750 GB
p19
sVScreen Size
p20
V14\u005c"
p21
sVCondition
p22
VRefurbished
p23
ssS'title'
p24
VRefurbished Dell Latitude E6430 Laptop Core i7 3520M 2.9GHz 8GB RAM 750GB HDD 14" High Definition with Nvidia 5200M 1G Webcam Windows 7 (Refurbished)
p25
sb.