ccopy_reg
_reconstructor
p0
(c__main__
ProductRecord
p1
c__builtin__
object
p2
Ntp3
Rp4
(dp5
S'product_url'
p6
S'http://www.walmart.com/ip/Refurbished-Lenovo-IdeaPad-320-17IKB-80XM-17-3-Notebook-Core-i5-7200U-2-5-GHz-8-GB-RAM-1-TB-HDD-Platinum-Gray/643765478'
p7
sS'price'
p8
V$349.00
p9
sS'properties'
p10
(dp11
VBrand
p12
VLenovo
p13
sVRAM Memory
p14
V8 GB
p15
sVOperating System
p16
VMicrosoft Windows
p17
sVHard Drive Capacity
p18
V1000 GB
p19
sVCondition
p20
VRefurbished
p21
ssS'title'
p22
VRefurbished Lenovo IdeaPad 320-17IKB 80XM 17.3 Notebook - Core i5 7200U 2.5 GHz - 8 GB RAM - 1 TB HDD - Platinum Gray
p23
sb.