ccopy_reg
_reconstructor
p0
(c__main__
ProductRecord
p1
c__builtin__
object
p2
Ntp3
Rp4
(dp5
S'product_url'
p6
S'http://www.walmart.com/ip/Refurbished-Acer-15-6-Intel-Core-Pentium-1-1GHz-4GB-Ram-32GB-Flash-Chrome-OS-CB515-1HT-P39B/336233346'
p7
sS'price'
p8
V$292.94
p9
sS'properties'
p10
(dp11
VRAM Memory
p12
V4 GB
p13
sVOperating System
p14
VChrome OS
p15
sVBrand
p16
VAcer
p17
sVProcessor Speed
p18
V1.10 GHz
p19
sVManufacturer Part Number
p20
VNX.GPTAA.002
p21
sVHard Drive Capacity
p22
V32 GB
p23
sVModel
p24
VCB515-1HT-P39B
p25
sVScreen Size
p26
V15.6 in
p27
sVProcessor Type
p28
VIntel Pentium
p29
sVCondition
p30
VRefurbished
p31
ssS'title'
p32
VRefurbished Acer 15.6" Intel Core Pentium 1.1GHz 4GB Ram 32GB Flash Chrome OS|CB515-1HT-P39B
p33
sb.