ccopy_reg
_reconstructor
p0
(c__main__
ProductRecord
p1
c__builtin__
object
p2
Ntp3
Rp4
(dp5
S'product_url'
p6
S'http://www.walmart.com/ip/Refurbished-Dell-Inspiron-i15RV-10953BLK-15-6-Intel-Core-i3-6GB-1TB/285023014'
p7
sS'price'
p8
V$329.00
p9
sS'properties'
p10
(dp11
VBrand
p12
VDell
p13
sVHard Drive Capacity
p14
V1000
p15
sVCondition
p16
VRefurbished
p17
sVmanufacturer_part_number
p18
Vi15rv-10953blk
p19
ssS'title'
p20
VRefurbished Dell Inspiron i15RV-10953BLK 15.6, Intel Core i3, 6GB, 1TB
p21
sb.