ccopy_reg
_reconstructor
p0
(c__main__
ProductRecord
p1
c__builtin__
object
p2
Ntp3
Rp4
(dp5
S'product_url'
p6
S'http://www.walmart.com/ip/HP-Refurbished-Butterfly-Blossom-Linen-White-14-0-Pavilion-g4-2169se-Laptop-PC-Intel-Core-i5-2450M-Processor-4GB-Memory-640GB-Hard-Drive-Windows-7-Ho/36977706'
p7
sS'price'
p8
V$350.31
p9
sS'properties'
p10
(dp11
VRAM Memory
p12
V4 GB
p13
sVOperating System
p14
VWindows 7
p15
sVFeatures
p16
VEPEAT
p17
sVVideo Game Platform
p18
VPC
p19
sVBrand
p20
VHP
p21
sVProcessor Speed
p22
V2.50 GHz
p23
sVManufacturer Part Number
p24
VRBg4-2169se
p25
sVMaximum RAM Supported
p26
V8 GB
p27
sVHard Drive Capacity
p28
V640 GB
p29
sVBattery Life
p30
V5 hours 30 minutes
p31
sVAssembled Product Dimensions (L x W x H)
p32
V18.90 x 3.10 x 13.60 Inches
p33
sVModel
p34
VRBg4-2169se
p35
sVScreen Size
p36
V14.0"
p37
sVProcessor Type
p38
VIntel Core i5
p39
sVCondition
p40
VRefurbished
p41
ssS'title'
p42
VHP Refurbished Butterfly Blossom in Linen White 14.0" Pavilion g4-2169se Laptop PC with Intel Core i5-2450M Processor, 4GB Memory, 640GB Hard Drive and Windows 7 Home Premium
p43
sb.