ccopy_reg
_reconstructor
p0
(c__main__
ProductRecord
p1
c__builtin__
object
p2
Ntp3
Rp4
(dp5
S'product_url'
p6
S'http://www.walmart.com/ip/Lenovo-ThinkPad-P51-20HH0012US-15-6-LCD-Mobile-Workstation-Refurbished/426763054'
p7
sS'price'
p8
V$1,804.97
p9
sS'properties'
p10
(dp11
VRAM Memory
p12
V8 GB
p13
sVOperating System
p14
VWindows 10 Professional 64-bit Edition
p15
sVBrand
p16
VLenovo
p17
sVProcessor Speed
p18
V2.9 GHz
p19
sVHard Drive Capacity
p20
V1024 GB
p21
sVModel
p22
V20HH0012US
p23
sVScreen Size
p24
V15.6 in
p25
sVProcessor Type
p26
VIntel Core i7
p27
sVCondition
p28
VRefurbished
p29
sVmanufacturer_part_number
p30
V20hh0012us
p31
ssS'title'
p32
VLenovo ThinkPad P51 20HH0012US 15.6" LCD Mobile Workstation - (Refurbished)
p33
sb.