ccopy_reg
_reconstructor
p0
(c__main__
ProductRecord
p1
c__builtin__
object
p2
Ntp3
Rp4
(dp5
S'product_url'
p6
S'http://www.walmart.com/ip/Refurbished-Asus-15-6-Laptop-i3-1-8GHz-6GB-500GB-Windows-8-X550CA-RI3T13/171664234'
p7
sS'price'
p8
V$331.50
p9
sS'properties'
p10
(dp11
VBrand
p12
VASUS
p13
ssS'title'
p14
VRefurbished Asus 15.6 Laptop i3 1.8GHz 6GB 500GB Windows 8 (X550CA-RI3T13)
p15
sb.