ccopy_reg
_reconstructor
p0
(c__main__
ProductRecord
p1
c__builtin__
object
p2
Ntp3
Rp4
(dp5
S'product_url'
p6
S'http://www.walmart.com/ip/HP-ProBook-640-G1-14-Notebook-with-Core-i5-4300M-2-60GHz-Dual-Core-Processor-4GB-Memory-128GB-SSD-and-Windows-10-Professional-Refurbished/937376157'
p7
sS'price'
p8
V$279.99
p9
sS'properties'
p10
(dp11
VRAM Memory
p12
V4.00 GB
p13
sVOperating System
p14
VWindows 10 Professional, Windows 10
p15
sVBrand
p16
VHP
p17
sVProcessor Speed
p18
V2.60 GHz
p19
sVManufacturer Part Number
p20
V640 G1
p21
sVHard Drive Capacity
p22
V128.00 GB
p23
sVModel
p24
VProBook 640 G1
p25
sVScreen Size
p26
V14 in
p27
sVProcessor Type
p28
VIntel Core i5
p29
ssS'title'
p30
VHP ProBook 640 G1 14" Notebook with Core i5-4300M 2.60GHz Dual Core Processor, 4GB Memory, 128GB SSD, and Windows 10 Professional (Refurbished)
p31
sb.