ccopy_reg
_reconstructor
p0
(c__main__
ProductRecord
p1
c__builtin__
object
p2
Ntp3
Rp4
(dp5
S'product_url'
p6
S'http://www.walmart.com/ip/Dell-Inspiron-M531R-5535-AMD-A8-5545M-APU-CPU-1-7GHZ-8GB-mem-1TB-hdd-15-6in-LCD-Windows-8-Merlot-Refurbished/343103385'
p7
sS'price'
p8
V$359.99
p9
sS'properties'
p10
(dp11
VBrand
p12
VDell
p13
sVScreen Size
p14
V15.6
p15
sVHard Drive Capacity
p16
V1000
p17
ssS'title'
p18
VDell Inspiron M531R-5535 AMD A8-5545M APU, CPU-1.7GHZ, 8GB mem, 1TB hdd, 15.6in LCD Windows 8 Merlot -Refurbished
p19
sb.