ccopy_reg
_reconstructor
p0
(c__main__
ProductRecord
p1
c__builtin__
object
p2
Ntp3
Rp4
(dp5
S'product_url'
p6
S'http://www.walmart.com/ip/Lenovo-ThinkPad-W530-HD-15-6-Intel-Core-i7-3520M-2-9GHz-3-6GHz-8GB-Memory-180G-SSD-Webcam-Bluetooth-Nvidia-Quadro-K1000M-2GB-Windows-7-Professional-M/245800912'
p7
sS'price'
p8
V$549.99
p9
sS'properties'
p10
(dp11
sS'title'
p12
VLenovo ThinkPad W530 HD+ 15.6" Intel Core i7 3520M (2.9GHz-3.6GHz) 8GB Memory 180G SSD Webcam Bluetooth Nvidia Quadro K1000M 2GB Windows 7 Professional Mobile Workstation Laptop (Refurbished)
p13
sb.