ccopy_reg
_reconstructor
p0
(c__main__
ProductRecord
p1
c__builtin__
object
p2
Ntp3
Rp4
(dp5
S'product_url'
p6
S'http://www.walmart.com/ip/Refurbished-HP-3115m-Laptop-AMD-E-450-4GB-RAM-320GB-11-6-Windows-7-Home-Premium/565866238'
p7
sS'price'
p8
V$286.58
p9
sS'properties'
p10
(dp11
VRAM Memory
p12
V4 GB
p13
sVOperating System
p14
VMicrosoft Windows
p15
sVBrand
p16
VHP
p17
sVHard Drive Capacity
p18
V320 GB
p19
sVScreen Size
p20
V11.6\u005c"
p21
sVCondition
p22
VRefurbished
p23
ssS'title'
p24
VRefurbished HP 3115m Laptop - AMD E-450 4GB RAM 320GB 11.6" Windows 7 Home Premium
p25
sb.