ccopy_reg
_reconstructor
p0
(c__main__
ProductRecord
p1
c__builtin__
object
p2
Ntp3
Rp4
(dp5
S'product_url'
p6
S'http://www.walmart.com/ip/Refurbished-HP-15-ac061nr-Notebook-PC-Intel-Pentium-3825U-1-9GHz-8GB-750GB-DVDRW/428572659'
p7
sS'price'
p8
V$229.00
p9
sS'properties'
p10
(dp11
VBrand
p12
VHP
p13
sVHard Drive Capacity
p14
V750
p15
ssS'title'
p16
VRefurbished HP 15-ac061nr Notebook PC - Intel Pentium 3825U 1.9GHz 8GB 750GB DVDRW
p17
sb.