ccopy_reg
_reconstructor
p0
(c__main__
ProductRecord
p1
c__builtin__
object
p2
Ntp3
Rp4
(dp5
S'product_url'
p6
S'http://www.walmart.com/ip/REFURBISHED-HP-EliteBook-8760w-SP146UP-17-3-LED-Notebook-Core-i7-i7-2820QM/264858027'
p7
sS'price'
p8
V$595.00
p9
sS'properties'
p10
(dp11
VBrand
p12
VLenovo
p13
sVScreen Size
p14
V17.3
p15
sVCondition
p16
VRefurbished
p17
ssS'title'
p18
VREFURBISHED - HP EliteBook 8760w SP146UP 17.3" LED Notebook - Core i7 i7-2820QM
p19
sb.