ccopy_reg
_reconstructor
p0
(c__main__
ProductRecord
p1
c__builtin__
object
p2
Ntp3
Rp4
(dp5
S'product_url'
p6
S'http://www.walmart.com/ip/Dell-Latitude-E6520-laptop-computer-Intel-Core-I5-2-5GHz-8GB-ram-320GB-Hard-Drive-DWD-RW-Windows-7-Refurbished/106474589'
p7
sS'price'
p8
V$299.99
p9
sS'properties'
p10
(dp11
VBrand
p12
VDell
p13
sVRAM Memory
p14
V8 GB
p15
sVOperating System
p16
VMicrosoft Windows
p17
sVHard Drive Capacity
p18
V320
p19
ssS'title'
p20
VDell Latitude E6520 laptop computer, Intel Core I5, 2.5GHz, 8GB ram, 320GB Hard Drive, DWD RW, Windows 7 Refurbished
p21
sb.