ccopy_reg
_reconstructor
p0
(c__main__
ProductRecord
p1
c__builtin__
object
p2
Ntp3
Rp4
(dp5
S'product_url'
p6
S'http://www.walmart.com/ip/REFURBISHED-Dell-Latitude-E6430-Laptop-Core-i7-3520M-2-9GHz-8GB-RAM-750GB-HDD/388209431'
p7
sS'price'
p8
V$479.79
p9
sS'properties'
p10
(dp11
VBrand
p12
VToshiba
p13
sVHard Drive Capacity
p14
V750
p15
sVCondition
p16
VRefurbished
p17
ssS'title'
p18
VREFURBISHED - Dell Latitude E6430 Laptop Core i7 3520M 2.9GHz 8GB RAM 750GB HDD
p19
sb.