ccopy_reg
_reconstructor
p0
(c__main__
ProductRecord
p1
c__builtin__
object
p2
Ntp3
Rp4
(dp5
S'product_url'
p6
S'http://www.walmart.com/ip/REFURBISHED-HP-Probook-450-G2-15-6-HD-Laptop-With-Intel-Core-i5-5200U-Process/261886092'
p7
sS'price'
p8
V$579.95
p9
sS'properties'
p10
(dp11
VBrand
p12
VSony
p13
sVScreen Size
p14
V15.6
p15
sVCondition
p16
VRefurbished
p17
ssS'title'
p18
VREFURBISHED - HP Probook 450 G2 15.6" HD Laptop With Intel Core i5-5200U Process
p19
sb.