ccopy_reg
_reconstructor
p0
(c__main__
ProductRecord
p1
c__builtin__
object
p2
Ntp3
Rp4
(dp5
S'product_url'
p6
S'http://www.walmart.com/ip/Dell-Latitude-E6400-2-4GHz-Intel-Core-2-Duo-4GB-Memory-Windows-7-Pro-Refurbished/218537502'
p7
sS'price'
p8
V$199.99
p9
sS'properties'
p10
(dp11
VBrand
p12
VDell
p13
ssS'title'
p14
VDell Latitude E6400 2.4GHz Intel Core 2 Duo - 4GB Memory - Windows 7 Pro Refurbished
p15
sb.