ccopy_reg
_reconstructor
p0
(c__main__
ProductRecord
p1
c__builtin__
object
p2
Ntp3
Rp4
(dp5
S'product_url'
p6
S'http://www.walmart.com/ip/Refurbished-HP-6005-SFF-AMD-Processor-8GB-750GB-Windows-10-Pro-Wi-Fi-17-LCD/582000059'
p7
sS'price'
p8
V$235.52
p9
sS'properties'
p10
(dp11
VRAM Memory
p12
V8 GB
p13
sVOperating System
p14
VWindows 10
p15
sVBrand
p16
VHP
p17
sVProcessor Speed
p18
V3.00 GHz
p19
sVHard Drive Capacity
p20
V750 GB
p21
sVModel
p22
VHP 6005
p23
sVScreen Size
p24
V17.00 in
p25
sVProcessor Type
p26
VAMD
p27
sVCondition
p28
VRefurbished
p29
ssS'title'
p30
VRefurbished HP 6005 SFF, AMD Processor, 8GB, 750GB, Windows 10 Pro, Wi-Fi + 17'' LCD
p31
sb.