ccopy_reg
_reconstructor
p0
(c__main__
ProductRecord
p1
c__builtin__
object
p2
Ntp3
Rp4
(dp5
S'product_url'
p6
S'http://www.walmart.com/ip/Refurbished-Hp-Elitebook-8730w-17-Laptop-T9600-2-8ghz-4gb-500gb-Hdd-W7p-Dream-Color-Gw678av/357615516'
p7
sS'price'
p8
V$556.77
p9
sS'properties'
p10
(dp11
VRAM Memory
p12
V4 GB
p13
sVOperating System
p14
VMicrosoft Windows
p15
sVBrand
p16
VHP
p17
sVHard Drive Capacity
p18
V500
p19
sVProcessor Speed
p20
V2
p21
sVScreen Size
p22
V17
p23
sVCondition
p24
VRefurbished
p25
ssS'title'
p26
VRefurbished Hp Elitebook 8730w 17" Laptop T9600 2.8ghz 4gb 500gb Hdd W7p Dream Color Gw678av
p27
sb.