ccopy_reg
_reconstructor
p0
(c__main__
ProductRecord
p1
c__builtin__
object
p2
Ntp3
Rp4
(dp5
S'product_url'
p6
S'http://www.walmart.com/ip/Refurbished-Acer-Aspire-1-Intel-Celeron-1-1-GHz-4-GB-Ram-32GB-SSD-Windows-10-S/328444944'
p7
sS'price'
p8
V$216.29
p9
sS'properties'
p10
(dp11
VRAM Memory
p12
V4 GB
p13
sVOperating System
p14
VWindows 10 S
p15
sVBrand
p16
VAcer
p17
sVManufacturer Part Number
p18
VNX.SHXAA.006
p19
sVModel
p20
VA114-31-C5GM
p21
sVScreen Size
p22
V14 in
p23
sVProcessor Speed
p24
V1.1 GHz
p25
sVCondition
p26
VRefurbished
p27
ssS'title'
p28
VRefurbished Acer Aspire 1 Intel Celeron 1.1 GHz 4 GB Ram 32GB SSD Windows 10 S
p29
sb.