ccopy_reg
_reconstructor
p0
(c__main__
ProductRecord
p1
c__builtin__
object
p2
Ntp3
Rp4
(dp5
S'product_url'
p6
S'http://www.walmart.com/ip/Refurbished-Hp-Elitebook-8740w-17-Laptop-I7-720qm-1-6ghz-Cpu-8gb-Ram-500gb-Hdd-W7p-513075r-999/708930532'
p7
sS'price'
p8
V$545.54
p9
sS'properties'
p10
(dp11
VRAM Memory
p12
V8 GB
p13
sVOperating System
p14
VMicrosoft Windows
p15
sVBrand
p16
VHP
p17
sVHard Drive Capacity
p18
V500 GB
p19
sVScreen Size
p20
V17\u005c"
p21
sVCondition
p22
VRefurbished
p23
ssS'title'
p24
VRefurbished Hp Elitebook 8740w 17" Laptop I7 720qm 1.6ghz Cpu 8gb Ram 500gb Hdd W7p 513075r-999
p25
sb.