ccopy_reg
_reconstructor
p0
(c__main__
ProductRecord
p1
c__builtin__
object
p2
Ntp3
Rp4
(dp5
S'product_url'
p6
S'http://www.walmart.com/ip/Refurbished-HP-ProBook-430-G2-2-0GHz-DC-i5-4GB-128SSD-Windows-10-Pro-64-Laptop-B-Camera/779507161'
p7
sS'price'
p8
V$219.00
p9
sS'properties'
p10
(dp11
VBrand
p12
VHP
p13
sVModel
p14
VProBook 430 G2
p15
ssS'title'
p16
VRefurbished HP ProBook 430 G2 2.0GHz DC i5 4GB 128SSD Windows 10 Pro 64 Laptop B Camera
p17
sb.