ccopy_reg
_reconstructor
p0
(c__main__
ProductRecord
p1
c__builtin__
object
p2
Ntp3
Rp4
(dp5
S'product_url'
p6
S'http://www.walmart.com/ip/Refurbished-Dell-Alienware-15-R2-Intel-Core-i7-6700HQ-X4-2-6GHz-8GB-1TB-15-6-Win10-Black/646243744'
p7
sS'price'
p8
V$999.89
p9
sS'properties'
p10
(dp11
VRAM Memory
p12
V8 GB
p13
sVOperating System
p14
VMicrosoft Windows
p15
sVBrand
p16
VDell
p17
sVHard Drive Capacity
p18
V1000 GB
p19
sVScreen Size
p20
V15.6\u005c"
p21
sVCondition
p22
VRefurbished
p23
ssS'title'
p24
VRefurbished Dell Alienware 15 R2 Intel Core i7-6700HQ X4 2.6GHz 8GB 1TB 15.6'' Win10 (Black)
p25
sb.