ccopy_reg
_reconstructor
p0
(c__main__
ProductRecord
p1
c__builtin__
object
p2
Ntp3
Rp4
(dp5
S'product_url'
p6
S'http://www.walmart.com/ip/Lenovo-ThinkPad-L470-20J4000TUS-14-LCD-Notebook-Intel-Core-i5-Refurbished/801972315'
p7
sS'price'
p8
V$478.97
p9
sS'properties'
p10
(dp11
VRAM Memory
p12
V4 GB
p13
sVOperating System
p14
VWindows 10 Professional 64-bit Edition
p15
sVBrand
p16
VLenovo
p17
sVProcessor Speed
p18
V2.5 GHz
p19
sVHard Drive Capacity
p20
V500 GB
p21
sVModel
p22
V20J4000TUS
p23
sVScreen Size
p24
V14 in
p25
sVProcessor Type
p26
VIntel Core i5
p27
sVCondition
p28
VRefurbished
p29
sVmanufacturer_part_number
p30
V20j4000tus
p31
ssS'title'
p32
VLenovo ThinkPad L470 20J4000TUS 14" LCD Notebook - Intel Core i5 (Refurbished)
p33
sb.