ccopy_reg
_reconstructor
p0
(c__main__
ProductRecord
p1
c__builtin__
object
p2
Ntp3
Rp4
(dp5
S'product_url'
p6
S'http://www.walmart.com/ip/HP-Pavilion-M1Y29UA-15-ab157nr-Notebook-PC-Intel-Core-i3-5020U-Refurbished/958041175'
p7
sS'price'
p8
V$358.97
p9
sS'properties'
p10
(dp11
VRAM Memory
p12
V8 GB
p13
sVOperating System
p14
VWindows 10 Home 64-bit Edition
p15
sVBrand
p16
VHP
p17
sVProcessor Speed
p18
V2.2 GHz
p19
sVHard Drive Capacity
p20
V500 GB
p21
sVModel
p22
VM1Y29UA
p23
sVScreen Size
p24
V15.6 in
p25
sVProcessor Type
p26
VIntel Core i3
p27
sVCondition
p28
VRefurbished
p29
sVmanufacturer_part_number
p30
Vm1y29ua
p31
ssS'title'
p32
VHP Pavilion M1Y29UA 15-ab157nr Notebook PC - Intel Core i3-5020U (Refurbished)
p33
sb.