ccopy_reg
_reconstructor
p0
(c__main__
ProductRecord
p1
c__builtin__
object
p2
Ntp3
Rp4
(dp5
S'product_url'
p6
S'http://www.walmart.com/ip/HP-14-am052nr-W2M36UA-Notebook-PC-Intel-Celeron-N3060-1-6-GHz-Refurbished/334603630'
p7
sS'price'
p8
V$207.49
p9
sS'properties'
p10
(dp11
VRAM Memory
p12
V4 GB
p13
sVOperating System
p14
VWindows 10 Home 64-bit Edition
p15
sVBrand
p16
VHP
p17
sVProcessor Speed
p18
V1.6 GHz
p19
sVHard Drive Capacity
p20
V32 GB
p21
sVModel
p22
VW2M36UA
p23
sVScreen Size
p24
V14 in
p25
sVProcessor Type
p26
VIntel Celeron
p27
sVCondition
p28
VRefurbished
p29
sVmanufacturer_part_number
p30
Vw2m36ua
p31
ssS'title'
p32
VHP 14-am052nr W2M36UA Notebook PC - Intel Celeron N3060 1.6 GHz (Refurbished)
p33
sb.