ccopy_reg
_reconstructor
p0
(c__main__
ProductRecord
p1
c__builtin__
object
p2
Ntp3
Rp4
(dp5
S'product_url'
p6
S'http://www.walmart.com/ip/Refurbished-Acer-Aspire-15-6-Notebook-with-4th-Generation-Intel-Core-i3-4005U-Processor-Grey-Acer-E5-57/987460103'
p7
sS'price'
p8
V$298.99
p9
sS'properties'
p10
(dp11
VBrand
p12
VAcer
p13
ssS'title'
p14
VRefurbished Acer Aspire 15.6 Notebook with 4th Generation Intel Core i3-4005U Processor - Grey (Acer E5-57 )
p15
sb.