ccopy_reg
_reconstructor
p0
(c__main__
ProductRecord
p1
c__builtin__
object
p2
Ntp3
Rp4
(dp5
S'product_url'
p6
S'http://www.walmart.com/ip/Refurbished-Dell-Latitude-E6230-i5-2-6GHz-2GB-320GB-Windows-10-Pro-64-Laptop-B/169208908'
p7
sS'price'
p8
V$198.44
p9
sS'properties'
p10
(dp11
VHard Drive Capacity
p12
V320 GB
p13
sVBrand
p14
VDell
p15
sVRAM Memory
p16
V2 GB
p17
sVOperating System
p18
VMicrosoft Windows
p19
sVModel
p20
VLatitude E6230
p21
ssS'title'
p22
VRefurbished Dell Latitude E6230 i5 2.6GHz 2GB 320GB Windows 10 Pro 64 Laptop B
p23
sb.