ccopy_reg
_reconstructor
p0
(c__main__
ProductRecord
p1
c__builtin__
object
p2
Ntp3
Rp4
(dp5
S'product_url'
p6
S'http://www.walmart.com/ip/Refurbished-Dell-XPS-13-9350-i5-6200U-8GB-128GB-SSD-FHD-INFINITY-Windows-10-PROFESSIONAL-laptop-silver/850548642'
p7
sS'price'
p8
V$824.88
p9
sS'properties'
p10
(dp11
VRAM Memory
p12
V16 Gigabytes
p13
sVOperating System
p14
VWindows 10 Professional
p15
sVBrand
p16
VDell
p17
sVManufacturer Part Number
p18
VXPS9350-1340SLV-RB
p19
sVHard Drive Capacity
p20
V256 Gigabytes
p21
sVAssembled Product Dimensions (L x W x H)
p22
V17.00 x 11.50 x 3.00 Inches
p23
sVModel
p24
VXPS9350-1340SLV-RB
p25
sVScreen Size
p26
V13.3 Inches
p27
sVProcessor Type
p28
VIntel Core i7
p29
sVCondition
p30
VRefurbished
p31
ssS'title'
p32
VRefurbished Dell XPS 13 9350 i5-6200U 8GB 128GB SSD FHD INFINITY Windows 10 PROFESSIONAL laptop silver
p33
sb.