ccopy_reg
_reconstructor
p0
(c__main__
ProductRecord
p1
c__builtin__
object
p2
Ntp3
Rp4
(dp5
S'product_url'
p6
S'http://www.walmart.com/ip/Refurbished-Rectified-Lenovo-N22-Notebook-80S60001US-11-6-HD-LED-Display-4GB-RAM-32GB-HDD/589846433'
p7
sS'price'
p8
V$192.95
p9
sS'properties'
p10
(dp11
VRAM Memory
p12
V4 GB
p13
sVBrand
p14
VLenovo
p15
sVHard Drive Capacity
p16
V32 GB
p17
sVScreen Size
p18
V11.6\u005c"
p19
sVCondition
p20
VRefurbished
p21
sVmanufacturer_part_number
p22
V80s60001us
p23
ssS'title'
p24
VRefurbished Rectified Lenovo N22 Notebook 80S60001US 11.6" HD LED Display 4GB RAM 32GB HDD
p25
sb.