ccopy_reg
_reconstructor
p0
(c__main__
ProductRecord
p1
c__builtin__
object
p2
Ntp3
Rp4
(dp5
S'product_url'
p6
S'http://www.walmart.com/ip/Dell-Latitude-E6330-HD-13-3-Intel-Core-i5-3360M-2-8GHz-3-5GHz-8GB-Memory-500GB-Hard-Drive-Webcam-DVD-RW-Windows-7-Professional-Laptop-Refurbished/169647255'
p7
sS'price'
p8
V$309.95
p9
sS'properties'
p10
(dp11
sS'title'
p12
VDell Latitude E6330 HD 13.3" Intel Core i5 3360M (2.8GHz-3.5GHz) 8GB Memory 500GB Hard Drive Webcam DVD-RW Windows 7 Professional Laptop (Refurbished)
p13
sb.