ccopy_reg
_reconstructor
p0
(c__main__
ProductRecord
p1
c__builtin__
object
p2
Ntp3
Rp4
(dp5
S'product_url'
p6
S'http://www.walmart.com/ip/Panasonic-Toughbook-CF-19-Dual-Touch-10-1-Intel-Core-i5-540UM-1-2GHz-2-0GHz-4GB-Memory-128GB-SSD-9-Pin-Serial-Port-Windows-7-Pro-Fully-Rugged-Touchsc/133688065'
p7
sS'price'
p8
V$479.95
p9
sS'properties'
p10
(dp11
VRAM Memory
p12
V4 GB
p13
sVOperating System
p14
VMicrosoft Windows
p15
sVVideo Game Platform
p16
VPC
p17
sVBrand
p18
VPanasonic
p19
sVWireless Technology
p20
VBluetooth
p21
sVHard Drive Capacity
p22
V128 GB
p23
sVLaptop Computer Type
p24
VBusiness Laptops
p25
sVProcessor Type
p26
VIntel Core i5
p27
sVScreen Size
p28
V10.1 in
p29
sVModel
p30
VCF-19
p31
sVCondition
p32
VRefurbished
p33
sVManufacturer
p34
VPanasonic
p35
ssS'title'
p36
VPanasonic Toughbook CF-19 Dual-Touch 10.1" Intel Core i5 540UM (1.2GHz-2.0GHz) 4GB Memory 128GB SSD 9-Pin Serial Port Windows 7 Pro Fully Rugged Touchscreen Laptop w/ Digitizer Pen (Refurbished)
p37
sb.