ccopy_reg
_reconstructor
p0
(c__main__
ProductRecord
p1
c__builtin__
object
p2
Ntp3
Rp4
(dp5
S'product_url'
p6
S'http://www.walmart.com/ip/Refurbished-Dell-Laptop-Precision-M6700-17-3-i7-3740QM-Quadro-K4000M-32GB-RAM-128GB-SSD/765376410'
p7
sS'price'
p8
V$899.00
p9
sS'properties'
p10
(dp11
VBrand
p12
VDell
p13
sVScreen Size
p14
V17.3
p15
sVHard Drive Capacity
p16
V128
p17
ssS'title'
p18
VRefurbished Dell Laptop Precision M6700 17.3" i7 3740QM Quadro K4000M 32GB RAM 128GB SSD ...
p19
sb.