ccopy_reg
_reconstructor
p0
(c__main__
ProductRecord
p1
c__builtin__
object
p2
Ntp3
Rp4
(dp5
S'product_url'
p6
S'http://www.walmart.com/ip/Refurbished-HP-EliteBook-Folio-9470m-Laptop-Intel-Core-i5-3437u-1-9GHz-8GB-256GB-14in-W10Pro/241938161'
p7
sS'price'
p8
V$299.00
p9
sS'properties'
p10
(dp11
VOperating System
p12
VMicrosoft Windows
p13
sVBrand
p14
VHP
p15
sVRAM Memory
p16
V8 GB
p17
sVScreen Size
p18
V14\u005c"
p19
sVCondition
p20
VRefurbished
p21
ssS'title'
p22
VRefurbished HP EliteBook Folio 9470m Laptop Intel Core i5-3437u 1.9GHz 8GB 256GB 14in W10Pro
p23
sb.