ccopy_reg
_reconstructor
p0
(c__main__
ProductRecord
p1
c__builtin__
object
p2
Ntp3
Rp4
(dp5
S'product_url'
p6
S'http://www.walmart.com/ip/Lenovo-ThinkPad-T470-20JM000BUS-14-LCD-Notebook-Intel-Core-i7-Refurbished/714140637'
p7
sS'price'
p8
V$1,174.97
p9
sS'properties'
p10
(dp11
VRAM Memory
p12
V8 GB
p13
sVOperating System
p14
VWindows 7
p15
sVBrand
p16
VLenovo
p17
sVProcessor Speed
p18
V2.5 GHz
p19
sVHard Drive Capacity
p20
V256 GB
p21
sVModel
p22
V20JM000BUS
p23
sVScreen Size
p24
V14 in
p25
sVProcessor Type
p26
VIntel Core i7
p27
sVCondition
p28
VRefurbished
p29
sVmanufacturer_part_number
p30
V20jm000bus
p31
ssS'title'
p32
VLenovo ThinkPad T470 20JM000BUS 14" LCD Notebook - Intel Core i7 (Refurbished)
p33
sb.