ccopy_reg
_reconstructor
p0
(c__main__
ProductRecord
p1
c__builtin__
object
p2
Ntp3
Rp4
(dp5
S'product_url'
p6
S'http://www.walmart.com/ip/Refurbished-HP-15-f008cl-15-6-Laptop-A6-5200-2-0GHz-4GB-Memory-500GB-Drive-Win-8-1/48454367'
p7
sS'price'
p8
V$325.00
p9
sS'properties'
p10
(dp11
VRAM Memory
p12
V4 GB
p13
sVOperating System
p14
VMicrosoft Windows
p15
sVLaptop Computer Type
p16
VPC Laptops
p17
sVBrand
p18
VHP
p19
sVManufacturer Part Number
p20
V15-f008cl
p21
sVModel
p22
VVIPRB-15-f008cl
p23
sVCondition
p24
VRefurbished
p25
sVManufacturer
p26
VHP
p27
ssS'title'
p28
VRefurbished HP 15-f008cl 15.6" Laptop A6-5200 2.0GHz 4GB Memory 500GB Drive Win 8.1
p29
sb.