ccopy_reg
_reconstructor
p0
(c__main__
ProductRecord
p1
c__builtin__
object
p2
Ntp3
Rp4
(dp5
S'product_url'
p6
S'http://www.walmart.com/ip/Refurbished-HP-14-G745-G2-Laptop-PC-with-AMD-A10-PRO-7350B-Processor-8GB-Memory-500GB-Hard-Drive-and-Windows-10-Pro/49534127'
p7
sS'price'
p8
V$264.50
p9
sS'properties'
p10
(dp11
VRAM Memory
p12
V8 GB
p13
sVOperating System
p14
VWindows 10
p15
sVVideo Game Platform
p16
VPC
p17
sVBrand
p18
VHP
p19
sVProcessor Speed
p20
V2.10 GHz
p21
sVManufacturer Part Number
p22
VWA5-0813
p23
sVMaximum RAM Supported
p24
V8 GB
p25
sVHard Drive Capacity
p26
V500 GB
p27
sVAssembled Product Dimensions (L x W x H)
p28
V13.30 x 0.80 x 9.30 Inches
p29
sVModel
p30
V745 G2
p31
sVScreen Size
p32
V14.0"
p33
sVProcessor Type
p34
VAMD A10 PRO-7350B Processor
p35
sVCondition
p36
VRefurbished
p37
ssS'title'
p38
VRefurbished HP 14" G745 G2 Laptop PC with AMD A10 PRO-7350B Processor, 8GB Memory, 500GB Hard Drive and Windows 10 Pro
p39
sb.