ccopy_reg
_reconstructor
p0
(c__main__
ProductRecord
p1
c__builtin__
object
p2
Ntp3
Rp4
(dp5
S'product_url'
p6
S'http://www.walmart.com/ip/Refurbished-Lenovo-G500s-59380376-15-6-inch-Laptop-Intel-i5-3230M-2-6GHZ-Processor-8-GB-RAM-1TB-Hard-drive-Windows-8-64-bit/101305852'
p7
sS'price'
p8
V$449.00
p9
sS'properties'
p10
(dp11
VBrand
p12
VLenovo
p13
sVRAM Memory
p14
V8 GB
p15
sVOperating System
p16
VMicrosoft Windows
p17
sVHard Drive Capacity
p18
V1000 GB
p19
sVmanufacturer_part_number
p20
V59380376
p21
ssS'title'
p22
VRefurbished Lenovo G500s 59380376 15.6 inch Laptop (Intel i5-3230M 2.6GHZ Processor, 8 GB RAM, 1TB Hard drive, Windows 8 64-bit)
p23
sb.