ccopy_reg
_reconstructor
p0
(c__main__
ProductRecord
p1
c__builtin__
object
p2
Ntp3
Rp4
(dp5
S'product_url'
p6
S'http://www.walmart.com/ip/REFURBISHED-Hp-Elitebook-8560w-Sq119up-15-6-LED-Notebook-Intel-Core-I7-I7/257437377'
p7
sS'price'
p8
V$749.00
p9
sS'properties'
p10
(dp11
VOperating System
p12
VMicrosoft Windows
p13
sVBrand
p14
VHP
p15
sVScreen Size
p16
V15.6
p17
sVCondition
p18
VRefurbished
p19
ssS'title'
p20
VREFURBISHED - Hp Elitebook 8560w Sq119up 15.6' LED Notebook - Intel - Core I7 I7
p21
sb.