ccopy_reg
_reconstructor
p0
(c__main__
ProductRecord
p1
c__builtin__
object
p2
Ntp3
Rp4
(dp5
S'product_url'
p6
S'http://www.walmart.com/ip/HP-15-bw038-AMD-A12-9720P-1TB-HDD-15-6-HD-Notebook-Certified-Refurbished/206029406'
p7
sS'price'
p8
V$399.99
p9
sS'properties'
p10
(dp11
VOperating System
p12
VMicrosoft Windows
p13
sVBrand
p14
VHP
p15
sVManufacturer Part Number
p16
V2DW08UAR#ABA
p17
sVHard Drive Capacity
p18
V1000 GB
p19
sVAssembled Product Dimensions (L x W x H)
p20
V20.50 x 12.30 x 2.50 Inches
p21
sVModel
p22
V2DW08UAR#ABA
p23
sVScreen Size
p24
V15.6\u005c"
p25
sVCondition
p26
VRefurbished
p27
ssS'title'
p28
VHP 15-bw038 AMD A12-9720P 1TB HDD 15.6\u201d HD Notebook (Certified Refurbished)
p29
sb.