ccopy_reg
_reconstructor
p0
(c__main__
ProductRecord
p1
c__builtin__
object
p2
Ntp3
Rp4
(dp5
S'product_url'
p6
S'http://www.walmart.com/ip/Refurbished-Lenovo-42W3775-Palm-Rest-for-X61-Laptop-PC/348481295'
p7
sS'price'
p8
V$16.33
p9
sS'properties'
p10
(dp11
sS'title'
p12
VRefurbished Lenovo 42W3775 Palm Rest for X61 Laptop PC
p13
sb.