ccopy_reg
_reconstructor
p0
(c__main__
ProductRecord
p1
c__builtin__
object
p2
Ntp3
Rp4
(dp5
S'product_url'
p6
S'http://www.walmart.com/ip/Lenovo-42W3775-Palm-Rest-for-X61-Laptop-PC-Refurbished/51006346'
p7
sS'price'
p8
V$16.49
p9
sS'properties'
p10
(dp11
VRAM Memory
p12
V0 GB
p13
sVBrand
p14
VLenovo
p15
sVHard Drive Capacity
p16
V0 GB
p17
sVModel
p18
V42W3775
p19
sVScreen Size
p20
V0 in
p21
sVProcessor Speed
p22
V0 GHz
p23
sVCondition
p24
VRefurbished
p25
sVmanufacturer_part_number
p26
V42w3775
p27
ssS'title'
p28
VLenovo 42W3775 Palm Rest for X61 Laptop PC (Refurbished)
p29
sb.