ccopy_reg
_reconstructor
p0
(c__main__
ProductRecord
p1
c__builtin__
object
p2
Ntp3
Rp4
(dp5
S'product_url'
p6
S'http://www.walmart.com/ip/HP-DV9000-Laptop-Speaker-Bar-YGHDN0025147063A-Refurbished/724476193'
p7
sS'price'
p8
V$19.98
p9
sS'properties'
p10
(dp11
VBrand
p12
VBCR
p13
sVManufacturer Part Number
p14
VYGHDN0025147063A
p15
sVCondition
p16
VRefurbished
p17
ssS'title'
p18
VHP DV9000 Laptop Speaker Bar- YGHDN0025147063A - Refurbished
p19
sb.