ccopy_reg
_reconstructor
p0
(c__main__
ProductRecord
p1
c__builtin__
object
p2
Ntp3
Rp4
(dp5
S'product_url'
p6
S'http://www.walmart.com/ip/Toshiba-Satellite-Inverter-Board-P-N-PK070006V20-A01-Refurbished/380227412'
p7
sS'price'
p8
V$19.99
p9
sS'properties'
p10
(dp11
VBrand
p12
VToshiba
p13
sVRecommended Location
p14
VIndoor
p15
ssS'title'
p16
VToshiba Satellite Inverter Board P/N PK070006V20-A01 - Refurbished
p17
sb.