ccopy_reg
_reconstructor
p0
(c__main__
ProductRecord
p1
c__builtin__
object
p2
Ntp3
Rp4
(dp5
S'product_url'
p6
S'http://www.walmart.com/ip/SMDAS0231-V18182-T-LF-Sumida-LCD-Sceen-Inverter/763996216'
p7
sS'price'
p8
V$21.00
p9
sS'properties'
p10
(dp11
VRecommended Location
p12
VIndoor
p13
sVBrand
p14
VGeneric
p15
sVFeatures
p16
VReplacement Part Only. No accessories, cables or manuals are included unless otherwise noted
p17
sVCondition
p18
VGrade A Used Like New. 100% Tested and Working
p19
ssS'title'
p20
VSMDAS0231 V18182/T-LF Sumida LCD Sceen Inverter
p21
sb.