ccopy_reg
_reconstructor
p0
(c__main__
ProductRecord
p1
c__builtin__
object
p2
Ntp3
Rp4
(dp5
S'product_url'
p6
S'http://www.walmart.com/ip/Dell-Alienware-Alpha-Usb-Flash-Drive-Cover-Cover-D07U/175350723'
p7
sS'price'
p8
V$25.93
p9
sS'properties'
p10
(dp11
VBrand
p12
VAlienware
p13
ssS'title'
p14
VDell Alienware Alpha Usb Flash Drive Cover Cover D07U
p15
sb.