ccopy_reg
_reconstructor
p0
(c__main__
ProductRecord
p1
c__builtin__
object
p2
Ntp3
Rp4
(dp5
S'product_url'
p6
S'http://www.walmart.com/ip/Dell-Latitude-E6400-Laptop-Motherboard-J470N-Refurbished/903305277'
p7
sS'price'
p8
V$29.99
p9
sS'properties'
p10
(dp11
VBrand
p12
VBCR
p13
sVManufacturer Part Number
p14
VJ470N
p15
sVCondition
p16
VRefurbished
p17
ssS'title'
p18
VDell Latitude E6400 Laptop Motherboard- J470N  - Refurbished
p19
sb.