ccopy_reg
_reconstructor
p0
(c__main__
ProductRecord
p1
c__builtin__
object
p2
Ntp3
Rp4
(dp5
S'product_url'
p6
S'http://www.walmart.com/ip/Dell-D620-LCD-Inverter-Board-6632L-0365C/831493170'
p7
sS'price'
p8
V$30.00
p9
sS'properties'
p10
(dp11
VBrand
p12
VDell
p13
sVRecommended Location
p14
VIndoor
p15
ssS'title'
p16
VDell D620 LCD Inverter Board 6632L-0365C
p17
sb.