ccopy_reg
_reconstructor
p0
(c__main__
ProductRecord
p1
c__builtin__
object
p2
Ntp3
Rp4
(dp5
S'product_url'
p6
S'http://www.walmart.com/ip/LCD-Inverter-For-LG-Philips-YPNL-N017B/159882384'
p7
sS'price'
p8
V$30.00
p9
sS'properties'
p10
(dp11
VBrand
p12
VHP
p13
sVRecommended Location
p14
VIndoor
p15
ssS'title'
p16
VLCD Inverter For LG Philips YPNL-N017B
p17
sb.