ccopy_reg
_reconstructor
p0
(c__main__
ProductRecord
p1
c__builtin__
object
p2
Ntp3
Rp4
(dp5
S'product_url'
p6
S'http://www.walmart.com/ip/Alienware-Alpha-D07U-WiFi-Antenna-03GTG/517051387'
p7
sS'price'
p8
V$39.93
p9
sS'properties'
p10
(dp11
VBrand
p12
VAlienware
p13
sVRecommended Location
p14
VIndoor
p15
ssS'title'
p16
VAlienware Alpha D07U WiFi Antenna 03GTG
p17
sb.