ccopy_reg
_reconstructor
p0
(c__main__
ProductRecord
p1
c__builtin__
object
p2
Ntp3
Rp4
(dp5
S'product_url'
p6
S'http://www.walmart.com/ip/Aleko-WA300W24V-APE-New-300-Watt-Car-Power-Inverter-24V-To-120V/39227788'
p7
sS'price'
p8
V$44.00
p9
sS'properties'
p10
(dp11
VRecommended Location
p12
VIndoor
p13
sVBrand
p14
VALEKO
p15
sVModel
p16
VWA300W24V-APE
p17
sVCondition
p18
VNew
p19
ssS'title'
p20
VAleko WA300W24V-APE New 300 Watt Car Power Inverter 24V To 120V
p21
sb.