ccopy_reg
_reconstructor
p0
(c__main__
ProductRecord
p1
c__builtin__
object
p2
Ntp3
Rp4
(dp5
S'product_url'
p6
S'http://www.walmart.com/ip/Lenovo-ThinkPad-SL500-Laptop-GSA-T50N-Super-Multi-DVD-Rewriter-42T2596-Refurbished/319321840'
p7
sS'price'
p8
V$44.99
p9
sS'properties'
p10
(dp11
VBrand
p12
VBCR
p13
sVManufacturer Part Number
p14
V42T2596
p15
sVCondition
p16
VRefurbished
p17
ssS'title'
p18
VLenovo ThinkPad SL500 Laptop GSA-T50N Super Multi DVD Rewriter- 42T2596 -Refurbished
p19
sb.