ccopy_reg
_reconstructor
p0
(c__main__
ProductRecord
p1
c__builtin__
object
p2
Ntp3
Rp4
(dp5
S'product_url'
p6
S'http://www.walmart.com/ip/LENOVO-04X5903-REFURBISHED-15-6-LIQUID-CRYSTAL-DISPLAY/215177208'
p7
sS'price'
p8
V$69.00
p9
sS'properties'
p10
(dp11
VBrand
p12
VLenovo
p13
sVmanufacturer_part_number
p14
V04x5903
p15
ssS'title'
p16
VLENOVO 04X5903 REFURBISHED 15.6 LIQUID CRYSTAL DISPLAY
p17
sb.