ccopy_reg
_reconstructor
p0
(c__main__
ProductRecord
p1
c__builtin__
object
p2
Ntp3
Rp4
(dp5
S'product_url'
p6
S'http://www.walmart.com/ip/Cuisinart-CBT-700FR-PowerEdge-700-Blender-Certified-Refurbished/20625882'
p7
sS'price'
p8
V$77.43
p9
sS'properties'
p10
(dp11
VAssembled Product Dimensions (L x W x H)
p12
V9.10 x 6.90 x 15.80 Inches
p13
sVBrand
p14
VCuisinart
p15
sVOperating System
p16
VMicrosoft Windows
p17
sVModel
p18
VCBT700FR
p19
sVCondition
p20
VRefurbished
p21
sVmanufacturer_part_number
p22
Vcbt-700fr
p23
ssS'title'
p24
VCuisinart CBT-700FR PowerEdge 700 Blender, (Certified Refurbished)
p25
sb.