ccopy_reg
_reconstructor
p0
(c__main__
ProductRecord
p1
c__builtin__
object
p2
Ntp3
Rp4
(dp5
S'product_url'
p6
S'http://www.walmart.com/ip/HP-EliteBook-x360-1030-G2-13-3-Core-i5-7300U-16-GB-RAM-256-GB-SSD-US/178512750'
p7
sS'price'
p8
S'N/A'
p9
sS'properties'
p10
(dp11
VRAM Memory
p12
V16 GB
p13
sVOperating System
p14
VWindows 10
p15
sVFeatures
p16
VI5-7300U 2.6G 16GB 256GB 13.3IN W10
p17
sVBrand
p18
VHP
p19
sVProcessor Speed
p20
V2.6 GHz
p21
sVManufacturer Part Number
p22
V2GZ76UT#ABA
p23
sVHard Drive Capacity
p24
V256 GB
p25
sVBattery Life
p26
V16.5 h
p27
sVModel
p28
V2GZ76UT
p29
sVScreen Size
p30
V13.3 in
p31
sVProcessor Type
p32
VCore i5 7300U
p33
sVCondition
p34
VNew
p35
ssS'title'
p36
VHP EliteBook x360 1030 G2 - 13.3" - Core i5 7300U - 16 GB RAM - 256 GB SSD - US
p37
sb.