ccopy_reg
_reconstructor
p0
(c__main__
ProductRecord
p1
c__builtin__
object
p2
Ntp3
Rp4
(dp5
S'product_url'
p6
S'http://www.walmart.com/ip/HP-A7E32AA-90W-Docking-Station-for-EliteBook-2170p-Laptop-90-Refurbished/550352201'
p7
sS'price'
p8
V$95.49
p9
sS'properties'
p10
(dp11
VBrand
p12
VHP
p13
sVModel
p14
VA7E32AA
p15
sVCondition
p16
VRefurbished
p17
sVmanufacturer_part_number
p18
Va7e32aa
p19
ssS'title'
p20
VHP A7E32AA 90W Docking Station for EliteBook 2170p Laptop - 90 (Refurbished)
p21
sb.