ccopy_reg
_reconstructor
p0
(c__main__
ProductRecord
p1
c__builtin__
object
p2
Ntp3
Rp4
(dp5
S'product_url'
p6
S'http://www.walmart.com/ip/Refurbished-Latitude-D620-14-1-Notebook-160GB-2GB-DVD-Windows-XP-Professional/152343642'
p7
sS'price'
p8
V$102.99
p9
sS'properties'
p10
(dp11
VBrand
p12
VDell
p13
sVScreen Size
p14
V14.1
p15
ssS'title'
p16
VRefurbished Latitude D620 14.1" Notebook - 160GB, 2GB, DVD, Windows XP Professional
p17
sb.