ccopy_reg
_reconstructor
p0
(c__main__
ProductRecord
p1
c__builtin__
object
p2
Ntp3
Rp4
(dp5
S'product_url'
p6
S'http://www.walmart.com/ip/Refurbished-Latitude-D830-15-4-Notebook-80GB-1GB-DVD-Windows-XP-Professional/157633099'
p7
sS'price'
p8
V$116.99
p9
sS'properties'
p10
(dp11
VOperating System
p12
VMicrosoft Windows
p13
sVBrand
p14
VDell
p15
sVScreen Size
p16
V15.4
p17
sVHard Drive Capacity
p18
V80
p19
ssS'title'
p20
VRefurbished Latitude D830 15.4" Notebook - 80GB, 1GB, DVD, Windows XP Professional
p21
sb.