ccopy_reg
_reconstructor
p0
(c__main__
ProductRecord
p1
c__builtin__
object
p2
Ntp3
Rp4
(dp5
S'product_url'
p6
S'http://www.walmart.com/ip/Lenovo-ThinkPad-X1-Tablet-12-Core-m7-6Y75-8-GB-RAM-512-GB-SSD/690786304'
p7
sS'price'
p8
S'N/A'
p9
sS'properties'
p10
(dp11
VOperating System
p12
VWindows 10 Pro (English)
p13
sVAccessories Included
p14
VThinkPad X1 Tablet 20GG0054US 2 in 1 NotebookLithium Polymer BatteryAC Adapter Stylus
p15
sVBrand
p16
VLenovo
p17
sVManufacturer Part Number
p18
V20GG0054US
p19
sVModel
p20
VThinkPad X1 Tablet 20GG0054US 2 in 1 Notebook
p21
sVScreen Size
p22
V12.00 Inches
p23
ssS'title'
p24
VLenovo ThinkPad X1 Tablet - 12" - Core m7 6Y75 - 8 GB RAM - 512 GB SSD
p25
sb.