ccopy_reg
_reconstructor
p0
(c__main__
ProductRecord
p1
c__builtin__
object
p2
Ntp3
Rp4
(dp5
S'product_url'
p6
S'http://www.walmart.com/ip/Refurbished-HP-716732-601-Elitebook-Revolve-810-Intel-BGA-1023-i5-3437U-1-9GHz-Laptop-Motherboard/325888971'
p7
sS'price'
p8
V$124.99
p9
sS'properties'
p10
(dp11
VFeatures
p12
VRefurbished, Pre-owned, Tested
p13
sVBrand
p14
VHP
p15
sVManufacturer Part Number
p16
V716732-601TR
p17
sVProcessor Speed
p18
V1.9 GHz
p19
sVProcessor Type
p20
Vi5-3437U
p21
sVCondition
p22
VRefurbished
p23
ssS'title'
p24
VRefurbished HP 716732-601 Elitebook Revolve 810 Intel BGA 1023 i5-3437U 1.9GHz Laptop Motherboard
p25
sb.