ccopy_reg
_reconstructor
p0
(c__main__
ProductRecord
p1
c__builtin__
object
p2
Ntp3
Rp4
(dp5
S'product_url'
p6
S'http://www.walmart.com/ip/REFURBISHED-HP-Elitebook-8540p-15-6-Intel-Core-i5-2-4GHz-4GB-RAM-250GB-HD-Windows-7-Pro-Extra-Battery/149369478'
p7
sS'price'
p8
V$174.99
p9
sS'properties'
p10
(dp11
VRAM Memory
p12
V4 Gigabytes
p13
sVOperating System
p14
VWindows 7
p15
sVColor Category
p16
VSilver
p17
sVVideo Game Platform
p18
VPC
p19
sVBrand
p20
VHP
p21
sVManufacturer Part Number
p22
VBT082US
p23
sVLaptop Computer Type
p24
VBusiness Laptops
p25
sVProcessor Type
p26
VIntel Core i5
p27
sVScreen Size
p28
V15.6 in
p29
sVModel
p30
V8540p
p31
sVCondition
p32
VRefurbished
p33
sVManufacturer
p34
VHP
p35
ssS'title'
p36
VREFURBISHED HP Elitebook 8540p 15.6" Intel Core i5 @ 2.4GHz, 4GB RAM, 250GB HD, Windows 7 Pro & Extra Battery
p37
sb.