ccopy_reg
_reconstructor
p0
(c__main__
ProductRecord
p1
c__builtin__
object
p2
Ntp3
Rp4
(dp5
S'product_url'
p6
S'http://www.walmart.com/ip/Refurbished-Lenovo-ThinkPad-T420-i5-2-6GHz-4GB-160SSD-DRW-Windows-10-Pro-64-Laptop-CAM/111829939'
p7
sS'price'
p8
V$179.35
p9
sS'properties'
p10
(dp11
VBrand
p12
VLenovo
p13
sVModel
p14
VThinkpad T420
p15
ssS'title'
p16
VRefurbished Lenovo ThinkPad T420 i5 2.6GHz 4GB 160SSD DRW Windows 10 Pro 64 Laptop CAM
p17
sb.