ccopy_reg
_reconstructor
p0
(c__main__
ProductRecord
p1
c__builtin__
object
p2
Ntp3
Rp4
(dp5
S'product_url'
p6
S'http://www.walmart.com/ip/REFURBISHED-HP-Elitebook-8560p-15-6-Intel-Core-i5-2520M-2-5GHz-4GB-320GB-HDD-Windows-7-New-Battery-No-Webcam/355888031'
p7
sS'price'
p8
V$184.99
p9
sS'properties'
p10
(dp11
VRAM Memory
p12
V4 Gigabytes
p13
sVOperating System
p14
VWindows 7
p15
sVLaptop Computer Type
p16
VPC Laptops
p17
sVBrand
p18
VHP
p19
sVManufacturer Part Number
p20
VXU066UAABA320
p21
sVHard Drive Capacity
p22
V320 Gigabytes
p23
sVProcessor Type
p24
VIntel Core i5
p25
sVScreen Size
p26
V15.6 Inches
p27
sVModel
p28
V8560P
p29
sVManufacturer
p30
VHP
p31
ssS'title'
p32
VREFURBISHED HP Elitebook 8560p 15.6" Intel Core i5-2520M 2.5GHz 4GB 320GB HDD Windows 7 & New Battery (No Webcam)
p33
sb.