ccopy_reg
_reconstructor
p0
(c__main__
ProductRecord
p1
c__builtin__
object
p2
Ntp3
Rp4
(dp5
S'product_url'
p6
S'http://www.walmart.com/ip/Refurbished-HP-8300-USFF-Core-i5-3570-3-4GHZ-4GB-Memory-250GB-Hard-Drive-DVDRW-Windows-10-Pro/54767101'
p7
sS'price'
p8
V$187.88
p9
sS'properties'
p10
(dp11
sS'title'
p12
VRefurbished HP 8300-USFF Core i5-3570 3.4GHZ 4GB Memory 250GB Hard Drive DVDRW Windows 10 Pro
p13
sb.