ccopy_reg
_reconstructor
p0
(c__main__
ProductRecord
p1
c__builtin__
object
p2
Ntp3
Rp4
(dp5
S'product_url'
p6
S'http://www.walmart.com/ip/REFURBISHED-HP-8300-USDT-CORE-I5-4GB-250GB-WIN10P64/54767100'
p7
sS'price'
p8
V$188.88
p9
sS'properties'
p10
(dp11
VRAM Memory
p12
V4 GB
p13
sVOperating System
p14
VWindows 10
p15
sVVideo Game Platform
p16
VPC
p17
sVBrand
p18
VHP
p19
sVProcessor Speed
p20
V2.50 GHz
p21
sVManufacturer Part Number
p22
VIM2-20123-RF
p23
sVMaximum RAM Supported
p24
V16 GB
p25
sVHard Drive Capacity
p26
V250 GB
p27
sVAssembled Product Dimensions (L x W x H)
p28
V10.00 x 2.60 x 9.90 Inches
p29
sVModel
p30
V8300
p31
sVProcessor Type
p32
VIntel Core i5-2400 Processor
p33
sVCondition
p34
VRefurbished
p35
ssS'title'
p36
VREFURBISHED HP 8300 USDT CORE I5 4GB 250GB WIN10P64
p37
sb.