ccopy_reg
_reconstructor
p0
(c__main__
ProductRecord
p1
c__builtin__
object
p2
Ntp3
Rp4
(dp5
S'product_url'
p6
S'http://www.walmart.com/ip/Refurbished-Lenovo-ThinkPad-T530-2-6Ghz-i5-4GB-320GB-DVD-Windows-10-Pro-64-Laptop-B/940161023'
p7
sS'price'
p8
V$198.44
p9
sS'properties'
p10
(dp11
VBrand
p12
VLenovo
p13
sVModel
p14
VThinkPad T530
p15
ssS'title'
p16
VRefurbished Lenovo ThinkPad T530 2.6Ghz i5 4GB 320GB DVD Windows 10 Pro 64 Laptop B
p17
sb.