ccopy_reg
_reconstructor
p0
(c__main__
ProductRecord
p1
c__builtin__
object
p2
Ntp3
Rp4
(dp5
S'product_url'
p6
S'http://www.walmart.com/ip/Refurbished-HP-EliteBook-2570p-i5-2-6GHz-4GB-320GB-DRW-Windows-10-Pro-64-Laptop-B-Camera/372126923'
p7
sS'price'
p8
V$198.44
p9
sS'properties'
p10
(dp11
VBrand
p12
VHP
p13
sVModel
p14
VEliteBook 2570p
p15
ssS'title'
p16
VRefurbished HP EliteBook 2570p i5 2.6GHz 4GB 320GB DRW Windows 10 Pro 64 Laptop B Camera
p17
sb.