ccopy_reg
_reconstructor
p0
(c__main__
ProductRecord
p1
c__builtin__
object
p2
Ntp3
Rp4
(dp5
S'product_url'
p6
S'http://www.walmart.com/ip/REFURBISHED-HP-XT981UT-Mini-1103-Netbook-Intel-Atom-N455-1-66G-1GB-250GB-10/582701739'
p7
sS'price'
p8
V$199.00
p9
sS'properties'
p10
(dp11
VBrand
p12
VHP
p13
sVHard Drive Capacity
p14
V250
p15
sVCondition
p16
VRefurbished
p17
ssS'title'
p18
VREFURBISHED - HP XT981UT Mini 1103 Netbook - Intel Atom N455 1.66G 1GB 250GB 10.
p19
sb.