ccopy_reg
_reconstructor
p0
(c__main__
ProductRecord
p1
c__builtin__
object
p2
Ntp3
Rp4
(dp5
S'product_url'
p6
S'http://www.walmart.com/ip/Refurbished-HP-J9M84UA-14-X010NR-CHROMEBK-NVIDIA-QUAD-2GB-16GB-14IN-WL-BT-CHROME/492026325'
p7
sS'price'
p8
V$199.00
p9
sS'properties'
p10
(dp11
VBrand
p12
VHP
p13
ssS'title'
p14
VRefurbished HP J9M84UA 14-X010NR CHROMEBK NVIDIA QUAD 2GB 16GB 14IN WL BT CHROME
p15
sb.