ccopy_reg
_reconstructor
p0
(c__main__
ProductRecord
p1
c__builtin__
object
p2
Ntp3
Rp4
(dp5
S'product_url'
p6
S'http://www.walmart.com/ip/Refurbished-Dell-15-6-E6510-Laptop-PC-with-Intel-Core-i5-Processor-4GB-Memory-320GB-Hard-Drive-and-Windows-10-Pro/38760850'
p7
sS'price'
p8
V$210.00
p9
sS'properties'
p10
(dp11
VRAM Memory
p12
V4 GB
p13
sVOperating System
p14
VWindows 10
p15
sVColor Category
p16
VBlack
p17
sVVideo Game Platform
p18
VPC
p19
sVBrand
p20
VLatitude
p21
sVManufacturer Part Number
p22
VE6510 LT
p23
sVHard Drive Capacity
p24
V320 GB
p25
sVLaptop Computer Type
p26
VBusiness Laptops
p27
sVProcessor Core Type
p28
VDual-Core
p29
sVProcessor Type
p30
VIntel Core i5
p31
sVScreen Size
p32
V15.6"
p33
sVModel
p34
VE6510 LT
p35
sVCondition
p36
VRefurbished
p37
sVManufacturer
p38
VDell
p39
ssS'title'
p40
VRefurbished Dell 15.6" E6510 Laptop PC with Intel Core i5 Processor, 4GB Memory, 320GB Hard Drive and Windows 10 Pro
p41
sb.