ccopy_reg
_reconstructor
p0
(c__main__
ProductRecord
p1
c__builtin__
object
p2
Ntp3
Rp4
(dp5
S'product_url'
p6
S'http://www.walmart.com/ip/Refurbished-Dell-990-i5-Processor-4GB-250GB-Windows-10-Pro-SFF-Wi-Fi/163239080'
p7
sS'price'
p8
V$211.67
p9
sS'properties'
p10
(dp11
VRAM Memory
p12
V4 GB
p13
sVOperating System
p14
VWindows 10
p15
sVBrand
p16
VDell
p17
sVProcessor Speed
p18
V3.1 GHz
p19
sVHard Drive Capacity
p20
V250 GB
p21
sVModel
p22
VDell 990
p23
sVProcessor Type
p24
Vi5-2400
p25
sVCondition
p26
VRefurbished
p27
ssS'title'
p28
VRefurbished Dell 990 i5 Processor, 4GB, 250GB, Windows 10 Pro, SFF, Wi-Fi
p29
sb.