ccopy_reg
_reconstructor
p0
(c__main__
ProductRecord
p1
c__builtin__
object
p2
Ntp3
Rp4
(dp5
S'product_url'
p6
S'http://www.walmart.com/ip/Refurbished-Lenovo-Think-Options/185105764'
p7
sS'price'
p8
V$230.74
p9
sS'properties'
p10
(dp11
VBrand
p12
VLenovo
p13
sVOperating System
p14
VMicrosoft Windows
p15
sVModel
p16
V4X50G59217-14-zZz
p17
sVCondition
p18
VRefurbished
p19
sVManufacturer Part Number
p20
V4X50G59217-14-zZz
p21
ssS'title'
p22
VRefurbished Lenovo Think Options
p23
sb.