ccopy_reg
_reconstructor
p0
(c__main__
ProductRecord
p1
c__builtin__
object
p2
Ntp3
Rp4
(dp5
S'product_url'
p6
S'http://www.walmart.com/ip/HP-Refurbished-Dandelion-Breeze-15-6-Pavilion-G6-1B59WM-Laptop-PC-AMD-Dual-Core-A4-3300M-Processor-4GB-Memory-640GB-Hard-Drive-Windows-7-Home-Premium/33450835'
p7
sS'price'
p8
V$236.70
p9
sS'properties'
p10
(dp11
VRAM Memory
p12
V4 GB
p13
sVOperating System
p14
VWindows 7
p15
sVVideo Game Platform
p16
VPC
p17
sVBrand
p18
VHP
p19
sVProcessor Speed
p20
V2.50 GHz
p21
sVManufacturer Part Number
p22
V0081897001570
p23
sVHard Drive Capacity
p24
V640 GB
p25
sVAssembled Product Dimensions (L x W x H)
p26
V14.72 x 9.65 x 1.20 Inches
p27
sVModel
p28
VG6-1B59WM
p29
sVScreen Size
p30
V15.6"
p31
sVProcessor Type
p32
VAMD A-Series
p33
sVCondition
p34
VRefurbished
p35
ssS'title'
p36
VHP Refurbished Dandelion Breeze 15.6" Pavilion G6-1B59WM Laptop PC with AMD Dual-Core A4-3300M Processor, 4GB Memory, 640GB Hard Drive and Windows 7 Home Premium
p37
sb.