ccopy_reg
_reconstructor
p0
(c__main__
ProductRecord
p1
c__builtin__
object
p2
Ntp3
Rp4
(dp5
S'product_url'
p6
S'http://www.walmart.com/ip/Refurbished-HP-Elitebook-8440P-SN17VFHPLP0246-Notebook/481357927'
p7
sS'price'
p8
V$258.45
p9
sS'properties'
p10
(dp11
VBrand
p12
VHP
p13
sVOperating System
p14
VMicrosoft Windows
p15
sVCondition
p16
VRefurbished
p17
sVmanufacturer_part_number
p18
Vsn17vfhplp0246
p19
ssS'title'
p20
VRefurbished "HP Elitebook 8440P SN17VFHPLP0246 Notebook"
p21
sb.