ccopy_reg
_reconstructor
p0
(c__main__
ProductRecord
p1
c__builtin__
object
p2
Ntp3
Rp4
(dp5
S'product_url'
p6
S'http://www.walmart.com/ip/Refurbished-Dell-Latitude-E6230-i5-2-7GHz-4GB-256SSD-Windows-10-Pro-64-Laptop-Camera-B/778247560'
p7
sS'price'
p8
V$241.90
p9
sS'properties'
p10
(dp11
VBrand
p12
VDell
p13
sVRAM Memory
p14
V4 GB
p15
sVOperating System
p16
VMicrosoft Windows
p17
sVModel
p18
VLatitude E6230
p19
ssS'title'
p20
VRefurbished Dell Latitude E6230 i5 2.7GHz 4GB 256SSD Windows 10 Pro 64 Laptop Camera B
p21
sb.