ccopy_reg
_reconstructor
p0
(c__main__
ProductRecord
p1
c__builtin__
object
p2
Ntp3
Rp4
(dp5
S'product_url'
p6
S'http://www.walmart.com/ip/Refurbished-HP-Probook-6470b-Laptop-Intel-Core-i5-3230m-2-6Ghz-4GB-500GB-14in-W8-1/433356459'
p7
sS'price'
p8
V$248.99
p9
sS'properties'
p10
(dp11
VBrand
p12
VHP
p13
sVManufacturer Part Number
p14
VNB-HP-PROBOOK_6470B-NB-i5-2.8-4-500-RW-Y-10P-A
p15
sVHard Drive Capacity
p16
V500
p17
sVModel
p18
VProBook 6470b
p19
sVScreen Size
p20
V14
p21
sVProcessor Speed
p22
V2
p23
ssS'title'
p24
VRefurbished HP Probook 6470b Laptop Intel Core i5-3230m 2.6Ghz 4GB 500GB 14in W8.1
p25
sb.