ccopy_reg
_reconstructor
p0
(c__main__
ProductRecord
p1
c__builtin__
object
p2
Ntp3
Rp4
(dp5
S'product_url'
p6
S'http://www.walmart.com/ip/Refurbished-Mini-1103-XT994UA-10-1-LED-Netbook-Atom-N455-1-66GHz-Black/311289868'
p7
sS'price'
p8
V$249.00
p9
sS'properties'
p10
(dp11
VOperating System
p12
VMicrosoft Windows
p13
sVBrand
p14
VHP
p15
sVScreen Size
p16
V10.1
p17
sVCondition
p18
VRefurbished
p19
ssS'title'
p20
VRefurbished Mini 1103 XT994UA 10.1" LED Netbook - Atom N455 1.66GHz - Black
p21
sb.