ccopy_reg
_reconstructor
p0
(c__main__
ProductRecord
p1
c__builtin__
object
p2
Ntp3
Rp4
(dp5
S'product_url'
p6
S'http://www.walmart.com/ip/REFURBISHED-Mini-1104-B2B58UA-10-1-LED-Netbook-Atom-N2600-1-6GHz/593970233'
p7
sS'price'
p8
V$249.95
p9
sS'properties'
p10
(dp11
VOperating System
p12
VMicrosoft Windows
p13
sVBrand
p14
VIBM
p15
sVScreen Size
p16
V10.1
p17
sVCondition
p18
VRefurbished
p19
ssS'title'
p20
VREFURBISHED - Mini 1104 B2B58UA 10.1" LED Netbook - Atom N2600 1.6GHz
p21
sb.