ccopy_reg
_reconstructor
p0
(c__main__
ProductRecord
p1
c__builtin__
object
p2
Ntp3
Rp4
(dp5
S'product_url'
p6
S'http://www.walmart.com/ip/Refurbished-Mini-1104-B2B58UA-10-1-LED-Netbook-Atom-N2600-1-6GHz/204523304'
p7
sS'price'
p8
V$249.95
p9
sS'properties'
p10
(dp11
VBrand
p12
VHP
p13
ssS'title'
p14
VRefurbished Mini 1104 B2B58UA 10.1" LED Netbook - Atom N2600 1.6GHz
p15
sb.