ccopy_reg
_reconstructor
p0
(c__main__
ProductRecord
p1
c__builtin__
object
p2
Ntp3
Rp4
(dp5
S'product_url'
p6
S'http://www.walmart.com/ip/Refurbished-HP-Mini-110-3098NR-Laptop-10-1-diagonal-WSVGA-HP-Anti-glare-LED-Display-1024-x-600-1-66-GHz-Intel-Atom-Processor-1GB-DDR2-RAM-160GB-Hard-/289501160'
p7
sS'price'
p8
V$249.98
p9
sS'properties'
p10
(dp11
VBrand
p12
VHP
p13
ssS'title'
p14
VRefurbished HP Mini 110-3098NR Laptop 10.1" diagonal WSVGA HP Anti-glare LED Display (1024 x 600) 1.66 GHz Intel Atom Processor 1GB DDR2 RAM 160GB Hard Drive with Case Logic Carrying Case
p15
sb.