ccopy_reg
_reconstructor
p0
(c__main__
ProductRecord
p1
c__builtin__
object
p2
Ntp3
Rp4
(dp5
S'product_url'
p6
S'http://www.walmart.com/ip/HP-ProBook-6560b-i3-2-10GHz-2GB-320Gb-Windows-7-Pro-64-bit-Refurbished/157572893'
p7
sS'price'
p8
V$249.99
p9
sS'properties'
p10
(dp11
VBrand
p12
VHP
p13
sVHard Drive Capacity
p14
V320
p15
ssS'title'
p16
VHP ProBook 6560b i3 2.10GHz, 2GB, 320Gb, Windows 7 Pro 64-bit  Refurbished
p17
sb.