ccopy_reg
_reconstructor
p0
(c__main__
ProductRecord
p1
c__builtin__
object
p2
Ntp3
Rp4
(dp5
S'product_url'
p6
S'http://www.walmart.com/ip/REFURBISHED-HP-3105m-XU009UT-11-6-Laptop-Computer-AMD-Dual-Core-E-350-1-6GHz/203763816'
p7
sS'price'
p8
V$260.01
p9
sS'properties'
p10
(dp11
VBrand
p12
VDell
p13
sVScreen Size
p14
V11.6
p15
sVCondition
p16
VRefurbished
p17
ssS'title'
p18
VREFURBISHED - HP 3105m XU009UT 11.6" Laptop Computer (AMD Dual-Core E-350 1.6GHz
p19
sb.