ccopy_reg
_reconstructor
p0
(c__main__
ProductRecord
p1
c__builtin__
object
p2
Ntp3
Rp4
(dp5
S'product_url'
p6
S'http://www.walmart.com/ip/Wyse-909699-31L-X00m-Cloud-PC-AMD-T56N-1-65-GHz-Dual-Core-Refurbished/144340775'
p7
sS'price'
p8
V$248.49
p9
sS'properties'
p10
(dp11
VVideo Game Platform
p12
VUnknown
p13
sVBrand
p14
VDell
p15
sVModel
p16
V909699-31L
p17
sVmanufacturer_part_number
p18
V909699-31l
p19
ssS'title'
p20
VWyse 909699-31L X00m Cloud PC - AMD T56N 1.65 GHz Dual-Core (Refurbished)
p21
sb.