ccopy_reg
_reconstructor
p0
(c__main__
ProductRecord
p1
c__builtin__
object
p2
Ntp3
Rp4
(dp5
S'product_url'
p6
S'http://www.walmart.com/ip/Refurbished-HP-Folio-9480M-2-0GHz-i5-8GB-128SSD-Windows-10-Pro-64-14-Laptop-B-Camera/402040263'
p7
sS'price'
p8
V$260.95
p9
sS'properties'
p10
(dp11
VOperating System
p12
VMicrosoft Windows
p13
sVBrand
p14
VHP
p15
sVRAM Memory
p16
V8 GB
p17
sVScreen Size
p18
V14\u005c"
p19
sVModel
p20
VFolio 9480M
p21
ssS'title'
p22
VRefurbished HP Folio 9480M 2.0GHz i5 8GB 128SSD Windows 10 Pro 64 14" Laptop B Camera
p23
sb.