ccopy_reg
_reconstructor
p0
(c__main__
ProductRecord
p1
c__builtin__
object
p2
Ntp3
Rp4
(dp5
S'product_url'
p6
S'http://www.walmart.com/ip/Refurbished-MicroScreen-17-3-LED-WXGA-HD-Matte-652520-001-652520-001-652520-001/263733331'
p7
sS'price'
p8
V$266.88
p9
sS'properties'
p10
(dp11
VBrand
p12
VHP
p13
ssS'title'
p14
VRefurbished MicroScreen 17,3 LED WXGA HD Matte 652520-001, 652520-001 (652520-001)
p15
sb.