ccopy_reg
_reconstructor
p0
(c__main__
ProductRecord
p1
c__builtin__
object
p2
Ntp3
Rp4
(dp5
S'product_url'
p6
S'http://www.walmart.com/ip/Refurbished-Dell-Vostro-15-3000-15-3558-15-6-LED-Notebook-Intel-Core-i3-i3-4005U-Dual-core-2-Core-1-70-GHz-VOS35583750/190893652'
p7
sS'price'
p8
V$269.09
p9
sS'properties'
p10
(dp11
VBrand
p12
VDell
p13
ssS'title'
p14
VRefurbished Dell Vostro 15 3000 15-3558 15.6 LED Notebook - Intel Core i3 i3-4005U Dual-core (2 Core) 1.70 GHz VOS35583750
p15
sb.