ccopy_reg
_reconstructor
p0
(c__main__
ProductRecord
p1
c__builtin__
object
p2
Ntp3
Rp4
(dp5
S'product_url'
p6
S'http://www.walmart.com/ip/Refurbished-Lenovo-ThinkPad-L440-2-6GHz-i5-4GB-500GB-DVD-Windows-10-Pro-64-Laptop-B-Camera/700950422'
p7
sS'price'
p8
V$273.00
p9
sS'properties'
p10
(dp11
VHard Drive Capacity
p12
V500 GB
p13
sVBrand
p14
VLenovo
p15
sVRAM Memory
p16
V4 GB
p17
sVOperating System
p18
VMicrosoft Windows
p19
sVModel
p20
VThinkPad L440
p21
ssS'title'
p22
VRefurbished Lenovo ThinkPad L440 2.6GHz i5 4GB 500GB DVD Windows 10 Pro 64 Laptop B Camera
p23
sb.