ccopy_reg
_reconstructor
p0
(c__main__
ProductRecord
p1
c__builtin__
object
p2
Ntp3
Rp4
(dp5
S'product_url'
p6
S'http://www.walmart.com/ip/Lenovo-Thinkpad-Yoga-260-Convertible-Multimode-Ultrabook-Intel-Core-i7-6500U-16GB-RAM-1TB-NVMe-PCIe-SSD-12-5-IPS-FHD-1920x1080-Touchscreen-Digitizer-/994383765'
p7
sS'price'
p8
S'N/A'
p9
sS'properties'
p10
(dp11
sS'title'
p12
VLenovo Thinkpad Yoga 260 Convertible Multimode Ultrabook - Intel Core i7-6500U, 16GB RAM, 1TB NVMe-PCIe SSD, 12.5" IPS FHD (1920x1080) Touchscreen + Digitizer Pen, Backlit Keyboard, Windows 8.1 Pro
p13
sb.