ccopy_reg
_reconstructor
p0
(c__main__
ProductRecord
p1
c__builtin__
object
p2
Ntp3
Rp4
(dp5
S'product_url'
p6
S'http://www.walmart.com/ip/Microsoft-Surface-Pro-4/47167961'
p7
sS'price'
p8
S'N/A'
p9
sS'properties'
p10
(dp11
VOperating System
p12
VMicrosoft Windows
p13
sVFeatures
p14
VAmbient Light Sensor, Gyro Sensor, Digital Compass, G-sensor, Webcam
p15
sVAccessories Included
p16
V Surface Pro 4 Tablet PC Standard Battery Surface Pen Power Supply Quick Start Guide Safety and warranty documents 
p17
sVColor
p18
VSilver
p19
sVBrand
p20
VMicrosoft
p21
sVManufacturer Part Number
p22
VCR5-00001
p23
sVMaximum RAM Supported
p24
V4 KB
p25
sVBattery Life
p26
V9 Hours
p27
sVModel Name
p28
VMicrosoft Surface Pro 4
p29
sVAssembled Product Dimensions (L x W x H)
p30
V9.21 x 15.17 x 1.58 Inches
p31
sVModel
p32
VCR5-00001
p33
sVScreen Size
p34
V12.3 in
p35
sVCondition
p36
VNew
p37
ssS'title'
p38
VMicrosoft Surface Pro 4
p39
sb.