ccopy_reg
_reconstructor
p0
(c__main__
ProductRecord
p1
c__builtin__
object
p2
Ntp3
Rp4
(dp5
S'product_url'
p6
S'http://www.walmart.com/ip/Lenovo-ThinkPad-X1-Tablet-12-Core-i7-7Y75-16-GB-RAM-512-GB-SSD/598507616'
p7
sS'price'
p8
S'N/A'
p9
sS'properties'
p10
(dp11
VOperating System
p12
VWindows 10 Pro (English)
p13
sVAccessories Included
p14
VThinkPad X1 Tablet 20JB002EUS 2 in 1 NotebookLithium Polymer BatteryAC Adapter Stylus
p15
sVColor
p16
VMidnight Black
p17
sVBrand
p18
VLenovo
p19
sVManufacturer Part Number
p20
V20JB002EUS
p21
sVBattery Life
p22
V0 h
p23
sVAssembled Product Dimensions (L x W x H)
p24
V14.00 x 11.00 x 4.00 Inches
p25
sVModel
p26
V20JB002EUS
p27
sVScreen Size
p28
V12.00 Inches
p29
ssS'title'
p30
VLenovo ThinkPad X1 Tablet - 12" - Core i7 7Y75 - 16 GB RAM - 512 GB SSD
p31
sb.