ccopy_reg
_reconstructor
p0
(c__main__
ProductRecord
p1
c__builtin__
object
p2
Ntp3
Rp4
(dp5
S'product_url'
p6
S'http://www.walmart.com/ip/Lenovo-X1-Yoga-20JD000ZUS-Convertible-Notebook-PC-Intel-Core-Refurbished/835085656'
p7
sS'price'
p8
S'N/A'
p9
sS'properties'
p10
(dp11
VRAM Memory
p12
V16 GB
p13
sVOperating System
p14
VWindows 10 Professional 64-bit Edition
p15
sVBrand
p16
VLenovo
p17
sVProcessor Speed
p18
V2.8 GHz
p19
sVHard Drive Capacity
p20
V1024 GB
p21
sVModel
p22
V20JD000ZUS
p23
sVScreen Size
p24
V14 in
p25
sVProcessor Type
p26
VIntel Core i7
p27
sVmanufacturer_part_number
p28
V20jd000zus
p29
ssS'title'
p30
VLenovo X1 Yoga 20JD000ZUS Convertible Notebook PC - Intel Core (Refurbished)
p31
sb.