ccopy_reg
_reconstructor
p0
(c__main__
ProductRecord
p1
c__builtin__
object
p2
Ntp3
Rp4
(dp5
S'product_url'
p6
S'http://www.walmart.com/ip/Lenovo-ThinkPad-P40-Yoga-14-Core-i7-6600U-16-GB-RAM-512-GB-SSD/51053654'
p7
sS'price'
p8
S'N/A'
p9
sS'properties'
p10
(dp11
VRAM Memory
p12
V16 GB
p13
sVOperating System
p14
VWindows 10
p15
sVVideo Game Platform
p16
VPC
p17
sVBrand
p18
VLenovo
p19
sVProcessor Speed
p20
V2.6 GHz
p21
sVManufacturer Part Number
p22
V20GQ000EUS
p23
sVMaximum RAM Supported
p24
V16 GB
p25
sVHard Drive Capacity
p26
V512 GB
p27
sVBattery Life
p28
V8 hours
p29
sVAssembled Product Dimensions (L x W x H)
p30
V9.30 x 13.30 x 0.80 Inches
p31
sVModel
p32
V20GQ
p33
sVScreen Size
p34
V14"
p35
sVProcessor Type
p36
VIntel Core i7
p37
sVCondition
p38
VNew
p39
ssS'title'
p40
VLenovo ThinkPad P40 Yoga - 14" - Core i7 6600U - 16 GB RAM - 512 GB SSD
p41
sb.