ccopy_reg
_reconstructor
p0
(c__main__
ProductRecord
p1
c__builtin__
object
p2
Ntp3
Rp4
(dp5
S'product_url'
p6
S'http://www.walmart.com/ip/Lenovo-Yoga-Y720-13-Premium-Thin-Light-Convertible-2-1-Laptop-PC-Intel-8th-Gen-i7-Quad-Core-13-3-1920x1080-Full-HD-Touch-16GB-RAM-2TB-PCIe-SSD-Thunde/910538246'
p7
sS'price'
p8
S'N/A'
p9
sS'properties'
p10
(dp11
VRAM Memory
p12
V16 GB
p13
sVOperating System
p14
VMicrosoft Windows
p15
sVBrand
p16
VMichaelElectronics2
p17
sVManufacturer Part Number
p18
VLEN-13-01235-FHD-ME3
p19
sVHard Drive Capacity
p20
V2 TB
p21
sVProcessor Type
p22
V8th Generation Quad Core Intel i7-8550U Processor
p23
sVScreen Size
p24
V13.3 in
p25
sVProcessor Speed
p26
V1.8 GHz
p27
sVCondition
p28
VNew
p29
ssS'title'
p30
VLenovo Yoga Y720 13" Premium Thin Light Convertible 2 in 1 Laptop PC (Intel 8th Gen i7 Quad Core, 13.3" 1920x1080 Full HD Touch, 16GB RAM, 2TB PCIe SSD, Thunderbolt, Fingerprint, Win 10 Home)
p31
sb.