ccopy_reg
_reconstructor
p0
(c__main__
ProductRecord
p1
c__builtin__
object
p2
Ntp3
Rp4
(dp5
S'product_url'
p6
S'http://www.walmart.com/ip/HP-Pavilion-x360-2-in-1-15-6-FHD-Touchscreen-i5-7200U-8GB-RAM-128GB-SSD-Win-10/394345063'
p7
sS'price'
p8
S'N/A'
p9
sS'properties'
p10
(dp11
VRAM Memory
p12
V8 GB
p13
sVOperating System
p14
VMicrosoft Windows
p15
sVBrand
p16
VHP
p17
sVManufacturer Part Number
p18
V15-BR095MS
p19
sVHard Drive Capacity
p20
V128 GB
p21
sVModel
p22
Vx360
p23
ssS'title'
p24
VHP Pavilion x360 2-in-1 15.6 FHD Touchscreen i5-7200U 8GB RAM 128GB SSD Win 10
p25
sb.