ccopy_reg
_reconstructor
p0
(c__main__
ProductRecord
p1
c__builtin__
object
p2
Ntp3
Rp4
(dp5
S'product_url'
p6
S'http://www.walmart.com/ip/Panasonic-Toughbook-CF-20C0001VM-10-1-Hybrid-Netbook-w-8GB-RAM-128GB-SSD/129133364'
p7
sS'price'
p8
S'N/A'
p9
sS'properties'
p10
(dp11
VRAM Memory
p12
V8 GB
p13
sVOperating System
p14
VMicrosoft Windows, Windows 10
p15
sVFeatures
p16
VPanasonic Toughbook 20Power adapter
p17
sVVideo Game Platform
p18
VPC
p19
sVBrand
p20
VPanasonic
p21
sVProcessor Speed
p22
V1.1 GHz
p23
sVManufacturer Part Number
p24
VCF-20C0001VM
p25
sVHard Drive Capacity
p26
V128
p27
sVAssembled Product Dimensions (L x W x H)
p28
V7.70 x 10.70 x 0.60 Inches
p29
sVModel
p30
VToughbook CF-20C0001VM 2 in 1 Netbook
p31
sVScreen Size
p32
V10.10 in
p33
sVProcessor Type
p34
VCore m5
p35
ssS'title'
p36
VPanasonic Toughbook CF-20C0001VM 10.1" Hybrid Netbook w/ 8GB RAM & 128GB SSD
p37
sb.