ccopy_reg
_reconstructor
p0
(c__main__
ProductRecord
p1
c__builtin__
object
p2
Ntp3
Rp4
(dp5
S'product_url'
p6
S'http://www.walmart.com/ip/Acer-Switch-5-2-in-1-Notebook-with-Intel-i7-7500U-8GB-256GB-SSD/541797000'
p7
sS'price'
p8
S'N/A'
p9
sS'properties'
p10
(dp11
VRAM Memory
p12
V8 Gigabytes
p13
sVOperating System
p14
VWindows 10
p15
sVBrand
p16
VAcer
p17
sVProcessor Speed
p18
V2.7 Gigahertz
p19
sVManufacturer Part Number
p20
VNT.LDSAA.004
p21
sVHard Drive Capacity
p22
V256 Gigabytes
p23
sVAssembled Product Dimensions (L x W x H)
p24
V16.00 x 10.00 x 3.00 Inches
p25
sVModel
p26
VNT.LDSAA.004
p27
sVScreen Size
p28
V12.00 Inches
p29
sVProcessor Type
p30
VIntel i7-7500U
p31
sVCondition
p32
VNew
p33
ssS'title'
p34
VAcer Switch 5 2-in-1 Notebook with Intel i7-7500U, 8GB 256GB SSD
p35
sb.