ccopy_reg
_reconstructor
p0
(c__main__
ProductRecord
p1
c__builtin__
object
p2
Ntp3
Rp4
(dp5
S'product_url'
p6
S'http://www.walmart.com/ip/Microsoft-Surface-Book13-5-8GB-128GB-Intel-Core-i5-processor-Windows-10-Pro/52497343'
p7
sS'price'
p8
S'N/A'
p9
sS'properties'
p10
(dp11
VOperating System
p12
VMicrosoft Windows
p13
sVAccessories Included
p14
VAC Adapter
p15
sVBrand
p16
VMicrosoft
p17
sVWireless Technology
p18
VWi-Fi
p19
sVBattery Life
p20
V12 h
p21
sVProcessor Core Type
p22
VDual-core (2 Core)
p23
sVProduct Line
p24
VSurface Book
p25
sVModel
p26
VCR9-00001
p27
sVScreen Size
p28
V13.5 in
p29
sVCondition
p30
VNew
p31
sVManufacturer
p32
VMicrosoft
p33
ssS'title'
p34
VMicrosoft Surface Book13.5" 8GB/ 128GB Intel Core i5 processor Windows 10 Pro
p35
sb.