ccopy_reg
_reconstructor
p0
(c__main__
ProductRecord
p1
c__builtin__
object
p2
Ntp3
Rp4
(dp5
S'product_url'
p6
S'http://www.walmart.com/ip/Acer-Sky-Blue-11-6-R11-R3-131T-C1YF-touch-screen-2-in-1-Convertible-Laptop-PC-Intel-Celeron-N3050-Processor-2GB-Memory-32GB-eMMC-Windows-10/46444950'
p7
sS'price'
p8
S'N/A'
p9
sS'properties'
p10
(dp11
VRAM Memory
p12
V2 GB
p13
sVOperating System
p14
VWindows 10
p15
sVFeatures
p16
VAccelerometer
p17
sVVideo Game Platform
p18
VPC
p19
sVBrand
p20
VAcer
p21
sVProcessor Speed
p22
V1.60 GHz, with a Max Turbo Speed of 2.16 GHz
p23
sVManufacturer Part Number
p24
VNX.G10AA.005
p25
sVMaximum RAM Supported
p26
V8 GB
p27
sVHard Drive Capacity
p28
V32 GB
p29
sVBattery Life
p30
V8 hours
p31
sVAssembled Product Dimensions (L x W x H)
p32
V11.73 x 8.31 x 0.82 Inches
p33
sVModel
p34
VR3-131T-C1YF
p35
sVScreen Size
p36
V11.6"
p37
sVProcessor Type
p38
VIntel Celeron
p39
sVCondition
p40
VNew
p41
ssS'title'
p42
VAcer Sky Blue 11.6" R11 R3-131T-C1YF touch screen 2-in-1 Convertible Laptop PC with Intel Celeron N3050 Processor, 2GB Memory, 32GB eMMC and Windows 10
p43
sb.