ccopy_reg
_reconstructor
p0
(c__main__
ProductRecord
p1
c__builtin__
object
p2
Ntp3
Rp4
(dp5
S'product_url'
p6
S'http://www.walmart.com/ip/RCA-Cambio-10-1-2-in-1-Tablet-32GB-Intel-Atom-Z3735F-Quad-Core-Processor-Windows-10/45804382'
p7
sS'price'
p8
S'N/A'
p9
sS'properties'
p10
(dp11
VOperating System
p12
VMicrosoft Windows
p13
sVAccessories Included
p14
VAC Adapter
p15
sVBrand
p16
VRCA
p17
sVTablet Computer Type
p18
VTablet
p19
sVBattery Life
p20
V6 hours
p21
sVModel Name
p22
VRCA
p23
sVProduct Line
p24
VComputer Electronics
p25
sVModel
p26
VW101V2 C
p27
sVCondition
p28
VNew
p29
sVManufacturer
p30
VVenturer Electronics
p31
ssS'title'
p32
VRCA Cambio 10.1" 2-in-1 Tablet 32GB Intel Atom Z3735F Quad-Core Processor Windows 10
p33
sb.