ccopy_reg
_reconstructor
p0
(c__main__
ProductRecord
p1
c__builtin__
object
p2
Ntp3
Rp4
(dp5
S'product_url'
p6
S'http://www.walmart.com/ip/RCA-Viking-Pro-10-1-2-in-1-Tablet-32GB-Quad-Core/44185464'
p7
sS'price'
p8
S'N/A'
p9
sS'properties'
p10
(dp11
VRAM Memory
p12
V2 GB
p13
sVOperating System
p14
VChrome
p15
sVColor Category
p16
VSilver
p17
sVLaptop Computer Type
p18
VTouchscreen:Chrome books
p19
sVBrand
p20
VASUS
p21
sVManufacturer Part Number
p22
VC100PA-RBRKT03
p23
sVWireless Technology
p24
VIEEE 802.11ac
p25
sVProcessor Type
p26
VRockchip RK3288C Quad-Core ProcessorRockchip RK3288C Quad-Core Processor
p27
sVScreen Size
p28
V10.1 in
p29
sVModel
p30
VC100PA-RBRKT03
p31
sVCondition
p32
VNew
p33
sVManufacturer
p34
VAsus
p35
ssS'title'
p36
VASUS Silver 10.1" C100PA\u2013RBRKT03 Chromebook PC with Rockchip RK3288C Quad-Core Processor, 2GB Memory, touch screen, 16GB eMMC Storage and Chrome OS
p37
sb.