ccopy_reg
_reconstructor
p0
(c__main__
ProductRecord
p1
c__builtin__
object
p2
Ntp3
Rp4
(dp5
S'product_url'
p6
S'http://www.walmart.com/ip/Nextbook-Flexx-11-6-2-in-1-Tablet-2-64GB-Intel-Quad-Core-Windows-10/47055697'
p7
sS'price'
p8
S'N/A'
p9
sS'properties'
p10
(dp11
VOperating System
p12
VMicrosoft Windows
p13
sVAccessories Included
p14
VAC Adapter
p15
sVBrand
p16
VNextbook
p17
sVWireless Technology
p18
VIEEE 802.11g
p19
sVTablet Computer Type
p20
VLaptop
p21
sVProduct Line
p22
VNextbook Flexx
p23
sVModel
p24
VNXW116QC264T
p25
sVScreen Size
p26
V11.6 in
p27
sVCondition
p28
VNew
p29
sVManufacturer
p30
VEfun
p31
ssS'title'
p32
VNextbook Flexx 11.6" 2-in-1 Tablet 2/64GB Intel Quad Core Windows 10
p33
sb.