ccopy_reg
_reconstructor
p0
(c__main__
ProductRecord
p1
c__builtin__
object
p2
Ntp3
Rp4
(dp5
S'product_url'
p6
S'http://www.walmart.com/ip/Dell-Inspiron-11-3147/37065082'
p7
sS'price'
p8
S'N/A'
p9
sS'properties'
p10
(dp11
VRAM Memory
p12
V4 GB
p13
sVOperating System
p14
VMicrosoft Windows
p15
sVFeatures
p16
VWindows 8.1 Home Premium 64-bit Operating System
p17
sVVideo Game Platform
p18
VPC
p19
sVBrand
p20
VDell
p21
sVProcessor Speed
p22
V2.16 GHz
p23
sVManufacturer Part Number
p24
Vi3147-3750sLV
p25
sVMaximum RAM Supported
p26
V4 GB
p27
sVHard Drive Capacity
p28
V500 GB
p29
sVBattery Life
p30
V7.50 Hour
p31
sVAssembled Product Dimensions (L x W x H)
p32
V11.81 x 11.80 x 0.80 Inches
p33
sVModel
p34
VWireless-N 1707, HD Graphics, 11 3000, i3147-3750sLV
p35
sVScreen Size
p36
V11.6"
p37
sVProcessor Type
p38
VIntel Pentium
p39
sVCondition
p40
VRefurbished
p41
ssS'title'
p42
VDell Inspiron 11 - 3147
p43
sb.