ccopy_reg
_reconstructor
p0
(c__main__
ProductRecord
p1
c__builtin__
object
p2
Ntp3
Rp4
(dp5
S'product_url'
p6
S'http://www.walmart.com/ip/14-Ultra-Slim-Laptop-Windows-10-Home-Office-365-Personal-1-Year-Subscription-Included-69-99-Value-Full-HD-Intel-Processor-32GB-storage-Front-camera-1/56123845'
p7
sS'price'
p8
S'N/A'
p9
sS'properties'
p10
(dp11
VRAM Memory
p12
V4 KB
p13
sVOperating System
p14
VMicrosoft Windows
p15
sVBrand
p16
VDirekt-Tek
p17
sVManufacturer Part Number
p18
VDTLAPC14-1-SL
p19
sVHard Drive Capacity
p20
V32 KB
p21
sVAssembled Product Dimensions (L x W x H)
p22
V15.55 x 10.43 x 2.99 Inches
p23
sVModel
p24
VDTLAPC14-1-SL
p25
sVScreen Size
p26
V14
p27
sVProcessor Type
p28
VIntel Atom
p29
sVCondition
p30
VNew
p31
ssS'title'
p32
V14" Ultra Slim Laptop, Windows 10 Home, Office 365 Personal 1-Year Subscription Included ($69.99 Value), Full HD, Intel Processor, 32GB storage, Front camera with 10 hour battery
p33
sb.