ccopy_reg
_reconstructor
p0
(c__main__
ProductRecord
p1
c__builtin__
object
p2
Ntp3
Rp4
(dp5
S'product_url'
p6
S'http://www.walmart.com/ip/Lenovo-Yoga-Book-YB1-X91F-ZA150289US-10-1-Atom-x5-x5-Z8550-4GB-LPDDR3-128GB-Flash-Memory-Windows-10-Pro-1920-x-1200-IPS-Convertible-2-1-Notebook/689110986'
p7
sS'price'
p8
S'N/A'
p9
sS'properties'
p10
(dp11
VRAM Memory
p12
V4.00 GB
p13
sVOperating System
p14
VWindows 10
p15
sVColor Category
p16
VWhite
p17
sVLaptop Computer Type
p18
V2-in-1s
p19
sVBrand
p20
VLenovo
p21
sVManufacturer Part Number
p22
VZA150289US
p23
sVWireless Technology
p24
VBluetooth; 802.11ac
p25
sVHard Drive Capacity
p26
V128.00 GB
p27
sVProcessor Core Type
p28
VQuad-core (4 Core)
p29
sVProcessor Type
p30
VAtom x5
p31
sVScreen Size
p32
V10.10 in
p33
sVModel
p34
VZA150289US
p35
sVManufacturer
p36
VLenovo Group Limited
p37
ssS'title'
p38
VLenovo Yoga Book YB1-X91F ZA150289US 10.1" Atom x5 x5-Z8550 4GB LPDDR3 - 128GB Flash Memory Windows 10 Pro 1920 x 1200 IPS Convertible 2 in 1 Notebook
p39
sb.