ccopy_reg
_reconstructor
p0
(c__main__
ProductRecord
p1
c__builtin__
object
p2
Ntp3
Rp4
(dp5
S'product_url'
p6
S'http://www.walmart.com/ip/Dell-Inspiron-15-6-Laptop-AMD-A9-8GB-AMD-Radeon-R5-Graphics-1TB-HD-Red/54527141'
p7
sS'price'
p8
S'N/A'
p9
sS'properties'
p10
(dp11
VRAM Memory
p12
V8 KB
p13
sVOperating System
p14
VWindows 10
p15
sVColor Category
p16
VRed
p17
sVVideo Game Platform
p18
VPC
p19
sVBrand
p20
VDell
p21
sVManufacturer Part Number
p22
Vi5565-0019RED
p23
sVHard Drive Capacity
p24
V1 KB
p25
sVLaptop Computer Type
p26
VPC Laptops
p27
sVProcessor Type
p28
VAMD A9-9400 Processor
p29
sVScreen Size
p30
V15.6"
p31
sVModel
p32
Vi5565-0019RED
p33
sVCondition
p34
VNew
p35
sVManufacturer
p36
VDell Inc
p37
ssS'title'
p38
VDell - Inspiron 15.6" Laptop - AMD A9-- 8GB - AMD Radeon R5 Graphics - 1TB HD - Red
p39
sb.