ccopy_reg
_reconstructor
p0
(c__main__
ProductRecord
p1
c__builtin__
object
p2
Ntp3
Rp4
(dp5
S'product_url'
p6
S'http://www.walmart.com/ip/HP-14-Snow-White-Pastel-Sky-Blue-14-Ak060Nr-Chromebook-PC-Intel-Celeron-N2940-Quad-Core-Processor-4GB-Memory-16GB-eMMC-Hard-Drive-Chrome-OS/47612800'
p7
sS'price'
p8
S'N/A'
p9
sS'properties'
p10
(dp11
VRAM Memory
p12
V4 KB
p13
sVOperating System
p14
VChrome
p15
sVColor Category
p16
VWhite
p17
sVVideo Game Platform
p18
VPC
p19
sVBrand
p20
VHP
p21
sVManufacturer Part Number
p22
VN9E34UA#ABA
p23
sVWireless Technology
p24
VBluetooth
p25
sVHard Drive Capacity
p26
V16 KB
p27
sVLaptop Computer Type
p28
VChromebooks
p29
sVProcessor Core Type
p30
VQuad-core (4 Core)
p31
sVProcessor Type
p32
VIntel Celeron
p33
sVScreen Size
p34
V14 in
p35
sVModel
p36
VHP 14-AK060NR
p37
sVCondition
p38
VNew
p39
sVManufacturer
p40
VHP
p41
ssS'title'
p42
VHP 14" Snow White/Pastel Sky Blue 14-Ak060Nr Chromebook PC with Intel Celeron N2940 Quad-Core Processor, 4GB Memory, 16GB eMMC Hard Drive and Chrome OS
p43
sb.