ccopy_reg
_reconstructor
p0
(c__main__
ProductRecord
p1
c__builtin__
object
p2
Ntp3
Rp4
(dp5
S'product_url'
p6
S'http://www.walmart.com/ip/HP-Silver-Iridium-15-6-Laptop-Touchscreen-Intel-Core-i7-7500u-Intel-HD-Graphic-620-Graphic-Card-12GB-Memory-1TB-HD-Windows-10-Home-15-cc060wm/619168338'
p7
sS'price'
p8
S'N/A'
p9
sS'properties'
p10
(dp11
VRAM Memory
p12
V12 KB
p13
sVOperating System
p14
VWindows 10
p15
sVColor Category
p16
VSilver
p17
sVLaptop Computer Type
p18
VPC Laptops
p19
sVBrand
p20
VHP
p21
sVManufacturer Part Number
p22
V1KU13UA#ABA
p23
sVWireless Technology
p24
V802.11ac
p25
sVHard Drive Capacity
p26
V1 KB
p27
sVProcessor Type
p28
V7th Generation Intel?? Core??? i7-7500U Processor7th Generation Intel?? Core??? i7-7500U Processor
p29
sVScreen Size
p30
V15.6 in
p31
sVModel
p32
V15-cc060wm
p33
sVManufacturer
p34
VHP
p35
ssS'title'
p36
VHP Silver Iridium 15.6" Laptop, Touchscreen, Intel Core i7-7500u, Intel HD Graphic 620 Graphic Card, 12GB Memory, 1TB HD, Windows 10 Home, 15-cc060wm
p37
sb.