ccopy_reg
_reconstructor
p0
(c__main__
ProductRecord
p1
c__builtin__
object
p2
Ntp3
Rp4
(dp5
S'product_url'
p6
S'http://www.walmart.com/ip/13-3-Convertible-Touchscreen-Laptop-Windows-10-Home-Office-365-Personal-1-Year-Subscription-Included-69-99-Value-Windows-Hello-Fingerprint-Reader-Win/56123870'
p7
sS'price'
p8
S'N/A'
p9
sS'properties'
p10
(dp11
VOperating System
p12
VMicrosoft Windows
p13
sVColor Category
p14
VSilver
p15
sVLaptop Computer Type
p16
VTouchscreen
p17
sVBrand
p18
VDirekt-Tek
p19
sVManufacturer Part Number
p20
VDTLAPY133-1-SL
p21
sVModel
p22
VDTLAPY133-1-SL
p23
sVScreen Size
p24
V13.3
p25
sVCondition
p26
VNew
p27
sVManufacturer
p28
VDirekt-Tek
p29
ssS'title'
p30
V13.3" Convertible Touchscreen Laptop, Windows 10 Home, Office 365 Personal 1-Year Subscription Included ($69.99 Value), Windows Hello (Fingerprint Reader), Windows Ink (Smart Stylus included)
p31
sb.