ccopy_reg
_reconstructor
p0
(c__main__
ProductRecord
p1
c__builtin__
object
p2
Ntp3
Rp4
(dp5
S'product_url'
p6
S'http://www.walmart.com/ip/Samsung-XE513C24-K01US-12-3-Chromebook-Plus-Touchscreen-2-in-1-Chrome-OS-Dual-ARM-Cortex-A72-Quad-Cortex-A53-Hexa-Core-Processor-4GB-RAM-32GB-Hard-Dr/55499365'
p7
sS'price'
p8
S'N/A'
p9
sS'properties'
p10
(dp11
VRAM Memory
p12
V4 GB
p13
sVOperating System
p14
VChrome
p15
sVColor Category
p16
VMulticolor
p17
sVVideo Game Platform
p18
VPC
p19
sVBrand
p20
VSamsung
p21
sVHard Drive Capacity
p22
V32 GB
p23
sVLaptop Computer Type
p24
VChromebooks
p25
sVProcessor Type
p26
VDual ARM Cortex A72 Quad Cortex A53 Hexa-Core ProcessorDual ARM Cortex A72 Quad Cortex A53 Hexa-Core Processor
p27
sVmanufacturer_part_number
p28
Vxe513c24-k01us
p29
sVScreen Size
p30
V12.3"
p31
sVModel
p32
VXE513C24-K01US
p33
sVCondition
p34
VNew
p35
sVManufacturer
p36
VSamsung
p37
ssS'title'
p38
VSamsung XE513C24-K01US 12.3" Chromebook Plus, Touchscreen, 2-in-1, Chrome OS, Dual ARM Cortex A72 Quad Cortex A53 Hexa-Core Processor, 4GB RAM, 32GB Hard Drive
p39
sb.