ccopy_reg
_reconstructor
p0
(c__main__
ProductRecord
p1
c__builtin__
object
p2
Ntp3
Rp4
(dp5
S'product_url'
p6
S'http://www.walmart.com/ip/Refurbished-HP-11-v025wm-11-6-Touch-Chromebook-Intel-N3060-4GB-RAM-16GB-eMMC-Storage/505337021'
p7
sS'price'
p8
S'N/A'
p9
sS'properties'
p10
(dp11
VOperating System
p12
VChrome OS
p13
sVLaptop Computer Type
p14
VTouchscreen
p15
sVBrand
p16
VHP
p17
sVManufacturer Part Number
p18
V11-v025wm
p19
sVModel
p20
VVIPRB-11-v025wm
p21
sVScreen Size
p22
V11.6\u005c"
p23
sVCondition
p24
VRefurbished
p25
sVManufacturer
p26
VHP
p27
ssS'title'
p28
VRefurbished HP 11-v025wm, 11.6" Touch Chromebook, Intel N3060, 4GB RAM, 16GB eMMC Storage
p29
sb.