ccopy_reg
_reconstructor
p0
(c__main__
ProductRecord
p1
c__builtin__
object
p2
Ntp3
Rp4
(dp5
S'product_url'
p6
S'http://www.walmart.com/ip/HP-Pavilion-X360-13-U163Nr-13-3-Laptop-2-in-1-Touchscreen-Windows-10-Home-Intel-Core-i5-7200U-Dual-Core-Processor-8GB-RAM-1TB-Hard-Drive/55908687'
p7
sS'price'
p8
S'N/A'
p9
sS'properties'
p10
(dp11
VRAM Memory
p12
V8 GB
p13
sVOperating System
p14
VWindows 10
p15
sVFeatures
p16
VEPEAT
p17
sVVideo Game Platform
p18
VPC
p19
sVBrand
p20
VHP
p21
sVProcessor Speed
p22
V2.50 GHz, with a Max Turbo Speed of 3.10 GHz
p23
sVManufacturer Part Number
p24
VW2L24UA#ABA
p25
sVHard Drive Capacity
p26
V1 TB
p27
sVBattery Life
p28
V9 hours 15 minutes
p29
sVAssembled Product Dimensions (L x W x H)
p30
V8.74 x 12.85 x 0.78 Inches
p31
sVModel
p32
VHP 13-U163Nr
p33
sVScreen Size
p34
V13.3"
p35
sVProcessor Type
p36
VIntel Core i5
p37
ssS'title'
p38
VHP Pavilion X360 13-U163Nr 13.3" Laptop, 2-in-1, Touchscreen, Windows 10 Home, Intel Core i5-7200U Dual-Core Processor, 8GB RAM, 1TB Hard Drive
p39
sb.