ccopy_reg
_reconstructor
p0
(c__main__
ProductRecord
p1
c__builtin__
object
p2
Ntp3
Rp4
(dp5
S'product_url'
p6
S'http://www.walmart.com/ip/ASUS-Vivobook-Flip-12-2-in-1-Touchscreen-Dual-Core-Celeron-4GB-RAM-500GB-Hard-Drive-Windows-10-Home-Finger-Print-reader-ASUS-Stylus-Pen-included/695474940'
p7
sS'price'
p8
S'N/A'
p9
sS'properties'
p10
(dp11
VRAM Memory
p12
V4 KB
p13
sVOperating System
p14
VWindows 10
p15
sVColor Category
p16
VBlack
p17
sVLaptop Computer Type
p18
VTouchscreen
p19
sVBrand
p20
VASUS
p21
sVWireless Technology
p22
VBluetooth; 802.11 AC
p23
sVHard Drive Capacity
p24
V500 KB
p25
sVProcessor Type
p26
VDual-Core Celeron
p27
sVManufacturer
p28
VAsus
p29
sVScreen Size
p30
V11.60 in
p31
sVModel
p32
VTP203NAWB01T
p33
sVCondition
p34
VNew
p35
sVmanufacturer_part_number
p36
Vtp203na-wb01t
p37
ssS'title'
p38
VASUS Vivobook Flip 12, 2-in-1, Touchscreen, Dual-Core Celeron, 4GB RAM, 500GB Hard Drive, Windows 10 Home, Finger Print reader, ASUS Stylus Pen included
p39
sb.