ccopy_reg
_reconstructor
p0
(c__main__
ProductRecord
p1
c__builtin__
object
p2
Ntp3
Rp4
(dp5
S'product_url'
p6
S'http://www.walmart.com/ip/Sony-11-6-VAIO-Duo-RBSVD11225CYB-Laptop-PC-with-Intel-Core-i7-3537U-Processor-touch-screen-256GB-SSD-and-Windows-8-Refurbished/43979073'
p7
sS'price'
p8
S'N/A'
p9
sS'properties'
p10
(dp11
VRAM Memory
p12
V8 GB
p13
sVOperating System
p14
VMicrosoft Windows
p15
sVFeatures
p16
VEPEAT
p17
sVVideo Game Platform
p18
VPC
p19
sVBrand
p20
VSony
p21
sVProcessor Speed
p22
V2.00 GHz, with a Max Turbo Speed of 3.10 GHz
p23
sVHard Drive Capacity
p24
V256 Gigabytes
p25
sVBattery Life
p26
V4 hours 45 minutes
p27
sVAssembled Product Dimensions (L x W x H)
p28
V12.80 x 0.71 x 7.84 Inches
p29
sVModel
p30
VRBSVD11225CYB
p31
sVScreen Size
p32
V11.6 in
p33
sVProcessor Type
p34
VIntel Core i7
p35
sVCondition
p36
VRefurbished
p37
sVmanufacturer_part_number
p38
VRBSVD11225CYB
p39
ssS'title'
p40
VSony 11.6" VAIO Duo RBSVD11225CYB Laptop PC with Intel Core i7-3537U Processor, touch screen, 256GB SSD and Windows 8, Refurbished
p41
sb.