ccopy_reg
_reconstructor
p0
(c__main__
ProductRecord
p1
c__builtin__
object
p2
Ntp3
Rp4
(dp5
S'product_url'
p6
S'http://www.walmart.com/ip/ASUS-Vivobook-15-Red-Intel-Quad-Core-Pentium-N4200-Processor-Touchscreen-4GB-RAM-500GB-Hard-Drive-Windows-10-Home/235307507'
p7
sS'price'
p8
S'N/A'
p9
sS'properties'
p10
(dp11
VRAM Memory
p12
V4 KB
p13
sVOperating System
p14
VWindows 10
p15
sVBrand
p16
VASUS
p17
sVProcessor Speed
p18
V1.1 Hz
p19
sVHard Drive Capacity
p20
V500 KB
p21
sVBattery Life
p22
V0 h
p23
sVAssembled Product Dimensions (L x W x H)
p24
V19.90 x 11.70 x 2.60 Inches
p25
sVModel
p26
VR541NARB21TRD
p27
sVScreen Size
p28
V15.60 in
p29
sVProcessor Type
p30
VIntel Pentium
p31
sVCondition
p32
VNew
p33
sVmanufacturer_part_number
p34
Vr541na-rb21t-rd
p35
ssS'title'
p36
VASUS Vivobook 15 Red, Intel Quad-Core Pentium N4200 Processor, Touchscreen, 4GB RAM, 500GB Hard Drive, Windows 10 Home
p37
sb.