ccopy_reg
_reconstructor
p0
(c__main__
ProductRecord
p1
c__builtin__
object
p2
Ntp3
Rp4
(dp5
S'product_url'
p6
S'http://www.walmart.com/ip/HP-Black-15-6-15-f211wm-Laptop-PC-with-Intel-Celeron-N2840-Processor-4GB-Memory-touch-screen-500GB-Hard-Drive-and-Windows-10-Home/46270955'
p7
sS'price'
p8
S'N/A'
p9
sS'properties'
p10
(dp11
VRAM Memory
p12
V4 GB
p13
sVOperating System
p14
VWindows 10
p15
sVFeatures
p16
VEPEAT
p17
sVVideo Game Platform
p18
VPC
p19
sVBrand
p20
VHP
p21
sVProcessor Speed
p22
V2.16 GHz, with a Max Turbo Speed of 2.58 GHz
p23
sVManufacturer Part Number
p24
VL0T32UA#ABA
p25
sVHard Drive Capacity
p26
V500 GB
p27
sVAssembled Product Dimensions (L x W x H)
p28
V10.16 x 15.18 x 0.89 Inches
p29
sVModel
p30
VHP 15-f211wm
p31
sVScreen Size
p32
V15.6"
p33
sVProcessor Type
p34
VIntel Celeron
p35
sVCondition
p36
VNew
p37
ssS'title'
p38
VHP Black 15.6" 15-f211wm Laptop PC with Intel Celeron N2840 Processor, 4GB Memory, touch screen, 500GB Hard Drive and Windows 10 Home
p39
sb.