ccopy_reg
_reconstructor
p0
(c__main__
ProductRecord
p1
c__builtin__
object
p2
Ntp3
Rp4
(dp5
S'product_url'
p6
S'http://www.walmart.com/ip/HP-15-bw032WM-15-6-Laptop-Bundle-Windows-10-AMD-A12-9720-Quad-Core-Processor-8GB-Memory-1TB-HDD-Wireless-Mouse-and-Backpack-Smoke-Gray/974007492'
p7
sS'price'
p8
S'N/A'
p9
sS'properties'
p10
(dp11
VRAM Memory
p12
V8 GB
p13
sVOperating System
p14
VMicrosoft Windows
p15
sVColor Category
p16
VGray
p17
sVLaptop Computer Type
p18
VTouchscreen
p19
sVBrand
p20
VHP
p21
sVManufacturer Part Number
p22
V15-bw032wm
p23
sVHard Drive Capacity
p24
V1000 KB
p25
sVModel
p26
V15-bw032WM
p27
sVScreen Size
p28
V15.6 in
p29
sVManufacturer
p30
VHP
p31
ssS'title'
p32
VHP 15-bw032WM 15.6" Laptop Bundle, Windows 10, AMD A12-9720 Quad Core Processor, 8GB Memory, 1TB HDD, Wireless Mouse and Backpack, Smoke Gray
p33
sb.