ccopy_reg
_reconstructor
p0
(c__main__
ProductRecord
p1
c__builtin__
object
p2
Ntp3
Rp4
(dp5
S'product_url'
p6
S'http://www.walmart.com/ip/Acer-Spin-3-SP315-51-56Y6-Touch-Notebook-Touch-Notebook-Intel-Core-i5-7200U-Processor-6GB-Memory-1TB-Hard-Drive-15-6-Full-HD-Multi-Touch-screen-Windo/55559110'
p7
sS'price'
p8
S'N/A'
p9
sS'properties'
p10
(dp11
VRAM Memory
p12
V6 GB
p13
sVOperating System
p14
VMicrosoft Windows, Windows 10
p15
sVBrand
p16
VAcer
p17
sVProcessor Speed
p18
V2.50 GHz
p19
sVManufacturer Part Number
p20
VNX.GK9AA.024
p21
sVMaximum RAM Supported
p22
V12 GB
p23
sVHard Drive Capacity
p24
V1 TB
p25
sVBattery Life
p26
V9 Hour
p27
sVAssembled Product Dimensions (L x W x H)
p28
V15.02 x 9.88 x 0.89 Inches
p29
sVModel
p30
VSP315-51-56Y6
p31
sVScreen Size
p32
V15.6"
p33
sVProcessor Type
p34
VIntel Core i5
p35
ssS'title'
p36
VAcer Spin 3 SP315-51-56Y6 Touch Notebook Touch Notebook Intel Core i5-7200U Processor, 6GB Memory, 1TB Hard Drive, 15.6" Full HD Multi-Touch screen, Window 10 Home
p37
sb.