ccopy_reg
_reconstructor
p0
(c__main__
ProductRecord
p1
c__builtin__
object
p2
Ntp3
Rp4
(dp5
S'product_url'
p6
S'http://www.walmart.com/ip/HP-Pavilion-Power-15-cb010nr-Pavilion-Power-15-cb010nr/55868216'
p7
sS'price'
p8
S'N/A'
p9
sS'properties'
p10
(dp11
VRAM Memory
p12
V12 GB
p13
sVOperating System
p14
VWindows 10
p15
sVFeatures
p16
VEPEAT
p17
sVVideo Game Platform
p18
VPC
p19
sVBrand
p20
VHP
p21
sVProcessor Speed
p22
V2.50 GHz, with a Max Turbo Speed of 3.50 GHz
p23
sVManufacturer Part Number
p24
V1KT32UA#ABA
p25
sVHard Drive Capacity
p26
V1 TB
p27
sVBattery Life
p28
V10 hours 30 minutes
p29
sVAssembled Product Dimensions (L x W x H)
p30
V9.93 x 14.88 x 0.95 Inches
p31
sVModel
p32
VHP 15-Cb010Nr
p33
sVScreen Size
p34
V15.6"
p35
sVProcessor Type
p36
VIntel Core i5-7300HQ Quad-Core Processor
p37
sVCondition
p38
VNew
p39
ssS'title'
p40
VHP Pavilion Power 15-cb010nr Pavilion Power 15-cb010nr
p41
sb.