ccopy_reg
_reconstructor
p0
(c__main__
ProductRecord
p1
c__builtin__
object
p2
Ntp3
Rp4
(dp5
S'product_url'
p6
S'http://www.walmart.com/ip/Manufacturer-Refurbished-HP-Notebook-15-bs033cl-15-6-Touch-Laptop-Intel-i3-7100U-2-4GHz-12GB-1TB-HDD-W10/362547762'
p7
sS'price'
p8
S'N/A'
p9
sS'properties'
p10
(dp11
VBrand
p12
VHP
p13
sVScreen Size
p14
V15.6
p15
sVModel
p16
V15-bs033cl-RF
p17
sVManufacturer Part Number
p18
V15-bs033cl-RF
p19
ssS'title'
p20
VManufacturer Refurbished - HP Notebook 15-bs033cl 15.6" Touch Laptop Intel i3-7100U 2.4GHz 12GB 1TB HDD W10
p21
sb.