ccopy_reg
_reconstructor
p0
(c__main__
ProductRecord
p1
c__builtin__
object
p2
Ntp3
Rp4
(dp5
S'product_url'
p6
S'http://www.walmart.com/ip/Dell-Inspiron-15-5565-Notebook-with-AMD-A12-9700P-12GB-1TB-HDD/55628618'
p7
sS'price'
p8
S'N/A'
p9
sS'properties'
p10
(dp11
VRAM Memory
p12
V12.00 GB
p13
sVOperating System
p14
VWindows 10
p15
sVColor Category
p16
VGray
p17
sVVideo Game Platform
p18
VPC
p19
sVBrand
p20
VDell
p21
sVManufacturer Part Number
p22
Vi5565-A973GRY
p23
sVHard Drive Capacity
p24
V1.00 TB
p25
sVLaptop Computer Type
p26
VTouchscreen
p27
sVProcessor Type
p28
VAMD A Series
p29
sVScreen Size
p30
V15.60 in
p31
sVModel
p32
Vi5565-A973GRY
p33
sVCondition
p34
VNew
p35
sVManufacturer
p36
VDell
p37
ssS'title'
p38
VDell Inspiron 15-5565 Notebook with AMD A12-9700P, 12GB 1TB HDD
p39
sb.