ccopy_reg
_reconstructor
p0
(c__main__
ProductRecord
p1
c__builtin__
object
p2
Ntp3
Rp4
(dp5
S'product_url'
p6
S'http://www.walmart.com/ip/Microsoft-4YM-00001-64gb-I3-Pro3/37065362'
p7
sS'price'
p8
S'N/A'
p9
sS'properties'
p10
(dp11
VOperating System
p12
VMicrosoft Windows
p13
sVFeatures
p14
VIntel 4th Generation Core i3 Processor, 36W Power Supply and Surface Pen Included; Keyboard sold separately, Windows 8.1 Pro, 4 GB RAM; 64 GB Storage Capacity (37 GB Available), 12-Inch HD (2160 x 1440) Touchscreen Display
p15
sVAccessories Included
p16
VAC Adapter
p17
sVVideo Game Platform
p18
VPC
p19
sVBrand
p20
VMicrosoft
p21
sVManufacturer Part Number
p22
V4YM00001
p23
sVMaximum RAM Supported
p24
V4
p25
sVBattery Life
p26
V9 hours
p27
sVModel Name
p28
VSurface Pro 3
p29
sVAssembled Product Dimensions (L x W x H)
p30
V11.50 x 0.36 x 7.93 Inches
p31
sVModel
p32
V4YM00001
p33
sVCondition
p34
VNew
p35
ssS'title'
p36
VMicrosoft 4YM-00001 64gb I3 Pro3
p37
sb.