ccopy_reg
_reconstructor
p0
(c__main__
ProductRecord
p1
c__builtin__
object
p2
Ntp3
Rp4
(dp5
S'product_url'
p6
S'http://www.walmart.com/ip/HP-Envy-17-U110Nr-17-3-Laptop-Touchscreen-Windows-10-Home-Intel-Core-i7-7500U-Dual-Core-Processor-12GB-RAM-1TB-Hard-Drive/55868217'
p7
sS'price'
p8
S'N/A'
p9
sS'properties'
p10
(dp11
VRAM Memory
p12
V12 GB
p13
sVOperating System
p14
VWindows 10
p15
sVColor Category
p16
VMulticolor
p17
sVVideo Game Platform
p18
VPC
p19
sVBrand
p20
VHP
p21
sVManufacturer Part Number
p22
VW2K90UA#ABA
p23
sVHard Drive Capacity
p24
V1 TB
p25
sVLaptop Computer Type
p26
VTouchscreen
p27
sVProcessor Core Type
p28
VDual-core (2 Core)
p29
sVProcessor Type
p30
VIntel Core i7
p31
sVScreen Size
p32
V17.3"
p33
sVModel
p34
VHP 17-U110Nr
p35
sVManufacturer
p36
VHP
p37
ssS'title'
p38
VHP Envy 17-U110Nr 17.3" Laptop, Touchscreen, Windows 10 Home, Intel Core i7-7500U Dual-Core Processor, 12GB RAM, 1TB Hard Drive
p39
sb.