ccopy_reg
_reconstructor
p0
(c__main__
ProductRecord
p1
c__builtin__
object
p2
Ntp3
Rp4
(dp5
S'product_url'
p6
S'http://www.walmart.com/ip/HP-Pavilion-15-cc051wm-15-6-Touchscreen-Opulent-Blue-Laptop-Windows-10-Intel-Core-i5-7200U-12GB-Memory-1TB-Hard-Drive-DVD-802-11-AC-Bluetooth/56153455'
p7
sS'price'
p8
S'N/A'
p9
sS'properties'
p10
(dp11
VRAM Memory
p12
V12 KB
p13
sVOperating System
p14
VMicrosoft Windows
p15
sVBrand
p16
VHP
p17
sVProcessor Speed
p18
V2.5 Hz
p19
sVManufacturer Part Number
p20
V2DS91UA#ABA
p21
sVMaximum RAM Supported
p22
V12 KB
p23
sVHard Drive Capacity
p24
V1 KB
p25
sVBattery Life
p26
V8 h
p27
sVAssembled Product Dimensions (L x W x H)
p28
V20.47 x 12.01 x 2.72 Inches
p29
sVModel
p30
V15-cc051wm
p31
sVScreen Size
p32
V15.6
p33
sVProcessor Type
p34
V7th Generation Intel Core i5-7200U Processor
p35
ssS'title'
p36
VHP Pavilion 15-cc051wm 15.6" Touchscreen Opulent Blue Laptop, Windows 10, Intel Core i5-7200U, 12GB Memory, 1TB Hard Drive, DVD, 802.11 AC + Bluetooth
p37
sb.