ccopy_reg
_reconstructor
p0
(c__main__
ProductRecord
p1
c__builtin__
object
p2
Ntp3
Rp4
(dp5
S'product_url'
p6
S'http://www.walmart.com/ip/HP-15-ay041wm-15-6-Silver-Fusion-Laptop-Touch-Screen-Windows-10-Intel-Core-i3-6100U-Processor-8GB-Memory-1TB-Hard-Drive/51397784'
p7
sS'price'
p8
S'N/A'
p9
sS'properties'
p10
(dp11
VRAM Memory
p12
V8 KB
p13
sVOperating System
p14
VWindows 10
p15
sVFeatures
p16
VEPEAT
p17
sVVideo Game Platform
p18
VPC
p19
sVBrand
p20
VHP
p21
sVProcessor Speed
p22
V2.3 Hz
p23
sVManufacturer Part Number
p24
VX0H86UA
p25
sVHard Drive Capacity
p26
V1 KB
p27
sVBattery Life
p28
V6 hours
p29
sVAssembled Product Dimensions (L x W x H)
p30
V15.12 x 10.02 x 0.95 Inches
p31
sVModel
p32
V15-ay041wm
p33
sVScreen Size
p34
V15.6"
p35
sVProcessor Type
p36
VIntel 3165 AC (1x1 AC, 433 Mbps)
p37
sVCondition
p38
VNew
p39
ssS'title'
p40
VHP 15-ay041wm 15.6" Silver Fusion Laptop, Touch Screen, Windows 10, Intel Core i3-6100U Processor, 8GB Memory, 1TB Hard Drive
p41
sb.