ccopy_reg
_reconstructor
p0
(c__main__
ProductRecord
p1
c__builtin__
object
p2
Ntp3
Rp4
(dp5
S'product_url'
p6
S'http://www.walmart.com/ip/Dell-I3567-3636BLK-PUS-Inspiron-15-6-Touchscreen-Laptop-Notebook-Computer-PC-8GB-1TB/426110555'
p7
sS'price'
p8
S'N/A'
p9
sS'properties'
p10
(dp11
VRAM Memory
p12
V8.00 GB
p13
sVOperating System
p14
VWindows 10
p15
sVBrand
p16
VDell
p17
sVProcessor Speed
p18
V2.50 GHz
p19
sVManufacturer Part Number
p20
VI3567-3636BLK-PUS
p21
sVHard Drive Capacity
p22
V1.00 TB
p23
sVModel
p24
VI3567-3636BLK-PUS
p25
sVScreen Size
p26
V15.60 in
p27
sVProcessor Type
p28
VIntel Core i5-7200U Dual-Core
p29
sVCondition
p30
VNew
p31
ssS'title'
p32
VDell I3567-3636BLK-PUS Inspiron 15.6" Touchscreen Laptop Notebook Computer PC 8GB 1TB
p33
sb.