ccopy_reg
_reconstructor
p0
(c__main__
ProductRecord
p1
c__builtin__
object
p2
Ntp3
Rp4
(dp5
S'product_url'
p6
S'http://www.walmart.com/ip/Microsoft-Surface-Book-with-Performance-Base/55090336'
p7
sS'price'
p8
S'N/A'
p9
sS'properties'
p10
(dp11
VOperating System
p12
VMicrosoft Windows
p13
sVFeatures
p14
VAmbient Light Sensor, Webcam, Bluetooth, Gyro Sensor
p15
sVAccessories Included
p16
VSurface Pen, AC Adapter, Base
p17
sVColor
p18
VSilver
p19
sVVideo Game Platform
p20
VPC
p21
sVBrand
p22
VMicrosoft
p23
sVManufacturer Part Number
p24
V96D-00001
p25
sVBattery Life
p26
V16 Hours
p27
sVAssembled Product Dimensions (L x W x H)
p28
V9.14 x 12.30 x 0.90 Inches
p29
sVModel
p30
V96D-00001
p31
sVScreen Size
p32
V13.5"
p33
ssS'title'
p34
VMicrosoft Surface Book with Performance Base
p35
sb.