ccopy_reg
_reconstructor
p0
(c__main__
ProductRecord
p1
c__builtin__
object
p2
Ntp3
Rp4
(dp5
S'product_url'
p6
S'http://www.walmart.com/ip/ASUS-Vivobook-15-Red-Intel-Core-i5-Processor-Touchscreen-8GB-RAM-1TB-Hard-Drive-Windows-10-Home/760730908'
p7
sS'price'
p8
S'N/A'
p9
sS'properties'
p10
(dp11
VRAM Memory
p12
V8 KB
p13
sVOperating System
p14
VWindows 10
p15
sVColor Category
p16
VRed
p17
sVLaptop Computer Type
p18
VTouchscreen
p19
sVBrand
p20
VASUS
p21
sVWireless Technology
p22
VBluetooth; 802.11 AC
p23
sVHard Drive Capacity
p24
V1000 KB
p25
sVProcessor Core Type
p26
VDual-core (2 Core)
p27
sVProcessor Type
p28
VCore-i5
p29
sVmanufacturer_part_number
p30
Vx541ua-wb51t-rd
p31
sVScreen Size
p32
V15.60 in
p33
sVModel
p34
VX541UAWB51TRD
p35
sVCondition
p36
VNew
p37
sVManufacturer
p38
VASUS COMPUTER MOBILITY
p39
ssS'title'
p40
VASUS Vivobook 15 Red, Intel Core i5 Processor, Touchscreen, 8GB RAM, 1TB Hard Drive, Windows 10 Home
p41
sb.