ccopy_reg
_reconstructor
p0
(c__main__
ProductRecord
p1
c__builtin__
object
p2
Ntp3
Rp4
(dp5
S'product_url'
p6
S'http://www.walmart.com/ip/Asus-10-point-1-inch-Transformer-Book-Asus-Transformer-Book-T100-Chi-T100CHI-B1-BK-32-GB-Net-tablet-PC-10-1-quot-In-plane-Switching-IPS-Technology-Tr/44508748'
p7
sS'price'
p8
S'N/A'
p9
sS'properties'
p10
(dp11
VRAM Memory
p12
V2 GB
p13
sVOperating System
p14
VMicrosoft Windows
p15
sVFeatures
p16
VTouchscreen
p17
sVVideo Game Platform
p18
VPC
p19
sVBrand
p20
VASUS
p21
sVProcessor Speed
p22
V1.46 GHz
p23
sVHard Drive Capacity
p24
V32 GB
p25
sVBattery Life
p26
V10 hours
p27
sVModel
p28
V90NB07H1M00010
p29
sVScreen Size
p30
V10.1"
p31
sVProcessor Type
p32
VIntel Atom
p33
sVCondition
p34
VNew
p35
sVmanufacturer_part_number
p36
Vt100chi-b1-bk
p37
ssS'title'
p38
VAsus 10 point 1 inch Transformer Book Asus Transformer Book T100 Chi T100CHI-B1-BK 32 GB Net-tablet PC - 10.1" - In-plane Switching (IPS) Technology, TruVivid Technology -
p39
sb.