ccopy_reg
_reconstructor
p0
(c__main__
ProductRecord
p1
c__builtin__
object
p2
Ntp3
Rp4
(dp5
S'product_url'
p6
S'http://www.walmart.com/ip/Dell-XPS9560-5000SLV-15-6-with-4K-Touch-Display-Core-i5-8GB-256GB-SSD-GTX-1050-Ultra-Thin-and-Light-Laptop/823132611'
p7
sS'price'
p8
S'N/A'
p9
sS'properties'
p10
(dp11
VRAM Memory
p12
V8.00 GB
p13
sVOperating System
p14
VWindows 10
p15
sVBrand
p16
VDell
p17
sVProcessor Speed
p18
V2.50 GHz
p19
sVManufacturer Part Number
p20
VXPS9560-5000SLV
p21
sVMaximum RAM Supported
p22
V16.00 GB
p23
sVHard Drive Capacity
p24
V256.00 GB
p25
sVAssembled Product Dimensions (L x W x H)
p26
V19.30 x 4.00 x 0.50 Inches
p27
sVModel
p28
VXPS95605000SLV
p29
sVScreen Size
p30
V15.60 in
p31
sVProcessor Type
p32
VIntel Core i5
p33
sVCondition
p34
VNew
p35
ssS'title'
p36
VDell XPS9560-5000SLV 15.6" with 4K Touch Display Core i5 8GB, 256GB SSD GTX 1050 Ultra Thin and Light Laptop
p37
sb.