ccopy_reg
_reconstructor
p0
(c__main__
ProductRecord
p1
c__builtin__
object
p2
Ntp3
Rp4
(dp5
S'product_url'
p6
S'http://www.walmart.com/ip/HP-Chromebook-x360-11-G1-Education-Edition-11-6-Celeron-N3350-4-GB-RAM-32-GB-SSD/483031269'
p7
sS'price'
p8
S'N/A'
p9
sS'properties'
p10
(dp11
VRAM Memory
p12
V0 GB
p13
sVOperating System
p14
VChrome OS
p15
sVBrand
p16
VHP
p17
sVProcessor Speed
p18
V0 GHz
p19
sVManufacturer Part Number
p20
V1NW59UT#ABA
p21
sVHard Drive Capacity
p22
V4 GB
p23
sVBattery Life
p24
V0 h
p25
sVAssembled Product Dimensions (L x W x H)
p26
V5.00 x 5.00 x 5.00 Inches
p27
sVModel
p28
V1NW59UT#ABA
p29
sVScreen Size
p30
V11.6"
p31
sVProcessor Type
p32
VIntel Celeron
p33
sVCondition
p34
VNew
p35
ssS'title'
p36
VHP Chromebook x360 11 G1 - Education Edition - 11.6" - Celeron N3350 - 4 GB RAM - 32 GB SSD
p37
sb.