ccopy_reg
_reconstructor
p0
(c__main__
ProductRecord
p1
c__builtin__
object
p2
Ntp3
Rp4
(dp5
S'product_url'
p6
S'http://www.walmart.com/ip/ASUS-VivoBook-E403SA-Notebook/901654791'
p7
sS'price'
p8
S'N/A'
p9
sS'properties'
p10
(dp11
VRAM Memory
p12
V4.00 GB
p13
sVOperating System
p14
VWindows 10
p15
sVColor Category
p16
VGray
p17
sVLaptop Computer Type
p18
VTouchscreen
p19
sVBrand
p20
VASUS
p21
sVManufacturer Part Number
p22
VE403NAUS21
p23
sVWireless Technology
p24
V802.11n; Bluetooth
p25
sVHard Drive Capacity
p26
V128.00 GB
p27
sVProcessor Type
p28
VIntel Pentium
p29
sVScreen Size
p30
V14.00 in
p31
sVModel
p32
VE403NAUS21
p33
sVCondition
p34
VNew
p35
sVManufacturer
p36
VSupplier Generic
p37
ssS'title'
p38
VASUS VivoBook E403SA Notebook
p39
sb.