ccopy_reg
_reconstructor
p0
(c__main__
ProductRecord
p1
c__builtin__
object
p2
Ntp3
Rp4
(dp5
S'product_url'
p6
S'http://www.walmart.com/ip/ASUS-Transformer-Mini-2-in-1-10-1-HD-TOUCHSCREEN-Gray-Edition-Laptop-PC-Intel-Atom-x5-Z8350-Quad-Core-64GB-eMMC-4GB-Win10-Keyboard-and-Pen-Included/662195549'
p7
sS'price'
p8
S'N/A'
p9
sS'properties'
p10
(dp11
VRAM Memory
p12
V4 GB
p13
sVOperating System
p14
VWindows 10
p15
sVLaptop Computer Type
p16
VTouchscreen
p17
sVBrand
p18
VASUS
p19
sVHard Drive Capacity
p20
V64 GB
p21
sVScreen Size
p22
V10.1 in
p23
sVCondition
p24
VNew
p25
ssS'title'
p26
VASUS Transformer Mini 2-in-1 10.1" HD TOUCHSCREEN Gray Edition Laptop PC Intel Atom x5-Z8350 Quad-Core 64GB eMMC 4GB Win10 Keyboard and Pen Included
p27
sb.