ccopy_reg
_reconstructor
p0
(c__main__
ProductRecord
p1
c__builtin__
object
p2
Ntp3
Rp4
(dp5
S'product_url'
p6
S'http://www.walmart.com/ip/LG-gram-13-FHD-Ultra-light-Multi-Touch-Notebook-Intel-i5-7200U-8GB-RAM-256GB-SSD/487703595'
p7
sS'price'
p8
S'N/A'
p9
sS'properties'
p10
(dp11
VRAM Memory
p12
V8 GB
p13
sVOperating System
p14
VMicrosoft Windows, Windows 10
p15
sVBrand
p16
VLG
p17
sVProcessor Speed
p18
V2.50 GHz
p19
sVManufacturer Part Number
p20
V13Z970-A.AAS5U1
p21
sVHard Drive Capacity
p22
V256
p23
sVAssembled Product Dimensions (L x W x H)
p24
V12.10 x 8.30 x 0.60 Inches
p25
sVModel
p26
V13Z970-A.AAS5U1
p27
sVScreen Size
p28
V13.3"
p29
sVProcessor Type
p30
VIntel Core i5
p31
sVCondition
p32
VNew
p33
ssS'title'
p34
VLG gram 13" FHD Ultra-light Multi-Touch Notebook Intel i5-7200U, 8GB RAM, 256GB SSD
p35
sb.