ccopy_reg
_reconstructor
p0
(c__main__
ProductRecord
p1
c__builtin__
object
p2
Ntp3
Rp4
(dp5
S'product_url'
p6
S'http://www.walmart.com/ip/Microsoft-Surface-Book-13-5-Core-i7-6600U-8-GB-RAM-256-GB-SSD-English-North-America/49002302'
p7
sS'price'
p8
S'N/A'
p9
sS'properties'
p10
(dp11
VRAM Memory
p12
V8
p13
sVOperating System
p14
VWindows 10 Pro
p15
sVFeatures
p16
VBook 256GB i7 8GB GPUCmmr SC English US/Canada Hdwr Commercial
p17
sVVideo Game Platform
p18
VPC
p19
sVBrand
p20
VMicrosoft
p21
sVProcessor Speed
p22
V0
p23
sVManufacturer Part Number
p24
VSW5-00001
p25
sVMaximum RAM Supported
p26
V8 GB
p27
sVHard Drive Capacity
p28
V256 Gigabytes
p29
sVBattery Life
p30
V12 hours
p31
sVAssembled Product Dimensions (L x W x H)
p32
V5.00 x 5.00 x 5.00 Inches
p33
sVModel
p34
VSW5-00001
p35
sVScreen Size
p36
V13.50 in
p37
sVProcessor Type
p38
VIntel
p39
sVCondition
p40
VNew
p41
ssS'title'
p42
VMicrosoft Surface Book - 13.5" - Core i7 6600U - 8 GB RAM - 256 GB SSD - English - North America
p43
sb.