ccopy_reg
_reconstructor
p0
(c__main__
ProductRecord
p1
c__builtin__
object
p2
Ntp3
Rp4
(dp5
S'product_url'
p6
S'http://www.walmart.com/ip/Top-Performance-Dell-Inspiron-15-6-Touchscreen-Laptop-7th-Intel-Core-i3-7100U-2-4GHz-8-GB-DDR4-RAM-1-TB-HDD-HDMI-DVD-RW-Bluetooth-HDMI-Web-Camera/470828595'
p7
sS'price'
p8
S'N/A'
p9
sS'properties'
p10
(dp11
VRAM Memory
p12
V8.00 GB
p13
sVOperating System
p14
VWindows 10
p15
sVBrand
p16
VDell
p17
sVHard Drive Capacity
p18
V1.00 TB
p19
sVProcessor Type
p20
VIntel Core i3-7100U
p21
sVScreen Size
p22
V15.60 in
p23
sVProcessor Speed
p24
V2.40 GHz
p25
sVCondition
p26
VNew
p27
ssS'title'
p28
VTop Performance Dell Inspiron 15.6" Touchscreen Laptop, 7th Intel Core i3-7100U 2.4GHz, 8 GB DDR4 RAM, 1 TB HDD, HDMI, DVD-RW, Bluetooth, HDMI, Web Camera
p29
sb.