ccopy_reg
_reconstructor
p0
(c__main__
ProductRecord
p1
c__builtin__
object
p2
Ntp3
Rp4
(dp5
S'product_url'
p6
S'http://www.walmart.com/ip/Microsoft-Surface-Pro-4-Intel-Core-i5-Processor-128GB-Go-4GB-Go-RAM-with-Surface-Pen/284857576'
p7
sS'price'
p8
S'N/A'
p9
sS'properties'
p10
(dp11
VRAM Memory
p12
V4.00 GB
p13
sVOperating System
p14
VWindows 10
p15
sVBrand
p16
VDell
p17
sVProcessor Speed
p18
V3.00 GHz
p19
sVHard Drive Capacity
p20
V128.00 GB
p21
sVModel
p22
VCR5-00001
p23
sVScreen Size
p24
V12.30 in
p25
sVProcessor Type
p26
VIntel Core i5
p27
ssS'title'
p28
VMicrosoft Surface Pro 4 Intel Core i5 Processor 128GB/Go, 4GB/Go RAM with Surface Pen
p29
sb.