ccopy_reg
_reconstructor
p0
(c__main__
ProductRecord
p1
c__builtin__
object
p2
Ntp3
Rp4
(dp5
S'product_url'
p6
S'http://www.walmart.com/ip/Manufacturer-Refurbished-HP-17-bs020nr-17-3-Touch-Laptop-Core-i3-6006U-2-00GHz-8GB-RAM-1TB-HDD-W10H/329635552'
p7
sS'price'
p8
S'N/A'
p9
sS'properties'
p10
(dp11
VRAM Memory
p12
V8 GB
p13
sVOperating System
p14
VMicrosoft Windows
p15
sVBrand
p16
VHP
p17
sVManufacturer Part Number
p18
V17-bs020nr-RF
p19
sVHard Drive Capacity
p20
V1000 GB
p21
sVModel
p22
V17-bs020nr-RF
p23
sVScreen Size
p24
V17.3\u005c"
p25
ssS'title'
p26
VManufacturer Refurbished - HP 17-bs020nr 17.3" Touch Laptop Core i3-6006U 2.00GHz 8GB RAM 1TB HDD W10H
p27
sb.