ccopy_reg
_reconstructor
p0
(c__main__
ProductRecord
p1
c__builtin__
object
p2
Ntp3
Rp4
(dp5
S'product_url'
p6
S'http://www.walmart.com/ip/Microsoft-Surface-Pro-4-0-9GHz-Intel-Core-M3-6Y30-128GB-SSD-Win-10-Pro-64-B/253473021'
p7
sS'price'
p8
S'N/A'
p9
sS'properties'
p10
(dp11
VHard Drive Capacity
p12
V128 GB
p13
sVBrand
p14
VMicrosoft
p15
sVOperating System
p16
VMicrosoft Windows
p17
sVModel
p18
VSurface Pro 4
p19
ssS'title'
p20
VMicrosoft Surface Pro 4 0.9GHz Intel Core M3-6Y30 128GB SSD Win 10 Pro 64 B
p21
sb.