ccopy_reg
_reconstructor
p0
(c__main__
ProductRecord
p1
c__builtin__
object
p2
Ntp3
Rp4
(dp5
S'product_url'
p6
S'http://www.walmart.com/ip/Manufacturer-Refurbished-HP-Pavilion-M1-U001DX-x360-11-6-Touch-Laptop-Intel-N3710-1-6GHz-4GB-500GB-W10/819891882'
p7
sS'price'
p8
S'N/A'
p9
sS'properties'
p10
(dp11
VRAM Memory
p12
V4 Gigabytes
p13
sVOperating System
p14
VWindows 10
p15
sVColor Category
p16
VSilver
p17
sVLaptop Computer Type
p18
VTouchscreen
p19
sVBrand
p20
VHP
p21
sVManufacturer Part Number
p22
VM1-U001DX-RF
p23
sVWireless Technology
p24
V802.11b/g/n (1x1)
p25
sVHard Drive Capacity
p26
V500 Gigabytes
p27
sVProcessor Type
p28
VIntel Pentium
p29
sVScreen Size
p30
V11.6 Inches
p31
sVModel
p32
VM1-U001DX-RF
p33
sVManufacturer
p34
VHP
p35
ssS'title'
p36
VManufacturer Refurbished - HP Pavilion M1-U001DX x360 11.6" Touch Laptop Intel N3710 1.6GHz 4GB 500GB W10
p37
sb.