ccopy_reg
_reconstructor
p0
(c__main__
ProductRecord
p1
c__builtin__
object
p2
Ntp3
Rp4
(dp5
S'product_url'
p6
S'http://www.walmart.com/ip/HP-EliteBook-x360-1030-G2-13-3-Core-i5-7200U-8-GB-RAM-128-GB-SSD/55605366'
p7
sS'price'
p8
S'N/A'
p9
sS'properties'
p10
(dp11
VRAM Memory
p12
V8 GB
p13
sVOperating System
p14
VWindows 10
p15
sVFeatures
p16
VI5-7200U 8GB 128GB SSD 13.3IN W10P
p17
sVVideo Game Platform
p18
VPC
p19
sVBrand
p20
VHP
p21
sVProcessor Speed
p22
V2.5 Gigahertz
p23
sVManufacturer Part Number
p24
V1BS95UT#ABA
p25
sVHard Drive Capacity
p26
V128 GB
p27
sVBattery Life
p28
V16 Hours
p29
sVAssembled Product Dimensions (L x W x H)
p30
V8.60 x 12.48 x 0.59 Inches
p31
sVModel
p32
V1BS95UT#ABA
p33
sVScreen Size
p34
V13.3"
p35
sVProcessor Type
p36
VIntel Core i5
p37
sVCondition
p38
VNew
p39
ssS'title'
p40
VHP EliteBook x360 1030 G2 - 13.3" - Core i5 7200U - 8 GB RAM - 128 GB SSD
p41
sb.