ccopy_reg
_reconstructor
p0
(c__main__
ProductRecord
p1
c__builtin__
object
p2
Ntp3
Rp4
(dp5
S'product_url'
p6
S'http://www.walmart.com/ip/Lenovo-110-Touch-15ACL-15-6-A8-7410-8-GB-RAM-1-TB-HDD/342318879'
p7
sS'price'
p8
S'N/A'
p9
sS'properties'
p10
(dp11
VRAM Memory
p12
V8 Gigabytes
p13
sVOperating System
p14
VWindows 10
p15
sVBrand
p16
VLenovo
p17
sVProcessor Speed
p18
V2.2 Gigahertz
p19
sVManufacturer Part Number
p20
V80V7000CUS
p21
sVHard Drive Capacity
p22
V1 Terabytes
p23
sVModel
p24
V80V7000CUS
p25
sVScreen Size
p26
V15.60 Inches
p27
sVProcessor Type
p28
VAMD A8-7410
p29
sVCondition
p30
VNew
p31
ssS'title'
p32
VLenovo 110 Touch-15ACL - 15.6" - A8 7410 - 8 GB RAM - 1 TB HDD
p33
sb.