ccopy_reg
_reconstructor
p0
(c__main__
ProductRecord
p1
c__builtin__
object
p2
Ntp3
Rp4
(dp5
S'product_url'
p6
S'http://www.walmart.com/ip/Lenovo-80TX0007US-Y-710-11ISK-11-6-Inch-FHD-Touch-Laptop-Pentium-4405Y-4-GB-Ram-128-GB-SSD-Windows-10-SilverNotebook-PC-Computer-Tablet-Touchscreen-S/303208449'
p7
sS'price'
p8
S'N/A'
p9
sS'properties'
p10
(dp11
VRAM Memory
p12
V4.00 GB
p13
sVOperating System
p14
VWindows 10
p15
sVBrand
p16
VLenovo
p17
sVProcessor Speed
p18
V1.5 GHz
p19
sVManufacturer Part Number
p20
V80TX0007US
p21
sVHard Drive Capacity
p22
V128.00 GB
p23
sVBattery Life
p24
V9 hours
p25
sVAssembled Product Dimensions (L x W x H)
p26
V11.10 x 7.70 x 0.60 Inches
p27
sVModel
p28
V80TX
p29
sVScreen Size
p30
V11.6"
p31
sVProcessor Type
p32
VIntel Pentium
p33
sVCondition
p34
VNew
p35
ssS'title'
p36
VLenovo 80TX0007US Y 710-11ISK 11.6-Inch FHD Touch Laptop (Pentium 4405Y, 4 GB Ram, 128 GB SSD, Windows 10), SilverNotebook PC Computer Tablet Touchscreen Screen 2-in-1
p37
sb.