ccopy_reg
_reconstructor
p0
(c__main__
ProductRecord
p1
c__builtin__
object
p2
Ntp3
Rp4
(dp5
S'product_url'
p6
S'http://www.walmart.com/ip/HP-Pavilion-15-Cc563Nr-15-6-Laptop-Touchscreen-Windows-10-Home-Intel-Core-i3-7100U-Dual-Core-Processor-8GB-RAM-1TB-Hybrid-Hard-Drive/55935344'
p7
sS'price'
p8
S'N/A'
p9
sS'properties'
p10
(dp11
VRAM Memory
p12
V8 GB
p13
sVOperating System
p14
VWindows 10
p15
sVColor Category
p16
VSilver
p17
sVVideo Game Platform
p18
VPC
p19
sVBrand
p20
VHP
p21
sVManufacturer Part Number
p22
V1KU25UA#ABA
p23
sVHard Drive Capacity
p24
V1 TB
p25
sVLaptop Computer Type
p26
VTouchscreen
p27
sVProcessor Core Type
p28
VDual-core (2 Core)
p29
sVProcessor Type
p30
VIntel Core i3
p31
sVScreen Size
p32
V15.6"
p33
sVModel
p34
V15-Cc563Nr
p35
sVManufacturer
p36
VHP
p37
ssS'title'
p38
VHP Pavilion 15-Cc563Nr 15.6" Laptop, Touchscreen, Windows 10 Home, Intel Core i3-7100U Dual-Core Processor, 8GB RAM, 1TB Hybrid Hard Drive
p39
sb.