ccopy_reg
_reconstructor
p0
(c__main__
ProductRecord
p1
c__builtin__
object
p2
Ntp3
Rp4
(dp5
S'product_url'
p6
S'http://www.walmart.com/ip/Lenovo-ThinkPad-X1-Yoga-14-Core-i5-7200U-8-GB-RAM-180-GB-SSD/653467796'
p7
sS'price'
p8
S'N/A'
p9
sS'properties'
p10
(dp11
VRAM Memory
p12
V8.00 GB
p13
sVOperating System
p14
VWindows 10 Pro (English)
p15
sVFeatures
p16
VI5-7200U 8GB 180GB SSD 14IN W10P
p17
sVVideo Game Platform
p18
VSee Description
p19
sVBrand
p20
VLenovo
p21
sVProcessor Speed
p22
V2.50 GHz
p23
sVManufacturer Part Number
p24
V20JD0022US
p25
sVHard Drive Capacity
p26
V180.00 GB
p27
sVBattery Life
p28
V0 h
p29
sVAssembled Product Dimensions (L x W x H)
p30
V5.00 x 5.00 x 5.00 Inches
p31
sVModel
p32
V20JD0022US
p33
sVScreen Size
p34
V14.00 in
p35
sVProcessor Type
p36
VIntel Core i5 i5-7200U
p37
sVCondition
p38
VNew
p39
ssS'title'
p40
VLenovo ThinkPad X1 Yoga - 14" - Core i5 7200U - 8 GB RAM - 180 GB SSD
p41
sb.