ccopy_reg
_reconstructor
p0
(c__main__
ProductRecord
p1
c__builtin__
object
p2
Ntp3
Rp4
(dp5
S'product_url'
p6
S'http://www.walmart.com/ip/HP-ProBook-450-G5-15-6-FHD-Touchscreen-Laptop-i5-8250U-8GB-256GB-SSD-Win10-Pro/881644712'
p7
sS'price'
p8
S'N/A'
p9
sS'properties'
p10
(dp11
VRAM Memory
p12
V8 GB
p13
sVOperating System
p14
VMicrosoft Windows, Windows 10 Pro (English)
p15
sVFeatures
p16
VI5-8250U 1.6G 8GB 256GB SSD 15.6IN
p17
sVBrand
p18
VHP
p19
sVProcessor Speed
p20
V1.60 GHz
p21
sVHard Drive Capacity
p22
V256 GB
p23
sVBattery Life
p24
V16.75 Hour
p25
sVModel
p26
V2TA30UT#ABA
p27
sVScreen Size
p28
V15.6"
p29
sVProcessor Type
p30
VIntel Core i5
p31
sVCondition
p32
VNew
p33
sVmanufacturer_part_number
p34
V2ta30ut-aba
p35
ssS'title'
p36
VHP ProBook 450 G5 15.6" FHD Touchscreen Laptop i5-8250U 8GB 256GB SSD Win10 Pro
p37
sb.