ccopy_reg
_reconstructor
p0
(c__main__
ProductRecord
p1
c__builtin__
object
p2
Ntp3
Rp4
(dp5
S'product_url'
p6
S'http://www.walmart.com/ip/Manufacturer-Refurbished-Dell-i5378-3340GRY-13-3-Touch-Laptop-Intel-i3-7100U-2-4GHz-4GB-1TB-Windows-10/945080563'
p7
sS'price'
p8
S'N/A'
p9
sS'properties'
p10
(dp11
VRAM Memory
p12
V4 GB
p13
sVOperating System
p14
VMicrosoft Windows
p15
sVBrand
p16
VDell
p17
sVManufacturer Part Number
p18
Vi5378-3340GRY-RF
p19
sVHard Drive Capacity
p20
V1000 GB
p21
sVModel
p22
Vi5378-3340GRY-RF
p23
sVScreen Size
p24
V13.3\u005c"
p25
ssS'title'
p26
VManufacturer Refurbished - Dell i5378-3340GRY 13.3" Touch Laptop Intel i3-7100U 2.4GHz 4GB 1TB Windows 10
p27
sb.