ccopy_reg
_reconstructor
p0
(c__main__
ProductRecord
p1
c__builtin__
object
p2
Ntp3
Rp4
(dp5
S'product_url'
p6
S'http://www.walmart.com/ip/HP-Flagship-High-Performance-15-6-Inch-HD-Touchscreen-Laptop-PC-Intel-Pentium-N3710-Quad-Core-1-60-GHz-4GB-RAM-500GB-HDD-DVDRW-WIFI-Windows-10-Black/262536853'
p7
sS'price'
p8
S'N/A'
p9
sS'properties'
p10
(dp11
VRAM Memory
p12
V4.00 GB
p13
sVOperating System
p14
VWindows 10
p15
sVColor Category
p16
VBlack
p17
sVLaptop Computer Type
p18
VTouchscreen
p19
sVBrand
p20
VHP
p21
sVWireless Technology
p22
VWireless LAN 802.11b/g/n
p23
sVHard Drive Capacity
p24
V500.00 GB
p25
sVProcessor Type
p26
VIntel Pentium
p27
sVCondition
p28
VNew
p29
ssS'title'
p30
VHP Flagship High Performance 15.6 Inch HD Touchscreen Laptop PC| Intel Pentium N3710 Quad-Core| 1.60 GHz| 4GB RAM| 500GB HDD| DVDRW| WIFI| Windows 10 (Black)
p31
sb.