ccopy_reg
_reconstructor
p0
(c__main__
ProductRecord
p1
c__builtin__
object
p2
Ntp3
Rp4
(dp5
S'product_url'
p6
S'http://www.walmart.com/ip/REFURBISHED-Alienware-15-4K-UHD-Touchscreen-Gaming-Laptop-Intel-Skylake-Core-i7-6700HQ-16GB-DDR4-Memory-256GB-SSD-1TB-HDD-NVIDIA-GeForce-GTX-970M-Kli/337972635'
p7
sS'price'
p8
S'N/A'
p9
sS'properties'
p10
(dp11
VBrand
p12
VDell
p13
sVRAM Memory
p14
V16 GB
p15
sVOperating System
p16
VMicrosoft Windows
p17
sVHard Drive Capacity
p18
V256
p19
ssS'title'
p20
VREFURBISHED Alienware 15 4K UHD Touchscreen Gaming Laptop Intel Skylake Core i7-6700HQ 16GB DDR4 Memory 256GB SSD + 1TB HDD NVIDIA GeForce GTX 970M Klipsch Audio USB 3.0
p21
sb.