ccopy_reg
_reconstructor
p0
(c__main__
ProductRecord
p1
c__builtin__
object
p2
Ntp3
Rp4
(dp5
S'product_url'
p6
S'http://www.walmart.com/ip/Refurbished-Lenovo-Yoga-12-5-Laptop-Windows-10-Pro-Intel-Core-i5-4300U-Processor-4GB-RAM-180GB-Solid-State-Drive/56258960'
p7
sS'price'
p8
S'N/A'
p9
sS'properties'
p10
(dp11
VRAM Memory
p12
V4 GB
p13
sVOperating System
p14
VMicrosoft Windows
p15
sVBrand
p16
VLenovo
p17
sVManufacturer Part Number
p18
VWA5-30853
p19
sVHard Drive Capacity
p20
V180 GB
p21
sVAssembled Product Dimensions (L x W x H)
p22
V12.50 x 0.70 x 8.70 Inches
p23
sVModel
p24
VYoga
p25
sVScreen Size
p26
V12.5\u005c"
p27
sVCondition
p28
VNew
p29
ssS'title'
p30
VRefurbished Lenovo Yoga 12.5" Laptop, Windows 10 Pro, Intel Core i5-4300U Processor, 4GB RAM, 180GB Solid State Drive
p31
sb.