ccopy_reg
_reconstructor
p0
(c__main__
ProductRecord
p1
c__builtin__
object
p2
Ntp3
Rp4
(dp5
S'product_url'
p6
S'http://www.walmart.com/ip/DELL-Re-certified-Chromebook-11-3120-Intel-Celeron-N2840-2-58GHZ-4GB-16GB-11-6-TOUCHSCREEN-Intel-HD-Graphics-Webcam-Intel-Dual-Band-Wireless-Bluetoot/911565942'
p7
sS'price'
p8
S'N/A'
p9
sS'properties'
p10
(dp11
VRAM Memory
p12
V4.00 GB
p13
sVOperating System
p14
VChrome OS
p15
sVBrand
p16
VDell
p17
sVHard Drive Capacity
p18
V16 GB
p19
sVProcessor Speed
p20
V2.58 GHz
p21
sVScreen Size
p22
V11.6 in
p23
sVCondition
p24
VNew
p25
ssS'title'
p26
VDELL Re-certified Chromebook 11-3120, Intel Celeron N2840, 2.58GHZ, 4GB, 16GB,11.6" TOUCHSCREEN, Intel HD Graphics, Webcam, Intel Dual Band Wireless+ Bluetooth 4.0, Chrome OS, BLACK
p27
sb.