ccopy_reg
_reconstructor
p0
(c__main__
ProductRecord
p1
c__builtin__
object
p2
Ntp3
Rp4
(dp5
S'product_url'
p6
S'http://www.walmart.com/ip/Used-Acer-Spin-1-Touch-Notebook-Turquoise-Blue-SP111-31-C2W3/428244081'
p7
sS'price'
p8
S'N/A'
p9
sS'properties'
p10
(dp11
VAssembled Product Dimensions (L x W x H)
p12
V1.00 x 1.00 x 1.00 Inches
p13
sVBrand
p14
VAcer
p15
sVOperating System
p16
VMicrosoft Windows
p17
sVFeatures
p18
VProcessor Type: Intel Celeron N3350 Dual-Core, Display Features: Backlit LED, Gorilla Glass, High-Definition, LED Display, Touch Screen, Widescreen, Maximum Resolution: 1920 x 1080, System RAM: 4 gigabyte, Memory RAM Type: DDR3L
p19
sVManufacturer Part Number
p20
VSP111-31-C2W3
p21
ssS'title'
p22
VUsed Acer Spin 1 Touch Notebook - Turquoise Blue (SP111-31-C2W3)
p23
sb.