ccopy_reg
_reconstructor
p0
(c__main__
ProductRecord
p1
c__builtin__
object
p2
Ntp3
Rp4
(dp5
S'product_url'
p6
S'http://www.walmart.com/ip/HP-15-6-Premium-Flagship-Touchscreen-Laptop-Latest-AMD-Quad-Core-A12-9720P-2-7-GHz-Processor-8GB-DDR4-RAM-1TB-HDD-DVD-Burner-AMD-Radeon-R7-graphics-W/861322296'
p7
sS'price'
p8
S'N/A'
p9
sS'properties'
p10
(dp11
VRAM Memory
p12
V8 GB
p13
sVOperating System
p14
VMicrosoft Windows
p15
sVColor Category
p16
VGray
p17
sVLaptop Computer Type
p18
VTouchscreen
p19
sVBrand
p20
VHP
p21
sVHard Drive Capacity
p22
V1000 GB
p23
sVScreen Size
p24
V15.6\u005c"
p25
ssS'title'
p26
VHP 15.6" Premium Flagship Touchscreen Laptop, Latest AMD Quad Core A12-9720P 2.7 GHz Processor, 8GB DDR4 RAM, 1TB HDD, DVD Burner, AMD Radeon R7 graphics, Wireless Mouse, Backpack, Windows 10, Gray
p27
sb.