ccopy_reg
_reconstructor
p0
(c__main__
ProductRecord
p1
c__builtin__
object
p2
Ntp3
Rp4
(dp5
S'product_url'
p6
S'http://www.walmart.com/ip/Lenovo-Yoga-900-Core-i7-6500U-13-3-QHD-Touch-8GB-256GB-SSD-WiFi-AC-Win10-Ultrabook-Laptop/194697445'
p7
sS'price'
p8
S'N/A'
p9
sS'properties'
p10
(dp11
VRAM Memory
p12
V8 KB
p13
sVOperating System
p14
VWindows 10
p15
sVColor Category
p16
VSilver
p17
sVVideo Game Platform
p18
VPC
p19
sVBrand
p20
VLenovo
p21
sVManufacturer Part Number
p22
V80MK002CUS
p23
sVHard Drive Capacity
p24
V256
p25
sVLaptop Computer Type
p26
VUltrabooks
p27
sVProcessor Core Type
p28
VDual-core (2 Core)
p29
sVProcessor Type
p30
VIntel Core i7
p31
sVScreen Size
p32
V13.3 in
p33
sVModel
p34
VHD Graphics 520
p35
sVCondition
p36
VNew
p37
sVManufacturer
p38
VIntel
p39
ssS'title'
p40
VLenovo Yoga 900 Core i7 6500U 13.3  QHD+ Touch 8GB 256GB SSD WiFi AC Win10 Ultrabook Laptop
p41
sb.