ccopy_reg
_reconstructor
p0
(c__main__
ProductRecord
p1
c__builtin__
object
p2
Ntp3
Rp4
(dp5
S'product_url'
p6
S'http://www.walmart.com/ip/SURFACE-BOOK2-I7-16-256GPU-15IN/870267784'
p7
sS'price'
p8
S'N/A'
p9
sS'properties'
p10
(dp11
VRAM Memory
p12
V16 GB
p13
sVOperating System
p14
VMicrosoft Windows, Windows 10 Pro Creators
p15
sVFeatures
p16
VMicrosoft Book2 15in i7/16/256 GPU Comm SC English 15" US/Canada 1 License
p17
sVBrand
p18
VMicrosoft
p19
sVProcessor Speed
p20
V1.90 GHz
p21
sVBattery Life
p22
V17 Hour
p23
sVModel
p24
VHNS-00001
p25
sVScreen Size
p26
V15"
p27
sVProcessor Type
p28
VIntel Core i7
p29
sVCondition
p30
VNew
p31
sVmanufacturer_part_number
p32
Vbook2
p33
ssS'title'
p34
VSURFACE BOOK2 I7/16/256GPU 15IN
p35
sb.