ccopy_reg
_reconstructor
p0
(c__main__
ProductRecord
p1
c__builtin__
object
p2
Ntp3
Rp4
(dp5
S'product_url'
p6
S'http://www.walmart.com/ip/GPD-Win-5-5-inch-GamePad-PC-Game-Console-Windows-4GB-RAM-64GB-ROM-WiFi-Bluetooth-4-1/480829714'
p7
sS'price'
p8
S'N/A'
p9
sS'properties'
p10
(dp11
VBrand
p12
VGPD
p13
sVCondition
p14
VNew
p15
ssS'title'
p16
VGPD Win 5.5 inch GamePad PC Game Console Windows 4GB RAM 64GB ROM WiFi Bluetooth 4.1
p17
sb.