ccopy_reg
_reconstructor
p0
(c__main__
ProductRecord
p1
c__builtin__
object
p2
Ntp3
Rp4
(dp5
S'product_url'
p6
S'http://www.walmart.com/ip/HP-Pavilion-15-cc123cl-15-6-Touchscreen-Laptop-i5-8250U-12GB-1TB-W10-Refurb/485542485'
p7
sS'price'
p8
S'N/A'
p9
sS'properties'
p10
(dp11
VRAM Memory
p12
V12 GB
p13
sVOperating System
p14
VWindows 10
p15
sVColor Category
p16
VSilver
p17
sVLaptop Computer Type
p18
VTouchscreen
p19
sVBrand
p20
VHP
p21
sVManufacturer Part Number
p22
V2DS92UAR#ABA
p23
sVHard Drive Capacity
p24
V1 TB
p25
sVProcessor Type
p26
VIntel Core i5
p27
sVScreen Size
p28
V15.6"
p29
sVModel
p30
V2DS92UAR#ABA
p31
sVManufacturer
p32
VHP-Consumer Remarketing
p33
ssS'title'
p34
VHP Pavilion 15-cc123cl 15.6" Touchscreen Laptop i5-8250U 12GB 1TB W10 Refurb
p35
sb.