ccopy_reg
_reconstructor
p0
(c__main__
ProductRecord
p1
c__builtin__
object
p2
Ntp3
Rp4
(dp5
S'product_url'
p6
S'http://www.walmart.com/ip/Dell-Inspiron-15-6-Touch-Screen-Laptop-Intel-Core-i5-8GB-Memory-1TB-Hard-Drive-Black/144328920'
p7
sS'price'
p8
S'N/A'
p9
sS'properties'
p10
(dp11
VRAM Memory
p12
V8.00 GB
p13
sVOperating System
p14
VWindows 10
p15
sVBrand
p16
VDell
p17
sVProcessor Speed
p18
V1.60 GHz
p19
sVHard Drive Capacity
p20
V500.00 GB
p21
sVAssembled Product Dimensions (L x W x H)
p22
V15.00 x 10.20 x 0.90 Inches
p23
sVModel
p24
V3558
p25
sVScreen Size
p26
V15.60 in
p27
sVProcessor Type
p28
Vi5-5200U
p29
ssS'title'
p30
VDell - Inspiron 15.6" Touch-Screen Laptop - Intel Core i5 - 8GB Memory - 1TB Hard Drive - Black
p31
sb.