ccopy_reg
_reconstructor
p0
(c__main__
ProductRecord
p1
c__builtin__
object
p2
Ntp3
Rp4
(dp5
S'product_url'
p6
S'http://www.walmart.com/ip/Dell-Inspiron-15-6-2-in-1-Notebook-i7-8550U-8GB-Memory-1TB-HD-Backlit-Keyboar-i5579-7978GRY-PUS/719680955'
p7
sS'price'
p8
S'N/A'
p9
sS'properties'
p10
(dp11
VRAM Memory
p12
V8 GB
p13
sVOperating System
p14
VWindows 10
p15
sVFeatures
p16
V8th Generation Intel Core i7-8550U Processor (8MB Cache , up to 4.0 GHz), 15.6-inch FHD (1920 x 1080) IPS True-life LED-Backlit Touch Display with Wide Viewing Angles-IR Camera, Windows 10 Home 64-bit English, 1 TB 5400 RPM [SATA] (HDD), No Optical Drive, 8GB 2400MHz DDR4 up to [16GB], (additional memory sold separately)
p17
sVBrand
p18
VDell
p19
sVProcessor Speed
p20
V4 Hz
p21
sVManufacturer Part Number
p22
Vi5579-7978GRY-PUS
p23
sVHard Drive Capacity
p24
V1 TB
p25
sVAssembled Product Dimensions (L x W x H)
p26
V8.85 x 12.76 x 0.77 Inches
p27
sVModel
p28
Vi5579-7978GRY-PUS
p29
sVScreen Size
p30
V13.3 in
p31
sVProcessor Type
p32
VNew 8th Generation Intel Core i7-8550U Processor (8MB Cache , up to 4.0 GHz)
p33
ssS'title'
p34
VDell Inspiron 15.6" 2-in-1 Notebook i7-8550U 8GB Memory, 1TB HD, Backlit Keyboar  i5579-7978GRY-PUS
p35
sb.