ccopy_reg
_reconstructor
p0
(c__main__
ProductRecord
p1
c__builtin__
object
p2
Ntp3
Rp4
(dp5
S'product_url'
p6
S'http://www.walmart.com/ip/Hp-15-AF028CL-15-6-Touch-Notebook-AMD-A8-7410-8GB-RAM750GB-HDD-Noble-Blue/834713921'
p7
sS'price'
p8
S'N/A'
p9
sS'properties'
p10
(dp11
VOperating System
p12
VMicrosoft Windows
p13
sVBrand
p14
VHP
p15
sVRAM Memory
p16
V8 GB
p17
sVScreen Size
p18
V15.6\u005c"
p19
sVmanufacturer_part_number
p20
V15-af028cl
p21
ssS'title'
p22
VHp 15-AF028CL 15.6" Touch Notebook AMD A8-7410 8GB RAM750GB HDD - Noble Blue
p23
sb.