ccopy_reg
_reconstructor
p0
(c__main__
ProductRecord
p1
c__builtin__
object
p2
Ntp3
Rp4
(dp5
S'product_url'
p6
S'http://www.walmart.com/ip/LG-14z970-A-AAS7U1-gram-Intel-i7-8GB-RAM-14-Touchscreen-Laptop-Dark-Silver/296894847'
p7
sS'price'
p8
S'N/A'
p9
sS'properties'
p10
(dp11
VRAM Memory
p12
V8 GB
p13
sVOperating System
p14
VMicrosoft Windows, Windows 10
p15
sVBrand
p16
VLG
p17
sVProcessor Speed
p18
V2.70 GHz
p19
sVManufacturer Part Number
p20
V14z970-A.AAS7U1
p21
sVAssembled Product Dimensions (L x W x H)
p22
V1.00 x 1.00 x 1.00 Inches
p23
sVModel
p24
V14Z970-A.AAS7U1
p25
sVScreen Size
p26
V14"
p27
sVProcessor Type
p28
VIntel Core i7
p29
sVCondition
p30
VNew
p31
ssS'title'
p32
VLG 14z970-A.AAS7U1 gram Intel i7 8GB RAM 14" Touchscreen Laptop, Dark Silver
p33
sb.