ccopy_reg
_reconstructor
p0
(c__main__
ProductRecord
p1
c__builtin__
object
p2
Ntp3
Rp4
(dp5
S'product_url'
p6
S'http://www.walmart.com/ip/Dell-Silver-13-3-XPS-13-Laptop-PC-with-Intel-Core-i7-6560U-Processor-8GB-Memory-touch-screen-256GB-Solid-State-Drive-and-Windows-10-Home/49455384'
p7
sS'price'
p8
S'N/A'
p9
sS'properties'
p10
(dp11
VRAM Memory
p12
V8 GB
p13
sVOperating System
p14
VWindows 10
p15
sVColor Category
p16
VSilver
p17
sVVideo Game Platform
p18
VPC
p19
sVBrand
p20
VDell
p21
sVManufacturer Part Number
p22
VXPS9350-5341SLV
p23
sVLaptop Computer Type
p24
VTouchscreen
p25
sVProcessor Core Type
p26
VDual-core (2 Core)
p27
sVProcessor Type
p28
VIntel Core i7
p29
sVScreen Size
p30
V13.3 in
p31
sVModel
p32
VXPS9350-5341SLV
p33
sVCondition
p34
VNew
p35
sVManufacturer
p36
VDell Inc
p37
ssS'title'
p38
VDell Silver 13.3" XPS 13 Laptop PC with Intel Core i7-6560U Processor, 8GB Memory, touch screen, 256GB Solid State Drive and Windows 10 Home
p39
sb.