ccopy_reg
_reconstructor
p0
(c__main__
ProductRecord
p1
c__builtin__
object
p2
Ntp3
Rp4
(dp5
S'product_url'
p6
S'http://www.walmart.com/ip/Acer-Chromebook-R-13-CB5-312T-K0YQ-13-3-MT8173-4-GB-RAM-64-GB-SSD-US/55009825'
p7
sS'price'
p8
S'N/A'
p9
sS'properties'
p10
(dp11
VRAM Memory
p12
V4 GB
p13
sVOperating System
p14
VChrome
p15
sVFeatures
p16
V64GB 13.3IN 11AC CHROME OS
p17
sVVideo Game Platform
p18
VPC
p19
sVBrand
p20
VAcer
p21
sVProcessor Speed
p22
V2.10 GHz
p23
sVManufacturer Part Number
p24
VNX.GL4AA.002
p25
sVHard Drive Capacity
p26
V64 GB
p27
sVBattery Life
p28
V12 hours
p29
sVAssembled Product Dimensions (L x W x H)
p30
V9.00 x 12.80 x 0.60 Inches
p31
sVModel
p32
VNX.GL4AA.002
p33
sVScreen Size
p34
V13.3"
p35
sVProcessor Type
p36
VMediaTek M8173C Quad-Core Processor
p37
sVCondition
p38
VNew
p39
ssS'title'
p40
VAcer Chromebook R 13 CB5-312T-K0YQ - 13.3" - MT8173 - 4 GB RAM - 64 GB SSD - US
p41
sb.