ccopy_reg
_reconstructor
p0
(c__main__
ProductRecord
p1
c__builtin__
object
p2
Ntp3
Rp4
(dp5
S'product_url'
p6
S'http://www.walmart.com/ip/HP-Pavilion-Touchscreen-2-in-1-Convertible-15-6-HD-Intel-Core-i5-7200U-DC-8GB-RAMMemory-500GB-Hard-Drive-8GB-SSD-Hard-Drive-Backlit-Keyboard-HD-Webca/956980802'
p7
sS'price'
p8
S'N/A'
p9
sS'properties'
p10
(dp11
VRAM Memory
p12
V8 GB
p13
sVOperating System
p14
VMicrosoft Windows
p15
sVFeatures
p16
VConvertible
p17
sVBrand
p18
VHP
p19
sVProcessor Speed
p20
V25 GHz
p21
sVManufacturer Part Number
p22
VX7Q92UA#ABA
p23
sVMaximum RAM Supported
p24
V8 GB
p25
sVHard Drive Capacity
p26
V500 GB
p27
sVBattery Life
p28
V7 h
p29
sVModel
p30
V15-bk157cl
p31
sVScreen Size
p32
V15.6 in
p33
sVProcessor Type
p34
VIntel Core i5, 7th Gen
p35
ssS'title'
p36
VHP Pavilion Touchscreen 2-in-1 Convertible 15.6" HD Intel Core i5-7200U DC  8GB RAMMemory, 500GB Hard Drive + 8GB SSD Hard Drive, Backlit Keyboard, HD Webcam, B&O Play Audio, Windows 10
p37
sb.