ccopy_reg
_reconstructor
p0
(c__main__
ProductRecord
p1
c__builtin__
object
p2
Ntp3
Rp4
(dp5
S'product_url'
p6
S'http://www.walmart.com/ip/DRAGON-TOUCH-I10X-PLUS-10-1IN-64GB-W10-QC-W-DETACHABLE-KEYB/52186335'
p7
sS'price'
p8
S'N/A'
p9
sS'properties'
p10
(dp11
VRAM Memory
p12
V2 Gigabytes
p13
sVOperating System
p14
VWindows 10
p15
sVFeatures
p16
V64GB W10 QC W/ DETACHABLE KEYB
p17
sVVideo Game Platform
p18
VPC
p19
sVBrand
p20
VTABLET EXPRESS
p21
sVProcessor Speed
p22
V1.83 Gigahertz
p23
sVManufacturer Part Number
p24
VI10X PLUS
p25
sVHard Drive Capacity
p26
V64 Gigabytes
p27
sVBattery Life
p28
V6 Hours
p29
sVModel
p30
VI10X PLUS
p31
sVScreen Size
p32
V10.10 Inches
p33
sVProcessor Type
p34
VIntel
p35
sVCondition
p36
VNew
p37
ssS'title'
p38
VDRAGON TOUCH I10X PLUS 10.1IN 64GB W10 QC W/ DETACHABLE KEYB
p39
sb.