ccopy_reg
_reconstructor
p0
(c__main__
ProductRecord
p1
c__builtin__
object
p2
Ntp3
Rp4
(dp5
S'product_url'
p6
S'http://www.walmart.com/ip/Acer-Spin-3-2-in-1-Notebook-with-Intel-i3-7100U-6GB-1TB-HDD/660445818'
p7
sS'price'
p8
S'N/A'
p9
sS'properties'
p10
(dp11
VRAM Memory
p12
V6 Gigabytes
p13
sVOperating System
p14
VWindows 10
p15
sVBrand
p16
VAcer
p17
sVProcessor Speed
p18
V2.4 Gigahertz
p19
sVManufacturer Part Number
p20
VNX.GK9AA.017
p21
sVMaximum RAM Supported
p22
V12 Gigabytes
p23
sVHard Drive Capacity
p24
V1 Terabytes
p25
sVBattery Life
p26
V9 Hours
p27
sVAssembled Product Dimensions (L x W x H)
p28
V15.00 x 3.00 x 18.00 Inches
p29
sVModel
p30
VNX.GK9AA.017
p31
sVScreen Size
p32
V15.60 Inches
p33
sVProcessor Type
p34
VIntel i3-7100U
p35
sVCondition
p36
VNew
p37
ssS'title'
p38
VAcer Spin 3 2-in-1 Notebook with Intel i3-7100U, 6GB 1TB HDD
p39
sb.