ccopy_reg
_reconstructor
p0
(c__main__
ProductRecord
p1
c__builtin__
object
p2
Ntp3
Rp4
(dp5
S'product_url'
p6
S'http://www.walmart.com/ip/Acer-TOUCH-C771T-56G3-NX-GP6AA-003-11-6-INCHES-BLACK-CHROMEBOOK-11/573801614'
p7
sS'price'
p8
S'N/A'
p9
sS'properties'
p10
(dp11
VRAM Memory
p12
V8.00 GB
p13
sVOperating System
p14
VChrome OS
p15
sVBrand
p16
VAcer
p17
sVProcessor Speed
p18
V2.30 GHz
p19
sVManufacturer Part Number
p20
VNX.GP6AA.003
p21
sVHard Drive Capacity
p22
V64.00 GB
p23
sVBattery Life
p24
V14.00 h
p25
sVAssembled Product Dimensions (L x W x H)
p26
V15.00 x 10.00 x 3.00 Inches
p27
sVModel
p28
VC771T56G3
p29
sVScreen Size
p30
V11.60 in
p31
sVProcessor Type
p32
VIntel Core i5
p33
sVCondition
p34
VNew
p35
ssS'title'
p36
VAcer TOUCH C771T-56G3 NX.GP6AA.003 11.6 INCHES BLACK CHROMEBOOK 11
p37
sb.