ccopy_reg
_reconstructor
p0
(c__main__
ProductRecord
p1
c__builtin__
object
p2
Ntp3
Rp4
(dp5
S'product_url'
p6
S'http://www.walmart.com/ip/HP-EliteBook-x360-1030-G2-13-3-Core-i7-7600U-16-GB-RAM-512-GB-SSD-US-with-HP-Active-Pen-USB-C-to-LAN-adapter/850648596'
p7
sS'price'
p8
S'N/A'
p9
sS'properties'
p10
(dp11
VRAM Memory
p12
V16 GB
p13
sVOperating System
p14
VWindows 10
p15
sVFeatures
p16
VI7-7600U 16GB 512GB 13.3IN W10P
p17
sVVideo Game Platform
p18
VXbox 360
p19
sVBrand
p20
VHP
p21
sVProcessor Speed
p22
V2.8 GHz
p23
sVManufacturer Part Number
p24
V2HT66UT#ABA
p25
sVHard Drive Capacity
p26
V512 GB
p27
sVBattery Life
p28
V16.5 h
p29
sVAssembled Product Dimensions (L x W x H)
p30
V5.00 x 5.00 x 5.00 Inches
p31
sVModel
p32
V2HT66UT
p33
sVScreen Size
p34
V13.3 in
p35
sVProcessor Type
p36
VCore i7 7600U
p37
sVCondition
p38
VNew
p39
ssS'title'
p40
VHP EliteBook x360 1030 G2 - 13.3" - Core i7 7600U - 16 GB RAM - 512 GB SSD - US - with HP Active Pen USB-C to LAN adapter
p41
sb.