ccopy_reg
_reconstructor
p0
(c__main__
ProductRecord
p1
c__builtin__
object
p2
Ntp3
Rp4
(dp5
S'product_url'
p6
S'http://www.walmart.com/ip/2018-Flagship-Dell-Inspiron-15-6-HD-Premium-Touchscreen-Laptop-Intel-Dual-Core-i5-7200U-2-5GHz-8GB-DDR4-2TB-HDD-MaxxAudio-DVDRW-Bluetooth-WLAN-HDMI-W/339086359'
p7
sS'price'
p8
S'N/A'
p9
sS'properties'
p10
(dp11
VRAM Memory
p12
V8.00 GB
p13
sVOperating System
p14
VWindows 10
p15
sVBrand
p16
VDell
p17
sVHard Drive Capacity
p18
V500.00 GB
p19
sVProcessor Type
p20
VIntel Core i5-7200U Dual-Core
p21
sVScreen Size
p22
V15.60 in
p23
sVProcessor Speed
p24
V2.50 GHz
p25
sVCondition
p26
VNew
p27
ssS'title'
p28
V2018 Flagship Dell Inspiron 15.6" HD Premium Touchscreen Laptop - Intel Dual Core i5-7200U 2.5GHz, 8GB DDR4, 2TB HDD, MaxxAudio, DVDRW, Bluetooth, WLAN, HDMI, Webcam, 3-in-1 Card Reader, Windows 10
p29
sb.