ccopy_reg
_reconstructor
p0
(c__main__
ProductRecord
p1
c__builtin__
object
p2
Ntp3
Rp4
(dp5
S'product_url'
p6
S'http://www.walmart.com/ip/Dell-XPS-12-9250-12-5-inch-Touchscreen-Notebook-Intel-m5-6Y54-8GB-RAM-128GB-SSD-Win10/49066218'
p7
sS'price'
p8
S'N/A'
p9
sS'properties'
p10
(dp11
VRAM Memory
p12
V8 GB
p13
sVOperating System
p14
VUnknown
p15
sVColor Category
p16
VMulticolor
p17
sVVideo Game Platform
p18
VPC
p19
sVBrand
p20
VDell
p21
sVManufacturer Part Number
p22
VXPS92501827WLAN
p23
sVHard Drive Capacity
p24
V0
p25
sVLaptop Computer Type
p26
VTouchscreen
p27
sVProcessor Core Type
p28
VDual-core (2 Core)
p29
sVProcessor Type
p30
VCore M
p31
sVScreen Size
p32
V12.5"
p33
sVModel
p34
VXPS92501827WLAN
p35
sVCondition
p36
VNew
p37
sVManufacturer
p38
VDell
p39
ssS'title'
p40
VDell XPS 12-9250 12.5 inch Touchscreen Notebook Intel m5 6Y54 8GB RAM 128GB SSD Win10
p41
sb.