ccopy_reg
_reconstructor
p0
(c__main__
ProductRecord
p1
c__builtin__
object
p2
Ntp3
Rp4
(dp5
S'product_url'
p6
S'http://www.walmart.com/ip/Dell-Silver-15-6-Inspiron-5559-FHD-Touch-Laptop-PC-with-Intel-Core-i7-6500U-Processor-8GB-Memory-touch-screen-1TB-Hard-Drive-and-Windows-10-Home/49455388'
p7
sS'price'
p8
S'N/A'
p9
sS'properties'
p10
(dp11
VRAM Memory
p12
V8 GB
p13
sVOperating System
p14
VWindows 10
p15
sVFeatures
p16
VEPEAT
p17
sVVideo Game Platform
p18
VPC
p19
sVBrand
p20
VDell
p21
sVProcessor Speed
p22
V3.10 GHz
p23
sVManufacturer Part Number
p24
Vi5559-7081SLV
p25
sVMaximum RAM Supported
p26
V16 GB
p27
sVHard Drive Capacity
p28
V1 TB
p29
sVBattery Life
p30
V7 Hours
p31
sVAssembled Product Dimensions (L x W x H)
p32
V14.90 x 0.95 x 10.25 Inches
p33
sVModel
p34
Vi5559-7081SLV
p35
sVScreen Size
p36
V15.6 in
p37
sVProcessor Type
p38
VIntel Core i7
p39
sVCondition
p40
VNew
p41
ssS'title'
p42
VDell Silver 15.6" Inspiron 5559 FHD Touch Laptop PC with Intel Core i7-6500U Processor, 8GB Memory, touch screen, 1TB Hard Drive and Windows 10 Home
p43
sb.