ccopy_reg
_reconstructor
p0
(c__main__
ProductRecord
p1
c__builtin__
object
p2
Ntp3
Rp4
(dp5
S'product_url'
p6
S'http://www.walmart.com/ip/Asus-VivoBook-Flip-TP410UA-DB51T-Core-i5-7200U-6-GB-1-TB-HDD-14-Touchscreen-1920-x-1080-Convertible-2-in-1-Notebook/843280315'
p7
sS'price'
p8
S'N/A'
p9
sS'properties'
p10
(dp11
VRAM Memory
p12
V6.00 GB
p13
sVOperating System
p14
VWindows 10
p15
sVColor Category
p16
VGray
p17
sVLaptop Computer Type
p18
VTouchscreen
p19
sVBrand
p20
VASUS
p21
sVManufacturer Part Number
p22
V90NB0FS1-M06340
p23
sVWireless Technology
p24
VBluetooth; 802.11ac
p25
sVHard Drive Capacity
p26
V1.00 TB
p27
sVProcessor Type
p28
VIntel Core i5
p29
sVScreen Size
p30
V14.00 in
p31
sVModel
p32
VTP410UADB51T
p33
sVCondition
p34
VNew
p35
sVManufacturer
p36
VASUS Computer International
p37
ssS'title'
p38
VAsus VivoBook Flip TP410UA-DB51T Core i5 7200U 6 GB 1 TB HDD 14" Touchscreen 1920 x 1080 Convertible 2-in-1 Notebook
p39
sb.