ccopy_reg
_reconstructor
p0
(c__main__
ProductRecord
p1
c__builtin__
object
p2
Ntp3
Rp4
(dp5
S'product_url'
p6
S'http://www.walmart.com/ip/Dell-Inspiron-11-11-6-Touchscreen-Laptop-Celeron-N3060-2GB-32GB-eMMC-Refurbished/830725215'
p7
sS'price'
p8
S'N/A'
p9
sS'properties'
p10
(dp11
VBrand
p12
VDell
p13
sVOperating System
p14
VMicrosoft Windows
p15
ssS'title'
p16
VDell Inspiron 11 11.6 Touchscreen Laptop Celeron N3060 2GB 32GB eMMC Refurbished
p17
sb.