ccopy_reg
_reconstructor
p0
(c__main__
ProductRecord
p1
c__builtin__
object
p2
Ntp3
Rp4
(dp5
S'product_url'
p6
S'http://www.walmart.com/ip/Dell-Latitude-E6540-15-6-HD-i7-Quad-Core-4800MQ-2-7GHz-3-7GHz-8GB-Memory-750GB-Hard-Drive-AMD-Radeon-8790M-DVD-RW-Windows-7-Professional-Laptop-Refur/654388807'
p7
sS'price'
p8
S'N/A'
p9
sS'properties'
p10
(dp11
sS'title'
p12
VDell Latitude E6540 15.6" HD i7 Quad Core 4800MQ (2.7GHz-3.7GHz) 8GB Memory 750GB Hard Drive AMD Radeon 8790M DVD-RW Windows 7 Professional Laptop (Refurbished)
p13
sb.