ccopy_reg
_reconstructor
p0
(c__main__
ProductRecord
p1
c__builtin__
object
p2
Ntp3
Rp4
(dp5
S'product_url'
p6
S'http://www.walmart.com/ip/Acer-TravelMate-B117-M-C0DK-11-6-Celeron-N3050-4-GB-RAM-32-GB-SSD/123703056'
p7
sS'price'
p8
S'N/A'
p9
sS'properties'
p10
(dp11
VRAM Memory
p12
V4
p13
sVOperating System
p14
VWindows 10 Pro
p15
sVBrand
p16
VAcer
p17
sVProcessor Speed
p18
V1.6 GHz
p19
sVManufacturer Part Number
p20
VNX.VCHAA.001
p21
sVHard Drive Capacity
p22
V32
p23
sVBattery Life
p24
V12
p25
sVAssembled Product Dimensions (L x W x H)
p26
V15.50 x 9.80 x 3.30 Inches
p27
sVModel
p28
VNX.VCHAA.001
p29
sVScreen Size
p30
V11.6"
p31
sVProcessor Type
p32
VIntel Celeron
p33
sVCondition
p34
VNew
p35
ssS'title'
p36
VAcer TravelMate B117-M-C0DK - 11.6" - Celeron N3050 - 4 GB RAM - 32 GB SSD
p37
sb.