ccopy_reg
_reconstructor
p0
(c__main__
ProductRecord
p1
c__builtin__
object
p2
Ntp3
Rp4
(dp5
S'product_url'
p6
S'http://www.walmart.com/ip/Acer-SW312-31-SW312-31-P946-12-2-Quad-core-4GB-64GB-Windows-10-Home-1920-x-1200-2-in-1-Tablet/959211980'
p7
sS'price'
p8
S'N/A'
p9
sS'properties'
p10
(dp11
VOperating System
p12
VWindows 10
p13
sVFeatures
p14
VBIOS Passwords:  User Supervisor HDD 
p15
sVAccessories Included
p16
V Switch SW312-31-P946 2 in 1 Notebook Lithium Ion Battery AC Adapter Keyboard Dock Stylus 
p17
sVColor
p18
VIron Gray
p19
sVBrand
p20
VAcer
p21
sVManufacturer Part Number
p22
VNT.LDRAA.003
p23
sVBattery Life
p24
V8.00 h
p25
sVAssembled Product Dimensions (L x W x H)
p26
V10.00 x 3.20 x 15.50 Inches
p27
sVModel
p28
VSW31231P946
p29
sVScreen Size
p30
V12.20 in
p31
ssS'title'
p32
VAcer SW312-31 SW312-31-P946 12.2" Quad-core - 4GB - 64GB - Windows 10 Home - 1920 x 1200 2 in 1 Tablet
p33
sb.