ccopy_reg
_reconstructor
p0
(c__main__
ProductRecord
p1
c__builtin__
object
p2
Ntp3
Rp4
(dp5
S'product_url'
p6
S'http://www.walmart.com/ip/LG-Gram-Intel-i7-16GB-RAM-15-6-Touchscreen-Laptop-Dark-Silver-15Z970-A-AAS7U1-with-Software-Extended-Warranty-Bundle/726376258'
p7
sS'price'
p8
S'N/A'
p9
sS'properties'
p10
(dp11
VRAM Memory
p12
V16.00 GB
p13
sVOperating System
p14
VWindows 10
p15
sVBrand
p16
VLG
p17
sVProcessor Speed
p18
V2.70 GHz
p19
sVManufacturer Part Number
p20
V15Z970-A.AAS7U1
p21
sVHard Drive Capacity
p22
V512.00 GB
p23
sVBattery Life
p24
V12.50 h
p25
sVModel
p26
V15Z970-A.AAS7U1
p27
sVScreen Size
p28
V15.60 in
p29
sVProcessor Type
p30
VIntel Core i7-7500U
p31
sVCondition
p32
VNew
p33
ssS'title'
p34
VLG Gram Intel i7 16GB RAM 15.6" Touchscreen Laptop Dark Silver (15Z970-A.AAS7U1) with Software + Extended Warranty Bundle
p35
sb.