ccopy_reg
_reconstructor
p0
(c__main__
ProductRecord
p1
c__builtin__
object
p2
Ntp3
Rp4
(dp5
S'product_url'
p6
S'http://www.walmart.com/ip/Lenovo-N23-Chromebook-11-6-Celeron-N3060-4-GB-RAM-16-GB-SSD/463320489'
p7
sS'price'
p8
S'N/A'
p9
sS'properties'
p10
(dp11
VRAM Memory
p12
V4 Gigabytes
p13
sVOperating System
p14
VChrome OS
p15
sVFeatures
p16
V16GB 11.6IN HD DISPLAY CHROME
p17
sVBrand
p18
VLenovo
p19
sVProcessor Speed
p20
V1.6 Gigahertz
p21
sVManufacturer Part Number
p22
V80YS000CUS
p23
sVHard Drive Capacity
p24
V16 Gigabytes
p25
sVAssembled Product Dimensions (L x W x H)
p26
V12.00 x 12.00 x 12.00 Inches
p27
sVModel
p28
V80YS000CUS
p29
sVScreen Size
p30
V11.60 Inches
p31
sVProcessor Type
p32
VIntel N3060
p33
sVCondition
p34
VNew
p35
ssS'title'
p36
VLenovo N23 Chromebook - 11.6" - Celeron N3060 - 4 GB RAM - 16 GB SSD
p37
sb.