ccopy_reg
_reconstructor
p0
(c__main__
ProductRecord
p1
c__builtin__
object
p2
Ntp3
Rp4
(dp5
S'product_url'
p6
S'http://www.walmart.com/ip/Refurbished-Acer-Iconia-Tab-W700-6499-11-6-HD-WiFi-Windows-10-Tablet-Intel-i5-4GB-128GB/702043203'
p7
sS'price'
p8
S'N/A'
p9
sS'properties'
p10
(dp11
VHard Drive Capacity
p12
V128
p13
sVBrand
p14
VAcer
p15
sVRAM Memory
p16
V4 GB
p17
sVModel
p18
VW700-6499
p19
sVManufacturer Part Number
p20
VW700-6499-PB-RCB
p21
ssS'title'
p22
VRefurbished Acer Iconia Tab W700-6499 11.6" HD WiFi Windows 10 Tablet Intel i5 4GB 128GB
p23
sb.