ccopy_reg
_reconstructor
p0
(c__main__
ProductRecord
p1
c__builtin__
object
p2
Ntp3
Rp4
(dp5
S'product_url'
p6
S'http://www.walmart.com/ip/Manufacturer-Refurbished-HP-EliteBook-820-G2-12-5-Touchscreen-Laptop-i5-5300U-2-3GHz-8GB-256GB-win10/444678815'
p7
sS'price'
p8
S'N/A'
p9
sS'properties'
p10
(dp11
VRAM Memory
p12
V8 GB
p13
sVOperating System
p14
VMicrosoft Windows
p15
sVBrand
p16
VHP
p17
sVManufacturer Part Number
p18
V820 G2-RF
p19
sVHard Drive Capacity
p20
V256 GB
p21
sVModel
p22
V820 G2-RF
p23
sVScreen Size
p24
V12.5\u005c"
p25
ssS'title'
p26
VManufacturer Refurbished - HP EliteBook 820 G2 12.5" Touchscreen Laptop i5-5300U 2.3GHz 8GB 256GB win10
p27
sb.