ccopy_reg
_reconstructor
p0
(c__main__
ProductRecord
p1
c__builtin__
object
p2
Ntp3
Rp4
(dp5
S'product_url'
p6
S'http://www.walmart.com/ip/Lenovo-ThinkPad-T470s-14-Core-i5-7300U-8-GB-RAM-256-GB-SSD/239878767'
p7
sS'price'
p8
S'N/A'
p9
sS'properties'
p10
(dp11
VRAM Memory
p12
V8.00 GB
p13
sVOperating System
p14
VWindows 10 Pro (English)
p15
sVBrand
p16
VLenovo
p17
sVProcessor Speed
p18
V2.60 GHz
p19
sVManufacturer Part Number
p20
V20HF0012US
p21
sVHard Drive Capacity
p22
V256.00 GB
p23
sVBattery Life
p24
V0 h
p25
sVAssembled Product Dimensions (L x W x H)
p26
V5.00 x 5.00 x 5.00 Inches
p27
sVModel
p28
V20HF0012US
p29
sVScreen Size
p30
V14.00 in
p31
sVProcessor Type
p32
VIntel Core i5 i5-7300U
p33
sVCondition
p34
VNew
p35
ssS'title'
p36
VLenovo ThinkPad T470s - 14" - Core i5 7300U - 8 GB RAM - 256 GB SSD
p37
sb.