ccopy_reg
_reconstructor
p0
(c__main__
ProductRecord
p1
c__builtin__
object
p2
Ntp3
Rp4
(dp5
S'product_url'
p6
S'http://www.walmart.com/ip/HP-15-Core-i3-7100-2TB-HDD-15-6-HD-Touch-Screen-Laptop-Bundle-with-Office-365-Refurbished/387150420'
p7
sS'price'
p8
S'N/A'
p9
sS'properties'
p10
(dp11
VOperating System
p12
VMicrosoft Windows
p13
sVBrand
p14
VHP
p15
sVManufacturer Part Number
p16
VHP15BS008CY-RB_K1
p17
sVHard Drive Capacity
p18
V2000 GB
p19
sVAssembled Product Dimensions (L x W x H)
p20
V9.10 x 9.10 x 9.10 Inches
p21
sVModel
p22
VHP15BS008CY-RB_K1
p23
sVScreen Size
p24
V15.6\u005c"
p25
ssS'title'
p26
VHP 15 Core i3-7100 2TB HDD 15.6\u201d HD Touch Screen Laptop Bundle with Office 365 (Refurbished)
p27
sb.