ccopy_reg
_reconstructor
p0
(c__main__
ProductRecord
p1
c__builtin__
object
p2
Ntp3
Rp4
(dp5
S'product_url'
p6
S'http://www.walmart.com/ip/LG-15Z970-A-AAS7U1-gram-Intel-i7-16GB-RAM-15-6-Touchscreen-Laptop-Dark-Silver/913367266'
p7
sS'price'
p8
S'N/A'
p9
sS'properties'
p10
(dp11
VAssembled Product Dimensions (L x W x H)
p12
V1.00 x 1.00 x 1.00 Inches
p13
sVBrand
p14
VLG
p15
sVManufacturer Part Number
p16
V15Z970-A.AAS7U1
p17
sVProcessor Type
p18
VIntel Core i7
p19
sVModel
p20
V15Z970-A.AAS7U1
p21
sVCondition
p22
VNew
p23
ssS'title'
p24
VLG 15Z970-A.AAS7U1 gram Intel  i7 16GB RAM 15.6" Touchscreen Laptop, Dark Silver
p25
sb.