ccopy_reg
_reconstructor
p0
(c__main__
ProductRecord
p1
c__builtin__
object
p2
Ntp3
Rp4
(dp5
S'product_url'
p6
S'http://www.walmart.com/ip/Manufacturer-Refurbished-Asus-T102HA-D4-GR-10-1-TS-Laptop-x5-Z8350-Processor-128GB-eMMC-4GB-w-pen-Win10/111534317'
p7
sS'price'
p8
S'N/A'
p9
sS'properties'
p10
(dp11
VRAM Memory
p12
V4 Gigabytes
p13
sVOperating System
p14
VWindows 10
p15
sVColor Category
p16
VGray
p17
sVLaptop Computer Type
p18
VPC Laptops
p19
sVBrand
p20
VASUS
p21
sVManufacturer Part Number
p22
VT102HA-D4-GR-RF
p23
sVWireless Technology
p24
VIntegrated 802.11 AC
p25
sVHard Drive Capacity
p26
V128
p27
sVProcessor Type
p28
VIntel Atom
p29
sVScreen Size
p30
V10 Inches
p31
sVModel
p32
VT102HA-D4-GR-RF
p33
sVManufacturer
p34
VAsus
p35
ssS'title'
p36
VManufacturer Refurbished - Asus T102HA-D4-GR 10.1" TS Laptop x5-Z8350 Processor 128GB eMMC 4GB w/ pen Win10
p37
sb.