ccopy_reg
_reconstructor
p0
(c__main__
ProductRecord
p1
c__builtin__
object
p2
Ntp3
Rp4
(dp5
S'product_url'
p6
S'http://www.walmart.com/ip/HP-Spectre-x360-15-bl152nr-15-6-Touchscreen-Laptop-Certified-Refurbished/551845509'
p7
sS'price'
p8
S'N/A'
p9
sS'properties'
p10
(dp11
VRAM Memory
p12
V16 GB
p13
sVOperating System
p14
VMicrosoft Windows, Windows 10
p15
sVBrand
p16
VHP
p17
sVProcessor Speed
p18
V1.80 GHz
p19
sVManufacturer Part Number
p20
VZ4Z39UAR#ABA
p21
sVBattery Life
p22
V12.75 Hour
p23
sVAssembled Product Dimensions (L x W x H)
p24
V20.60 x 12.30 x 2.70 Inches
p25
sVModel
p26
VZ4Z39UAR#ABA
p27
sVScreen Size
p28
V15.6"
p29
sVProcessor Type
p30
VIntel Core i7
p31
ssS'title'
p32
VHP Spectre x360 15-bl152nr 15.6" Touchscreen Laptop (Certified Refurbished)
p33
sb.