ccopy_reg
_reconstructor
p0
(c__main__
ProductRecord
p1
c__builtin__
object
p2
Ntp3
Rp4
(dp5
S'product_url'
p6
S'http://www.walmart.com/ip/Dell-Inspiron-15-5000-Series-Touchscreen-Laptop-Intel-Core-i7-4GB-AMD-Graphics-1080p-Notebook-PC-Computer-16GB-1TB-Touch-Screen-Kaby-Lake-7th-Gen-Int/307846456'
p7
sS'price'
p8
S'N/A'
p9
sS'properties'
p10
(dp11
VBrand
p12
VDell
p13
sVRAM Memory
p14
V16 GB
p15
sVHard Drive Capacity
p16
V1000
p17
sVCondition
p18
VNew
p19
ssS'title'
p20
VDell Inspiron 15 5000 Series Touchscreen Laptop - Intel Core i7 - 4GB AMD Graphics - 1080p Notebook PC Computer 16GB 1TB Touch Screen Kaby Lake 7th Gen Intel
p21
sb.