ccopy_reg
_reconstructor
p0
(c__main__
ProductRecord
p1
c__builtin__
object
p2
Ntp3
Rp4
(dp5
S'product_url'
p6
S'http://www.walmart.com/ip/I7-6500U-12GB-512GB-13-3IN-TOUCH-SCREEN-W10/47431200'
p7
sS'price'
p8
S'N/A'
p9
sS'properties'
p10
(dp11
VRAM Memory
p12
V12 GB
p13
sVOperating System
p14
VWindows 10
p15
sVColor Category
p16
VMulticolor
p17
sVVideo Game Platform
p18
VPC
p19
sVBrand
p20
VASUS
p21
sVManufacturer Part Number
p22
VUX303UB-DH74T
p23
sVWireless Technology
p24
VBluetooth 4.0
p25
sVHard Drive Capacity
p26
V512 GB
p27
sVLaptop Computer Type
p28
VUltrabooks
p29
sVProcessor Core Type
p30
VDual-core (2 Core)
p31
sVProcessor Type
p32
VIntel Core i7
p33
sVScreen Size
p34
V13.3 in
p35
sVModel
p36
V90NB08U2-M00690
p37
sVCondition
p38
VNew
p39
sVManufacturer
p40
VASUS - NOTEBOOKS
p41
ssS'title'
p42
VI7-6500U 12GB 512GB 13.3IN TOUCH SCREEN W10
p43
sb.