ccopy_reg
_reconstructor
p0
(c__main__
ProductRecord
p1
c__builtin__
object
p2
Ntp3
Rp4
(dp5
S'product_url'
p6
S'http://www.walmart.com/ip/Lenovo-MIIX-520-12-2-FHD-2-in-1-Touchscreen-Laptop-i5-8250U-8GB-256GB-SSD/983277026'
p7
sS'price'
p8
S'N/A'
p9
sS'properties'
p10
(dp11
VRAM Memory
p12
V8 Gigabytes
p13
sVOperating System
p14
VWindows 10
p15
sVBrand
p16
VLenovo
p17
sVProcessor Speed
p18
V1.6 Gigahertz
p19
sVManufacturer Part Number
p20
V81CG00NBUS
p21
sVHard Drive Capacity
p22
V256 Gigabytes
p23
sVAssembled Product Dimensions (L x W x H)
p24
V14.00 x 10.00 x 2.00 Inches
p25
sVModel
p26
V81CG00NBUS
p27
sVScreen Size
p28
V12.20 Inches
p29
sVProcessor Type
p30
VIntel i5-8250U
p31
sVCondition
p32
VNew
p33
ssS'title'
p34
VLenovo MIIX 520 12.2" FHD 2-in-1 Touchscreen Laptop i5-8250U 8GB 256GB SSD
p35
sb.