ccopy_reg
_reconstructor
p0
(c__main__
ProductRecord
p1
c__builtin__
object
p2
Ntp3
Rp4
(dp5
S'product_url'
p6
S'http://www.walmart.com/ip/New-Flagship-HP-Laptop-15-6-HD-High-Performance-Premium-Touchscreen-Quad-Core-AMD-A8-Quad-Core-3-0GHz-4GB-RAM-1TB-HDD-AMD-Radeon-R5-DVDRW-WLAN-Webcam/104004035'
p7
sS'price'
p8
S'N/A'
p9
sS'properties'
p10
(dp11
VRAM Memory
p12
V4.00 GB
p13
sVOperating System
p14
VWindows 10
p15
sVColor Category
p16
VBlue
p17
sVLaptop Computer Type
p18
VTouchscreen
p19
sVBrand
p20
VHP
p21
sVHard Drive Capacity
p22
V1.00 TB
p23
sVProcessor Type
p24
VAMD A-Series A8-7410 Quad-core
p25
sVScreen Size
p26
V15.60 in
p27
sVModel
p28
VHPTOUCHTEAL
p29
ssS'title'
p30
VNew Flagship HP Laptop 15.6" HD High Performance Premium Touchscreen Quad-Core AMD A8 Quad Core Up to 3.0GHz, 4GB RAM, 1TB HDD, AMD Radeon R5, DVDRW, WLAN, Webcam, USB 3.0, HDMI, Win 10 -Dreamy Teal
p31
sb.