ccopy_reg
_reconstructor
p0
(c__main__
ProductRecord
p1
c__builtin__
object
p2
Ntp3
Rp4
(dp5
S'product_url'
p6
S'http://www.walmart.com/ip/Acer-Aspire-R5-571TG-R5-571TG-51A3-15-6-Core-i5-7th-Gen-i5-7200U-8GB-DDR4-1TB-HDD-128GB-SSD-Windows-10-Home-1920-x-1080-In-plane-Switching-IPS-Techno/255465539'
p7
sS'price'
p8
S'N/A'
p9
sS'properties'
p10
(dp11
VRAM Memory
p12
V8.00 GB
p13
sVOperating System
p14
VWindows 10
p15
sVFeatures
p16
V1TB 128GB SSD 15.6IN 11AC W10H
p17
sVBrand
p18
VAcer
p19
sVProcessor Speed
p20
V2.50 GHz
p21
sVManufacturer Part Number
p22
VNX.GP7AA.006
p23
sVMaximum RAM Supported
p24
V12.00 GB
p25
sVHard Drive Capacity
p26
V1.00 TB
p27
sVBattery Life
p28
V9.00 h
p29
sVAssembled Product Dimensions (L x W x H)
p30
V12.00 x 12.00 x 12.00 Inches
p31
sVModel
p32
VR5571TG51A3
p33
sVScreen Size
p34
V15.60 in
p35
sVProcessor Type
p36
VIntel Core i5
p37
sVCondition
p38
VNew
p39
ssS'title'
p40
VAcer Aspire R5-571TG R5-571TG-51A3 15.6" Core i5 (7th Gen) i5-7200U 8GB DDR4 1TB HDD - 128GB SSD - Windows 10 Home 1920 x 1080 - In-plane Switching (IPS) Technology - Steel Gray Notebook
p41
sb.