ccopy_reg
_reconstructor
p0
(c__main__
ProductRecord
p1
c__builtin__
object
p2
Ntp3
Rp4
(dp5
S'product_url'
p6
S'http://www.walmart.com/ip/Microsoft-Surface-Pro-4-12-3-Core-i5-6300U-8-GB-RAM-256-GB-SSD/52696959'
p7
sS'price'
p8
S'N/A'
p9
sS'properties'
p10
(dp11
VRAM Memory
p12
V8 GB
p13
sVOperating System
p14
VWindows 10
p15
sVVideo Game Platform
p16
VPC
p17
sVBrand
p18
VMicrosoft
p19
sVProcessor Speed
p20
V2.40 Gigahertz
p21
sVManufacturer Part Number
p22
VTJ2-00004
p23
sVMaximum RAM Supported
p24
V8 GB
p25
sVHard Drive Capacity
p26
V256 Gigabytes
p27
sVBattery Life
p28
V9 hours
p29
sVAssembled Product Dimensions (L x W x H)
p30
V15.25 x 9.25 x 1.50 Inches
p31
sVModel
p32
VHD Graphics 520
p33
sVScreen Size
p34
V12.3 Inches
p35
sVProcessor Type
p36
VIntel Core i5
p37
sVCondition
p38
VNew
p39
ssS'title'
p40
VMicrosoft Surface Pro 4 - 12.3" - Core i5 6300U - 8 GB RAM - 256 GB SSD
p41
sb.