ccopy_reg
_reconstructor
p0
(c__main__
ProductRecord
p1
c__builtin__
object
p2
Ntp3
Rp4
(dp5
S'product_url'
p6
S'http://www.walmart.com/ip/SURFACE-LAPTOP-I7-256GB-W-10PRO-COBALT-BLUE/929554110'
p7
sS'price'
p8
S'N/A'
p9
sS'properties'
p10
(dp11
VRAM Memory
p12
V8 GB
p13
sVOperating System
p14
VMicrosoft Windows, Windows 10
p15
sVBrand
p16
VMicrosoft
p17
sVProcessor Speed
p18
V2.50 GHz
p19
sVManufacturer Part Number
p20
VJKQ-00050
p21
sVHard Drive Capacity
p22
V256 GB
p23
sVModel
p24
VLaptop
p25
sVScreen Size
p26
V13.5"
p27
sVProcessor Type
p28
VIntel Core i7
p29
sVCondition
p30
VNew
p31
ssS'title'
p32
VSURFACE LAPTOP I7 256GB W/10PRO COBALT BLUE
p33
sb.