ccopy_reg
_reconstructor
p0
(c__main__
ProductRecord
p1
c__builtin__
object
p2
Ntp3
Rp4
(dp5
S'product_url'
p6
S'http://www.walmart.com/ip/Dell-15-6-4k-Ultra-HD-Touch-Screen-Laptop-Intel-Core-i7-6700hq-Nvidia-GeForce-GTX-960M-4GB-DDR5-Graphic-Card-16GB-DDR3L-Memory-1TB-HD-128GB-SSD-Windo/47431721'
p7
sS'price'
p8
S'N/A'
p9
sS'properties'
p10
(dp11
VRAM Memory
p12
V16 GB
p13
sVOperating System
p14
VWindows 10
p15
sVVideo Game Platform
p16
VPC
p17
sVBrand
p18
VDell
p19
sVProcessor Speed
p20
V3.50 GHz
p21
sVMaximum RAM Supported
p22
V16 GB
p23
sVHard Drive Capacity
p24
V1 TB, 128 GB
p25
sVAssembled Product Dimensions (L x W x H)
p26
V10.43 x 15.08 x 1.00 Inches
p27
sVModel
p28
Vi7559-7512GRY
p29
sVScreen Size
p30
V15.6"
p31
sVProcessor Type
p32
VIntel Core i7
p33
sVCondition
p34
VNew
p35
sVmanufacturer_part_number
p36
Vi7559-7514gry
p37
ssS'title'
p38
VDell 15.6" 4k Ultra HD Touch Screen Laptop, Intel Core i7-6700hq, Nvidia GeForce GTX 960M 4GB DDR5 Graphic Card, 16GB DDR3L Memory, 1TB HD +128GB SSD, Windows 10 Home, i7559-7514gry
p39
sb.