ccopy_reg
_reconstructor
p0
(c__main__
ProductRecord
p1
c__builtin__
object
p2
Ntp3
Rp4
(dp5
S'product_url'
p6
S'http://www.walmart.com/ip/Dell-XPS9360-7758SLV-PUS-13-3-Intel-Core-i7-7560U-8GB-256GB-Pie-Solid-State-Drive-Windows-10-Home-Traditional-Laptop/55628624'
p7
sS'price'
p8
S'N/A'
p9
sS'properties'
p10
(dp11
VRAM Memory
p12
V8.00 GB
p13
sVOperating System
p14
VWindows 10
p15
sVColor Category
p16
VSilver
p17
sVVideo Game Platform
p18
VPC
p19
sVBrand
p20
VDell
p21
sVManufacturer Part Number
p22
VXPS9360-7758SLV-PUS
p23
sVHard Drive Capacity
p24
V256.00 GB
p25
sVLaptop Computer Type
p26
VTouchscreen
p27
sVProcessor Core Type
p28
VDual-core (2 Core)
p29
sVProcessor Type
p30
VIntel Core i7
p31
sVScreen Size
p32
V13.30 in
p33
sVModel
p34
VXPS93607758SLV
p35
sVCondition
p36
VNew
p37
sVManufacturer
p38
VDell Technologies
p39
ssS'title'
p40
VDell XPS9360-7758SLV-PUS 13.3" Intel Core i7-7560U 8GB 256GB Pie Solid State Drive Windows 10 Home Traditional Laptop
p41
sb.