ccopy_reg
_reconstructor
p0
(c__main__
ProductRecord
p1
c__builtin__
object
p2
Ntp3
Rp4
(dp5
S'product_url'
p6
S'http://www.walmart.com/ip/HP-HP-Pavilion-15-cc510nr-Core-i5-7200U-8-GB-DDR4-1-TB-5400-rpm-SATA-SSHD-15-6-inch-Notebook/55908688'
p7
sS'price'
p8
S'N/A'
p9
sS'properties'
p10
(dp11
VRAM Memory
p12
V8.00 GB
p13
sVOperating System
p14
VWindows 10
p15
sVFeatures
p16
VEPEAT
p17
sVVideo Game Platform
p18
VPC
p19
sVBrand
p20
VHP
p21
sVProcessor Speed
p22
V2.50 GHz
p23
sVManufacturer Part Number
p24
V1KU22UA#ABA
p25
sVMaximum RAM Supported
p26
V32.00 GB
p27
sVHard Drive Capacity
p28
V1.00 TB
p29
sVBattery Life
p30
V9.00 h
p31
sVAssembled Product Dimensions (L x W x H)
p32
V9.93 x 14.88 x 0.78 Inches
p33
sVModel
p34
V15CC510NR
p35
sVScreen Size
p36
V15.60 in
p37
sVProcessor Type
p38
VIntel Core i5
p39
ssS'title'
p40
VHP HP Pavilion - 15-cc510nr Core i5-7200U 8 GB DDR4 1 TB 5400 rpm SATA SSHD 15.6 inch Notebook
p41
sb.