ccopy_reg
_reconstructor
p0
(c__main__
ProductRecord
p1
c__builtin__
object
p2
Ntp3
Rp4
(dp5
S'product_url'
p6
S'http://www.walmart.com/ip/Manufacturer-Refurbished-Acer-Predator-17-G9-792-790G-17-3-Laptop-Touchscreen-Windows-10-Home-Intel-Core-i7-6700HQ-Processor-64GB-RAM-2TB-Hard-Drive-/55429964'
p7
sS'price'
p8
S'N/A'
p9
sS'properties'
p10
(dp11
VRAM Memory
p12
V64 GB
p13
sVOperating System
p14
VWindows 10
p15
sVVideo Game Platform
p16
VPC
p17
sVBrand
p18
VAcer
p19
sVProcessor Speed
p20
V2.60 GHz
p21
sVManufacturer Part Number
p22
VNX.Q0UAA.001
p23
sVHard Drive Capacity
p24
V2 TB, 512 GB
p25
sVBattery Life
p26
V7 hours
p27
sVAssembled Product Dimensions (L x W x H)
p28
V20.00 x 15.00 x 6.00 Inches
p29
sVModel
p30
VG9-792-790G
p31
sVScreen Size
p32
V17.3"
p33
sVProcessor Type
p34
VIntel Core i7
p35
ssS'title'
p36
VManufacturer Refurbished Acer Predator 17 G9-792-790G 17.3" Laptop, Touchscreen, Windows 10 Home, Intel Core i7-6700HQ Processor, 64GB RAM, 2TB Hard Drive, 512GB Solid State Drive
p37
sb.