ccopy_reg
_reconstructor
p0
(c__main__
ProductRecord
p1
c__builtin__
object
p2
Ntp3
Rp4
(dp5
S'product_url'
p6
S'http://www.walmart.com/ip/Lenovo-N23-11-6-Celeron-N3060-4-GB-RAM-128-GB-SSD/175745202'
p7
sS'price'
p8
S'N/A'
p9
sS'properties'
p10
(dp11
VRAM Memory
p12
V4 Gigabytes
p13
sVOperating System
p14
VWindows 10
p15
sVFeatures
p16
VN23, INTEL N3060, 11.6  HD IPS AG TOUCH DISPLAY, WINDOWS 10 PRO NATIONAL ACADEMI
p17
sVVideo Game Platform
p18
VPC
p19
sVBrand
p20
VLenovo
p21
sVProcessor Speed
p22
V1.6 Gigahertz
p23
sVManufacturer Part Number
p24
V80UR0006US
p25
sVHard Drive Capacity
p26
V128 Gigabytes
p27
sVAssembled Product Dimensions (L x W x H)
p28
V5.00 x 5.00 x 5.00 Inches
p29
sVModel
p30
V80UR0006US
p31
sVScreen Size
p32
V11.60 in
p33
sVProcessor Type
p34
VIntel N3060
p35
sVCondition
p36
VNew
p37
ssS'title'
p38
VLenovo N23 - 11.6" - Celeron N3060 - 4 GB RAM - 128 GB SSD
p39
sb.