ccopy_reg
_reconstructor
p0
(c__main__
ProductRecord
p1
c__builtin__
object
p2
Ntp3
Rp4
(dp5
S'product_url'
p6
S'http://www.walmart.com/ip/HP-ZBook-17-G3-Mobile-Workstation-17-3-Core-i7-6700HQ-16-GB-RAM-512-GB-SSD/55253099'
p7
sS'price'
p8
S'N/A'
p9
sS'properties'
p10
(dp11
VRAM Memory
p12
V16 GB
p13
sVOperating System
p14
VWindows 10
p15
sVFeatures
p16
VI7-6700HQ 2.6G 16GB 512GB SSD 17.3
p17
sVVideo Game Platform
p18
VPC
p19
sVBrand
p20
VHP
p21
sVProcessor Speed
p22
V2.60 GHz
p23
sVManufacturer Part Number
p24
VX9V50UT#ABA
p25
sVHard Drive Capacity
p26
V512 GB
p27
sVAssembled Product Dimensions (L x W x H)
p28
V18.50 x 13.70 x 5.10 Inches
p29
sVModel
p30
VX9V50UT#ABA
p31
sVScreen Size
p32
V17.3"
p33
sVProcessor Type
p34
VIntel Core i7
p35
sVCondition
p36
VNew
p37
ssS'title'
p38
VHP ZBook 17 G3 Mobile Workstation - 17.3" - Core i7 6700HQ - 16 GB RAM - 512 GB SSD
p39
sb.