ccopy_reg
_reconstructor
p0
(c__main__
ProductRecord
p1
c__builtin__
object
p2
Ntp3
Rp4
(dp5
S'product_url'
p6
S'http://www.walmart.com/ip/Refurbished-Sony-Carbon-Black-Ultrabook-13-3-VAIO-Duo-SVD13213CYB-Laptop-PC-Intel-Core-i5-4200U-Dual-Core-Processor-4GB-Memory-touch-screen-128GB-SSD/43979069'
p7
sS'price'
p8
S'N/A'
p9
sS'properties'
p10
(dp11
VRAM Memory
p12
V4 GB
p13
sVOperating System
p14
VMicrosoft Windows
p15
sVFeatures
p16
VEPEAT
p17
sVVideo Game Platform
p18
VPC
p19
sVBrand
p20
VSony
p21
sVProcessor Speed
p22
V1.60 GHz, with a Max Turbo Speed of 2.60 GHz
p23
sVHard Drive Capacity
p24
V128 GB
p25
sVBattery Life
p26
V10 hours
p27
sVAssembled Product Dimensions (L x W x H)
p28
V13.00 x 0.77 x 8.27 Inches
p29
sVModel
p30
VRBSVD13213CYB
p31
sVScreen Size
p32
V13.3 in
p33
sVProcessor Type
p34
VIntel Core i5
p35
sVCondition
p36
VRefurbished
p37
sVmanufacturer_part_number
p38
VSVD13213CYB
p39
ssS'title'
p40
VRefurbished Sony Carbon Black Ultrabook 13.3" VAIO Duo SVD13213CYB Laptop PC with Intel Core i5-4200U Dual-Core Processor, 4GB Memory, touch screen, 128GB SSD and Windows 8
p41
sb.