ccopy_reg
_reconstructor
p0
(c__main__
ProductRecord
p1
c__builtin__
object
p2
Ntp3
Rp4
(dp5
S'product_url'
p6
S'http://www.walmart.com/ip/Microsoft-Surface-Pro-12-3-Core-i7-7660U-16-GB-RAM-1-TB-SSD/824427284'
p7
sS'price'
p8
S'N/A'
p9
sS'properties'
p10
(dp11
VRAM Memory
p12
V16 GB
p13
sVOperating System
p14
VWindows 10
p15
sVFeatures
p16
VFKL-00001, SPRO I7 16GB 1TB COMM M1796 SC EN CAN FR
p17
sVBrand
p18
VMicrosoft
p19
sVManufacturer Part Number
p20
VFKL-00001
p21
sVHard Drive Capacity
p22
V1000
p23
sVAssembled Product Dimensions (L x W x H)
p24
V13.58 x 7.87 x 2.05 Inches
p25
sVModel
p26
VPro
p27
sVScreen Size
p28
V12.3 Inches
p29
sVProcessor Type
p30
VIntel Core i7
p31
sVCondition
p32
VNew
p33
ssS'title'
p34
VMicrosoft Surface Pro - 12.3" - Core i7 7660U - 16 GB RAM - 1 TB SSD
p35
sb.