ccopy_reg
_reconstructor
p0
(c__main__
ProductRecord
p1
c__builtin__
object
p2
Ntp3
Rp4
(dp5
S'product_url'
p6
S'http://www.walmart.com/ip/Lenovo-Miix-320-10ICR-10-1-Atom-x5-Z8350-2-GB-RAM-64-GB-SSD/443696148'
p7
sS'price'
p8
S'N/A'
p9
sS'properties'
p10
(dp11
VRAM Memory
p12
V2 Gigabytes
p13
sVOperating System
p14
VWindows 10 Pro (English)
p15
sVFeatures
p16
VZ8350 2G 64 10P
p17
sVBrand
p18
VLenovo
p19
sVProcessor Speed
p20
V1.44 Gigahertz
p21
sVManufacturer Part Number
p22
V80XF0025US
p23
sVHard Drive Capacity
p24
V64 Gigabytes
p25
sVBattery Life
p26
V0 h
p27
sVModel
p28
V80XF0025US
p29
sVScreen Size
p30
V10.10 Inches
p31
sVProcessor Type
p32
VIntel x5-Z8350
p33
sVCondition
p34
VNew
p35
ssS'title'
p36
VLenovo Miix 320-10ICR - 10.1" - Atom x5 Z8350 - 2 GB RAM - 64 GB SSD
p37
sb.