ccopy_reg
_reconstructor
p0
(c__main__
ProductRecord
p1
c__builtin__
object
p2
Ntp3
Rp4
(dp5
S'product_url'
p6
S'http://www.walmart.com/ip/Newest-HP-Envy-17t-17-3-Full-HD-High-Performance-Touchscreen-Laptop-PC-6th-Gen-i7-6700HQ-Quad-Core-Processor-16GB-RAM-240GB-SSD-DVD-Burner-Backlit-Ke/150495179'
p7
sS'price'
p8
S'N/A'
p9
sS'properties'
p10
(dp11
VRAM Memory
p12
V16 GB
p13
sVOperating System
p14
VMicrosoft Windows
p15
sVColor Category
p16
VBlack
p17
sVLaptop Computer Type
p18
VTouchscreen
p19
sVBrand
p20
VHP
p21
sVScreen Size
p22
V17.3
p23
sVManufacturer
p24
VHP
p25
ssS'title'
p26
VNewest HP Envy 17t 17.3" Full HD High Performance Touchscreen Laptop PC (6th Gen i7-6700HQ Quad-Core Processor, 16GB RAM, 240GB SSD,DVD Burner, Backlit Keyboard, Windows 10)
p27
sb.