ccopy_reg
_reconstructor
p0
(c__main__
ProductRecord
p1
c__builtin__
object
p2
Ntp3
Rp4
(dp5
S'product_url'
p6
S'http://www.walmart.com/ip/Refurbished-Dell-XPS-15-9560-i7-7700HQ-16GB-512GB-PCIe-SSD-UHD-4K-Touch-GTX-1050-FingerPrint/136130825'
p7
sS'price'
p8
S'N/A'
p9
sS'properties'
p10
(dp11
VRAM Memory
p12
V16.00 GB
p13
sVOperating System
p14
VWindows 10 professional
p15
sVBrand
p16
VDell
p17
sVHard Drive Capacity
p18
V512.00 GB
p19
sVModel
p20
VXPS 15 9560
p21
sVScreen Size
p22
V15.6 in
p23
sVProcessor Type
p24
VIntel Core i7
p25
ssS'title'
p26
VRefurbished Dell XPS 15 9560 i7-7700HQ 16GB 512GB PCIe SSD UHD 4K Touch GTX 1050 FingerPrint
p27
sb.