ccopy_reg
_reconstructor
p0
(c__main__
ProductRecord
p1
c__builtin__
object
p2
Ntp3
Rp4
(dp5
S'product_url'
p6
S'http://www.walmart.com/ip/Dell-XPS-15-15-6-Notebook-w-Intel-i7-6700HQ-32GB-RAM-1TB-SSD/111781007'
p7
sS'price'
p8
S'N/A'
p9
sS'properties'
p10
(dp11
VRAM Memory
p12
V0 Gigabytes
p13
sVOperating System
p14
VWindows 10
p15
sVColor Category
p16
VSilver
p17
sVVideo Game Platform
p18
VPC
p19
sVBrand
p20
VDell
p21
sVManufacturer Part Number
p22
VXPS9550-13333SLV
p23
sVHard Drive Capacity
p24
V1 Terabytes
p25
sVLaptop Computer Type
p26
VPC Laptops
p27
sVProcessor Core Type
p28
VQuad-core (4 Core)
p29
sVProcessor Type
p30
VIntel i7-6700HQ
p31
sVScreen Size
p32
V15.60 Inches
p33
sVModel
p34
VXPS9550-13333SLV
p35
sVCondition
p36
VNew
p37
sVManufacturer
p38
VDell
p39
ssS'title'
p40
VDell XPS 15 15.6" Notebook w/ Intel i7-6700HQ, 32GB RAM & 1TB SSD
p41
sb.