ccopy_reg
_reconstructor
p0
(c__main__
ProductRecord
p1
c__builtin__
object
p2
Ntp3
Rp4
(dp5
S'product_url'
p6
S'http://www.walmart.com/ip/2016-Newest-HP-Pavilion-15t-Gaming-Laptop-15-6-FHD-Touchscreen-Intel-i5-8GB-RAM-512GB-SSD-15-6-Inch-FHD-1920-x-1080-Touchscreen-Windows-10/136419838'
p7
sS'price'
p8
S'N/A'
p9
sS'properties'
p10
(dp11
VRAM Memory
p12
V8 GB
p13
sVOperating System
p14
VMicrosoft Windows
p15
sVColor Category
p16
VBlack
p17
sVLaptop Computer Type
p18
VTouchscreen
p19
sVBrand
p20
VHP
p21
sVManufacturer Part Number
p22
VHP Pavilion 15t
p23
sVHard Drive Capacity
p24
V512
p25
sVScreen Size
p26
V15.6
p27
sVManufacturer
p28
VHP
p29
ssS'title'
p30
V2016 Newest HP Pavilion 15t Gaming Laptop with 15.6' FHD Touchscreen ( Intel i5, 8GB RAM, 512GB SSD, 15.6 Inch FHD (1920 x 1080) Touchscreen, Windows 10)
p31
sb.