ccopy_reg
_reconstructor
p0
(c__main__
ProductRecord
p1
c__builtin__
object
p2
Ntp3
Rp4
(dp5
S'product_url'
p6
S'http://www.walmart.com/ip/Lenovo-Flex-5-2-in-1-Laptop-Core-i7-8550U-256GB-SSD-1TB-HDD-4K-Touch-Display-16GB-RAM/660361330'
p7
sS'price'
p8
S'N/A'
p9
sS'properties'
p10
(dp11
VRAM Memory
p12
V16 GB
p13
sVOperating System
p14
VWindows 10
p15
sVBrand
p16
VLenovo
p17
sVProcessor Speed
p18
V1800 Hz
p19
sVManufacturer Part Number
p20
V81CA000BUS
p21
sVHard Drive Capacity
p22
V1256 GB
p23
sVModel
p24
VFlex 5 15
p25
sVScreen Size
p26
V15.6 in
p27
sVProcessor Type
p28
VIntel Core i7
p29
ssS'title'
p30
VLenovo Flex 5 2-in-1 Laptop: Core i7-8550U, 256GB SSD + 1TB HDD, 4K Touch Display, 16GB RAM
p31
sb.