ccopy_reg
_reconstructor
p0
(c__main__
ProductRecord
p1
c__builtin__
object
p2
Ntp3
Rp4
(dp5
S'product_url'
p6
S'http://www.walmart.com/ip/Acer-Aspire-R7-372T-Notebook-with-Intel-i5-6200U-8GB-256GB-SSD/149026371'
p7
sS'price'
p8
S'N/A'
p9
sS'properties'
p10
(dp11
VRAM Memory
p12
V8 Gigabytes
p13
sVOperating System
p14
VWindows 10
p15
sVVideo Game Platform
p16
VPC
p17
sVBrand
p18
VAcer
p19
sVProcessor Speed
p20
V2.3 Gigahertz
p21
sVManufacturer Part Number
p22
VNX.G8SAA.009
p23
sVHard Drive Capacity
p24
V256 Gigabytes
p25
sVBattery Life
p26
V0 h
p27
sVAssembled Product Dimensions (L x W x H)
p28
V5.00 x 5.00 x 5.00 Inches
p29
sVModel
p30
VNX.G8SAA.009
p31
sVScreen Size
p32
V13.30 in
p33
sVProcessor Type
p34
VIntel i5-6200U
p35
sVCondition
p36
VNew
p37
ssS'title'
p38
VAcer Aspire R7-372T Notebook with Intel i5-6200U, 8GB 256GB SSD
p39
sb.