ccopy_reg
_reconstructor
p0
(c__main__
ProductRecord
p1
c__builtin__
object
p2
Ntp3
Rp4
(dp5
S'product_url'
p6
S'http://www.walmart.com/ip/Lenovo-Graphite-Black-11-6-Thinkpad-Yoga-11e-touch-screen-2-in-1-Convertible-Laptop-PC-Intel-Core-M-5Y10c-Dual-Core-Processor-4GB-Memory-500GB-Hard-D/47524922'
p7
sS'price'
p8
S'N/A'
p9
sS'properties'
p10
(dp11
VRAM Memory
p12
V4 GB
p13
sVOperating System
p14
VWindows 10
p15
sVFeatures
p16
VEPEAT, ROHS Compliant
p17
sVVideo Game Platform
p18
VPC
p19
sVBrand
p20
VLenovo
p21
sVProcessor Speed
p22
V800 MHz
p23
sVManufacturer Part Number
p24
V20E50014US
p25
sVMaximum RAM Supported
p26
V4 GB
p27
sVHard Drive Capacity
p28
V500 GB
p29
sVAssembled Product Dimensions (L x W x H)
p30
V12.90 x 10.10 x 4.50 Inches
p31
sVModel
p32
V20E50014US
p33
sVScreen Size
p34
V11.6"
p35
sVProcessor Type
p36
VIntel Core M 5Y10c Dual-Core Processor
p37
sVCondition
p38
VNew
p39
ssS'title'
p40
VLenovo Graphite Black 11.6" Thinkpad Yoga 11e touch screen 2-in-1 Convertible Laptop PC with Intel Core M 5Y10c Dual-Core Processor, 4GB Memory, 500GB Hard Drive and Windows 10 Pro
p41
sb.