ccopy_reg
_reconstructor
p0
(c__main__
ProductRecord
p1
c__builtin__
object
p2
Ntp3
Rp4
(dp5
S'product_url'
p6
S'http://www.walmart.com/ip/Dell-Latitude-2-in-1-13-3-Touch-Screen-Laptop-Intel-Core-i5-8GB-Memory-256GB-Solid-State-Drive-Black/621771922'
p7
sS'price'
p8
S'N/A'
p9
sS'properties'
p10
(dp11
VRAM Memory
p12
V8.00 GB
p13
sVOperating System
p14
VWindows 10
p15
sVBrand
p16
VDell
p17
sVProcessor Speed
p18
V2.60 GHz
p19
sVManufacturer Part Number
p20
VLATI7389628GV
p21
sVMaximum RAM Supported
p22
V16 GB
p23
sVHard Drive Capacity
p24
V256.00 GB
p25
sVBattery Life
p26
V17.00 h
p27
sVAssembled Product Dimensions (L x W x H)
p28
V11.10 x 3.00 x 16.90 Inches
p29
sVModel
p30
V628GV
p31
sVScreen Size
p32
V13.30 in
p33
sVProcessor Type
p34
VIntel Core i5
p35
sVCondition
p36
VNew
p37
ssS'title'
p38
VDell Latitude 2-in-1 13.3" Touch-Screen Laptop - Intel Core i5 - 8GB Memory - 256GB Solid State Drive - Black
p39
sb.