ccopy_reg
_reconstructor
p0
(c__main__
ProductRecord
p1
c__builtin__
object
p2
Ntp3
Rp4
(dp5
S'product_url'
p6
S'http://www.walmart.com/ip/Asus-R518UA-Multi-Touch-2-in-1-Notebook-with-Intel-i7-7500-4-GB-1-TB-HDD/363788391'
p7
sS'price'
p8
S'N/A'
p9
sS'properties'
p10
(dp11
VRAM Memory
p12
V4 GB
p13
sVOperating System
p14
VWindows 10
p15
sVVideo Game Platform
p16
VPC
p17
sVBrand
p18
VASUS
p19
sVProcessor Speed
p20
V2.7 GHz
p21
sVManufacturer Part Number
p22
V90NB0AI1-M02440
p23
sVHard Drive Capacity
p24
V1 TB
p25
sVBattery Life
p26
V0 h
p27
sVAssembled Product Dimensions (L x W x H)
p28
V14.80 x 0.90 x 10.00 Inches
p29
sVModel
p30
V90NB0AI1M02440
p31
sVScreen Size
p32
V15.60 in
p33
sVProcessor Type
p34
VIntel Core i7
p35
sVCondition
p36
VNew
p37
ssS'title'
p38
VAsus R518UA Multi-Touch 2-in-1 Notebook with Intel i7-7500, 4 GB 1 TB HDD
p39
sb.