ccopy_reg
_reconstructor
p0
(c__main__
ProductRecord
p1
c__builtin__
object
p2
Ntp3
Rp4
(dp5
S'product_url'
p6
S'http://www.walmart.com/ip/Dell-Chromebook-11-3189/998738377'
p7
sS'price'
p8
S'N/A'
p9
sS'properties'
p10
(dp11
VRAM Memory
p12
V4.00 GB
p13
sVOperating System
p14
VChrome
p15
sVFeatures
p16
V1.6G 4GB 32GB 11.6IN TOUCH 1YR MI
p17
sVBrand
p18
VDell
p19
sVProcessor Speed
p20
V1.60 GHz
p21
sVManufacturer Part Number
p22
VDP1T3
p23
sVHard Drive Capacity
p24
V32.00 GB
p25
sVBattery Life
p26
V10 Hours
p27
sVAssembled Product Dimensions (L x W x H)
p28
V17.00 x 3.00 x 11.20 Inches
p29
sVModel
p30
VDP1T3
p31
sVScreen Size
p32
V11.60 in
p33
sVProcessor Type
p34
VIntel Celeron
p35
sVCondition
p36
VNew
p37
ssS'title'
p38
VDell Chromebook 11 3189
p39
sb.