ccopy_reg
_reconstructor
p0
(c__main__
ProductRecord
p1
c__builtin__
object
p2
Ntp3
Rp4
(dp5
S'product_url'
p6
S'http://www.walmart.com/ip/Microsoft-Surface-Book-2-13-5-Intel-Core-i7-8th-Gen-8GB-RAM-256GB-SSD-dGPU-GTX-1050-w-2GB-GDDR5/107422496'
p7
sS'price'
p8
S'N/A'
p9
sS'properties'
p10
(dp11
VOperating System
p12
VWindows 10 Pro Creators Update
p13
sVAccessories Included
p14
V Surface Book 2 2 in 1 Notebook Power Supply Quick Start Guide Safety and Warranty Documents Keyboard 
p15
sVColor
p16
VSilver
p17
sVBrand
p18
VMicrosoft
p19
sVManufacturer Part Number
p20
VHN4-00001
p21
sVBattery Life
p22
V17 Hour
p23
sVAssembled Product Dimensions (L x W x H)
p24
V18.00 x 11.00 x 3.00 Inches
p25
sVModel
p26
VHN4-00001
p27
sVScreen Size
p28
V13.50 Inches
p29
sVCondition
p30
VNew
p31
sVAssembled Product Weight
p32
V3.620 Pounds
p33
ssS'title'
p34
VMicrosoft Surface Book 2 - 13.5"- Intel Core i7 8th Gen - 8GB RAM - 256GB SSD dGPU - GTX 1050 w/2GB GDDR5
p35
sb.