ccopy_reg
_reconstructor
p0
(c__main__
ProductRecord
p1
c__builtin__
object
p2
Ntp3
Rp4
(dp5
S'product_url'
p6
S'http://www.walmart.com/ip/Lenovo-Ideapad-310-15-6-HD-Display-Laptop-with-3x-Faster-WiFi-Intel-Core-i5-8-GB-RAM-1TB-HDD-Windows-10/131023973'
p7
sS'price'
p8
S'N/A'
p9
sS'properties'
p10
(dp11
VRAM Memory
p12
V8.00 GB
p13
sVOperating System
p14
VWindows 10
p15
sVVideo Game Platform
p16
VPC
p17
sVBrand
p18
VLenovo
p19
sVProcessor Speed
p20
V2.30 GHz
p21
sVManufacturer Part Number
p22
V80SN0004US
p23
sVHard Drive Capacity
p24
V1.00 TB
p25
sVBattery Life
p26
V4.00 h
p27
sVAssembled Product Dimensions (L x W x H)
p28
V5.00 x 5.00 x 5.00 Inches
p29
sVModel
p30
V80SN0004US
p31
sVScreen Size
p32
V15.60 in
p33
sVProcessor Type
p34
VIntel Core i5
p35
sVCondition
p36
VNew
p37
ssS'title'
p38
VLenovo Ideapad 310 - 15.6" HD Display Laptop with 3x Faster WiFi Intel Core i5, 8 GB RAM, 1TB HDD, Windows 10
p39
sb.