ccopy_reg
_reconstructor
p0
(c__main__
ProductRecord
p1
c__builtin__
object
p2
Ntp3
Rp4
(dp5
S'product_url'
p6
S'http://www.walmart.com/ip/Refurbished-Microsoft-Surface-Book-Surface-Book/652414187'
p7
sS'price'
p8
S'N/A'
p9
sS'properties'
p10
(dp11
VRAM Memory
p12
V8 Gigabytes
p13
sVOperating System
p14
VWindows 10
p15
sVFeatures
p16
V802.11AACBG and Bluetooth 4.0 + HS, Energy Star Compliant, Built-in speakers, Front camera, Rear camera, Touch screen, Accelerometer, Ambient Light Sensor, Gyroscope, Lithium-Polymer Battery; 12HRS Battery Life, 8GB Memory, Intel HD Graphics 520, Intel Core i5-6300U Processor (Dual-Core, 2.4GHz), This Certified Refurbished product is tested and certified to look and work like new. The refurbishing process includes functionality testing, basic cleaning, inspection, and repackaging. The product ships with all relevant accessories, a minimum 90-day warranty, and may arrive in a generic box., 0.9" x 12.3" x 9.14" (HxWxD);3.3lbs, 13.5-inch3000x2000IPS Display, Windows 10 Pro Operating System, 128GB (0GB Capacity) Storage
p17
sVBrand
p18
VMicrosoft
p19
sVProcessor Speed
p20
V2.4 Gigahertz
p21
sVManufacturer Part Number
p22
VFGH-00001-RFB
p23
sVHard Drive Capacity
p24
V128 Gigabytes
p25
sVBattery Life
p26
V12 Hours
p27
sVModel
p28
VBook
p29
sVScreen Size
p30
V13.5 Inches
p31
sVProcessor Type
p32
VIntel Core i5
p33
ssS'title'
p34
VRefurbished "Microsoft Surface Book Surface Book"
p35
sb.