ccopy_reg
_reconstructor
p0
(c__main__
ProductRecord
p1
c__builtin__
object
p2
Ntp3
Rp4
(dp5
S'product_url'
p6
S'http://www.walmart.com/ip/Lenovo-110-80V70001US-Touch-Notebook-110-80V70001US-Touch-Notebook/304631742'
p7
sS'price'
p8
S'N/A'
p9
sS'properties'
p10
(dp11
VRAM Memory
p12
V8 Gigabytes
p13
sVOperating System
p14
VWindows 10
p15
sVColor Category
p16
VBlack
p17
sVVideo Game Platform
p18
VPC
p19
sVBrand
p20
VLenovo
p21
sVManufacturer Part Number
p22
V80V70001US
p23
sVHard Drive Capacity
p24
V1 Terabytes
p25
sVLaptop Computer Type
p26
VTouchscreen
p27
sVProcessor Type
p28
VAMD A-Series
p29
sVScreen Size
p30
V15.6 Inches
p31
sVModel
p32
V80V70001US
p33
sVCondition
p34
VNew
p35
sVManufacturer
p36
VLENOVO
p37
ssS'title'
p38
VLenovo 110 80V70001US Touch Notebook 110 80V70001US Touch Notebook
p39
sb.