ccopy_reg
_reconstructor
p0
(c__main__
ProductRecord
p1
c__builtin__
object
p2
Ntp3
Rp4
(dp5
S'product_url'
p6
S'http://www.walmart.com/ip/Refurbished-Acer-E1-510P-4828-Touchscreen-Laptop-Intel-Pentium-N3520-2-17Ghz-4GB-500GB-15-6in-W8-1/711220172'
p7
sS'price'
p8
S'N/A'
p9
sS'properties'
p10
(dp11
VBrand
p12
VAcer
p13
sVProcessor Speed
p14
V2
p15
sVHard Drive Capacity
p16
V500
p17
ssS'title'
p18
VRefurbished Acer E1-510P-4828 Touchscreen Laptop Intel Pentium N3520 2.17Ghz 4GB 500GB 15.6in W8.1
p19
sb.