ccopy_reg
_reconstructor
p0
(c__main__
ProductRecord
p1
c__builtin__
object
p2
Ntp3
Rp4
(dp5
S'product_url'
p6
S'http://www.walmart.com/ip/Dell-Inspiron-15-6-i7-7500U-16GB-RAM-1TB-HDD-Touch-Laptop-i5567-7291GRY-Elite-Suite-17-Standard-Software-Bundle-Corel-WordPerfect-PC-Mover-PDF-Fusion/513202557'
p7
sS'price'
p8
S'N/A'
p9
sS'properties'
p10
(dp11
VRAM Memory
p12
V16.00 GB
p13
sVOperating System
p14
VWindows 10
p15
sVFeatures
p16
VBuilt-in Stereo Speakers; Front Camera/Webcam
p17
sVBrand
p18
VDell
p19
sVProcessor Speed
p20
V2.70 GHz
p21
sVManufacturer Part Number
p22
Vi5567-7291GRY
p23
sVHard Drive Capacity
p24
V1.00 TB
p25
sVModel
p26
Vi5567-7291GRY
p27
sVScreen Size
p28
V15.60 in
p29
sVProcessor Type
p30
VIntel Core i7-7500U
p31
sVCondition
p32
VNew
p33
ssS'title'
p34
VDell Inspiron 15.6" i7-7500U 16GB RAM 1TB HDD Touch Laptop - i5567-7291GRY + Elite Suite 17 Standard Software Bundle (Corel WordPerfect, PC Mover,PDF Fusion,X9) + 1 Year Extended Warranty
p35
sb.