ccopy_reg
_reconstructor
p0
(c__main__
ProductRecord
p1
c__builtin__
object
p2
Ntp3
Rp4
(dp5
S'product_url'
p6
S'http://www.walmart.com/ip/HP-Spectre-x360-15t-Premium-Convertible-2-in-1-Laptop-Dark-Ash-Silver-Intel-8th-Gen-i7-Quad-Core-16GB-RAM-512GB-SSD-Nvidia-Geforce-MX150-15-6-4K-UHD-/886364233'
p7
sS'price'
p8
S'N/A'
p9
sS'properties'
p10
(dp11
VRAM Memory
p12
V16 GB
p13
sVOperating System
p14
VMicrosoft Windows
p15
sVBrand
p16
VMichaelElectronics2
p17
sVManufacturer Part Number
p18
VHP-15-02370-UHD-ME3
p19
sVHard Drive Capacity
p20
V512 GB
p21
sVProcessor Type
p22
V8th Generation Intel Core i7-8550U
p23
sVScreen Size
p24
V15.6 in
p25
sVProcessor Speed
p26
V1.80 GHz
p27
ssS'title'
p28
VHP Spectre x360 15t Premium Convertible 2-in-1 Laptop in Dark Ash Silver (Intel 8th Gen i7 Quad Core, 16GB RAM, 512GB SSD, Nvidia Geforce MX150, 15.6" 4K UHD 3840x2160 Touch, Stylus Pen, Win 10 Home)
p29
sb.