ccopy_reg
_reconstructor
p0
(c__main__
ProductRecord
p1
c__builtin__
object
p2
Ntp3
Rp4
(dp5
S'product_url'
p6
S'http://www.walmart.com/ip/Asus-T102HA-C4-GR-10-1-Touch-Laptop-Intel-X5-Z8350-1-44GHz-4GB-64GB-w-pen-W10-Refurbished/314039161'
p7
sS'price'
p8
S'N/A'
p9
sS'properties'
p10
(dp11
VRAM Memory
p12
V64 GB
p13
sVOperating System
p14
VWindows 10
p15
sVColor Category
p16
VSilver
p17
sVLaptop Computer Type
p18
VTouchscreen
p19
sVBrand
p20
VASUS
p21
sVManufacturer Part Number
p22
VT102HA-C4-GR
p23
sVHard Drive Capacity
p24
V4 GB
p25
sVProcessor Type
p26
VIntel Atom
p27
sVScreen Size
p28
V10.1 in
p29
sVModel
p30
VT102HA-C4-GR
p31
sVCondition
p32
VNew
p33
sVManufacturer
p34
VAsus
p35
ssS'title'
p36
VAsus T102HA-C4-GR 10.1" Touch Laptop Intel X5-Z8350 1.44GHz 4GB 64GB w/ pen W10 Refurbished
p37
sb.