ccopy_reg
_reconstructor
p0
(c__main__
ProductRecord
p1
c__builtin__
object
p2
Ntp3
Rp4
(dp5
S'product_url'
p6
S'http://www.walmart.com/ip/premium-lenovo-2-in-1-14-touchscreen-laptop-intel-pentium-dual-core-processor-4gb-ddr4-ram-500gb-hdd-8-5-hour-battery-life-wifi-webcam-hdmi-bluetooth/490264536'
p7
sS'price'
p8
S'N/A'
p9
sS'properties'
p10
(dp11
VBrand
p12
VLenovo
p13
sVRAM Memory
p14
V4 GB
p15
sVOperating System
p16
VMicrosoft Windows
p17
sVHard Drive Capacity
p18
V500 GB
p19
sVCondition
p20
VNew
p21
ssS'title'
p22
Vpremium lenovo 2-in-1 14 touchscreen laptop, intel pentium dual-core processor, 4gb ddr4 ram, 500gb hdd, 8.5-hour battery life, wifi, webcam, hdmi, bluetooth, widnows 10, black
p23
sb.