ccopy_reg
_reconstructor
p0
(c__main__
ProductRecord
p1
c__builtin__
object
p2
Ntp3
Rp4
(dp5
S'product_url'
p6
S'http://www.walmart.com/ip/Refurbished-Toshiba-Ice-Silver-15-6-Satellite-S55t-A5360-Laptop-PC-with-Intel-Core-i7-3630QM-Processor-8GB-Memory-Touchscreen-1TB-Hard-Dr/569419421'
p7
sS'price'
p8
S'N/A'
p9
sS'properties'
p10
(dp11
VBrand
p12
VToshiba
p13
sVRAM Memory
p14
V8 GB
p15
sVOperating System
p16
VMicrosoft Windows
p17
sVHard Drive Capacity
p18
V1000 GB
p19
ssS'title'
p20
VRefurbished Toshiba Ice Silver 15.6 Satellite S55t-A5360 Laptop PC with Intel Core i7-3630QM Processor, 8GB Memory, Touchscreen, 1TB Hard Dr
p21
sb.