ccopy_reg
_reconstructor
p0
(c__main__
ProductRecord
p1
c__builtin__
object
p2
Ntp3
Rp4
(dp5
S'product_url'
p6
S'http://www.walmart.com/ip/Acer-11-6-Intel-Celeron-1-60-GHz-4-GB-Ram-16-GB-Flash-Chrome-OS-C738T-C8Q2/135187612'
p7
sS'price'
p8
S'N/A'
p9
sS'properties'
p10
(dp11
VRAM Memory
p12
V4 GB
p13
sVOperating System
p14
VChrome OS
p15
sVColor Category
p16
VBlack
p17
sVLaptop Computer Type
p18
VTouchscreen
p19
sVBrand
p20
VAcer
p21
sVManufacturer Part Number
p22
VNX.G55AA.011
p23
sVWireless Technology
p24
VIEEE 802.11a/b/g/n/ac
p25
sVHard Drive Capacity
p26
V16 GB
p27
sVProcessor Type
p28
VIntel Celeron
p29
sVScreen Size
p30
V11.6 in
p31
sVModel
p32
VC738T-C8Q2
p33
sVCondition
p34
VNew
p35
sVManufacturer
p36
VAcer
p37
ssS'title'
p38
VAcer 11.6" Intel Celeron 1.60 GHz 4 GB Ram 16 GB Flash Chrome OS|C738T-C8Q2
p39
sb.