ccopy_reg
_reconstructor
p0
(c__main__
ProductRecord
p1
c__builtin__
object
p2
Ntp3
Rp4
(dp5
S'product_url'
p6
S'http://www.walmart.com/ip/Refurbished-Dell-XPS-15-UHD-15-6-Inch-Touchscreen-Laptop-Intel-Core-i7-4712HQ-2-3-GHz-Pr/411161244'
p7
sS'price'
p8
S'N/A'
p9
sS'properties'
p10
(dp11
VBrand
p12
VDell
p13
sVScreen Size
p14
V15.6
p15
ssS'title'
p16
VRefurbished Dell XPS 15 UHD 15.6-Inch Touchscreen Laptop (Intel Core i7 4712HQ 2.3 GHz Pr...
p17
sb.