ccopy_reg
_reconstructor
p0
(c__main__
ProductRecord
p1
c__builtin__
object
p2
Ntp3
Rp4
(dp5
S'product_url'
p6
S'http://www.walmart.com/ip/HP-Pro-X2-612-12-5-Tablet-Core-i5-8GB-256GB-SSD-J8V93UT-Refurbished/109581912'
p7
sS'price'
p8
S'N/A'
p9
sS'properties'
p10
(dp11
VRAM Memory
p12
V8 GB
p13
sVOperating System
p14
VMicrosoft Windows
p15
sVBrand
p16
VHP
p17
sVProcessor Speed
p18
V1.60 GHz
p19
sVManufacturer Part Number
p20
VJ8V93UT
p21
sVHard Drive Capacity
p22
V256
p23
sVModel
p24
VHD Graphics 4200, 612 G1
p25
sVScreen Size
p26
V12.5"
p27
sVProcessor Type
p28
VIntel Core i5
p29
sVCondition
p30
VRefurbished
p31
ssS'title'
p32
VHP Pro X2 612 12.5" Tablet, Core i5, 8GB, 256GB SSD, J8V93UT, Refurbished
p33
sb.