ccopy_reg
_reconstructor
p0
(c__main__
ProductRecord
p1
c__builtin__
object
p2
Ntp3
Rp4
(dp5
S'product_url'
p6
S'http://www.walmart.com/ip/Refurbished-Dell-Latitude-E7440-14-FHD-Touch-Ultrabook-Intel-i7-4600U-2-1GHz-8GB-256GB-SSD/675969993'
p7
sS'price'
p8
S'N/A'
p9
sS'properties'
p10
(dp11
VHard Drive Capacity
p12
V256 KB
p13
sVBrand
p14
VDell
p15
sVRAM Memory
p16
V8 GB
p17
sVModel
p18
VLatitude E7440
p19
sVManufacturer Part Number
p20
VE7440-I721-PB-14R
p21
ssS'title'
p22
VRefurbished Dell Latitude E7440 14" FHD Touch Ultrabook Intel i7-4600U 2.1GHz 8GB 256GB SSD
p23
sb.