ccopy_reg
_reconstructor
p0
(c__main__
ProductRecord
p1
c__builtin__
object
p2
Ntp3
Rp4
(dp5
S'product_url'
p6
S'http://www.walmart.com/ip/Recertified-Acer-CB5-312T-K5X4-13-3-Touchscreen-Chromebook-MTK-M8173C-2-10-GHz-4GB-LPDDR3-Memory-32GB-Flash-Chrome-OS/502077410'
p7
sS'price'
p8
S'N/A'
p9
sS'properties'
p10
(dp11
VRAM Memory
p12
V4 GB
p13
sVOperating System
p14
VChrome OS
p15
sVBrand
p16
VAcer
p17
sVManufacturer Part Number
p18
V124609
p19
sVHard Drive Capacity
p20
V32
p21
sVModel
p22
V124609
p23
sVScreen Size
p24
V13.3
p25
ssS'title'
p26
V(Recertified) Acer CB5-312T-K5X4 13.3" Touchscreen Chromebook MTK M8173C (2.10 GHz) 4GB LPDDR3 Memory 32GB Flash Chrome OS
p27
sb.