ccopy_reg
_reconstructor
p0
(c__main__
ProductRecord
p1
c__builtin__
object
p2
Ntp3
Rp4
(dp5
S'product_url'
p6
S'http://www.walmart.com/ip/Lenovo-310-15IKB-15-6-Core-i7-7500U-12-GB-RAM-1-TB-HDD/172199151'
p7
sS'price'
p8
S'N/A'
p9
sS'properties'
p10
(dp11
VRAM Memory
p12
V12 GB
p13
sVOperating System
p14
VMicrosoft Windows, Windows 10
p15
sVVideo Game Platform
p16
VPC
p17
sVBrand
p18
VLenovo
p19
sVProcessor Speed
p20
V2.70 GHz
p21
sVManufacturer Part Number
p22
V80TV00W1US
p23
sVHard Drive Capacity
p24
V1 TB
p25
sVAssembled Product Dimensions (L x W x H)
p26
V5.00 x 5.00 x 5.00 Inches
p27
sVModel
p28
V80TV00W1US
p29
sVScreen Size
p30
V15.6"
p31
sVProcessor Type
p32
VIntel Core i7
p33
sVCondition
p34
VNew
p35
ssS'title'
p36
VLenovo 310-15IKB - 15.6" - Core i7 7500U - 12 GB RAM - 1 TB HDD
p37
sb.