ccopy_reg
_reconstructor
p0
(c__main__
ProductRecord
p1
c__builtin__
object
p2
Ntp3
Rp4
(dp5
S'product_url'
p6
S'http://www.walmart.com/ip/Hewlett-Packard-15-bl018ca-Spectre-x360-15-6-Intel-i7-7500U-Laptop-Computer-Certified-Refurbished/608751865'
p7
sS'price'
p8
S'N/A'
p9
sS'properties'
p10
(dp11
VRAM Memory
p12
V16.00 GB
p13
sVOperating System
p14
VWindows 10
p15
sVBrand
p16
VHP
p17
sVProcessor Speed
p18
V2.70 GHz
p19
sVManufacturer Part Number
p20
V15-bl018ca
p21
sVHard Drive Capacity
p22
V512.00 GB
p23
sVBattery Life
p24
V12.75 h
p25
sVModel
p26
V15-bl018ca
p27
sVScreen Size
p28
V15.60 in
p29
sVProcessor Type
p30
VIntel Core i7-7500U
p31
ssS'title'
p32
VHewlett-Packard 15-bl018ca Spectre x360 15.6" Intel i7-7500U Laptop Computer - (Certified Refurbished)
p33
sb.