ccopy_reg
_reconstructor
p0
(c__main__
ProductRecord
p1
c__builtin__
object
p2
Ntp3
Rp4
(dp5
S'product_url'
p6
S'http://www.walmart.com/ip/HP-17-bs153cl-Touchscreen-Laptop-Intel-core-i5-2GB-AMD-Graphics-Notebook-PC-Computer-17-3-Touch-Screen-12GB-1TB-8th-Gen-i5/488753505'
p7
sS'price'
p8
S'N/A'
p9
sS'properties'
p10
(dp11
VOperating System
p12
VMicrosoft Windows
p13
sVBrand
p14
VHP
p15
sVScreen Size
p16
V17.3\u005c"
p17
sVCondition
p18
VNew
p19
ssS'title'
p20
VHP 17-bs153cl Touchscreen Laptop - Intel core i5 - 2GB AMD Graphics Notebook PC Computer 17.3" Touch Screen 12GB 1TB 8th Gen i5
p21
sb.