ccopy_reg
_reconstructor
p0
(c__main__
ProductRecord
p1
c__builtin__
object
p2
Ntp3
Rp4
(dp5
S'product_url'
p6
S'http://www.walmart.com/ip/HP-15-BR010NR-15-6-FHD-Touchscreen-Laptop-i5-7500u-8GB-1TB-Win10/460375058'
p7
sS'price'
p8
S'N/A'
p9
sS'properties'
p10
(dp11
VRAM Memory
p12
V8 Gigabytes
p13
sVOperating System
p14
VWindows 10
p15
sVBrand
p16
VHP
p17
sVProcessor Speed
p18
V2.5 Gigahertz
p19
sVHard Drive Capacity
p20
V1 Terabytes
p21
sVModel
p22
V1KT62UA#ABA
p23
sVScreen Size
p24
V15.60 Inches
p25
sVProcessor Type
p26
VIntel i5-7200U
p27
sVmanufacturer_part_number
p28
V15-br010nr
p29
ssS'title'
p30
VHP 15-BR010NR 15.6" FHD Touchscreen Laptop - i5-7500u 8GB 1TB Win10
p31
sb.