ccopy_reg
_reconstructor
p0
(c__main__
ProductRecord
p1
c__builtin__
object
p2
Ntp3
Rp4
(dp5
S'product_url'
p6
S'http://www.walmart.com/ip/Refurbished-Acer-Aspire-E5-571P-31LT-15-6-Inch-Touchscreen-Laptop-Midnight-Black/520063040'
p7
sS'price'
p8
S'N/A'
p9
sS'properties'
p10
(dp11
VBrand
p12
VAcer
p13
sVScreen Size
p14
V15.6
p15
ssS'title'
p16
VRefurbished Acer Aspire E5-571P-31LT 15.6-Inch Touchscreen Laptop (Midnight Black)
p17
sb.