ccopy_reg
_reconstructor
p0
(c__main__
ProductRecord
p1
c__builtin__
object
p2
Ntp3
Rp4
(dp5
S'product_url'
p6
S'http://www.walmart.com/ip/REFURBISHED-Sony-VAIO-SVE14A27CXH-14-Inch-Touch-Laptop/836473159'
p7
sS'price'
p8
S'N/A'
p9
sS'properties'
p10
(dp11
VBrand
p12
VToshiba
p13
sVScreen Size
p14
V14
p15
sVCondition
p16
VRefurbished
p17
sVmanufacturer_part_number
p18
Vsve14a27cxh
p19
ssS'title'
p20
VREFURBISHED - Sony VAIO SVE14A27CXH 14-Inch Touch Laptop
p21
sb.