ccopy_reg
_reconstructor
p0
(c__main__
ProductRecord
p1
c__builtin__
object
p2
Ntp3
Rp4
(dp5
S'product_url'
p6
S'http://www.walmart.com/ip/Dell-Inspiron-13-7000-7378-13-3-2-In-1-i7-7500U-to-3-50-GHz-12GB-RAM-512GB-ssd-Backlit-keyboard-Laptop/821460865'
p7
sS'price'
p8
S'N/A'
p9
sS'properties'
p10
(dp11
VRAM Memory
p12
V12 GB
p13
sVOperating System
p14
VMicrosoft Windows
p15
sVFeatures
p16
VBacklit Keybaord
p17
sVBrand
p18
VDell
p19
sVProcessor Speed
p20
V2.7 Hz
p21
sVHard Drive Capacity
p22
V512 GB
p23
sVModel
p24
V7378
p25
sVScreen Size
p26
V13.3 in
p27
sVProcessor Type
p28
Vi7-7500U
p29
sVCondition
p30
VNew
p31
ssS'title'
p32
VDell Inspiron 13 7000 7378 13.3"   2-In-1 i7-7500U to 3.50 GHz, 12GB RAM, 512GB ssd, Backlit keyboard Laptop
p33
sb.