ccopy_reg
_reconstructor
p0
(c__main__
ProductRecord
p1
c__builtin__
object
p2
Ntp3
Rp4
(dp5
S'product_url'
p6
S'http://www.walmart.com/ip/REFURBISHED-Panasonic-Toughbook-CF-31-i5-520M-2-4GHz-Touchscreen-8GB-500GB-Wi/730810141'
p7
sS'price'
p8
S'N/A'
p9
sS'properties'
p10
(dp11
VBrand
p12
VPanasonic
p13
sVHard Drive Capacity
p14
V500
p15
ssS'title'
p16
VREFURBISHED - Panasonic Toughbook CF-31 i5-520M 2.4GHz Touchscreen 8GB 500GB Wi
p17
sb.