ccopy_reg
_reconstructor
p0
(c__main__
ProductRecord
p1
c__builtin__
object
p2
Ntp3
Rp4
(dp5
S'product_url'
p6
S'http://www.walmart.com/ip/Refurbished-Dell-XPS-13-9350-i5-6200U-8GB-128GB-SSD-FHD-1080p-Touch-Screen-INFINITY-Edge-Windows-10-Home-laptop-silver/379678832'
p7
sS'price'
p8
S'N/A'
p9
sS'properties'
p10
(dp11
VBrand
p12
VDell
p13
sVRAM Memory
p14
V8 Gigabytes
p15
sVScreen Size
p16
V13.3 Inches
p17
sVHard Drive Capacity
p18
V128 Gigabytes
p19
sVProcessor Type
p20
VIntel Core i5
p21
ssS'title'
p22
VRefurbished Dell XPS 13 9350 i5-6200U 8GB 128GB SSD FHD 1080p Touch-Screen INFINITY Edge Windows 10 Home laptop silver
p23
sb.