ccopy_reg
_reconstructor
p0
(c__main__
ProductRecord
p1
c__builtin__
object
p2
Ntp3
Rp4
(dp5
S'product_url'
p6
S'http://www.walmart.com/ip/REFURBISHED-Dell-Latitude-12-Rugged-Extreme-7204-XFR-Touchscreen-Webcam-Laptop-I3-4030u-Windows-10-pro-128gb-SSD-8gb/890087833'
p7
sS'price'
p8
S'N/A'
p9
sS'properties'
p10
(dp11
VBrand
p12
VDell
p13
sVOperating System
p14
VMicrosoft Windows
p15
ssS'title'
p16
VREFURBISHED Dell Latitude 12 Rugged Extreme 7204 XFR/ Touchscreen /Webcam Laptop/ I3-4030u /Windows 10 pro /128gb SSD /8gb
p17
sb.