ccopy_reg
_reconstructor
p0
(c__main__
ProductRecord
p1
c__builtin__
object
p2
Ntp3
Rp4
(dp5
S'product_url'
p6
S'http://www.walmart.com/ip/Refurbished-HP-Spectre-x360-13-13-3-1080-TouchScreen-Laptop-Notebook-Tablet-Convertible-Core-i5-7200U-2-5GHz-8GB-Memory-256GB-SSD-WiFi-AC-Bluetooth-B/326312304'
p7
sS'price'
p8
S'N/A'
p9
sS'properties'
p10
(dp11
VRAM Memory
p12
V8.00 GB
p13
sVOperating System
p14
VWindows 10
p15
sVBrand
p16
VHP
p17
sVProcessor Speed
p18
V2.50 GHz
p19
sVManufacturer Part Number
p20
VY5W39AAR - WN2S-S
p21
sVHard Drive Capacity
p22
V256.00 GB
p23
sVModel
p24
VHP Spectre x360 13T-AC00
p25
sVScreen Size
p26
V13.30 in
p27
sVProcessor Type
p28
VIntel Core i5
p29
ssS'title'
p30
VRefurbished HP Spectre x360 13 13.3" 1080 TouchScreen Laptop/Notebook/Tablet Convertible, Core i5-7200U 2.5GHz, 8GB Memory, 256GB SSD, WiFi AC, Bluetooth, Backlit Keyboard, Thunderbolt, W10, Silver
p31
sb.