ccopy_reg
_reconstructor
p0
(c__main__
ProductRecord
p1
c__builtin__
object
p2
Ntp3
Rp4
(dp5
S'product_url'
p6
S'http://www.walmart.com/ip/HP-x2-10-p020nr-10-1-Laptop-Touchscreen-2-in-1-Windows-10-Home-Intel-Atom-x5-Z8350-Processor-2GB-RAM-32GB-eMMC-Drive/54903940'
p7
sS'price'
p8
S'N/A'
p9
sS'properties'
p10
(dp11
VRAM Memory
p12
V2 GB
p13
sVOperating System
p14
VWindows 10
p15
sVFeatures
p16
VEPEAT
p17
sVVideo Game Platform
p18
VPC
p19
sVBrand
p20
VHP
p21
sVProcessor Speed
p22
V1.44 GHz, with a Max Turbo Speed of 1.92 GHz
p23
sVManufacturer Part Number
p24
VX7U40UA#ABA
p25
sVHard Drive Capacity
p26
V32 GB
p27
sVBattery Life
p28
V10 hours 30 minutes
p29
sVAssembled Product Dimensions (L x W x H)
p30
V6.81 x 10.43 x 0.64 Inches
p31
sVModel
p32
VHP 10-p020nr
p33
sVScreen Size
p34
V10.1"
p35
sVProcessor Type
p36
VIntel Atom x5-Z8350 Quad-Core Processor
p37
ssS'title'
p38
VHP x2 10-p020nr 10.1" Laptop, Touchscreen, 2-in-1, Windows 10 Home, Intel Atom x5-Z8350 Processor, 2GB RAM, 32GB eMMC Drive
p39
sb.