ccopy_reg
_reconstructor
p0
(c__main__
ProductRecord
p1
c__builtin__
object
p2
Ntp3
Rp4
(dp5
S'product_url'
p6
S'http://www.walmart.com/ip/Acer-TravelMate-B117-M-C578-11-6-Celeron-N3050-2-GB-RAM-32-GB-SSD/51893994'
p7
sS'price'
p8
S'N/A'
p9
sS'properties'
p10
(dp11
VRAM Memory
p12
V2 Gigabytes
p13
sVOperating System
p14
VWindows 10
p15
sVFeatures
p16
VTRAVELMATE B117,TMB117-M-C578-US, BLACK, 11.6IN, 4-CELL LITHIUM-ION, WIND10P(64-
p17
sVVideo Game Platform
p18
VPC
p19
sVBrand
p20
VAcer
p21
sVProcessor Speed
p22
V1.6 Gigahertz
p23
sVManufacturer Part Number
p24
VNX.VCHAA.002
p25
sVHard Drive Capacity
p26
V32 Gigabytes
p27
sVBattery Life
p28
V12 Hours
p29
sVModel
p30
VNX.VCHAA.002
p31
sVScreen Size
p32
V11.60 in
p33
sVProcessor Type
p34
VIntel N3050
p35
sVCondition
p36
VNew
p37
ssS'title'
p38
VAcer TravelMate B117-M-C578 - 11.6" - Celeron N3050 - 2 GB RAM - 32 GB SSD
p39
sb.