ccopy_reg
_reconstructor
p0
(c__main__
ProductRecord
p1
c__builtin__
object
p2
Ntp3
Rp4
(dp5
S'product_url'
p6
S'http://www.walmart.com/ip/Refurbished-Acer-15-6-Intel-Core-i7-2-7-GHz-12-GB-Ram-1TB-HDD-Windows-10-Home-R5-571TG-78G8/773563934'
p7
sS'price'
p8
S'N/A'
p9
sS'properties'
p10
(dp11
VRAM Memory
p12
V12 GB
p13
sVOperating System
p14
VWindows 10
p15
sVBrand
p16
VAcer
p17
sVManufacturer Part Number
p18
VNX.GKHAA.001
p19
sVModel
p20
VR5-571TG-78G8
p21
sVScreen Size
p22
V15.6 in
p23
sVProcessor Speed
p24
V2.70 GHz
p25
ssS'title'
p26
VRefurbished Acer 15.6" Intel Core i7 2.7 GHz 12 GB Ram 1TB HDD Windows 10 Home|R5-571TG-78G8
p27
sb.