ccopy_reg
_reconstructor
p0
(c__main__
ProductRecord
p1
c__builtin__
object
p2
Ntp3
Rp4
(dp5
S'product_url'
p6
S'http://www.walmart.com/ip/Manufacturer-Refurbished-Acer-Ultrabook-Aspire-S7-392-54208G12tws-13-3-Laptop-Touchscreen-Windows-8-Intel-Core-i5-4200U-Processor-8GB-RAM-128GB-Solid/55429985'
p7
sS'price'
p8
S'N/A'
p9
sS'properties'
p10
(dp11
VRAM Memory
p12
V8 GB
p13
sVOperating System
p14
VMicrosoft Windows
p15
sVVideo Game Platform
p16
VPC
p17
sVBrand
p18
VAcer
p19
sVProcessor Speed
p20
V1.6 GHz
p21
sVManufacturer Part Number
p22
VNX.MBKAA.008
p23
sVHard Drive Capacity
p24
V128 GB
p25
sVBattery Life
p26
V8 hours
p27
sVAssembled Product Dimensions (L x W x H)
p28
V19.00 x 14.00 x 3.00 Inches
p29
sVModel
p30
VS7-392-54208G12tws
p31
sVScreen Size
p32
V13.3"
p33
sVProcessor Type
p34
VIntel Core i5
p35
ssS'title'
p36
VManufacturer Refurbished Acer Ultrabook Aspire S7-392-54208G12tws 13.3" Laptop, Touchscreen, Windows 8, Intel Core i5-4200U Processor, 8GB RAM, 128GB Solid State Drive
p37
sb.