ccopy_reg
_reconstructor
p0
(c__main__
ProductRecord
p1
c__builtin__
object
p2
Ntp3
Rp4
(dp5
S'product_url'
p6
S'http://www.walmart.com/ip/L200HA-EDU3-X5-Z8350-1-44G-4GB-64GB-11-6IN-W10-DARK-BLUE/680351343'
p7
sS'price'
p8
S'N/A'
p9
sS'properties'
p10
(dp11
VRAM Memory
p12
V4 Gigabytes
p13
sVOperating System
p14
VWindows 10
p15
sVVideo Game Platform
p16
VPC
p17
sVBrand
p18
VASUS
p19
sVProcessor Speed
p20
V1.44 Gigahertz
p21
sVManufacturer Part Number
p22
VL200HA-EDU3
p23
sVHard Drive Capacity
p24
V64 Gigabytes
p25
sVAssembled Product Dimensions (L x W x H)
p26
V12.00 x 12.00 x 12.00 Inches
p27
sVModel
p28
V90NL0072-M05680
p29
sVScreen Size
p30
V11.60 Inches
p31
sVProcessor Type
p32
VIntel
p33
sVCondition
p34
VNew
p35
ssS'title'
p36
VL200HA-EDU3 X5-Z8350 1.44G 4GB 64GB 11.6IN W10 DARK BLUE
p37
sb.