ccopy_reg
_reconstructor
p0
(c__main__
ProductRecord
p1
c__builtin__
object
p2
Ntp3
Rp4
(dp5
S'product_url'
p6
S'http://www.walmart.com/ip/Acer-Spin-SP111-31-P5C9-11-6-Touchscreen-Laptop-Pentium-N4200-4GB-64GB-eMMC-W10/575376963'
p7
sS'price'
p8
S'N/A'
p9
sS'properties'
p10
(dp11
VRAM Memory
p12
V4 Gigabytes
p13
sVOperating System
p14
VWindows 10
p15
sVFeatures
p16
V11.6" N3710 4G 64GB W10
p17
sVBrand
p18
VAcer
p19
sVProcessor Speed
p20
V1.1 Gigahertz
p21
sVMaximum RAM Supported
p22
V8 Gigabytes
p23
sVHard Drive Capacity
p24
V64 Gigabytes
p25
sVBattery Life
p26
V9 Hours
p27
sVAssembled Product Dimensions (L x W x H)
p28
V15.00 x 10.00 x 3.00 Inches
p29
sVModel
p30
VNX.GMBAA.001
p31
sVScreen Size
p32
V11.60 Inches
p33
sVProcessor Type
p34
VIntel N4200
p35
sVmanufacturer_part_number
p36
Vsp111-31-p5c9
p37
ssS'title'
p38
VAcer Spin SP111-31-P5C9 11.6" Touchscreen Laptop Pentium N4200 4GB 64GB eMMC W10
p39
sb.