ccopy_reg
_reconstructor
p0
(c__main__
ProductRecord
p1
c__builtin__
object
p2
Ntp3
Rp4
(dp5
S'product_url'
p6
S'http://www.walmart.com/ip/Refurbished-Dell-XPS15-6845sLV-15-6-i7-4712HQ-2-3GHz-16GB-Memory-1TB-Drive-Window-8/48428140'
p7
sS'price'
p8
S'N/A'
p9
sS'properties'
p10
(dp11
VAssembled Product Dimensions (L x W x H)
p12
V21.00 x 13.50 x 3.50 Inches
p13
sVBrand
p14
VDell
p15
sVHard Drive Capacity
p16
V1000
p17
sVModel
p18
VVIPRB-XPS15-6845SLV
p19
sVScreen Size
p20
V15.6"
p21
sVProcessor Type
p22
VIntel Core i7
p23
sVCondition
p24
VRefurbished
p25
sVmanufacturer_part_number
p26
VXPS15-6845sLV
p27
ssS'title'
p28
VRefurbished Dell XPS15-6845sLV 15.6" i7-4712HQ 2.3GHz 16GB Memory 1TB Drive Window 8
p29
sb.