ccopy_reg
_reconstructor
p0
(c__main__
ProductRecord
p1
c__builtin__
object
p2
Ntp3
Rp4
(dp5
S'product_url'
p6
S'http://www.walmart.com/ip/HP-Pro-x2-612-G1-12-Core-i5-7Y54-8-GB-RAM-256-GB-SSD-US-with-HP-Pro-x2-612-Travel-Keyboard/525099175'
p7
sS'price'
p8
S'N/A'
p9
sS'properties'
p10
(dp11
VRAM Memory
p12
V8 Gigabytes
p13
sVOperating System
p14
VWindows 10
p15
sVFeatures
p16
V8GB 256GB 12IN BT W10P
p17
sVVideo Game Platform
p18
VPC
p19
sVBrand
p20
VHP
p21
sVProcessor Speed
p22
V1.2 Gigahertz
p23
sVManufacturer Part Number
p24
V1BT06UT#ABA
p25
sVHard Drive Capacity
p26
V256 Gigabytes
p27
sVBattery Life
p28
V11 Hours
p29
sVAssembled Product Dimensions (L x W x H)
p30
V5.00 x 5.00 x 5.00 Inches
p31
sVModel
p32
V1BT06UT#ABA
p33
sVScreen Size
p34
V12.00 Inches
p35
sVProcessor Type
p36
VIntel i5-7Y54
p37
sVCondition
p38
VNew
p39
ssS'title'
p40
VHP Pro x2 612 G1 - 12" - Core i5 7Y54 - 8 GB RAM - 256 GB SSD - US - with HP Pro x2 612 Travel Keyboard
p41
sb.