ccopy_reg
_reconstructor
p0
(c__main__
ProductRecord
p1
c__builtin__
object
p2
Ntp3
Rp4
(dp5
S'product_url'
p6
S'http://www.walmart.com/ip/Manufacturer-Refurbished-Asus-T102HA-D4-WH-10-1-Touch-Laptop-Intel-Atom-X5-Z8350-1-44GHz-4GB-128GB-W10/374202514'
p7
sS'price'
p8
S'N/A'
p9
sS'properties'
p10
(dp11
VBrand
p12
VASUS
p13
sVScreen Size
p14
V10.1
p15
sVModel
p16
VT102HA-D4-WH-RF
p17
sVManufacturer Part Number
p18
VT102HA-D4-WH-RF
p19
ssS'title'
p20
VManufacturer Refurbished - Asus T102HA-D4-WH 10.1" Touch Laptop Intel Atom X5-Z8350 1.44GHz 4GB 128GB W10
p21
sb.