ccopy_reg
_reconstructor
p0
(c__main__
ProductRecord
p1
c__builtin__
object
p2
Ntp3
Rp4
(dp5
S'product_url'
p6
S'http://www.walmart.com/ip/HP-x360-11-G1-EE-Celeron-4-GB-32-GB-Emmc-11-6-diagonal-HD-UWVA-touch-screen-Chromebook/857129170'
p7
sS'price'
p8
S'N/A'
p9
sS'properties'
p10
(dp11
VRAM Memory
p12
V4.00 GB
p13
sVOperating System
p14
VChrome OS
p15
sVColor Category
p16
VBlack
p17
sVLaptop Computer Type
p18
VTouchscreen
p19
sVBrand
p20
VHP
p21
sVManufacturer Part Number
p22
V2DQ88UT#ABA
p23
sVWireless Technology
p24
VBluetooth; 802.11ac
p25
sVHard Drive Capacity
p26
V32.00 GB
p27
sVProcessor Core Type
p28
VDual-core (2 Core)
p29
sVProcessor Type
p30
VIntel Celeron
p31
sVScreen Size
p32
V11.60 in
p33
sVModel
p34
V2DQ88UT
p35
sVCondition
p36
VNew
p37
sVManufacturer
p38
VHP INC.
p39
ssS'title'
p40
VHP x360 11 G1 EE Celeron 4 GB 32 GB Emmc 11.6" diagonal HD UWVA touch screen Chromebook
p41
sb.