ccopy_reg
_reconstructor
p0
(c__main__
ProductRecord
p1
c__builtin__
object
p2
Ntp3
Rp4
(dp5
S'product_url'
p6
S'http://www.walmart.com/ip/AVG-Ultimate-2018-Unlimited-1-Year/267802436'
p7
sS'price'
p8
S'N/A'
p9
sS'properties'
p10
(dp11
VOperating System
p12
VAndroid, iOS, Mac OS, Windows
p13
sVVideo Game Platform
p14
VMulti-Platform
p15
sVBrand
p16
VAVG
p17
sVManufacturer Part Number
p18
VGRI070800G329
p19
sVAssembled Product Dimensions (L x W x H)
p20
V5.25 x 0.25 x 7.50 Inches
p21
sVModel
p22
VAVG-ULT18T12EN-UNL
p23
sVCondition
p24
VNew
p25
ssS'title'
p26
VAVG Ultimate 2018, Unlimited, 1 Year
p27
sb.