ccopy_reg
_reconstructor
p0
(c__main__
ProductRecord
p1
c__builtin__
object
p2
Ntp3
Rp4
(dp5
S'product_url'
p6
S'http://www.walmart.com/ip/Dell-Latitude-3189-2-in-1-Notebook-PC-Intel-Celeron-N3350-1-1-Refurbished/978699917'
p7
sS'price'
p8
S'N/A'
p9
sS'properties'
p10
(dp11
VRAM Memory
p12
V4 GB
p13
sVOperating System
p14
VWindows 10
p15
sVBrand
p16
VDell
p17
sVProcessor Speed
p18
V1.1 GHz
p19
sVHard Drive Capacity
p20
V128 GB
p21
sVModel
p22
VRR1TG
p23
sVScreen Size
p24
V11.6 in
p25
sVProcessor Type
p26
VIntel Celeron
p27
ssS'title'
p28
VDell Latitude 3189 2-in-1 Notebook PC - Intel Celeron N3350 1.1 (Refurbished)
p29
sb.