ccopy_reg
_reconstructor
p0
(c__main__
ProductRecord
p1
c__builtin__
object
p2
Ntp3
Rp4
(dp5
S'product_url'
p6
S'http://www.walmart.com/ip/AIRBAR-FOR-13-3IN-PC-NOTEBOOKS-GET-TOUCHSCREEN-ON-YOUR-13-3IN-PC/760856650'
p7
sS'price'
p8
S'N/A'
p9
sS'properties'
p10
(dp11
VAssembled Product Dimensions (L x W x H)
p12
V17.00 x 3.00 x 1.00 Inches
p13
sVFeatures
p14
VGET TOUCHSCREEN ON YOUR 13.3IN PC
p15
sVVideo Game Platform
p16
VPC
p17
sVBrand
p18
VNeonode
p19
sVManufacturer Part Number
p20
VNNABC2950XU01
p21
sVModel
p22
VNNABC2950XU01
p23
sVCondition
p24
VNew
p25
ssS'title'
p26
VAIRBAR FOR 13.3IN PC NOTEBOOKS GET TOUCHSCREEN ON YOUR 13.3IN PC
p27
sb.