ccopy_reg
_reconstructor
p0
(c__main__
ProductRecord
p1
c__builtin__
object
p2
Ntp3
Rp4
(dp5
S'product_url'
p6
S'http://www.walmart.com/ip/TOPSELLER-N23-N3060-1-60G-4GB-32GB-11-6IN-HD-DISPLAY-CHROME/963591872'
p7
sS'price'
p8
S'N/A'
p9
sS'properties'
p10
(dp11
VRAM Memory
p12
V4.00 GB
p13
sVOperating System
p14
VChrome OS
p15
sVFeatures
p16
VN23, INTEL N3060, 11.6  HD IPS TOUCH DISPLAY, CHROME, 4 GB MEMORY, 32GB EMMC, WI
p17
sVVideo Game Platform
p18
VSee Description
p19
sVBrand
p20
VLenovo
p21
sVProcessor Speed
p22
V1.60 GHz
p23
sVManufacturer Part Number
p24
V80YS000BUS
p25
sVHard Drive Capacity
p26
V32.00 GB
p27
sVBattery Life
p28
V8.00 h
p29
sVAssembled Product Dimensions (L x W x H)
p30
V16.00 x 2.50 x 10.50 Inches
p31
sVModel
p32
V80YS000BUS
p33
sVScreen Size
p34
V11.60 in
p35
sVProcessor Type
p36
VCeleron N3060
p37
sVCondition
p38
VNew
p39
ssS'title'
p40
VTOPSELLER N23 N3060 1.60G 4GB 32GB 11.6IN HD DISPLAY CHROME
p41
sb.