ccopy_reg
_reconstructor
p0
(c__main__
ProductRecord
p1
c__builtin__
object
p2
Ntp3
Rp4
(dp5
S'product_url'
p6
S'http://www.walmart.com/ip/Refurbished-Asus-Q500A-BHI7T05-15-6-Touchscreen-Notebook-i5-3230M-2-6GHz-8GB-Ram-1TB-HDD/710278769'
p7
sS'price'
p8
S'N/A'
p9
sS'properties'
p10
(dp11
VOperating System
p12
VMicrosoft Windows
p13
sVBrand
p14
VHP
p15
sVRAM Memory
p16
V8 GB
p17
sVScreen Size
p18
V15.6
p19
sVHard Drive Capacity
p20
V1000
p21
ssS'title'
p22
VRefurbished Asus Q500A BHI7T05 15.6" Touchscreen Notebook i5 3230M 2.6GHz 8GB Ram 1TB HDD
p23
sb.