ccopy_reg
_reconstructor
p0
(c__main__
ProductRecord
p1
c__builtin__
object
p2
Ntp3
Rp4
(dp5
S'product_url'
p6
S'http://www.walmart.com/ip/Refurbished-Dell-Inspiron-i15RMT-5124sLV-15-6-Inch-Touchscreen-Laptop-1-6-GHz-Intel-Core-i5-4200U-Processor-6GB-DDR3L-500GB-HDD-Windows/113664658'
p7
sS'price'
p8
S'N/A'
p9
sS'properties'
p10
(dp11
VRAM Memory
p12
V6 GB
p13
sVOperating System
p14
VMicrosoft Windows
p15
sVLaptop Computer Type
p16
VTouchscreen
p17
sVBrand
p18
VDell
p19
sVHard Drive Capacity
p20
V500
p21
sVScreen Size
p22
V15.6
p23
ssS'title'
p24
VRefurbished Dell Inspiron i15RMT-5124sLV 15.6-Inch Touchscreen Laptop (1.6 GHz Intel Core i5-4200U Processor, 6GB DDR3L, 500GB HDD, Windows
p25
sb.