ccopy_reg
_reconstructor
p0
(c__main__
ProductRecord
p1
c__builtin__
object
p2
Ntp3
Rp4
(dp5
S'product_url'
p6
S'http://www.walmart.com/ip/PcProfessional-Screen-Protector-Set-of-2-for-Lenovo-Thinkpad-Edge-15-15-6-Touchscreen-Laptop-Anti-Glare-Anti-Scratch-filter-radiation/171907571'
p7
sS'price'
p8
S'N/A'
p9
sS'properties'
p10
(dp11
VBrand
p12
VPcProfessional
p13
sVScreen Size
p14
V15.6
p15
sVCondition
p16
VNew
p17
ssS'title'
p18
VPcProfessional Screen Protector (Set of 2) for Lenovo Thinkpad Edge 15 15.6" Touchscreen Laptop Anti Glare Anti Scratch filter radiation
p19
sb.