ccopy_reg
_reconstructor
p0
(c__main__
ProductRecord
p1
c__builtin__
object
p2
Ntp3
Rp4
(dp5
S'product_url'
p6
S'http://www.walmart.com/ip/HP-ZBook-15u-G3-Mobile-Workstation-15-6-Core-i7-6500U-16-GB-RAM-512-GB-SSD/50302881'
p7
sS'price'
p8
S'N/A'
p9
sS'properties'
p10
(dp11
VRAM Memory
p12
V16.00 GB
p13
sVOperating System
p14
VWindows 10 Pro (English)
p15
sVBrand
p16
VHP
p17
sVProcessor Speed
p18
V2.50 GHz
p19
sVManufacturer Part Number
p20
VV1H65UT#ABA
p21
sVMaximum RAM Supported
p22
V32 GB
p23
sVHard Drive Capacity
p24
V512.00 GB
p25
sVBattery Life
p26
V0 h
p27
sVAssembled Product Dimensions (L x W x H)
p28
V5.00 x 5.00 x 5.00 Inches
p29
sVModel
p30
VV1H65UT
p31
sVScreen Size
p32
V15.60 in
p33
sVProcessor Type
p34
VCore i7-i7-6500U
p35
sVCondition
p36
VNew
p37
ssS'title'
p38
VHP ZBook 15u G3 Mobile Workstation - 15.6" - Core i7 6500U - 16 GB RAM - 512 GB SSD
p39
sb.