ccopy_reg
_reconstructor
p0
(c__main__
ProductRecord
p1
c__builtin__
object
p2
Ntp3
Rp4
(dp5
S'product_url'
p6
S'http://www.walmart.com/ip/2017-Surface-Laptop-Bundle-4-Items-Surface-Laptop-Burgundy-Core-i5-8GB-256GB-SSD-Surface-Pen-Burgundy-Mini-DisplayPort-Adaptor-and-HDMI-Cable/486628292'
p7
sS'price'
p8
S'N/A'
p9
sS'properties'
p10
(dp11
VRAM Memory
p12
V8 GB
p13
sVOperating System
p14
VWindows 10 S
p15
sVBrand
p16
VMicrosoft
p17
sVManufacturer Part Number
p18
VDAG-00005_burpen
p19
sVMaximum RAM Supported
p20
V8 GB
p21
sVHard Drive Capacity
p22
V256 GB
p23
sVBattery Life
p24
V14.5 h
p25
sVProcessor Type
p26
VIntel Core i5 7th Gen
p27
sVScreen Size
p28
V13.5 in
p29
sVCondition
p30
VNew
p31
ssS'title'
p32
V2017 Surface Laptop Bundle (4 Items): Surface Laptop Burgundy Core i5 8GB 256GB SSD, Surface Pen Burgundy, Mini DisplayPort Adaptor, and HDMI Cable
p33
sb.