ccopy_reg
_reconstructor
p0
(c__main__
ProductRecord
p1
c__builtin__
object
p2
Ntp3
Rp4
(dp5
S'product_url'
p6
S'http://www.walmart.com/ip/HP-ProBook-440-G4-14-Core-i5-7200U-4-GB-RAM-500-GB-HDD/144679023'
p7
sS'price'
p8
S'N/A'
p9
sS'properties'
p10
(dp11
VRAM Memory
p12
V4 Gigabytes
p13
sVOperating System
p14
VWindows 10 Pro (English)
p15
sVVideo Game Platform
p16
VPC
p17
sVBrand
p18
VHP
p19
sVProcessor Speed
p20
V2.5 Gigahertz
p21
sVManufacturer Part Number
p22
VZ1Z82UT#ABA
p23
sVHard Drive Capacity
p24
V500 Gigabytes
p25
sVAssembled Product Dimensions (L x W x H)
p26
V5.00 x 5.00 x 5.00 Inches
p27
sVModel
p28
VZ1Z82UT#ABA
p29
sVScreen Size
p30
V14.00 in
p31
sVProcessor Type
p32
VIntel i5-7200U
p33
sVCondition
p34
VNew
p35
ssS'title'
p36
VHP ProBook 440 G4 - 14" - Core i5 7200U - 4 GB RAM - 500 GB HDD
p37
sb.