ccopy_reg
_reconstructor
p0
(c__main__
ProductRecord
p1
c__builtin__
object
p2
Ntp3
Rp4
(dp5
S'product_url'
p6
S'http://www.walmart.com/ip/Acer-W700-6499-128GB-Intel-Core-i5-3337U-X2-1-8GHz-11-6-Silver-Refurbished/847226168'
p7
sS'price'
p8
S'N/A'
p9
sS'properties'
p10
(dp11
VRAM Memory
p12
V4 Gigabytes
p13
sVOperating System
p14
VWindows 10
p15
sVFeatures
p16
V1080p Video recording, Built-in speakers, Front camera, Rear camera, Touch screen, Accelerometer, 7.52" x 11.61" x 0.47" (HxWxD);2.1lbs, Energy Star Compliant, Lithium-Polymer Battery; 9HRS Battery Life, 128GB (128GB Capacity) Storage, 4GB Memory, Intel Core i5-3337U Processor (Dual-Core, 1.8GHz), 802.11ABGN and Bluetooth 4.0 + HS, 11.6-inch1920 x 1080LED Display, Intel HD Graphics 4000, Windows 10 Pro Operating System
p17
sVBrand
p18
VAcer
p19
sVManufacturer Part Number
p20
VW700-6499-PB-RCB-RFB
p21
sVHard Drive Capacity
p22
V128 Gigabytes
p23
sVBattery Life
p24
V9 Hours
p25
sVAssembled Product Dimensions (L x W x H)
p26
V11.60 x 0.50 x 7.50 Inches
p27
sVProcessor Type
p28
VIntel Core i5
p29
sVScreen Size
p30
V11.6 Inches
p31
sVProcessor Speed
p32
V1.8 Gigahertz
p33
ssS'title'
p34
VAcer W700-6499 128GB Intel Core i5-3337U X2 1.8GHz 11.6",Silver (Refurbished)
p35
sb.