ccopy_reg
_reconstructor
p0
(c__main__
ProductRecord
p1
c__builtin__
object
p2
Ntp3
Rp4
(dp5
S'product_url'
p6
S'http://www.walmart.com/ip/HP-ProBook-x360-11-G1-Education-Edition-11-6-Pentium-N4200-8-GB-RAM-256-GB-SSD/354883595'
p7
sS'price'
p8
S'N/A'
p9
sS'properties'
p10
(dp11
VRAM Memory
p12
V8 Gigabytes
p13
sVOperating System
p14
VWindows 10
p15
sVFeatures
p16
V8GB 256GB 11.6IN BT W10P 64BIT
p17
sVVideo Game Platform
p18
VPC
p19
sVBrand
p20
VHP
p21
sVProcessor Speed
p22
V1.1 Gigahertz
p23
sVManufacturer Part Number
p24
V1FY93UT#ABA
p25
sVHard Drive Capacity
p26
V256 Gigabytes
p27
sVBattery Life
p28
V11 Hours
p29
sVAssembled Product Dimensions (L x W x H)
p30
V17.10 x 10.10 x 3.10 Inches
p31
sVModel
p32
V1FY93UT#ABA
p33
sVScreen Size
p34
V11.60 Inches
p35
sVProcessor Type
p36
VIntel N4200
p37
sVCondition
p38
VNew
p39
ssS'title'
p40
VHP ProBook x360 11 G1 - Education Edition - 11.6" - Pentium N4200 - 8 GB RAM - 256 GB SSD
p41
sb.