ccopy_reg
_reconstructor
p0
(c__main__
ProductRecord
p1
c__builtin__
object
p2
Ntp3
Rp4
(dp5
S'product_url'
p6
S'http://www.walmart.com/ip/Panasonic-Toughbook-31-Premium-Public-Sector-Service-Package-13-1-Core-i5-5300U-8-GB-RAM-256-GB-SSD/146432407'
p7
sS'price'
p8
S'N/A'
p9
sS'properties'
p10
(dp11
VRAM Memory
p12
V8 GB
p13
sVOperating System
p14
VMicrosoft Windows, Windows 10
p15
sVFeatures
p16
VPanasonic Toughbook 31Power adapter, Unrivaled ruggedness including 6' drop rating, MIL-STD-810G and IP65 certificationBrilliant 1100 nit sunlight-viewable touchscreen
p17
sVVideo Game Platform
p18
VPC
p19
sVBrand
p20
VPanasonic
p21
sVProcessor Speed
p22
V2.30 GHz
p23
sVManufacturer Part Number
p24
VCF-3113-01VM
p25
sVHard Drive Capacity
p26
V256 GB
p27
sVBattery Life
p28
V18 Hour
p29
sVAssembled Product Dimensions (L x W x H)
p30
V5.00 x 5.00 x 5.00 Inches
p31
sVModel
p32
VToughbook CF-3113-01VM Notebook
p33
sVScreen Size
p34
V13.10 in
p35
sVProcessor Type
p36
VIntel Core i5
p37
sVCondition
p38
VNew
p39
ssS'title'
p40
VPanasonic Toughbook 31 Premium Public Sector Service Package - 13.1" - Core i5 5300U - 8 GB RAM - 256 GB SSD
p41
sb.