ccopy_reg
_reconstructor
p0
(c__main__
ProductRecord
p1
c__builtin__
object
p2
Ntp3
Rp4
(dp5
S'product_url'
p6
S'http://www.walmart.com/ip/Dell-Latitude-7480-14-Core-i5-7300U-8-GB-RAM-256-GB-SSD/713232637'
p7
sS'price'
p8
S'N/A'
p9
sS'properties'
p10
(dp11
VRAM Memory
p12
V8 Gigabytes
p13
sVOperating System
p14
VWindows 10 Pro (English/French/Spanish)
p15
sVFeatures
p16
VI5-7300U VPRO 8GB 256GBSSD W10P 3YR
p17
sVVideo Game Platform
p18
VSee Description
p19
sVBrand
p20
VDell
p21
sVProcessor Speed
p22
V2.6 Gigahertz
p23
sVManufacturer Part Number
p24
V4HCNK
p25
sVHard Drive Capacity
p26
V256 Gigabytes
p27
sVBattery Life
p28
V0 h
p29
sVAssembled Product Dimensions (L x W x H)
p30
V5.00 x 5.00 x 5.00 Inches
p31
sVModel
p32
VLATI74804HCNK
p33
sVScreen Size
p34
V14.00 Inches
p35
sVProcessor Type
p36
VIntel i5-7300U
p37
sVCondition
p38
VNew
p39
ssS'title'
p40
VDell Latitude 7480 - 14" - Core i5 7300U - 8 GB RAM - 256 GB SSD
p41
sb.