ccopy_reg
_reconstructor
p0
(c__main__
ProductRecord
p1
c__builtin__
object
p2
Ntp3
Rp4
(dp5
S'product_url'
p6
S'http://www.walmart.com/ip/Chromebook-Flip-C302CA-Core-M3-6Y30-8-GB-64-GB-eMMC-12-5-Touchscreen-Chrome-OS-Notebook/884616989'
p7
sS'price'
p8
S'N/A'
p9
sS'properties'
p10
(dp11
VRAM Memory
p12
V8.00 GB
p13
sVOperating System
p14
VChrome OS
p15
sVBrand
p16
VASUS
p17
sVProcessor Speed
p18
V0.90 GHz
p19
sVManufacturer Part Number
p20
V90NB0DF1-M01670
p21
sVHard Drive Capacity
p22
V64.00 GB
p23
sVBattery Life
p24
V10 Hours
p25
sVAssembled Product Dimensions (L x W x H)
p26
V17.10 x 10.10 x 2.40 Inches
p27
sVModel
p28
VC302CADHM3G
p29
sVScreen Size
p30
V12.50 in
p31
sVProcessor Type
p32
VCore-m3
p33
ssS'title'
p34
VChromebook-Flip-C302CA Core M3-6Y30 8 GB 64 GB eMMC 12.5 Touchscreen Chrome OS Notebook
p35
sb.