ccopy_reg
_reconstructor
p0
(c__main__
ProductRecord
p1
c__builtin__
object
p2
Ntp3
Rp4
(dp5
S'product_url'
p6
S'http://www.walmart.com/ip/HP-15-bw032nr-15-6-Laptop-Windows-10-AMD-A12-9720-Quad-Core-Processor-8GB-Memory-1TB-HDD-Smoke-Gray-Refurbished/369301272'
p7
sS'price'
p8
S'N/A'
p9
sS'properties'
p10
(dp11
VRAM Memory
p12
V8 GB
p13
sVOperating System
p14
VMicrosoft Windows, @generated
p15
sVFeatures
p16
VNo features description available
p17
sVBrand
p18
VHP
p19
sVManufacturer Part Number
p20
V15-bw032wm
p21
sVHard Drive Capacity
p22
V1000 KB
p23
sVModel
p24
V15-bw032WM
p25
sVScreen Size
p26
V15.6 in
p27
ssS'title'
p28
VHP 15-bw032nr 15.6" Laptop, Windows 10, AMD A12-9720 Quad Core Processor, 8GB Memory, 1TB HDD, Smoke Gray (Refurbished)
p29
sb.