ccopy_reg
_reconstructor
p0
(c__main__
ProductRecord
p1
c__builtin__
object
p2
Ntp3
Rp4
(dp5
S'product_url'
p6
S'http://www.walmart.com/ip/Dell-Inspiron-15-5567-Notebook-with-Intel-i3-7100U-8GB-1TB-HDD/294365836'
p7
sS'price'
p8
S'N/A'
p9
sS'properties'
p10
(dp11
VRAM Memory
p12
V8.00 GB
p13
sVOperating System
p14
VWindows 10
p15
sVBrand
p16
VDell
p17
sVProcessor Speed
p18
V2.40 GHz
p19
sVManufacturer Part Number
p20
Vi5567-3000GRY
p21
sVHard Drive Capacity
p22
V1.00 TB
p23
sVAssembled Product Dimensions (L x W x H)
p24
V12.00 x 12.00 x 12.00 Inches
p25
sVModel
p26
Vi5567-3000GRY
p27
sVScreen Size
p28
V15.60 in
p29
sVProcessor Type
p30
VIntel Core i3
p31
sVCondition
p32
VNew
p33
ssS'title'
p34
VDell Inspiron 15-5567 Notebook with Intel i3-7100U, 8GB 1TB HDD
p35
sb.