ccopy_reg
_reconstructor
p0
(c__main__
ProductRecord
p1
c__builtin__
object
p2
Ntp3
Rp4
(dp5
S'product_url'
p6
S'http://www.walmart.com/ip/Acer-Chromebook-R11-C738T-NX-G55AA-011-Chromebook-PC-Intel-Refurbished/689351152'
p7
sS'price'
p8
S'N/A'
p9
sS'properties'
p10
(dp11
VRAM Memory
p12
V0 GB
p13
sVOperating System
p14
VChrome OS
p15
sVBrand
p16
VAcer
p17
sVHard Drive Capacity
p18
V0 GB
p19
sVModel
p20
VNX.G55AA.011
p21
sVScreen Size
p22
V0 in
p23
sVProcessor Speed
p24
V0 GHz
p25
ssS'title'
p26
VAcer Chromebook R11 C738T NX.G55AA.011 Chromebook PC - Intel (Refurbished)
p27
sb.