ccopy_reg
_reconstructor
p0
(c__main__
ProductRecord
p1
c__builtin__
object
p2
Ntp3
Rp4
(dp5
S'product_url'
p6
S'http://www.walmart.com/ip/Lenovo-Gold-12-Ideapad-Miix-700-Convertible-Laptop-PC-Intel-Core-m3-6Y30-Processor-4GB-Memory-touch-screen-64GB-Solid-State-Drive-Windows-10/49039479'
p7
sS'price'
p8
S'N/A'
p9
sS'properties'
p10
(dp11
VRAM Memory
p12
V4 GB
p13
sVOperating System
p14
VWindows 10
p15
sVColor Category
p16
VGold
p17
sVVideo Game Platform
p18
VPC
p19
sVBrand
p20
VLenovo
p21
sVManufacturer Part Number
p22
V80QL0004US
p23
sVWireless Technology
p24
VIEEE 802.11ac
p25
sVHard Drive Capacity
p26
V64 GB
p27
sVLaptop Computer Type
p28
Vtablet
p29
sVProcessor Core Type
p30
VDual-Core
p31
sVProcessor Type
p32
VIntel Core M3-6Y30 Processor
p33
sVScreen Size
p34
V12.0"
p35
sVModel
p36
V80QL0004US
p37
sVManufacturer
p38
VLenovo Idea
p39
ssS'title'
p40
VLenovo Gold 12" Ideapad Miix 700 Convertible Laptop PC with Intel Core m3-6Y30 Processor, 4GB Memory, touch screen, 64GB Solid State Drive and Windows 10
p41
sb.