ccopy_reg
_reconstructor
p0
(c__main__
ProductRecord
p1
c__builtin__
object
p2
Ntp3
Rp4
(dp5
S'product_url'
p6
S'http://www.walmart.com/ip/Refurbished-Dell-Inspiron-i15RV-6143BLK-15-6-Touchscreen-Laptop-4GB-500GB-Windows-8-Black-Matte-with-Textured-Finish/296391593'
p7
sS'price'
p8
S'N/A'
p9
sS'properties'
p10
(dp11
VBrand
p12
VInspiron
p13
sVRAM Memory
p14
V4 GB
p15
sVOperating System
p16
VMicrosoft Windows
p17
sVHard Drive Capacity
p18
V500 GB
p19
ssS'title'
p20
VRefurbished Dell Inspiron i15RV-6143BLK 15.6 Touchscreen Laptop 4GB 500GB Windows 8) Black Matte with Textured Finish
p21
sb.