ccopy_reg
_reconstructor
p0
(c__main__
ProductRecord
p1
c__builtin__
object
p2
Ntp3
Rp4
(dp5
S'product_url'
p6
S'http://www.walmart.com/ip/Microsoft-Surface-Book-2-13-Intel-Core-i5-8GB-RAM-256GB-HD/815784279'
p7
sS'price'
p8
S'N/A'
p9
sS'properties'
p10
(dp11
VRAM Memory
p12
V8 Gigabytes
p13
sVOperating System
p14
VUnknown
p15
sVFeatures
p16
VMicrosoft Book2 13in i5/8/256 Comm SC English 13" US/Canada 1 License
p17
sVBrand
p18
VMicrosoft
p19
sVProcessor Speed
p20
V2.6 Gigahertz
p21
sVHard Drive Capacity
p22
V256 Gigabytes
p23
sVBattery Life
p24
V17 Hours
p25
sVAssembled Product Dimensions (L x W x H)
p26
V18.00 x 11.00 x 3.00 Inches
p27
sVModel
p28
VHMX-00001
p29
sVScreen Size
p30
V13.50 Inches
p31
sVProcessor Type
p32
VIntel i5-7300U
p33
sVCondition
p34
VNew
p35
ssS'title'
p36
VMicrosoft Surface Book 2 13" (Intel Core i5, 8GB RAM, 256GB HD)
p37
sb.