ccopy_reg
_reconstructor
p0
(c__main__
ProductRecord
p1
c__builtin__
object
p2
Ntp3
Rp4
(dp5
S'product_url'
p6
S'http://www.walmart.com/ip/REFURBISHED-Alienware-13-Gaming-Laptop-13-3-QHD-Touchscreen-Intel-i7-6500U-Skylake-16GB-RAM-512GB-SSD-NVIDIA-GeForce-GTX-960M-Windows-10-Silver/220466623'
p7
sS'price'
p8
S'N/A'
p9
sS'properties'
p10
(dp11
VOperating System
p12
VMicrosoft Windows
p13
sVBrand
p14
VDell
p15
sVRAM Memory
p16
V16 GB
p17
sVScreen Size
p18
V13.3
p19
ssS'title'
p20
VREFURBISHED Alienware 13 Gaming Laptop - 13.3" QHD+ Touchscreen, Intel i7-6500U (Skylake), 16GB RAM, 512GB SSD, NVIDIA GeForce GTX 960M, Windows 10 - Silver
p21
sb.