ccopy_reg
_reconstructor
p0
(c__main__
ProductRecord
p1
c__builtin__
object
p2
Ntp3
Rp4
(dp5
S'product_url'
p6
S'http://www.walmart.com/ip/Manufacturer-Refurbished-Razer-RZ09-01964E31-MSU1-13-3-Touch-Laptop-i7-7500U-2-7GHz-16GB-256GB-W10/223761527'
p7
sS'price'
p8
S'N/A'
p9
sS'properties'
p10
(dp11
VRAM Memory
p12
V16 GB
p13
sVOperating System
p14
VMicrosoft Windows
p15
sVBrand
p16
VRazer
p17
sVManufacturer Part Number
p18
VRZ09-01964E31-MSU1-RF
p19
sVHard Drive Capacity
p20
V256 GB
p21
sVModel
p22
VRZ09-01964E31-MSU1-RF
p23
sVScreen Size
p24
V13.3\u005c"
p25
ssS'title'
p26
VManufacturer Refurbished - Razer RZ09-01964E31-MSU1 13.3" Touch Laptop i7-7500U 2.7GHz 16GB 256GB W10
p27
sb.