ccopy_reg
_reconstructor
p0
(c__main__
ProductRecord
p1
c__builtin__
object
p2
Ntp3
Rp4
(dp5
S'product_url'
p6
S'http://www.walmart.com/ip/HP-x360-11-ae044cl-Celeron-N3350-Touchscreen-Chromebook-Certified-Refurbished/723541743'
p7
sS'price'
p8
S'N/A'
p9
sS'properties'
p10
(dp11
VAssembled Product Dimensions (L x W x H)
p12
V16.40 x 10.50 x 2.80 Inches
p13
sVBrand
p14
VHP
p15
sVManufacturer Part Number
p16
V2MW54UAR#ABA
p17
sVOperating System
p18
VChrome OS
p19
sVModel
p20
V2MW54UAR#ABA
p21
sVCondition
p22
VRefurbished
p23
ssS'title'
p24
VHP x360 11-ae044cl Celeron N3350 Touchscreen Chromebook (Certified Refurbished)
p25
sb.