ccopy_reg
_reconstructor
p0
(c__main__
ProductRecord
p1
c__builtin__
object
p2
Ntp3
Rp4
(dp5
S'product_url'
p6
S'http://www.walmart.com/ip/2018-HP-15-6-HD-Touchscreen-Laptop-Intel-Dual-Core-i5-7200U-Processor-3-1GHz-8GB-DDR4-RAM-1TB-HDD-HDMI-HD-Graphics-620-DTS-Studio-Sound-DVD-Burner-Wi/598354489'
p7
sS'price'
p8
S'N/A'
p9
sS'properties'
p10
(dp11
VRAM Memory
p12
V8.00 GB
p13
sVOperating System
p14
VWindows 10
p15
sVBrand
p16
VHP
p17
sVHard Drive Capacity
p18
V1.00 TB
p19
sVProcessor Type
p20
VIntel Core i5
p21
sVScreen Size
p22
V15.6\u005c"
p23
sVProcessor Speed
p24
V2.50 GHz
p25
sVmanufacturer_part_number
p26
V2018
p27
ssS'title'
p28
V2018 HP 15.6'' HD Touchscreen Laptop, Intel Dual Core i5-7200U Processor up to 3.1GHz, 8GB DDR4 RAM, 1TB HDD, HDMI, HD Graphics 620, DTS Studio Sound, DVD Burner, Windows 10
p29
sb.