ccopy_reg
_reconstructor
p0
(c__main__
ProductRecord
p1
c__builtin__
object
p2
Ntp3
Rp4
(dp5
S'product_url'
p6
S'http://www.walmart.com/ip/HP-EliteBook-x360-1030-G2-13-3-Core-i7-7600U-16-GB-RAM-512-GB-SSD-US/623221985'
p7
sS'price'
p8
S'N/A'
p9
sS'properties'
p10
(dp11
VRAM Memory
p12
V16 Gigabytes
p13
sVOperating System
p14
VWindows 10
p15
sVFeatures
p16
V16GB 512GB BT 13.3IN W10P 64BIT
p17
sVVideo Game Platform
p18
VPC
p19
sVBrand
p20
VHP
p21
sVProcessor Speed
p22
V2.8 Gigahertz
p23
sVManufacturer Part Number
p24
V1NM41UT#ABA
p25
sVHard Drive Capacity
p26
V512 Gigabytes
p27
sVBattery Life
p28
V16 Hours
p29
sVAssembled Product Dimensions (L x W x H)
p30
V5.00 x 5.00 x 5.00 Inches
p31
sVModel
p32
V1NM41UT#ABA
p33
sVScreen Size
p34
V13.30 Inches
p35
sVProcessor Type
p36
VIntel i7-7600U
p37
sVCondition
p38
VNew
p39
ssS'title'
p40
VHP EliteBook x360 1030 G2 - 13.3" - Core i7 7600U - 16 GB RAM - 512 GB SSD - US
p41
sb.