ccopy_reg
_reconstructor
p0
(c__main__
ProductRecord
p1
c__builtin__
object
p2
Ntp3
Rp4
(dp5
S'product_url'
p6
S'http://www.walmart.com/ip/Dell-Latitude-E7240-Touch-HD-12-5-Intel-Core-i5-4300U-1-9Ghz-2-9GHz-8GB-RAM-128GB-SSD-Webcam-Backlit-Keyboard-Windows-7-Professional-Touchscreen-Lapt/114186701'
p7
sS'price'
p8
S'N/A'
p9
sS'properties'
p10
(dp11
sS'title'
p12
VDell Latitude E7240 Touch HD 12.5" Intel Core i5 4300U (1.9Ghz-2.9GHz) 8GB RAM 128GB SSD Webcam Backlit Keyboard Windows 7 Professional Touchscreen Laptop (Refurbished)
p13
sb.