ccopy_reg
_reconstructor
p0
(c__main__
ProductRecord
p1
c__builtin__
object
p2
Ntp3
Rp4
(dp5
S'product_url'
p6
S'http://www.walmart.com/ip/HIDevolution-Razer-Blade-Pro-Mid-2017-17-3-4K-UHD-Touch-i7-7820HK-GTX-1080-2TB-SSD/720536237'
p7
sS'price'
p8
S'N/A'
p9
sS'properties'
p10
(dp11
VOperating System
p12
VWindows 10 Home 64 bit
p13
sVBrand
p14
VRazer
p15
sVAssembled Product Dimensions (L x W x H)
p16
V16.70 x 11.00 x 0.88 Inches
p17
sVProcessor Type
p18
Vi7-7820HK
p19
sVScreen Size
p20
V17.3 Inches
p21
sVProcessor Speed
p22
V2.9 Gigahertz
p23
sVCondition
p24
VNew
p25
ssS'title'
p26
VHIDevolution Razer Blade Pro (Mid 2017) - 17.3" 4K UHD Touch - i7-7820HK - GTX 1080 - 2TB SSD
p27
sb.