ccopy_reg
_reconstructor
p0
(c__main__
ProductRecord
p1
c__builtin__
object
p2
Ntp3
Rp4
(dp5
S'product_url'
p6
S'http://www.walmart.com/ip/Dell-Re-certified-Chromebook-13-3380-13-3-HD-TOUCHSCREEN-Laptop-Intel-i3-6006u-4GB-32GB-Webcam-Chrome-OS-4-CELL-Battery/606041993'
p7
sS'price'
p8
S'N/A'
p9
sS'properties'
p10
(dp11
VRAM Memory
p12
V4.00 GB
p13
sVOperating System
p14
VChrome OS
p15
sVBrand
p16
VDell Laptop
p17
sVHard Drive Capacity
p18
V32 GB
p19
sVProcessor Type
p20
VIntel Core i3, intel core i3-6006u
p21
sVScreen Size
p22
V13.3 in
p23
sVProcessor Speed
p24
V2 GHz
p25
sVCondition
p26
VNew
p27
ssS'title'
p28
VDell Re-certified Chromebook 13-3380,13.3" HD TOUCHSCREEN Laptop, Intel i3-6006u , 4GB, 32GB , Webcam, Chrome OS, 4 CELL Battery
p29
sb.