ccopy_reg
_reconstructor
p0
(c__main__
ProductRecord
p1
c__builtin__
object
p2
Ntp3
Rp4
(dp5
S'product_url'
p6
S'http://www.walmart.com/ip/Manufacturer-Refurbished-Lenovo-N23-11-6-Touch-Laptop-Intel-Celeron-N3060-1-60GHz-4GB-16GB-eMMC-W10-Pro/241178474'
p7
sS'price'
p8
S'N/A'
p9
sS'properties'
p10
(dp11
VOperating System
p12
VMicrosoft Windows
p13
sVBrand
p14
VLenovo
p15
sVScreen Size
p16
V11.6\u005c"
p17
sVModel
p18
VN23-RF
p19
sVManufacturer Part Number
p20
VN23-RF
p21
ssS'title'
p22
VManufacturer Refurbished - Lenovo N23 11.6" Touch Laptop Intel Celeron N3060 1.60GHz 4GB 16GB eMMC W10 Pro
p23
sb.