ccopy_reg
_reconstructor
p0
(c__main__
ProductRecord
p1
c__builtin__
object
p2
Ntp3
Rp4
(dp5
S'product_url'
p6
S'http://www.walmart.com/ip/Manufacturer-Refurbished-Asus-Q504UA-BBI5T12-15-6-Touch-Laptop-Intel-Core-i5-6200U-2-3GHz-12GB-1TB-W10/417766828'
p7
sS'price'
p8
S'N/A'
p9
sS'properties'
p10
(dp11
VRAM Memory
p12
V12 GB
p13
sVOperating System
p14
VMicrosoft Windows
p15
sVBrand
p16
VASUS
p17
sVManufacturer Part Number
p18
VQ504UA-BBI5T12-RF
p19
sVHard Drive Capacity
p20
V1000 GB
p21
sVModel
p22
VQ504UA-BBI5T12-RF
p23
sVScreen Size
p24
V15.6\u005c"
p25
ssS'title'
p26
VManufacturer Refurbished - Asus Q504UA-BBI5T12 15.6" Touch Laptop Intel Core i5-6200U 2.3GHz 12GB 1TB W10
p27
sb.