ccopy_reg
_reconstructor
p0
(c__main__
ProductRecord
p1
c__builtin__
object
p2
Ntp3
Rp4
(dp5
S'product_url'
p6
S'http://www.walmart.com/ip/Asus-ZenBook-Flip-14-14-FHD-Touchscreen-Laptop-i5-8250U-8GB-256GB-SSD-Win10/765325071'
p7
sS'price'
p8
S'N/A'
p9
sS'properties'
p10
(dp11
VRAM Memory
p12
V8 Gigabytes
p13
sVOperating System
p14
VWindows 10
p15
sVBrand
p16
VASUS
p17
sVProcessor Speed
p18
V1.6 Gigahertz
p19
sVManufacturer Part Number
p20
VUX461UADS51T
p21
sVHard Drive Capacity
p22
V256 Gigabytes
p23
sVAssembled Product Dimensions (L x W x H)
p24
V19.00 x 12.00 x 4.00 Inches
p25
sVModel
p26
VUX461UADS51T
p27
sVScreen Size
p28
V14.00 Inches
p29
sVProcessor Type
p30
VIntel i5-8250U
p31
sVCondition
p32
VNew
p33
ssS'title'
p34
VAsus ZenBook Flip 14 14" FHD Touchscreen Laptop i5-8250U 8GB 256GB SSD Win10
p35
sb.