ccopy_reg
_reconstructor
p0
(c__main__
ProductRecord
p1
c__builtin__
object
p2
Ntp3
Rp4
(dp5
S'product_url'
p6
S'http://www.walmart.com/ip/Acer-NX-G7WAA-014-R5-471T-71LX-Intel-Core-i7-6500U-8GB-RAM-Laptop-Certified-Refurbished/505289598'
p7
sS'price'
p8
S'N/A'
p9
sS'properties'
p10
(dp11
VBrand
p12
VAcer
p13
sVRAM Memory
p14
V8 GB
p15
sVOperating System
p16
VMicrosoft Windows
p17
sVManufacturer Part Number
p18
VCRTARR5471T71LXRB
p19
sVCondition
p20
VRefurbished
p21
ssS'title'
p22
VAcer NX.G7WAA.014 R5-471T-71LX Intel Core i7-6500U 8GB RAM Laptop - (Certified Refurbished)
p23
sb.