ccopy_reg
_reconstructor
p0
(c__main__
ProductRecord
p1
c__builtin__
object
p2
Ntp3
Rp4
(dp5
S'product_url'
p6
S'http://www.walmart.com/ip/Dell-XPS-13-9360-13-3-Touchscreen-Notebook-w-Intel-i7-16GB-RAM-512GB-SSD/653592372'
p7
sS'price'
p8
S'N/A'
p9
sS'properties'
p10
(dp11
VRAM Memory
p12
V16 Gigabytes
p13
sVOperating System
p14
VWindows 10
p15
sVColor Category
p16
VSilver
p17
sVLaptop Computer Type
p18
VTouchscreen
p19
sVBrand
p20
VDell
p21
sVManufacturer Part Number
p22
VXPS9360-7336SLV
p23
sVHard Drive Capacity
p24
V512
p25
sVProcessor Core Type
p26
VDual-core (2 Core)
p27
sVProcessor Type
p28
VIntel Core i7
p29
sVScreen Size
p30
V13.3 Inches
p31
sVModel
p32
VXPS9360-7336SLV
p33
sVCondition
p34
VNew
p35
sVManufacturer
p36
VDell Consumer
p37
ssS'title'
p38
VDell XPS 13-9360 13.3" Touchscreen Notebook w/ Intel i7, 16GB RAM & 512GB SSD
p39
sb.