ccopy_reg
_reconstructor
p0
(c__main__
ProductRecord
p1
c__builtin__
object
p2
Ntp3
Rp4
(dp5
S'product_url'
p6
S'http://www.walmart.com/ip/Refurbished-Dell-Inspiron-11-3000-Series-I3168-290TRJ2-Notebook-PC-Intel-Pentium-N3710-1-6-GHz-Quad-Core-Processor-4-GB-DDR3L-SDRAM-500-GB-Hard-Drive/504637776'
p7
sS'price'
p8
S'N/A'
p9
sS'properties'
p10
(dp11
sS'title'
p12
VRefurbished Dell Inspiron 11 3000 Series I3168-290TRJ2 Notebook PC - Intel Pentium N3710 1.6 GHz Quad-Core Processor - 4 GB DDR3L SDRAM - 500 GB Hard Drive - 11.6-inch Touchscreen Display - Windows
p13
sb.