ccopy_reg
_reconstructor
p0
(c__main__
ProductRecord
p1
c__builtin__
object
p2
Ntp3
Rp4
(dp5
S'product_url'
p6
S'http://www.walmart.com/ip/Manufacturer-Refurbished-HP-15-F269NR-15-6-Touch-Notebook-Intel-i3-4005U-1-7GHz-6GB-1TB-Windows-10-Home/161229197'
p7
sS'price'
p8
S'N/A'
p9
sS'properties'
p10
(dp11
VBrand
p12
VHP
p13
sVModel
p14
V15-F269NR-RF
p15
sVManufacturer Part Number
p16
V15-F269NR-RF
p17
ssS'title'
p18
VManufacturer Refurbished - HP 15-F269NR 15.6" Touch Notebook Intel i3-4005U 1.7GHz 6GB 1TB Windows 10 Home
p19
sb.