ccopy_reg
_reconstructor
p0
(c__main__
ProductRecord
p1
c__builtin__
object
p2
Ntp3
Rp4
(dp5
S'product_url'
p6
S'http://www.walmart.com/ip/Refurbished-Dell-Inspiron-7000-High-Performance-Flagship-Laptop-13-3-FHD-Touchscreen-Intel-Core-i7-8GB-256GB-SSD-Backlit-Keyboard-Bluetooth-Windows-1/441389126'
p7
sS'price'
p8
S'N/A'
p9
sS'properties'
p10
(dp11
VOperating System
p12
VMicrosoft Windows
p13
sVBrand
p14
VDell
p15
sVRAM Memory
p16
V8 GB
p17
sVScreen Size
p18
V13.3\u005c"
p19
sVHard Drive Capacity
p20
V256 GB
p21
ssS'title'
p22
VRefurbished Dell Inspiron 7000 High Performance Flagship Laptop with 13.3" FHD Touchscreen, Intel Core i7, 8GB, 256GB SSD Backlit Keyboard, Bluetooth, Windows 10, Gray
p23
sb.