ccopy_reg
_reconstructor
p0
(c__main__
ProductRecord
p1
c__builtin__
object
p2
Ntp3
Rp4
(dp5
S'product_url'
p6
S'http://www.walmart.com/ip/Used-Like-New-Microsoft-Surface-Book-2-Intel-Core-i7-16GB-RAM-512GB-15/735533402'
p7
sS'price'
p8
S'N/A'
p9
sS'properties'
p10
(dp11
VAssembled Product Dimensions (L x W x H)
p12
V13.50 x 9.87 x 0.90 Inches
p13
sVBrand
p14
VMicrosoft
p15
sVRAM Memory
p16
V16 GB
p17
sVOperating System
p18
VMicrosoft Windows
p19
sVManufacturer Part Number
p20
VFUX-00001
p21
ssS'title'
p22
VUsed Like New Microsoft Surface Book 2 (Intel Core i7, 16GB RAM, 512GB) - 15"
p23
sb.